LX51 LINKER/LOCATER V4.66.93.0                                                          04/24/2025  12:33:12  PAGE 1


LX51 LINKER/LOCATER V4.66.93.0, INVOKED BY:
D:\KEIL\KEIL_C51\C51\BIN\LX51.EXE .\Objects\STARTUP_M5.obj, .\Objects\main.obj, .\Objects\sys.obj, .\Objects\dgus.obj, .
>> \Objects\norflash.obj, .\Objects\timer.obj, .\Objects\uart.obj, .\Objects\handle.obj, .\Objects\crc16.obj, .\Objects\
>> uart4.obj, .\Objects\mode_p.obj, .\Objects\mode_s.obj, .\Objects\suanfa.obj, .\Objects\rtc_sys.obj, .\Objects\adc.obj
>> , .\Objects\sys_params.obj, .\Objects\cmd.obj, .\Objects\start_win.obj, .\Objects\mode_3.obj, .\Objects\i2c.obj, .\Ob
>> jects\mode_4.obj, .\Objects\T5LUart4.obj TO .\Objects\T5L51 PRINT (.\Listings\T5L51.map) CLASSES (XDATA (X:0X8000-X:0
>> XFFFF), HDATA (X:0X8000-X:0XFFFF))




PROGRAM RECURSIONS REMOVED FROM CALL TREE
=========================================
+--> _RX8130_WRIT_BYTE/I2C
<--+ RX8130_STOP/I2C


+--> ?CO?UART4
<--+ LED1_OFF/UART4


+--> ?CO?UART4
<--+ LED2_ON/UART4


+--> ?CO?UART4
<--+ LED2_OFF/UART4



CPU MODE:     8051 MODE
MEMORY MODEL: LARGE WITH FLOATING POINT ARITHMETIC


INPUT MODULES INCLUDED:
  .\Objects\STARTUP_M5.obj (?C_STARTUP)
         COMMENT TYPE 1: A51 / ASM51 Assembler
  .\Objects\main.obj (MAIN)
         COMMENT TYPE 0: C51 V9.59.0.0
  .\Objects\sys.obj (SYS)
         COMMENT TYPE 0: C51 V9.59.0.0
  .\Objects\dgus.obj (DGUS)
         COMMENT TYPE 0: C51 V9.59.0.0
  .\Objects\norflash.obj (NORFLASH)
         COMMENT TYPE 0: C51 V9.59.0.0
  .\Objects\timer.obj (TIMER)
         COMMENT TYPE 0: C51 V9.59.0.0
  .\Objects\uart.obj (UART)
         COMMENT TYPE 0: C51 V9.59.0.0
  .\Objects\handle.obj (HANDLE)
         COMMENT TYPE 0: C51 V9.59.0.0
  .\Objects\crc16.obj (CRC16)
         COMMENT TYPE 0: C51 V9.59.0.0
  .\Objects\uart4.obj (UART4)
         COMMENT TYPE 0: C51 V9.59.0.0
  .\Objects\mode_p.obj (MODE_P)
         COMMENT TYPE 0: C51 V9.59.0.0
  .\Objects\mode_s.obj (MODE_S)
         COMMENT TYPE 0: C51 V9.59.0.0
  .\Objects\suanfa.obj (SUANFA)
         COMMENT TYPE 0: C51 V9.59.0.0
  .\Objects\rtc_sys.obj (RTC_SYS)
         COMMENT TYPE 0: C51 V9.59.0.0
  .\Objects\adc.obj (ADC)
         COMMENT TYPE 0: C51 V9.59.0.0
  .\Objects\sys_params.obj (SYS_PARAMS)
LX51 LINKER/LOCATER V4.66.93.0                                                        04/24/2025  12:33:12  PAGE 2


         COMMENT TYPE 0: C51 V9.59.0.0
  .\Objects\cmd.obj (CMD)
         COMMENT TYPE 0: C51 V9.59.0.0
  .\Objects\start_win.obj (START_WIN)
         COMMENT TYPE 0: C51 V9.59.0.0
  .\Objects\mode_3.obj (MODE_3)
         COMMENT TYPE 0: C51 V9.59.0.0
  .\Objects\i2c.obj (I2C)
         COMMENT TYPE 0: C51 V9.59.0.0
  .\Objects\mode_4.obj (MODE_4)
         COMMENT TYPE 0: C51 V9.59.0.0
  .\Objects\T5LUart4.obj (T5LUART4)
         COMMENT TYPE 0: C51 V9.59.0.0
  D:\KEIL\KEIL_C51\C51\LIB\C51FPL.LIB (?C?FPADD)
         COMMENT TYPE 1: A51 / ASM51 Assembler
  D:\KEIL\KEIL_C51\C51\LIB\C51FPL.LIB (?C?FPMUL)
         COMMENT TYPE 1: A51 / ASM51 Assembler
  D:\KEIL\KEIL_C51\C51\LIB\C51FPL.LIB (?C?FPDIV)
         COMMENT TYPE 1: A51 / ASM51 Assembler
  D:\KEIL\KEIL_C51\C51\LIB\C51FPL.LIB (?C?FPCMP)
         COMMENT TYPE 1: A51 / ASM51 Assembler
  D:\KEIL\KEIL_C51\C51\LIB\C51FPL.LIB (?C?FCAST)
         COMMENT TYPE 1: A51 / ASM51 Assembler
  D:\KEIL\KEIL_C51\C51\LIB\C51FPL.LIB (?C?CASTF)
         COMMENT TYPE 1: A51 / ASM51 Assembler
  D:\KEIL\KEIL_C51\C51\LIB\C51FPL.LIB (PRINTF)
         COMMENT TYPE 1: A51 / ASM51 Assembler
  D:\KEIL\KEIL_C51\C51\LIB\C51FPL.LIB (FABS)
         COMMENT TYPE 1: A51 / ASM51 Assembler
  D:\KEIL\KEIL_C51\C51\LIB\C51FPL.LIB (LOG)
         COMMENT TYPE 1: A51 / ASM51 Assembler
  D:\KEIL\KEIL_C51\C51\LIB\C51FPL.LIB (POW)
         COMMENT TYPE 1: C51 Compiler
  D:\KEIL\KEIL_C51\C51\LIB\C51FPL.LIB (?C?FPGETOPN)
         COMMENT TYPE 1: A51 / ASM51 Assembler
  D:\KEIL\KEIL_C51\C51\LIB\C51FPL.LIB (?C?CHKFLOAT)
         COMMENT TYPE 1: A51 / ASM51 Assembler
  D:\KEIL\KEIL_C51\C51\LIB\C51FPL.LIB (?C?FPNEG)
         COMMENT TYPE 1: A51 / ASM51 Assembler
  D:\KEIL\KEIL_C51\C51\LIB\C51FPL.LIB (?C?FPROUND)
         COMMENT TYPE 1: A51 / ASM51 Assembler
  D:\KEIL\KEIL_C51\C51\LIB\C51FPL.LIB (?C?FPCONVERT)
         COMMENT TYPE 1: A51 / ASM51 Assembler
  D:\KEIL\KEIL_C51\C51\LIB\C51FPL.LIB (?C?FPSERIES)
         COMMENT TYPE 1: A51 / ASM51 Assembler
  D:\KEIL\KEIL_C51\C51\LIB\C51FPL.LIB (EXP)
         COMMENT TYPE 1: A51 / ASM51 Assembler
  D:\KEIL\KEIL_C51\C51\LIB\C51FPL.LIB (?C?FTNPWR)
         COMMENT TYPE 1: A51 / ASM51 Assembler
  D:\KEIL\KEIL_C51\C51\LIB\C51L.LIB (?C_INIT)
         COMMENT TYPE 1: A51 / ASM51 Assembler
  D:\KEIL\KEIL_C51\C51\LIB\C51L.LIB (?C?COPY)
         COMMENT TYPE 1: A51 / ASM51 Assembler
  D:\KEIL\KEIL_C51\C51\LIB\C51L.LIB (?C?CLDPTR)
         COMMENT TYPE 1: A51 / ASM51 Assembler
  D:\KEIL\KEIL_C51\C51\LIB\C51L.LIB (?C?CLDOPTR)
         COMMENT TYPE 1: A51 / ASM51 Assembler
  D:\KEIL\KEIL_C51\C51\LIB\C51L.LIB (?C?CSTPTR)
         COMMENT TYPE 1: A51 / ASM51 Assembler
  D:\KEIL\KEIL_C51\C51\LIB\C51L.LIB (?C?IMUL)
         COMMENT TYPE 1: A51 / ASM51 Assembler
  D:\KEIL\KEIL_C51\C51\LIB\C51L.LIB (?C?UIDIV)
         COMMENT TYPE 1: A51 / ASM51 Assembler
  D:\KEIL\KEIL_C51\C51\LIB\C51L.LIB (?C?SIDIV)
         COMMENT TYPE 1: A51 / ASM51 Assembler
LX51 LINKER/LOCATER V4.66.93.0                                                        04/24/2025  12:33:12  PAGE 3


  D:\KEIL\KEIL_C51\C51\LIB\C51L.LIB (?C?IILDX)
         COMMENT TYPE 1: A51 / ASM51 Assembler
  D:\KEIL\KEIL_C51\C51\LIB\C51L.LIB (?C?ILDIX)
         COMMENT TYPE 1: A51 / ASM51 Assembler
  D:\KEIL\KEIL_C51\C51\LIB\C51L.LIB (?C?ULDIV)
         COMMENT TYPE 1: A51 / ASM51 Assembler
  D:\KEIL\KEIL_C51\C51\LIB\C51L.LIB (?C?LNEG)
         COMMENT TYPE 1: A51 / ASM51 Assembler
  D:\KEIL\KEIL_C51\C51\LIB\C51L.LIB (?C?LSHL)
         COMMENT TYPE 1: A51 / ASM51 Assembler
  D:\KEIL\KEIL_C51\C51\LIB\C51L.LIB (?C?LLDCODE)
         COMMENT TYPE 1: A51 / ASM51 Assembler
  D:\KEIL\KEIL_C51\C51\LIB\C51L.LIB (?C?LLDXDATA0)
         COMMENT TYPE 1: A51 / ASM51 Assembler
  D:\KEIL\KEIL_C51\C51\LIB\C51L.LIB (?C?LLDCODE0)
         COMMENT TYPE 1: A51 / ASM51 Assembler
  D:\KEIL\KEIL_C51\C51\LIB\C51L.LIB (?C?LSTXDATA)
         COMMENT TYPE 1: A51 / ASM51 Assembler
  D:\KEIL\KEIL_C51\C51\LIB\C51L.LIB (?C?LSTKXDATA)
         COMMENT TYPE 1: A51 / ASM51 Assembler
  D:\KEIL\KEIL_C51\C51\LIB\C51L.LIB (?C?OFFXADD)
         COMMENT TYPE 1: A51 / ASM51 Assembler
  D:\KEIL\KEIL_C51\C51\LIB\C51L.LIB (?C?PLDIXDATA)
         COMMENT TYPE 1: A51 / ASM51 Assembler
  D:\KEIL\KEIL_C51\C51\LIB\C51L.LIB (?C?PSTXDATA)
         COMMENT TYPE 1: A51 / ASM51 Assembler
  D:\KEIL\KEIL_C51\C51\LIB\C51L.LIB (?C?PLDOPTR)
         COMMENT TYPE 1: A51 / ASM51 Assembler
  D:\KEIL\KEIL_C51\C51\LIB\C51L.LIB (?C?CCASE)
         COMMENT TYPE 1: A51 / ASM51 Assembler
  D:\KEIL\KEIL_C51\C51\LIB\C51L.LIB (?C?ICALL)
         COMMENT TYPE 1: A51 / ASM51 Assembler
  D:\KEIL\KEIL_C51\C51\LIB\C51L.LIB (?C?STRCMP)
         COMMENT TYPE 1: A51 / ASM51 Assembler
  D:\KEIL\KEIL_C51\C51\LIB\C51L.LIB (?C?STRCPY)
         COMMENT TYPE 1: A51 / ASM51 Assembler
  D:\KEIL\KEIL_C51\C51\LIB\C51L.LIB (STRLEN)
         COMMENT TYPE 1: A51 / ASM51 Assembler
  D:\KEIL\KEIL_C51\C51\LIB\C51L.LIB (?C?MEMSET)
         COMMENT TYPE 1: A51 / ASM51 Assembler
  D:\KEIL\KEIL_C51\C51\LIB\C51L.LIB (?C?PLDIDATA)
         COMMENT TYPE 1: A51 / ASM51 Assembler
  D:\KEIL\KEIL_C51\C51\LIB\C51L.LIB (?C?PLDXDATA)
         COMMENT TYPE 1: A51 / ASM51 Assembler
  D:\KEIL\KEIL_C51\C51\LIB\C51L.LIB (?C?PLDPDATA)
         COMMENT TYPE 1: A51 / ASM51 Assembler
  D:\KEIL\KEIL_C51\C51\LIB\C51L.LIB (?C?PLDCODE)
         COMMENT TYPE 1: A51 / ASM51 Assembler


ACTIVE MEMORY CLASSES OF MODULE:  .\Objects\T5L51 (?C_STARTUP)

BASE        START       END         USED      MEMORY CLASS
==========================================================
X:000000H   X:008000H   X:00FFFFH   00084FH   XDATA
X:000000H   X:008000H   X:00FFFFH             HDATA
C:000000H   C:000000H   C:00FFFFH   009714H   CODE
I:000000H   I:000000H   I:0000FFH   000001H   IDATA
I:000020H.0 I:000020H.0 I:00002FH.7 000003H.3 BIT
C:000000H   C:000000H   C:00FFFFH   00074DH   CONST
I:000000H   I:000000H   I:00007FH   000023H   DATA


MEMORY MAP OF MODULE:  .\Objects\T5L51 (?C_STARTUP)

LX51 LINKER/LOCATER V4.66.93.0                                                        04/24/2025  12:33:12  PAGE 4



START     STOP      LENGTH    ALIGN  RELOC    MEMORY CLASS   SEGMENT NAME
=========================================================================

* * * * * * * * * * *   D A T A   M E M O R Y   * * * * * * * * * * * * *
000000H   000007H   000008H   ---    AT..     DATA           "REG BANK 0"
000008H   00000FH   000008H   ---    ---      **GAP**
000010H   000017H   000008H   ---    AT..     DATA           "REG BANK 2"
000018H.0 00001FH.7 000008H.0 ---    ---      **GAP**
000020H.0 000021H.0 000001H.1 BIT    UNIT     BIT            _BIT_GROUP_
000021H.1 000021H.5 000000H.5 BIT    UNIT     BIT            ?BI?MAIN
000021H.6 000022H.1 000000H.4 BIT    UNIT     BIT            ?BI?SUANFA
000022H.2 000022H.4 000000H.3 BIT    UNIT     BIT            ?BI?MODE_S
000022H.5 000022H.6 000000H.2 BIT    UNIT     BIT            ?BI?MODE_P
000022H.7 000023H.0 000000H.2 BIT    UNIT     BIT            ?BI?MODE_4
000023H.1 000023H.1 000000H.1 BIT    UNIT     BIT            ?BI?RTC_SYS
000023H.2 000023H.2 000000H.1 BIT    UNIT     BIT            ?BI?I2C
000023H.3 000023H   000000H.5 ---    ---      **GAP**
000024H   00002DH   00000AH   BYTE   UNIT     DATA           ?DT?T5LUART4
00002EH   000036H   000009H   BYTE   UNIT     DATA           _DATA_GROUP_
000037H   000037H   000001H   BYTE   UNIT     IDATA          ?STACK

* * * * * * * * * * *   C O D E   M E M O R Y   * * * * * * * * * * * * *
000000H   000002H   000003H   ---    OFFS..   CODE           ?CO??C_STARTUP?0
000003H   000005H   000003H   BYTE   OFFS..   CODE           ?SYS?00003
000006H   00000AH   000005H   BYTE   UNIT     CODE           ?PR?EX0_ISR_PC?SYS
00000BH   00000DH   000003H   BYTE   OFFS..   CODE           ?TIMER?0000B
00000EH   000012H   000005H   BYTE   UNIT     CODE           ?PR?EX1_ISR_PC?SYS
000013H   000015H   000003H   BYTE   OFFS..   CODE           ?SYS?00013
000016H   00002AH   000015H   BYTE   UNIT     CODE           ?PR?UART5INIT?UART
00002BH   00002DH   000003H   BYTE   OFFS..   CODE           ?TIMER?0002B
00002EH   000050H   000023H   BYTE   UNIT     CODE           ?PR?RX8130_CACK?I2C
000051H   000051H   000001H   BYTE   UNIT     CODE           ?PR?UART5_TX_ISR_PC?UART
000052H   000052H   000001H   BYTE   UNIT     CODE           ?PR?LED3_OFF?UART4
000053H   000055H   000003H   BYTE   OFFS..   CODE           ?T5LUART4?00053
000056H   00005AH   000005H   BYTE   UNIT     CODE           ?PR?_PUTCHAR?T5LUART4
00005BH   00005DH   000003H   BYTE   OFFS..   CODE           ?T5LUART4?0005B
00005EH   000061H   000004H   BYTE   UNIT     CODE           ?PR?SDA_IN?I2C
000062H   000062H   000001H   BYTE   UNIT     CODE           ?PR?MODE_P_WORK?MODE_P
000063H   000065H   000003H   BYTE   OFFS..   CODE           ?UART?00063
000066H   000069H   000004H   BYTE   UNIT     CODE           ?PR?SDA_OUT?I2C
00006AH   00006AH   000001H   ---    ---      **GAP**
00006BH   00006DH   000003H   BYTE   OFFS..   CODE           ?UART?0006B
00006EH   0000F7H   00008AH   BYTE   UNIT     CODE           ?PR?NORFLASH_WRITE_STOP_UV?SYS_PARAMS
0000F8H   0000FFH   000008H   ---    OFFS..   CODE           ?CO??C_STARTUP?1
000100H   000DCDH   000CCEH   BYTE   UNIT     CODE           ?C?LIB_CODE
000DCEH   0017DCH   000A0FH   BYTE   UNIT     CODE           ?PR?TOUCHHANDLE?HANDLE
0017DDH   001D61H   000585H   BYTE   UNIT     CODE           ?C_INITSEG
001D62H   0021E4H   000483H   BYTE   UNIT     CODE           ?PR?PRINTF?PRINTF
0021E5H   0025B4H   0003D0H   BYTE   UNIT     CODE           ?PR?SHANGCHUAN?MAIN
0025B5H   002906H   000352H   BYTE   UNIT     CODE           ?PR?ZHILIAO_SET?MODE_P
002907H   002BF9H   0002F3H   BYTE   UNIT     CODE           ?PR?RESET_DATA?SYS_PARAMS
002BFAH   002EC2H   0002C9H   BYTE   UNIT     CODE           ?PR?_L_MM_TO_P_MW?SUANFA
002EC3H   003163H   0002A1H   BYTE   UNIT     CODE           ?PR?RTC_SET_IN?I2C
003164H   0033EDH   00028AH   BYTE   UNIT     CODE           ?PR?DYNAMIC_X_Y_HUOQU?START_WIN
0033EEH   003645H   000258H   BYTE   UNIT     CODE           ?PR?LIANJI_RUN?SYS_PARAMS
003646H   003892H   00024DH   BYTE   UNIT     CODE           ?PR?_WRITEDGUS?DGUS
003893H   003ADAH   000248H   BYTE   UNIT     CODE           ?PR?_READDGUS?DGUS
003ADBH   003CF9H   00021FH   BYTE   UNIT     CODE           ?PR?LED1_OFF?UART4
003CFAH   003F0CH   000213H   BYTE   UNIT     CODE           ?PR?ZHEXIAN_DRAW?START_WIN
003F0DH   00410EH   000202H   BYTE   UNIT     CODE           ?PR?SWITCH_PAGE?MAIN
00410FH   004302H   0001F4H   BYTE   UNIT     CODE           ?PR?T5L_UART4_RX?T5LUART4
004303H   0044E4H   0001E2H   BYTE   UNIT     CODE           ?PR?T0_ISR_PC?TIMER
0044E5H   0046B1H   0001CDH   BYTE   UNIT     CODE           ?PR?INIT_ADRESS?SYS_PARAMS
0046B2H   00487AH   0001C9H   BYTE   UNIT     CODE           ?PR?CHENGXU_RUN?MODE_3
LX51 LINKER/LOCATER V4.66.93.0                                                        04/24/2025  12:33:12  PAGE 5


00487BH   004A36H   0001BCH   BYTE   UNIT     CODE           ?PR?DYNAMIC_X_Y_HUOQU_2?START_WIN
004A37H   004BE6H   0001B0H   BYTE   UNIT     CODE           ?PR?SHUJUCHULI?SUANFA
004BE7H   004D7CH   000196H   BYTE   UNIT     CODE           ?PR?MAIN?MAIN
004D7DH   004F03H   000187H   BYTE   UNIT     CODE           ?PR?X_Y_HUOQU?START_WIN
004F04H   005082H   00017FH   BYTE   UNIT     CODE           ?PR?TIM0_SUANFA_ISR?SUANFA
005083H   0051FEH   00017CH   BYTE   UNIT     CODE           ?PR?UART5_ISR?MAIN
0051FFH   005367H   000169H   BYTE   UNIT     CODE           ?PR?RTC_SET_TIME?I2C
005368H   0054CDH   000166H   BYTE   UNIT     CODE           ?PR?TIM0_1S_ISR?MODE_P
0054CEH   005633H   000166H   BYTE   UNIT     CODE           ?PR?_POW?POW
005634H   005791H   00015EH   BYTE   UNIT     CODE           ?PR?UNLOCK_CURRENT_PAGE?START_WIN
005792H   0058EEH   00015DH   BYTE   UNIT     CODE           ?PR?_RTC_GET_WEEK?I2C
0058EFH   005A4BH   00015DH   BYTE   UNIT     CODE           ?PR?READ_TIME?I2C
005A4CH   005BA6H   00015BH   BYTE   UNIT     CODE           ?PR?LOCK_CURRENT_PAGE?START_WIN
005BA7H   005CFBH   000155H   BYTE   UNIT     CODE           ?PR?HMICOMMAND?T5LUART4
005CFCH   005E48H   00014DH   BYTE   UNIT     CODE           ?PR?T2_ISR?MAIN
005E49H   005F93H   00014BH   BYTE   UNIT     CODE           ?PR?T2_ISR_PC?TIMER
005F94H   0060D2H   00013FH   BYTE   UNIT     CODE           ?PR?_SYS_WRITE_VP_NOR?NORFLASH
0060D3H   0061FBH   000129H   BYTE   UNIT     CODE           ?PR?LOG?LOG
0061FCH   006317H   00011CH   BYTE   UNIT     CODE           ?PR?OPEN_SUDO_INIT?SYS_PARAMS
006318H   006432H   00011BH   BYTE   UNIT     CODE           ?PR?S_D_SURFACES_ALL?START_WIN
006433H   00654BH   000119H   BYTE   UNIT     CODE           ?PR?_WRITE_NEW?START_WIN
00654CH   006664H   000119H   BYTE   UNIT     CODE           ?PR?_WRITE_NEW_2?START_WIN
006665H   006773H   00010FH   BYTE   UNIT     CODE           ?PR?LED_JIGUANG_CHECK?SUANFA
006774H   006881H   00010EH   BYTE   UNIT     CODE           ?PR?_MAICHONG_SUANFA?SUANFA
006882H   00698CH   00010BH   BYTE   UNIT     CODE           ?PR?_CHENGXU_1_24_LOCK?HANDLE
00698DH   006A8BH   0000FFH   BYTE   UNIT     CODE           ?PR?CHENGXU_ONLY_FIRST?MODE_3
006A8CH   006B88H   0000FDH   BYTE   UNIT     CODE           ?PR?T_JISUAN?MODE_P
006B89H   006C80H   0000F8H   BYTE   UNIT     CODE           ?PR?_SYS_READ_VP_NOR?NORFLASH
006C81H   006D78H   0000F8H   BYTE   UNIT     CODE           ?PR?UART4_OPEN?SYS_PARAMS
006D79H   006E69H   0000F1H   BYTE   UNIT     CODE           ?PR?MODE4_ISR?MODE_4
006E6AH   006F59H   0000F0H   BYTE   UNIT     CODE           ?PR?_REGISTER_CMDS?CMD
006F5AH   007047H   0000EEH   BYTE   UNIT     CODE           ?PR?_LOCK_CURRENT_PAGE_ZENGLIANG?START_WIN
007048H   00712EH   0000E7H   BYTE   UNIT     CODE           ?PR?_DYNAMIC_WRITE_NEW?START_WIN
00712FH   007213H   0000E5H   BYTE   UNIT     CODE           ?PR?_SYS_READ_VP?SYS
007214H   0072F8H   0000E5H   BYTE   UNIT     CODE           ?PR?ZHILIAO_CHOOSE_MODE_1?MODE_P
0072F9H   0073DDH   0000E5H   BYTE   UNIT     CODE           ?PR?ZHILIAO_CHOOSE_MODE_2?MODE_P
0073DEH   0074C1H   0000E4H   BYTE   UNIT     CODE           ?PR?ZHILIAO_CHOOSE_MODE_3?MODE_P
0074C2H   0075A2H   0000E1H   BYTE   UNIT     CODE           ?PR?_UNLOCK_CURRENT_PAGE_ZENGLIANG?START_WIN
0075A3H   00766DH   0000CBH   BYTE   UNIT     CODE           ?PR?ZHILIAO_READ_NORFLASH?MODE_P
00766EH   007737H   0000CAH   BYTE   UNIT     CODE           ?PR?T_100MS_ADC_ISR?ADC
007738H   007800H   0000C9H   BYTE   UNIT     CODE           ?PR?_SYS_WRITE_CHART_ZHEXIAN_TWO_2?START_WIN
007801H   0078C7H   0000C7H   BYTE   UNIT     CODE           ?PR?MODE_2_RUN?MAIN
0078C8H   00798CH   0000C5H   BYTE   UNIT     CODE           ?PR?LED2_ON?UART4
00798DH   007A4EH   0000C2H   BYTE   UNIT     CODE           ?PR?MODE_S_CHOOSE?MODE_S
007A4FH   007B09H   0000BBH   BYTE   UNIT     CODE           ?PR?_DYNAMIC_FIRST_INIT?START_WIN
007B0AH   007BC1H   0000B8H   BYTE   UNIT     CODE           ?PR?YICHU_RUN?SUANFA
007BC2H   007C73H   0000B2H   BYTE   UNIT     CODE           ?PR?_SYS_WRITE_CHART_ZHEXIAN_TWO?START_WIN
007C74H   007D24H   0000B1H   BYTE   UNIT     CODE           ?PR?_MODE4_MAICHONG?SUANFA
007D25H   007DD0H   0000ACH   BYTE   UNIT     CODE           ?PR?_READNORFLASH_DGUS?NORFLASH
007DD1H   007E7CH   0000ACH   BYTE   UNIT     CODE           ?PR?_WRITENORFLASH_DGUS?NORFLASH
007E7DH   007F25H   0000A9H   BYTE   UNIT     CODE           ?PR?YICHU_SET?SUANFA
007F26H   007FC8H   0000A3H   BYTE   UNIT     CODE           ?PR?_WRITENORFLASH_STR?NORFLASH
007FC9H   00806BH   0000A3H   BYTE   UNIT     CODE           ?PR?_READNORFLASH_STR?NORFLASH
00806CH   00810EH   0000A3H   BYTE   UNIT     CODE           ?PR?SCREEN_REVIEW?SYS_PARAMS
00810FH   0081AFH   0000A1H   BYTE   UNIT     CODE           ?C_C51STARTUP
0081B0H   008250H   0000A1H   BYTE   UNIT     CODE           ?PR?TIM0_1S_S_ISR?MODE_S
008251H   0082EFH   00009FH   BYTE   UNIT     CODE           ?PR?SET_ZHILIAO_INIT?MODE_P
0082F0H   00838EH   00009FH   BYTE   UNIT     CODE           ?PR?_TRANSFORM_S_L_T_AEROSOLS?MODE_S
00838FH   00842DH   00009FH   BYTE   UNIT     CODE           ?PR?_TRANSFORM_S_L_T_SURFACES_CENTRE?MODE_S
00842EH   0084CCH   00009FH   BYTE   UNIT     CODE           ?PR?_TRANSFORM_S_L_T_SURFACES_ALL?MODE_S
0084CDH   008568H   00009CH   BYTE   UNIT     CODE           ?PR?_MATCH_CMD?CMD
008569H   008602H   00009AH   BYTE   UNIT     CODE           ?PR?NORFLASH_WRITE_OPEN_UV?SYS_PARAMS
008603H   00869CH   00009AH   BYTE   UNIT     CODE           ?PR?EXP?EXP
00869DH   00872EH   000092H   BYTE   UNIT     CODE           ?PR?STATIC_T_CURRENT_MODE4?MODE_4
00872FH   0087BDH   00008FH   BYTE   UNIT     CODE           ?PR?CLOSE_W_BIANLIANGCHONGZHI?MODE_P
LX51 LINKER/LOCATER V4.66.93.0                                                        04/24/2025  12:33:12  PAGE 6


0087BEH   00884BH   00008EH   BYTE   UNIT     CODE           ?PR?T5L_HMISLVSUB?T5LUART4
00884CH   0088D8H   00008DH   BYTE   UNIT     CODE           ?PR?NORFLASH_WRITE_CLOSE_UV?SYS_PARAMS
0088D9H   008965H   00008DH   BYTE   UNIT     CODE           ?PR?_SYS_WRITE_CHART_ZHEXIAN_TWO_CANKAO?START_WIN
008966H   0089F1H   00008CH   BYTE   UNIT     CODE           ?PR?DRAW_RESET?START_WIN
0089F2H   008A7AH   000089H   BYTE   UNIT     CODE           ?PR?SUDOOPEN_SET_HANDLE?SYS_PARAMS
008A7BH   008B00H   000086H   BYTE   UNIT     CODE           ?PR?MODE_1_RUN?MAIN
008B01H   008B81H   000081H   BYTE   UNIT     CODE           ?PR?UART5_RX_ISR_PC?UART
008B82H   008BF6H   000075H   BYTE   UNIT     CODE           ?PR?FIRST_SHUJU?MODE_P
008BF7H   008C6AH   000074H   BYTE   UNIT     CODE           ?PR?STATIC_T_CURRENT_MODE2?MODE_P
008C6BH   008CD7H   00006DH   BYTE   UNIT     CODE           ?PR?SHOUDONG_READ_NORFLASH?MODE_4
008CD8H   008D42H   00006BH   BYTE   UNIT     CODE           ?PR?_RX8130_WRIT_BYTE?I2C
008D43H   008DA8H   000066H   BYTE   UNIT     CODE           ?PR?_JUMPPAGE?HANDLE
008DA9H   008E0CH   000064H   BYTE   UNIT     CODE           ?PR?SET_SHOUDONG_INIT?MODE_4
008E0DH   008E6DH   000061H   BYTE   UNIT     CODE           ?PR?S_BIANLIANGQINGLING?MODE_S
008E6EH   008EC7H   00005AH   BYTE   UNIT     CODE           ?PR?INIT_RTC?I2C
008EC8H   008F1DH   000056H   BYTE   UNIT     CODE           ?PR?_WRITE_DGUS?RTC_SYS
008F1EH   008F72H   000055H   BYTE   UNIT     CODE           ?PR?SCREEN_INIT?SYS_PARAMS
008F73H   008FC7H   000055H   BYTE   UNIT     CODE           ?PR?SET_PAGE_WRITE?SYS_PARAMS
008FC8H   00901CH   000055H   BYTE   UNIT     CODE           ?PR?MODE_4_RESET?MODE_4
00901DH   009070H   000054H   BYTE   UNIT     CODE           ?PR?_QUYU_ZHONGXIN_LOG?MODE_S
009071H   0090C3H   000053H   BYTE   UNIT     CODE           ?PR?FIRST_S_SHUJU?MODE_S
0090C4H   00910FH   00004CH   BYTE   UNIT     CODE           ?PR?GETVALUE0F00?HANDLE
009110H   00915BH   00004CH   BYTE   UNIT     CODE           ?PR?_QIRONGJIAO_LOG?MODE_S
00915CH   0091A6H   00004BH   BYTE   UNIT     CODE           ?PR?MODE_4_INIT?MODE_4
0091A7H   0091EFH   000049H   BYTE   UNIT     CODE           ?PR?LED2_OFF?UART4
0091F0H   009237H   000048H   BYTE   UNIT     CODE           ?PR?_READ_DGUS?RTC_SYS
009238H   00927BH   000044H   BYTE   UNIT     CODE           ?PR?MODE_4_RUN?MODE_4
00927CH   0092BEH   000043H   BYTE   UNIT     CODE           ?PR?T5L_UART4_TX?T5LUART4
0092BFH   0092FFH   000041H   BYTE   UNIT     CODE           ?PR?_UART5SENDSTR?UART
009300H   00933EH   00003FH   BYTE   UNIT     CODE           ?PR?DRAW_REST_2?START_WIN
00933FH   009372H   000034H   BYTE   UNIT     CODE           ?PR?HANDLEPROC?HANDLE
009373H   0093A4H   000032H   BYTE   UNIT     CODE           ?PR?NORFLASH_CHECK_ADRESS?SYS_PARAMS
0093A5H   0093D6H   000032H   BYTE   UNIT     CODE           ?PR?DYNAMIC_DRAW?START_WIN
0093D7H   009407H   000031H   BYTE   UNIT     CODE           ?PR?STATIC_T_CURRENT_MODE1?MODE_S
009408H   009435H   00002EH   BYTE   UNIT     CODE           ?PR?_ADC_READ?ADC
009436H   009462H   00002DH   BYTE   UNIT     CODE           ?PR?CHENGXU_UPDAE?MODE_3
009463H   00948FH   00002DH   BYTE   UNIT     CODE           ?PR?CHENGXU_INIT?MODE_3
009490H   0094BCH   00002DH   BYTE   UNIT     CODE           ?PR?RX8130_READ_BYTE?I2C
0094BDH   0094E7H   00002BH   BYTE   UNIT     CODE           ?PR?SHUJU_BIANLIANG_CHONGZHI?SUANFA
0094E8H   009510H   000029H   BYTE   UNIT     CODE           ?PR?DYNAMIC_DRAW_CHART_INIT?START_WIN
009511H   009539H   000029H   BYTE   UNIT     CODE           ?PR?MODE_3_RESET?MODE_3
00953AH   009562H   000029H   BYTE   UNIT     CODE           ?PR?CLOCK?I2C
009563H   009588H   000026H   BYTE   UNIT     CODE           ?PR?_ANALOG_CLICK?HANDLE
009589H   0095A9H   000021H   BYTE   UNIT     CODE           ?PR?RX8130_STOP?I2C
0095AAH   0095C9H   000020H   BYTE   UNIT     CODE           ?PR?_DELAYMS?SYS
0095CAH   0095E9H   000020H   BYTE   UNIT     CODE           ?PR?LED_REGISTER?UART4
0095EAH   009602H   000019H   BYTE   UNIT     CODE           ?PR?INITGPIO?SYS
009603H   009619H   000017H   BYTE   UNIT     CODE           ?PR?DELAYUS?I2C
00961AH   00962EH   000015H   BYTE   UNIT     CODE           ?PR?_STRLEN?STRLEN
00962FH   009642H   000014H   BYTE   UNIT     CODE           ?PR?T2_INIT?TIMER
009643H   009656H   000014H   BYTE   UNIT     CODE           ?PR?NORFLASH_WRITE_GUANJI?SYS_PARAMS
009657H   00966AH   000014H   BYTE   UNIT     CODE           ?PR?RX8130_START?I2C
00966BH   00967CH   000012H   BYTE   UNIT     CODE           ?PR?SUDO_CLICK_START?SYS_PARAMS
00967DH   00968DH   000011H   BYTE   UNIT     CODE           ?PR?INITCPU?SYS
00968EH   00969BH   00000EH   BYTE   UNIT     CODE           ?PR?T0_INIT?TIMER
00969CH   0096A8H   00000DH   BYTE   UNIT     CODE           ?PR?UART4INIT?UART
0096A9H   0096B5H   00000DH   BYTE   UNIT     CODE           ?PR?RX8130_MACK?I2C
0096B6H   0096C2H   00000DH   BYTE   UNIT     CODE           ?PR?_FABS?FABS
0096C3H   0096CEH   00000CH   BYTE   UNIT     CODE           ?PR?INITINT?SYS
0096CFH   0096DAH   00000CH   BYTE   UNIT     CODE           ?PR?_UART5SENDBYTE?UART
0096DBH   0096E6H   00000CH   BYTE   UNIT     CODE           ?PR?_UART4SENDBYTE?T5LUART4
0096E7H   0096F1H   00000BH   BYTE   UNIT     CODE           ?PR?RX8130_MNAK?I2C
0096F2H   0096FCH   00000BH   BYTE   UNIT     CODE           ?PR?T5L_HMISLVINIT?T5LUART4
0096FDH   009705H   000009H   BYTE   UNIT     CODE           ?PR?LED1_ON?UART4
009706H   00970BH   000006H   BYTE   UNIT     CODE           ?PR?INITTIMER?TIMER
LX51 LINKER/LOCATER V4.66.93.0                                                        04/24/2025  12:33:12  PAGE 7


00970CH   009711H   000006H   BYTE   UNIT     CODE           ?PR?INITUART?UART
009712H   009714H   000003H   BYTE   UNIT     CODE           ?PR?MODE_3_ISR?MODE_3
009715H   009994H   000280H   BYTE   UNIT     CONST          ?CO?UART4
009995H   009B94H   000200H   BYTE   UNIT     CONST          ?CO?T5LUART4
009B95H   009D92H   0001FEH   BYTE   UNIT     CONST          ?CO?SYS_PARAMS
009D93H   009DFCH   00006AH   BYTE   UNIT     CONST          ?CO?START_WIN
009DFDH   009E1CH   000020H   BYTE   UNIT     CONST          ?CO?NORFLASH
009E1DH   009E36H   00001AH   BYTE   UNIT     CONST          ?CO?MODE_P
009E37H   009E4BH   000015H   BYTE   UNIT     CONST          ?CO?I2C
009E4CH   009E59H   00000EH   BYTE   UNIT     CONST          ?CO?HANDLE
009E5AH   009E61H   000008H   BYTE   UNIT     CONST          ?CO?MODE_4

* * * * * * * * * * *  X D A T A   M E M O R Y  * * * * * * * * * * * * *
008000H   00823CH   00023DH   BYTE   UNIT     XDATA          ?XD?T5LUART4
00823DH   0083BAH   00017EH   BYTE   UNIT     XDATA          ?XD?CMD
0083BBH   008501H   000147H   BYTE   UNIT     XDATA          _XDATA_GROUP_
008502H   008592H   000091H   BYTE   UNIT     XDATA          ?XD?SUANFA
008593H   008614H   000082H   BYTE   UNIT     XDATA          ?XD?UART
008615H   008685H   000071H   BYTE   UNIT     XDATA          ?XD?START_WIN
008686H   0086E8H   000063H   BYTE   UNIT     XDATA          ?XD?MAIN
0086E9H   008738H   000050H   BYTE   UNIT     XDATA          ?XD?MODE_P
008739H   008767H   00002FH   BYTE   UNIT     XDATA          ?XD?MODE_S
008768H   008796H   00002FH   BYTE   UNIT     XDATA          ?XD?SYS_PARAMS
008797H   0087C0H   00002AH   BYTE   UNIT     XDATA          ?XD?HANDLE
0087C1H   0087E4H   000024H   BYTE   UNIT     XDATA          ?XD?TIMER
0087E5H   008807H   000023H   BYTE   UNIT     XDATA          ?XD?MODE_3
008808H   00881CH   000015H   BYTE   UNIT     XDATA          ?XD?I2C
00881DH   00882CH   000010H   BYTE   UNIT     XDATA          ?XD?MODE_4
00882DH   00883BH   00000FH   BYTE   UNIT     XDATA          ?XD?ADC
00883CH   008849H   00000EH   BYTE   UNIT     XDATA          ?XD?SHUJUCHULI?SUANFA
00884AH   00884CH   000003H   BYTE   UNIT     XDATA          ?XD?_UART5SENDSTR?UART
00884DH   00884EH   000002H   BYTE   UNIT     XDATA          ?XD?RTC_SYS



OVERLAY MAP OF MODULE:   .\Objects\T5L51 (?C_STARTUP)


FUNCTION/MODULE                                BIT_GROUP   DATA_GROUP   XDATA_GROUP
--> CALLED FUNCTION/MODULE                    START  STOP  START  STOP  START  STOP
===================================================================================
?C_C51STARTUP                                 ----- -----  ----- -----  ----- -----
  +--> MAIN/MAIN
  +--> ?C_INITSEG

MAIN/MAIN                                     ----- -----  ----- -----  ----- -----
  +--> INITCPU/SYS
  +--> INIT_RTC/I2C
  +--> _JUMPPAGE/HANDLE
  +--> _WRITEDGUS/DGUS
  +--> SCREEN_INIT/SYS_PARAMS
  +--> LED_REGISTER/UART4
  +--> T5L_HMISLVINIT/T5LUART4
  +--> CHENGXU_INIT/MODE_3
  +--> ZHEXIAN_DRAW/START_WIN
  +--> _READDGUS/DGUS
  +--> LED_JIGUANG_CHECK/SUANFA
  +--> _L_MM_TO_P_MW/SUANFA
  +--> SWITCH_PAGE/MAIN
  +--> SHANGCHUAN/MAIN
  +--> CLOCK/I2C
  +--> HANDLEPROC/HANDLE

INITCPU/SYS                                   ----- -----  ----- -----  ----- -----
  +--> INITINT/SYS
LX51 LINKER/LOCATER V4.66.93.0                                                        04/24/2025  12:33:12  PAGE 8


  +--> INITGPIO/SYS
  +--> INITUART/UART
  +--> INITTIMER/TIMER

INITINT/SYS                                   ----- -----  ----- -----  ----- -----

INITGPIO/SYS                                  ----- -----  ----- -----  ----- -----

INITUART/UART                                 ----- -----  ----- -----  ----- -----
  +--> UART4INIT/UART
  +--> UART5INIT/UART

UART4INIT/UART                                ----- -----  ----- -----  ----- -----

UART5INIT/UART                                ----- -----  ----- -----  ----- -----

INITTIMER/TIMER                               ----- -----  ----- -----  ----- -----
  +--> T0_INIT/TIMER
  +--> T2_INIT/TIMER

T0_INIT/TIMER                                 ----- -----  ----- -----  ----- -----

T2_INIT/TIMER                                 ----- -----  ----- -----  ----- -----

INIT_RTC/I2C                                  ----- -----  ----- -----  ----- -----
  +--> _RX8130_WRIT_BYTE/I2C
  +--> RX8130_STOP/I2C
  +--> RX8130_START/I2C
  +--> RX8130_READ_BYTE/I2C
  +--> RX8130_MACK/I2C
  +--> RX8130_MNAK/I2C

_RX8130_WRIT_BYTE/I2C                         ----- -----  ----- -----  ----- -----
  +--> RX8130_START/I2C
  +--> RX8130_STOP/I2C
  +--> SDA_OUT/I2C
  +--> DELAYUS/I2C
  +--> RX8130_CACK/I2C

RX8130_START/I2C                              ----- -----  ----- -----  ----- -----
  +--> SDA_OUT/I2C
  +--> DELAYUS/I2C

SDA_OUT/I2C                                   ----- -----  ----- -----  ----- -----

DELAYUS/I2C                                   ----- -----  ----- -----  ----- -----

RX8130_STOP/I2C                               ----- -----  ----- -----  ----- -----
  +--> _RX8130_WRIT_BYTE/I2C
  +--> SDA_OUT/I2C
  +--> DELAYUS/I2C
  +--> SDA_IN/I2C

SDA_IN/I2C                                    ----- -----  ----- -----  ----- -----

RX8130_CACK/I2C                               ----- -----  ----- -----  ----- -----
  +--> SDA_IN/I2C
  +--> DELAYUS/I2C
  +--> SDA_OUT/I2C

RX8130_READ_BYTE/I2C                          ----- -----  ----- -----  ----- -----
  +--> SDA_IN/I2C
  +--> DELAYUS/I2C

RX8130_MACK/I2C                               ----- -----  ----- -----  ----- -----
LX51 LINKER/LOCATER V4.66.93.0                                                        04/24/2025  12:33:12  PAGE 9


  +--> SDA_OUT/I2C
  +--> DELAYUS/I2C

RX8130_MNAK/I2C                               ----- -----  ----- -----  ----- -----
  +--> SDA_OUT/I2C
  +--> DELAYUS/I2C

_JUMPPAGE/HANDLE                              ----- -----  ----- -----  8491H 8496H
  +--> _WRITEDGUS/DGUS
  +--> _DELAYMS/SYS
  +--> _READDGUS/DGUS

_WRITEDGUS/DGUS                               ----- -----  ----- -----  84FBH 8501H

_DELAYMS/SYS                                  ----- -----  ----- -----  ----- -----

_READDGUS/DGUS                                ----- -----  ----- -----  84F3H 84F9H

SCREEN_INIT/SYS_PARAMS                        ----- -----  ----- -----  ----- -----
  +--> _READNORFLASH_STR/NORFLASH
  +--> _WRITEDGUS/DGUS

_READNORFLASH_STR/NORFLASH                    ----- -----  ----- -----  84E5H 84F3H
  +--> _SYS_WRITE_VP_NOR/NORFLASH
  +--> _DELAYMS/SYS
  +--> _SYS_READ_VP_NOR/NORFLASH

_SYS_WRITE_VP_NOR/NORFLASH                    ----- -----  ----- -----  84F4H 84FAH

_SYS_READ_VP_NOR/NORFLASH                     ----- -----  ----- -----  84F4H 84FAH

LED_REGISTER/UART4                            ----- -----  ----- -----  83BBH 8406H
  +--> _REGISTER_CMDS/CMD

LED1_ON/UART4                                 ----- -----  ----- -----  ----- -----
  +--> PRINTF/PRINTF

PRINTF/PRINTF                                 20H.0 21H.0  002EH 0032H  8421H 8450H
  +--> _PUTCHAR/T5LUART4

_PUTCHAR/T5LUART4                             ----- -----  ----- -----  ----- -----
  +--> _UART4SENDBYTE/T5LUART4

_UART4SENDBYTE/T5LUART4                       ----- -----  ----- -----  ----- -----

LED1_OFF/UART4                                ----- -----  ----- -----  8407H 8420H
  +--> _DELAYMS/SYS
  +--> _READNORFLASH_STR/NORFLASH
  +--> PRINTF/PRINTF

LED2_ON/UART4                                 ----- -----  ----- -----  8407H 841AH
  +--> _WRITENORFLASH_STR/NORFLASH
  +--> PRINTF/PRINTF

_WRITENORFLASH_STR/NORFLASH                   ----- -----  ----- -----  84DDH 84EBH
  +--> _SYS_WRITE_VP_NOR/NORFLASH
  +--> _DELAYMS/SYS
  +--> _SYS_READ_VP_NOR/NORFLASH

LED2_OFF/UART4                                ----- -----  ----- -----  8407H 840CH
  +--> _READNORFLASH_STR/NORFLASH
  +--> _DELAYMS/SYS
  +--> PRINTF/PRINTF

_REGISTER_CMDS/CMD                            ----- -----  ----- -----  8407H 840DH
LX51 LINKER/LOCATER V4.66.93.0                                                        04/24/2025  12:33:12  PAGE 10



T5L_HMISLVINIT/T5LUART4                       ----- -----  ----- -----  ----- -----

CHENGXU_INIT/MODE_3                           ----- -----  ----- -----  ----- -----
  +--> _READNORFLASH_DGUS/NORFLASH

_READNORFLASH_DGUS/NORFLASH                   ----- -----  ----- -----  84E5H 84F2H
  +--> _WRITEDGUS/DGUS
  +--> _DELAYMS/SYS
  +--> _READDGUS/DGUS

ZHEXIAN_DRAW/START_WIN                        ----- -----  ----- -----  ----- -----
  +--> DYNAMIC_DRAW/START_WIN
  +--> S_D_SURFACES_ALL/START_WIN
  +--> LOCK_CURRENT_PAGE/START_WIN
  +--> DRAW_REST_2/START_WIN
  +--> _FABS/FABS
  +--> _SYS_WRITE_CHART_ZHEXIAN_TWO/START_WIN
  +--> _SYS_WRITE_CHART_ZHEXIAN_TWO_CANKAO/START_WIN
  +--> X_Y_HUOQU/START_WIN

DYNAMIC_DRAW/START_WIN                        ----- -----  ----- -----  ----- -----
  +--> DYNAMIC_X_Y_HUOQU_2/START_WIN
  +--> DYNAMIC_X_Y_HUOQU/START_WIN
  +--> DYNAMIC_DRAW_CHART_INIT/START_WIN

DYNAMIC_X_Y_HUOQU_2/START_WIN                 ----- -----  ----- -----  83BBH 83CAH
  +--> _DYNAMIC_FIRST_INIT/START_WIN
  +--> _READDGUS/DGUS
  +--> _DELAYMS/SYS
  +--> _DYNAMIC_WRITE_NEW/START_WIN

_DYNAMIC_FIRST_INIT/START_WIN                 ----- -----  ----- -----  83CBH 83E2H
  +--> _WRITEDGUS/DGUS

_DYNAMIC_WRITE_NEW/START_WIN                  ----- -----  ----- -----  83CBH 83D6H
  +--> _WRITEDGUS/DGUS

DYNAMIC_X_Y_HUOQU/START_WIN                   ----- -----  ----- -----  83BBH 83C8H
  +--> _DYNAMIC_FIRST_INIT/START_WIN
  +--> _READDGUS/DGUS
  +--> _DYNAMIC_WRITE_NEW/START_WIN

DYNAMIC_DRAW_CHART_INIT/START_WIN             ----- -----  ----- -----  83BBH 83BCH
  +--> _WRITEDGUS/DGUS

S_D_SURFACES_ALL/START_WIN                    ----- -----  ----- -----  ----- -----
  +--> _POW/POW

_POW/POW                                      ----- -----  ----- -----  83C9H 83D2H
  +--> LOG/LOG
  +--> EXP/EXP

LOG/LOG                                       20H.0 20H.0  ----- -----  83D3H 83D6H

EXP/EXP                                       ----- -----  ----- -----  ----- -----

LOCK_CURRENT_PAGE/START_WIN                   ----- -----  ----- -----  ----- -----
  +--> _WRITEDGUS/DGUS
  +--> _LOCK_CURRENT_PAGE_ZENGLIANG/START_WIN
  +--> _READDGUS/DGUS

_LOCK_CURRENT_PAGE_ZENGLIANG/START_WIN        ----- -----  ----- -----  83C3H 83C8H
  +--> _READDGUS/DGUS
  +--> _WRITEDGUS/DGUS
LX51 LINKER/LOCATER V4.66.93.0                                                        04/24/2025  12:33:12  PAGE 11



DRAW_REST_2/START_WIN                         ----- -----  ----- -----  83BBH 83C2H
  +--> _WRITEDGUS/DGUS

_FABS/FABS                                    ----- -----  ----- -----  ----- -----

_SYS_WRITE_CHART_ZHEXIAN_TWO/START_WIN        ----- -----  ----- -----  83BBH 83D2H
  +--> _WRITEDGUS/DGUS

_SYS_WRITE_CHART_ZHEXIAN_TWO_CANKAO/STAR+     ----- -----  ----- -----  83BBH 83D2H
... T_WIN
  +--> _WRITEDGUS/DGUS

X_Y_HUOQU/START_WIN                           ----- -----  ----- -----  ----- -----
  +--> _FABS/FABS
  +--> _WRITE_NEW/START_WIN
  +--> _SYS_WRITE_CHART_ZHEXIAN_TWO_2/START_WIN
  +--> _WRITE_NEW_2/START_WIN

_WRITE_NEW/START_WIN                          ----- -----  ----- -----  83BBH 83C6H
  +--> _WRITEDGUS/DGUS

_SYS_WRITE_CHART_ZHEXIAN_TWO_2/START_WIN      ----- -----  ----- -----  83BBH 83D2H
  +--> _WRITEDGUS/DGUS

_WRITE_NEW_2/START_WIN                        ----- -----  ----- -----  83BBH 83C6H
  +--> _WRITEDGUS/DGUS

LED_JIGUANG_CHECK/SUANFA                      ----- -----  ----- -----  83BBH 83BCH
  +--> _READDGUS/DGUS
  +--> _WRITEDGUS/DGUS

_L_MM_TO_P_MW/SUANFA                          ----- -----  ----- -----  83BBH 83C8H
  +--> _POW/POW
  +--> LOG/LOG

SWITCH_PAGE/MAIN                              ----- -----  ----- -----  ----- -----
  +--> MODE_1_RUN/MAIN
  +--> MODE_2_RUN/MAIN
  +--> _LOCK_CURRENT_PAGE_ZENGLIANG/START_WIN
  +--> _WRITEDGUS/DGUS
  +--> MODE_4_RUN/MODE_4
  +--> LIANJI_RUN/SYS_PARAMS
  +--> _READDGUS/DGUS
  +--> T5L_HMISLVSUB/T5LUART4

MODE_1_RUN/MAIN                               ----- -----  ----- -----  ----- -----
  +--> _WRITEDGUS/DGUS
  +--> STATIC_T_CURRENT_MODE1/MODE_S

STATIC_T_CURRENT_MODE1/MODE_S                 ----- -----  ----- -----  ----- -----
  +--> MODE_S_CHOOSE/MODE_S

MODE_S_CHOOSE/MODE_S                          ----- -----  ----- -----  ----- -----
  +--> _READDGUS/DGUS
  +--> _QIRONGJIAO_LOG/MODE_S
  +--> _TRANSFORM_S_L_T_AEROSOLS/MODE_S
  +--> _QUYU_ZHONGXIN_LOG/MODE_S
  +--> _TRANSFORM_S_L_T_SURFACES_CENTRE/MODE_S
  +--> _TRANSFORM_S_L_T_SURFACES_ALL/MODE_S

_QIRONGJIAO_LOG/MODE_S                        ----- -----  ----- -----  ----- -----

_TRANSFORM_S_L_T_AEROSOLS/MODE_S              ----- -----  ----- -----  846DH 8470H

LX51 LINKER/LOCATER V4.66.93.0                                                        04/24/2025  12:33:12  PAGE 12


_QUYU_ZHONGXIN_LOG/MODE_S                     ----- -----  ----- -----  ----- -----

_TRANSFORM_S_L_T_SURFACES_CENTRE/MODE_S       ----- -----  ----- -----  846DH 8470H

_TRANSFORM_S_L_T_SURFACES_ALL/MODE_S          ----- -----  ----- -----  846DH 8470H

MODE_2_RUN/MAIN                               ----- -----  ----- -----  ----- -----
  +--> _WRITEDGUS/DGUS
  +--> _READDGUS/DGUS
  +--> STATIC_T_CURRENT_MODE2/MODE_P

STATIC_T_CURRENT_MODE2/MODE_P                 ----- -----  ----- -----  ----- -----
  +--> _MAICHONG_SUANFA/SUANFA
  +--> YICHU_RUN/SUANFA
  +--> YICHU_SET/SUANFA

_MAICHONG_SUANFA/SUANFA                       ----- -----  ----- -----  846DH 8474H

YICHU_RUN/SUANFA                              ----- -----  ----- -----  ----- -----
  +--> _WRITEDGUS/DGUS

YICHU_SET/SUANFA                              ----- -----  ----- -----  ----- -----
  +--> _WRITEDGUS/DGUS

MODE_4_RUN/MODE_4                             ----- -----  ----- -----  ----- -----
  +--> _READDGUS/DGUS
  +--> STATIC_T_CURRENT_MODE4/MODE_4

STATIC_T_CURRENT_MODE4/MODE_4                 ----- -----  ----- -----  ----- -----
  +--> _READDGUS/DGUS
  +--> _MODE4_MAICHONG/SUANFA

_MODE4_MAICHONG/SUANFA                        ----- -----  ----- -----  83C3H 83CAH

LIANJI_RUN/SYS_PARAMS                         ----- -----  ----- -----  83BBH 83CDH
  +--> _READNORFLASH_STR/NORFLASH
  +--> _WRITEDGUS/DGUS

T5L_HMISLVSUB/T5LUART4                        ----- -----  ----- -----  ----- -----
  +--> HMICOMMAND/T5LUART4

HMICOMMAND/T5LUART4                           ----- -----  ----- -----  83BBH 83BEH
  +--> _READDGUS/DGUS
  +--> _WRITEDGUS/DGUS

SHANGCHUAN/MAIN                               ----- -----  ----- -----  83BBH 83C8H
  +--> _WRITEDGUS/DGUS

CLOCK/I2C                                     20H.0 20H.0  ----- -----  ----- -----
  +--> READ_TIME/I2C
  +--> RTC_SET_TIME/I2C

READ_TIME/I2C                                 ----- -----  ----- -----  83BBH 83C4H
  +--> _WRITEDGUS/DGUS
  +--> _RX8130_WRIT_BYTE/I2C
  +--> RX8130_STOP/I2C
  +--> RX8130_START/I2C
  +--> RX8130_READ_BYTE/I2C
  +--> RX8130_MACK/I2C
  +--> RX8130_MNAK/I2C
  +--> _RTC_GET_WEEK/I2C
  +--> _WRITE_DGUS/RTC_SYS

_RTC_GET_WEEK/I2C                             ----- -----  ----- -----  83C5H 83C9H

LX51 LINKER/LOCATER V4.66.93.0                                                        04/24/2025  12:33:12  PAGE 13


_WRITE_DGUS/RTC_SYS                           ----- -----  ----- -----  ----- -----

RTC_SET_TIME/I2C                              20H.1 20H.1  ----- -----  83BBH 83C5H
  +--> _READ_DGUS/RTC_SYS
  +--> _WRITE_DGUS/RTC_SYS
  +--> _RX8130_WRIT_BYTE/I2C
  +--> RX8130_STOP/I2C

_READ_DGUS/RTC_SYS                            ----- -----  ----- -----  ----- -----

HANDLEPROC/HANDLE                             ----- -----  ----- -----  ----- -----
  +--> GETVALUE0F00/HANDLE
  +--> _WRITEDGUS/DGUS
  +--> TOUCHHANDLE/HANDLE

GETVALUE0F00/HANDLE                           ----- -----  ----- -----  83BBH 83BEH
  +--> _READDGUS/DGUS
  +--> _WRITEDGUS/DGUS

TOUCHHANDLE/HANDLE                            ----- -----  ----- -----  83BBH 83C2H
  +--> _READDGUS/DGUS
  +--> _JUMPPAGE/HANDLE
  +--> MODE_4_INIT/MODE_4
  +--> S_BIANLIANGQINGLING/MODE_S
  +--> CLOSE_W_BIANLIANGCHONGZHI/MODE_P
  +--> _WRITEDGUS/DGUS
  +--> MODE_4_RESET/MODE_4
  +--> DRAW_RESET/START_WIN
  +--> _LOCK_CURRENT_PAGE_ZENGLIANG/START_WIN
  +--> _UNLOCK_CURRENT_PAGE_ZENGLIANG/START_WIN
  +--> ZHILIAO_READ_NORFLASH/MODE_P
  +--> ZHILIAO_CHOOSE_MODE_1/MODE_P
  +--> ZHILIAO_CHOOSE_MODE_2/MODE_P
  +--> ZHILIAO_CHOOSE_MODE_3/MODE_P
  +--> _CHENGXU_1_24_LOCK/HANDLE
  +--> SET_PAGE_WRITE/SYS_PARAMS
  +--> RTC_SET_IN/I2C
  +--> ZHILIAO_SET/MODE_P
  +--> SUDOOPEN_SET_HANDLE/SYS_PARAMS
  +--> RESET_DATA/SYS_PARAMS
  +--> _WRITENORFLASH_STR/NORFLASH
  +--> LOCK_CURRENT_PAGE/START_WIN
  +--> UART4_OPEN/SYS_PARAMS

MODE_4_INIT/MODE_4                            ----- -----  ----- -----  ----- -----
  +--> _JUMPPAGE/HANDLE
  +--> STATIC_T_CURRENT_MODE4/MODE_4
  +--> SHOUDONG_READ_NORFLASH/MODE_4

SHOUDONG_READ_NORFLASH/MODE_4                 ----- -----  ----- -----  83C3H 83CAH
  +--> _READDGUS/DGUS
  +--> _WRITENORFLASH_STR/NORFLASH

S_BIANLIANGQINGLING/MODE_S                    ----- -----  ----- -----  ----- -----
  +--> UNLOCK_CURRENT_PAGE/START_WIN

UNLOCK_CURRENT_PAGE/START_WIN                 ----- -----  ----- -----  846DH 846EH
  +--> _WRITEDGUS/DGUS
  +--> _UNLOCK_CURRENT_PAGE_ZENGLIANG/START_WIN
  +--> _READDGUS/DGUS

_UNLOCK_CURRENT_PAGE_ZENGLIANG/START_WIN      ----- -----  ----- -----  846FH 8474H
  +--> _READDGUS/DGUS
  +--> _WRITEDGUS/DGUS

LX51 LINKER/LOCATER V4.66.93.0                                                        04/24/2025  12:33:12  PAGE 14


CLOSE_W_BIANLIANGCHONGZHI/MODE_P              ----- -----  ----- -----  ----- -----
  +--> _JUMPPAGE/HANDLE

MODE_4_RESET/MODE_4                           ----- -----  ----- -----  ----- -----
  +--> _JUMPPAGE/HANDLE
  +--> _WRITEDGUS/DGUS
  +--> UNLOCK_CURRENT_PAGE/START_WIN

DRAW_RESET/START_WIN                          ----- -----  ----- -----  8489H 8490H
  +--> _WRITEDGUS/DGUS

ZHILIAO_READ_NORFLASH/MODE_P                  ----- -----  ----- -----  83C3H 83D0H
  +--> _READDGUS/DGUS
  +--> _WRITENORFLASH_STR/NORFLASH

ZHILIAO_CHOOSE_MODE_1/MODE_P                  ----- -----  ----- -----  83C3H 83D0H
  +--> _READDGUS/DGUS
  +--> _WRITEDGUS/DGUS

ZHILIAO_CHOOSE_MODE_2/MODE_P                  ----- -----  ----- -----  83C3H 83D0H
  +--> _READDGUS/DGUS
  +--> _WRITEDGUS/DGUS

ZHILIAO_CHOOSE_MODE_3/MODE_P                  ----- -----  ----- -----  83C3H 83D0H
  +--> _READDGUS/DGUS
  +--> _WRITEDGUS/DGUS

_CHENGXU_1_24_LOCK/HANDLE                     ----- -----  ----- -----  83C3H 83C6H
  +--> _WRITEDGUS/DGUS

SET_PAGE_WRITE/SYS_PARAMS                     ----- -----  ----- -----  ----- -----
  +--> _READDGUS/DGUS
  +--> _WRITEDGUS/DGUS
  +--> _WRITENORFLASH_STR/NORFLASH

RTC_SET_IN/I2C                                ----- -----  ----- -----  8433H 8444H
  +--> _READDGUS/DGUS
  +--> _WRITEDGUS/DGUS

ZHILIAO_SET/MODE_P                            ----- -----  ----- -----  8433H 8456H
  +--> _READDGUS/DGUS
  +--> _WRITENORFLASH_DGUS/NORFLASH
  +--> _WRITENORFLASH_STR/NORFLASH
  +--> _WRITEDGUS/DGUS

_WRITENORFLASH_DGUS/NORFLASH                  ----- -----  ----- -----  84DDH 84EAH
  +--> _WRITEDGUS/DGUS
  +--> _DELAYMS/SYS
  +--> _READDGUS/DGUS

SUDOOPEN_SET_HANDLE/SYS_PARAMS                ----- -----  ----- -----  8433H 8434H
  +--> _READDGUS/DGUS
  +--> _WRITENORFLASH_STR/NORFLASH
  +--> _WRITENORFLASH_DGUS/NORFLASH

RESET_DATA/SYS_PARAMS                         ----- -----  ----- -----  83C3H 8432H
  +--> _WRITEDGUS/DGUS
  +--> RTC_SET_IN/I2C
  +--> ZHILIAO_SET/MODE_P
  +--> SUDOOPEN_SET_HANDLE/SYS_PARAMS
  +--> _WRITENORFLASH_STR/NORFLASH
  +--> CHENGXU_UPDAE/MODE_3
  +--> _READDGUS/DGUS

CHENGXU_UPDAE/MODE_3                          ----- -----  ----- -----  ----- -----
LX51 LINKER/LOCATER V4.66.93.0                                                        04/24/2025  12:33:12  PAGE 15


  +--> _WRITENORFLASH_DGUS/NORFLASH

UART4_OPEN/SYS_PARAMS                         ----- -----  ----- -----  83C3H 83C3H
  +--> _DELAYMS/SYS
  +--> UART4INIT/UART
  +--> PRINTF/PRINTF
  +--> _MATCH_CMD/CMD
  +--> _READDGUS/DGUS
  +--> UNLOCK_CURRENT_PAGE/START_WIN

_MATCH_CMD/CMD                                ----- -----  ----- -----  83C4H 83C8H
  +--> _STRLEN/STRLEN

_STRLEN/STRLEN                                ----- -----  ----- -----  ----- -----

?C_INITSEG                                    ----- -----  ----- -----  ----- -----

*** NEW ROOT ********************************

EX0_ISR_PC/SYS                                ----- -----  ----- -----  ----- -----

*** NEW ROOT ********************************

EX1_ISR_PC/SYS                                ----- -----  ----- -----  ----- -----

*** NEW ROOT ********************************

T0_ISR_PC/TIMER                               ----- -----  ----- -----  ----- -----
  +--> _WRITEDGUS/DGUS
  +--> MODE_3_ISR/MODE_3
  +--> MODE4_ISR/MODE_4
  +--> FIRST_SHUJU/MODE_P
  +--> TIM0_1S_ISR/MODE_P
  +--> FIRST_S_SHUJU/MODE_S
  +--> TIM0_1S_S_ISR/MODE_S

MODE_3_ISR/MODE_3                             ----- -----  ----- -----  ----- -----
  +--> CHENGXU_RUN/MODE_3

CHENGXU_RUN/MODE_3                            ----- -----  ----- -----  846DH 846DH
  +--> CHENGXU_ONLY_FIRST/MODE_3
  +--> _READDGUS/DGUS
  +--> MODE_3_RESET/MODE_3

CHENGXU_ONLY_FIRST/MODE_3                     ----- -----  ----- -----  846EH 8473H
  +--> CHENGXU_UPDAE/MODE_3
  +--> _READDGUS/DGUS
  +--> _ANALOG_CLICK/HANDLE

_ANALOG_CLICK/HANDLE                          ----- -----  ----- -----  ----- -----
  +--> _WRITEDGUS/DGUS

MODE_3_RESET/MODE_3                           ----- -----  ----- -----  ----- -----

MODE4_ISR/MODE_4                              ----- -----  ----- -----  ----- -----
  +--> MODE_4_RESET/MODE_4

FIRST_SHUJU/MODE_P                            ----- -----  ----- -----  ----- -----
  +--> STATIC_T_CURRENT_MODE2/MODE_P

TIM0_1S_ISR/MODE_P                            ----- -----  ----- -----  ----- -----
  +--> T_JISUAN/MODE_P
  +--> _JUMPPAGE/HANDLE
  +--> CLOSE_W_BIANLIANGCHONGZHI/MODE_P

LX51 LINKER/LOCATER V4.66.93.0                                                        04/24/2025  12:33:12  PAGE 16


T_JISUAN/MODE_P                               ----- -----  ----- -----  ----- -----
  +--> _MAICHONG_SUANFA/SUANFA

FIRST_S_SHUJU/MODE_S                          ----- -----  ----- -----  ----- -----
  +--> MODE_S_CHOOSE/MODE_S

TIM0_1S_S_ISR/MODE_S                          ----- -----  ----- -----  ----- -----
  +--> S_BIANLIANGQINGLING/MODE_S

*** NEW ROOT ********************************

T2_ISR_PC/TIMER                               ----- -----  ----- -----  ----- -----
  +--> T_100MS_ADC_ISR/ADC
  +--> T2_ISR/MAIN

T_100MS_ADC_ISR/ADC                           ----- -----  ----- -----  ----- -----
  +--> _ADC_READ/ADC

_ADC_READ/ADC                                 ----- -----  ----- -----  8489H 848AH
  +--> _SYS_READ_VP/SYS

_SYS_READ_VP/SYS                              ----- -----  ----- -----  848BH 8491H

T2_ISR/MAIN                                   ----- -----  ----- -----  ----- -----
  +--> DRAW_RESET/START_WIN
  +--> NORFLASH_WRITE_OPEN_UV/SYS_PARAMS
  +--> NORFLASH_WRITE_CLOSE_UV/SYS_PARAMS
  +--> NORFLASH_WRITE_STOP_UV/SYS_PARAMS
  +--> NORFLASH_WRITE_GUANJI/SYS_PARAMS
  +--> SCREEN_REVIEW/SYS_PARAMS
  +--> INIT_ADRESS/SYS_PARAMS
  +--> OPEN_SUDO_INIT/SYS_PARAMS
  +--> SUDO_CLICK_START/SYS_PARAMS

NORFLASH_WRITE_OPEN_UV/SYS_PARAMS             ----- -----  ----- -----  8489H 8492H
  +--> _WRITENORFLASH_STR/NORFLASH
  +--> NORFLASH_CHECK_ADRESS/SYS_PARAMS
  +--> _WRITENORFLASH_DGUS/NORFLASH

NORFLASH_CHECK_ADRESS/SYS_PARAMS              ----- -----  ----- -----  ----- -----

NORFLASH_WRITE_CLOSE_UV/SYS_PARAMS            ----- -----  ----- -----  8489H 8490H
  +--> _WRITENORFLASH_STR/NORFLASH
  +--> NORFLASH_CHECK_ADRESS/SYS_PARAMS
  +--> _WRITENORFLASH_DGUS/NORFLASH

NORFLASH_WRITE_STOP_UV/SYS_PARAMS             ----- -----  ----- -----  8489H 8490H
  +--> _WRITENORFLASH_STR/NORFLASH
  +--> NORFLASH_CHECK_ADRESS/SYS_PARAMS
  +--> _WRITENORFLASH_DGUS/NORFLASH

NORFLASH_WRITE_GUANJI/SYS_PARAMS              ----- -----  ----- -----  ----- -----
  +--> _WRITENORFLASH_DGUS/NORFLASH

SCREEN_REVIEW/SYS_PARAMS                      ----- -----  ----- -----  ----- -----
  +--> _READDGUS/DGUS
  +--> _WRITEDGUS/DGUS

INIT_ADRESS/SYS_PARAMS                        ----- -----  ----- -----  8489H 84DCH
  +--> SET_SHOUDONG_INIT/MODE_4
  +--> SET_ZHILIAO_INIT/MODE_P
  +--> _READNORFLASH_STR/NORFLASH
  +--> _WRITEDGUS/DGUS
  +--> _DELAYMS/SYS
  +--> _WRITENORFLASH_STR/NORFLASH
LX51 LINKER/LOCATER V4.66.93.0                                                        04/24/2025  12:33:12  PAGE 17


  +--> _READNORFLASH_DGUS/NORFLASH
  +--> NORFLASH_CHECK_ADRESS/SYS_PARAMS
  +--> _WRITENORFLASH_DGUS/NORFLASH

SET_SHOUDONG_INIT/MODE_4                      ----- -----  ----- -----  84DDH 84E4H
  +--> _READNORFLASH_STR/NORFLASH
  +--> _WRITEDGUS/DGUS

SET_ZHILIAO_INIT/MODE_P                       ----- -----  ----- -----  84DDH 84E4H
  +--> _READNORFLASH_DGUS/NORFLASH
  +--> _READNORFLASH_STR/NORFLASH
  +--> _WRITEDGUS/DGUS

OPEN_SUDO_INIT/SYS_PARAMS                     ----- -----  ----- -----  8489H 8490H
  +--> _READNORFLASH_DGUS/NORFLASH
  +--> _READNORFLASH_STR/NORFLASH
  +--> _JUMPPAGE/HANDLE
  +--> _WRITEDGUS/DGUS
  +--> _ANALOG_CLICK/HANDLE

SUDO_CLICK_START/SYS_PARAMS                   ----- -----  ----- -----  ----- -----
  +--> _ANALOG_CLICK/HANDLE

*** NEW ROOT ********************************

UART5_TX_ISR_PC/UART                          ----- -----  ----- -----  ----- -----

*** NEW ROOT ********************************

UART5_RX_ISR_PC/UART                          ----- -----  ----- -----  ----- -----
  +--> UART5_ISR/MAIN

UART5_ISR/MAIN                                ----- -----  ----- -----  ----- -----
  +--> _WRITEDGUS/DGUS

*** NEW ROOT ********************************

T5L_UART4_TX/T5LUART4                         ----- -----  ----- -----  ----- -----

*** NEW ROOT ********************************

T5L_UART4_RX/T5LUART4                         ----- -----  0033H 0036H  ----- -----



PUBLIC SYMBOLS OF MODULE:  .\Objects\T5L51 (?C_STARTUP)


      VALUE       CLASS    TYPE      PUBLIC SYMBOL NAME
      =================================================
      020083CBH   XDATA    BYTE      ?_dynamic_first_Init?BYTE
      020083C3H   XDATA    BYTE      ?_Lock_current_page_zengliang?BYTE
      020083C9H   XDATA    ---       ?_pow?BYTE
      02008421H   XDATA    ---       ?_PRINTF?BYTE
      020084F3H   XDATA    BYTE      ?_ReadDGUS?BYTE
      020084E5H   XDATA    BYTE      ?_ReadNorFlash_Str?BYTE
      02008421H   XDATA    ---       ?_SPRINTF?BYTE
      0200848BH   XDATA    BYTE      ?_sys_read_vp?BYTE
      020084F4H   XDATA    BYTE      ?_sys_read_vp_nor?BYTE
      020083BBH   XDATA    BYTE      ?_sys_write_chart_zhexian_Two?BYTE
      020083BBH   XDATA    BYTE      ?_sys_write_chart_zhexian_Two_2?BYTE
      020083BBH   XDATA    BYTE      ?_sys_write_chart_zhexian_Two_Cankao?BYTE
      020084F4H   XDATA    BYTE      ?_sys_write_vp_nor?BYTE
      0200846FH   XDATA    BYTE      ?_Unlock_current_page_zengliang?BYTE
      020084FBH   XDATA    BYTE      ?_WriteDGUS?BYTE
LX51 LINKER/LOCATER V4.66.93.0                                                        04/24/2025  12:33:12  PAGE 18


      020084DDH   XDATA    BYTE      ?_WriteNorFlash_Str?BYTE
      01000455H   CODE     ---       ?C?CASTF
      01000ACBH   CODE     ---       ?C?CCASE
      010004D6H   CODE     ---       ?C?CHKFLOAT
      0100080FH   CODE     ---       ?C?CLDOPTR
      010007F6H   CODE     ---       ?C?CLDPTR
      00000000H   NUMBER   ---       ?C?CODESEG
      010007D0H   CODE     ---       ?C?COPY
      0100083CH   CODE     ---       ?C?CSTPTR
      01000421H   CODE     ---       ?C?FCASTC
      0100041CH   CODE     ---       ?C?FCASTI
      01000417H   CODE     ---       ?C?FCASTL
      01000643H   CODE     ---       ?C?FP2SERIES
      01000107H   CODE     ---       ?C?FPADD
      010003A0H   CODE     ---       ?C?FPCMP
      0100039EH   CODE     ---       ?C?FPCMP3
      0100053EH   CODE     ---       ?C?FPCONVERT
      01000301H   CODE     ---       ?C?FPDIV
      0100048CH   CODE     ---       ?C?FPGETOPN2
      010001F8H   CODE     ---       ?C?FPMUL
      010004C1H   CODE     ---       ?C?FPNANRESULT
      010004F0H   CODE     ---       ?C?FPNEG
      010004CBH   CODE     ---       ?C?FPOVERFLOW
      010004A3H   CODE     ---       ?C?FPRESULT
      010004B7H   CODE     ---       ?C?FPRESULT2
      01000501H   CODE     ---       ?C?FPROUND
      01000652H   CODE     ---       ?C?FPSERIES
      01000103H   CODE     ---       ?C?FPSUB
      010004C8H   CODE     ---       ?C?FPUNDERFLOW
      010006C0H   CODE     ---       ?C?FTNPWR
      01000AF1H   CODE     ---       ?C?ICALL
      01000AF5H   CODE     ---       ?C?ICALL2
      010008EBH   CODE     ---       ?C?IILDX
      01000901H   CODE     ---       ?C?ILDIX
      0100084EH   CODE     ---       ?C?IMUL
      01000A06H   CODE     ---       ?C?LLDCODE
      01000A22H   CODE     ---       ?C?LLDCODE0
      01000A16H   CODE     ---       ?C?LLDXDATA0
      010009E5H   CODE     ---       ?C?LNEG
      010009F3H   CODE     ---       ?C?LSHL
      01000A3EH   CODE     ---       ?C?LSTKXDATA
      01000A32H   CODE     ---       ?C?LSTXDATA
      01000D7BH   CODE     ---       ?C?MEMSET
      01000A6FH   CODE     ---       ?C?OFFXADD
      01000DC2H   CODE     ---       ?C?PLDCODE
      01000DA7H   CODE     ---       ?C?PLDIDATA
      01000A7BH   CODE     ---       ?C?PLDIXDATA
      01000A9BH   CODE     ---       ?C?PLDOPTR
      01000DB9H   CODE     ---       ?C?PLDPDATA
      01000DB0H   CODE     ---       ?C?PLDXDATA
      01000A92H   CODE     ---       ?C?PSTXDATA
      010008B5H   CODE     ---       ?C?SIDIV
      01000C75H   CODE     ---       ?C?STRCMP
      01000D5EH   CODE     ---       ?C?STRCPY
      01000860H   CODE     ---       ?C?UIDIV
      01000953H   CODE     ---       ?C?ULDIV
      00000000H   NUMBER   ---       ?C?XDATASEG
      0100816BH   CODE     ---       ?C_START
      01000000H   CODE     ---       ?C_STARTUP
      01009408H   CODE     ---       _adc_read
      01009563H   CODE     ---       _Analog_click
      01006882H   CODE     ---       _chengxu_1_24_lock
      010095AAH   CODE     ---       _DelayMs
      01007A69H   CODE     ---       _dynamic_first_Init
      01007063H   CODE     ---       _dynamic_Write_New
LX51 LINKER/LOCATER V4.66.93.0                                                        04/24/2025  12:33:12  PAGE 19


      0100863BH   CODE     ---       _EXP
      010096B6H   CODE     ---       _FABS
      01008D43H   CODE     ---       _JumpPage
      01002BFAH   CODE     ---       _L_mm_TO_P_mw
      01006F5AH   CODE     ---       _Lock_current_page_zengliang
      01006107H   CODE     ---       _LOG
      01006103H   CODE     ---       _LOG10
      01006774H   CODE     ---       _maichong_suanfa
      010084CDH   CODE     ---       _match_cmd
      01007C74H   CODE     ---       _mode4_maichong
      010054CEH   CODE     ---       _pow
      01001DCDH   CODE     ---       _PRINTF
      01000056H   CODE     ---       _putchar
      01009110H   CODE     ---       _qirongjiao_log
      01009025H   CODE     ---       _quyu_zhongxin_log
      010091F0H   CODE     ---       _Read_Dgus
      01003893H   CODE     ---       _ReadDGUS
      01007D25H   CODE     ---       _ReadNorFlash_Dgus
      01007FC9H   CODE     ---       _ReadNorFlash_Str
      01006E6AH   CODE     ---       _register_cmds
      01005792H   CODE     ---       _RTC_Get_Week
      01008D16H   CODE     ---       _Rx8130_Writ_Byte
      01001DC7H   CODE     ---       _SPRINTF
      0100961AH   CODE     ---       _STRLEN
      0100712FH   CODE     ---       _sys_read_vp
      01006B98H   CODE     ---       _sys_read_vp_nor
      01007BC2H   CODE     ---       _sys_write_chart_zhexian_Two
      01007738H   CODE     ---       _sys_write_chart_zhexian_Two_2
      010088D9H   CODE     ---       _sys_write_chart_zhexian_Two_Cankao
      01005FA3H   CODE     ---       _sys_write_vp_nor
      010082F0H   CODE     ---       _Transform_S_L_T_Aerosols
      0100842EH   CODE     ---       _Transform_S_L_T_Surfaces_All
      0100838FH   CODE     ---       _Transform_S_L_T_Surfaces_Centre
      010096DBH   CODE     ---       _Uart4SendByte
      010096CFH   CODE     ---       _Uart5SendByte
      010092BFH   CODE     ---       _Uart5SendStr
      010074C2H   CODE     ---       _Unlock_current_page_zengliang
      01008EC8H   CODE     ---       _Write_Dgus
      01006433H   CODE     ---       _Write_New
      0100654CH   CODE     ---       _Write_New_2
      01003646H   CODE     ---       _WriteDGUS
      01007DD1H   CODE     ---       _WriteNorFlash_Dgus
      01007F26H   CODE     ---       _WriteNorFlash_Str
      02008722H   XDATA    WORD      a
*SFR* 000000D0H.6 DATA     BIT       AC
*SFR* 000000E0H   DATA     BYTE      ACC
      0200882DH   XDATA    WORD      ad
      020087C0H   XDATA    BYTE      Ad_chengxu
      02008834H   XDATA    FLOAT     adc_08
      02008838H   XDATA    FLOAT     adc_09
      02008830H   XDATA    FLOAT     adc_10
      0200882FH   XDATA    BYTE      adc_channel
*SFR* 000000D8H   DATA     BYTE      ADCON
*SFR* 000000F1H   DATA     BYTE      ADR_H
*SFR* 000000F4H   DATA     BYTE      ADR_INC
*SFR* 000000F3H   DATA     BYTE      ADR_L
*SFR* 000000F2H   DATA     BYTE      ADR_M
      0200876AH   XDATA    WORD      Adress_Change_0
      02008680H   XDATA    WORD      Adress_Now
      02008625H   XDATA    WORD      Adress_Now_2
      0200865EH   XDATA    WORD      Adress_Now_dynamic
*SFR* 000000F8H.4 DATA     BIT       APP_ACK
*SFR* 000000F8H.0 DATA     BIT       APP_DATA0
*SFR* 000000F8H.1 DATA     BIT       APP_DATA1
*SFR* 000000F8H.2 DATA     BIT       APP_DATA2
LX51 LINKER/LOCATER V4.66.93.0                                                        04/24/2025  12:33:12  PAGE 20


*SFR* 000000F8H.3 DATA     BIT       APP_DATA3
*SFR* 000000F8H.6 DATA     BIT       APP_EN
*SFR* 000000F8H.7 DATA     BIT       APP_REQ
*SFR* 000000F8H.5 DATA     BIT       APP_RW
      02008524H   XDATA    ---       array
      0200856FH   XDATA    WORD      attend_sp_0
      02008571H   XDATA    WORD      attend_sp_1
      02008565H   XDATA    WORD      attend_sp_error
      02008506H   XDATA    WORD      attend_sp_min_0
      02008508H   XDATA    WORD      attend_sp_min_1
      0200858DH   XDATA    WORD      attend_sp_sec_0
      0200858FH   XDATA    WORD      attend_sp_sec_1
      02008573H   XDATA    FLOAT     average
*SFR* 000000D9H   DATA     BYTE      BODE2_DIV_H
*SFR* 000000E7H   DATA     BYTE      BODE2_DIV_L
*SFR* 000000AEH   DATA     BYTE      BODE3_DIV_H
*SFR* 000000AFH   DATA     BYTE      BODE3_DIV_L
      020087B4H   XDATA    ---       BUff_main
      020086CDH   XDATA    WORD      c
*SFR* 0000008FH   DATA     BYTE      CAN_CR
*SFR* 000000E8H   DATA     BYTE      CAN_ET
*SFR* 00000091H   DATA     BYTE      CAN_IR
      02008549H   XDATA    FLOAT     change_P_mW
      02008544H   XDATA    FLOAT     change_P_mW_doing
      0200852CH   XDATA    FLOAT     change_P_mW_First
      02008660H   XDATA    WORD      chart_num
      0200866EH   XDATA    WORD      chart_num_2
      01009463H   CODE     ---       chengxu_Init
      0100698DH   CODE     ---       chengxu_only_first
      010046B2H   CODE     ---       chengxu_Run
      02008806H   XDATA    BYTE      chengxu_run_flag
      020087A3H   XDATA    BYTE      chengxu_start
      020087A9H   XDATA    BYTE      chengxu_start_1
      020087AAH   XDATA    BYTE      chengxu_stop
      01009436H   CODE     ---       chengxu_Updae
      020087B3H   XDATA    BYTE      chushu_chengxu
*SFR* 0000008EH   DATA     BYTE      CKCON
      0100953AH   CODE     ---       Clock
      0100872FH   CODE     ---       CLOSE_W_bianliangchongzhi
      020087B8H   XDATA    WORD      colour_w
      020087BAH   XDATA    WORD      colour_y
      020087B2H   XDATA    BYTE      control_chengxu_flag
      020087AEH   XDATA    WORD      control_shoudong_flag
      020087B0H   XDATA    WORD      control_zhiliao_flag
      02008646H   XDATA    WORD      ControlPageLock_Adress
      0200866AH   XDATA    WORD      Current_Lock
      02008678H   XDATA    ---       Current_page
*SFR* 000000D0H.7 DATA     BIT       CY
      02008659H   XDATA    FLOAT     D
      020087DDH   XDATA    WORD      D_1s
*SFR* 00000095H   DATA     BYTE      D_PAGESEL
      0200869DH   XDATA    BYTE      Dat
*SFR* 000000FDH   DATA     BYTE      DATA0
*SFR* 000000FCH   DATA     BYTE      DATA1
      02008687H   XDATA    BYTE      DATA15
*SFR* 000000FBH   DATA     BYTE      DATA2
*SFR* 000000FAH   DATA     BYTE      DATA3
      0100960AH   CODE     ---       Delayus
*SFR* 000000E6H   DATA     BYTE      DIV_MODE
*SFR* 00000093H   DATA     BYTE      DPC
*SFR* 00000083H   DATA     BYTE      DPH
*SFR* 00000082H   DATA     BYTE      DPL
      020087C1H   XDATA    WORD      Draw_1ms
      020087C9H   XDATA    WORD      Draw_1s
      01008966H   CODE     ---       Draw_Reset
LX51 LINKER/LOCATER V4.66.93.0                                                        04/24/2025  12:33:12  PAGE 21


      01009300H   CODE     ---       Draw_Rest_2
      0200863DH   XDATA    WORD      Draw_W_Flag
      010093A5H   CODE     ---       dynamic_draw
      010094E8H   CODE     ---       dynamic_draw_chart_Init
      0200870CH   XDATA    WORD      dynamic_static_flag
      01003164H   CODE     ---       dynamic_X_Y_huoqu
      0100487BH   CODE     ---       dynamic_X_Y_huoqu_2
      02008619H   XDATA    WORD      dynamic_X_zuobiao
      02008657H   XDATA    ---       dynamic_y
      0200861BH   XDATA    WORD      dynamic_Y_zuobiao
*SFR* 000000A8H.7 DATA     BIT       EA
*SFR* 000000B8H.1 DATA     BIT       ECAN
      00000021H.7 BIT      BIT       error_flag
*SFR* 000000A8H.4 DATA     BIT       ES0
*SFR* 000000B8H.3 DATA     BIT       ES2R
*SFR* 000000B8H.2 DATA     BIT       ES2T
*SFR* 000000B8H.5 DATA     BIT       ES3R
*SFR* 000000B8H.4 DATA     BIT       ES3T
*SFR* 000000A8H.1 DATA     BIT       ET0
*SFR* 000000A8H.3 DATA     BIT       ET1
*SFR* 000000A8H.5 DATA     BIT       ET2
*SFR* 000000A8H.0 DATA     BIT       EX0
      01000006H   CODE     ---       EX0_ISR_PC
*SFR* 000000A8H.2 DATA     BIT       EX1
      0100000EH   CODE     ---       EX1_ISR_PC
*SFR* 000000FEH   DATA     BYTE      EXADR
*SFR* 000000FFH   DATA     BYTE      EXDATA
      0200850AH   XDATA    ---       exit_sp
*SFR* 000000D0H.5 DATA     BIT       F0
*SFR* 000000D0H.1 DATA     BIT       F1
      0200866CH   XDATA    WORD      First_Draw_Flag
      00000021H.1 BIT      BIT       First_Init
      02008688H   XDATA    BYTE      first_page_lianji
      020086E3H   XDATA    BYTE      first_page_shoudong
      02008686H   XDATA    BYTE      first_page_zhiliao
      01009071H   CODE     ---       First_S_shuju
      02008751H   XDATA    WORD      First_S_shuju_FLAG
      01008B82H   CODE     ---       First_shuju
      020086F0H   XDATA    WORD      First_shuju_FLAG
      0200880EH   XDATA    ---       flag_rtc_in
      02008815H   XDATA    ---       flag_rtc_init
      010090C4H   CODE     ---       GetValue0F00
      020086CFH   XDATA    ---       GY53_Data
      0100933FH   CODE     ---       HandleProc
      01005BA7H   CODE     ---       HMICommand
      02008015H   XDATA    ---       HmiSlvBuff
      00000024H   DATA     ---       HmiSlvCmd
      02008141H   XDATA    ---       HmiSlvSendBuff
      020086B7H   XDATA    WORD      hour
      020087A6H   XDATA    ---       icon_attend
      020087ABH   XDATA    ---       icon_exit
      02008804H   XDATA    ---       icon_exit_
*SFR* 00000088H.1 DATA     BIT       IE0
*SFR* 00000088H.3 DATA     BIT       IE1
*SFR* 000000A8H   DATA     BYTE      IEN0
*SFR* 000000B8H   DATA     BYTE      IEN1
*SFR* 0000009AH   DATA     BYTE      IEN2
*SFR* 000000D1H   DATA     BYTE      IEN3
      010044E5H   CODE     ---       Init_Adress
      01008E6EH   CODE     ---       Init_Rtc
      0100967DH   CODE     ---       InitCPU
      010095EAH   CODE     ---       InitGPIO
      010096C3H   CODE     ---       InitInt
      01009706H   CODE     ---       InitTimer
      0100970CH   CODE     ---       InitUart
LX51 LINKER/LOCATER V4.66.93.0                                                        04/24/2025  12:33:12  PAGE 22


*SFR* 000000A9H   DATA     BYTE      IP0
*SFR* 000000B9H   DATA     BYTE      IP1
*SFR* 000000C0H   DATA     BYTE      IRCON
*SFR* 000000BFH   DATA     BYTE      IRCON2
*SFR* 00000088H.0 DATA     BIT       IT0
*SFR* 00000088H.2 DATA     BIT       IT1
      02008579H   XDATA    ---       jiaoyan
*SFR* 000000A0H.5 DATA     BIT       JIGUANG
      020086BAH   XDATA    ---       L
      02008591H   XDATA    WORD      L_3FLAG
      00000022H.0 BIT      BIT       L_ARRAY_FINISH
      00000021H.3 BIT      BIT       L_change
      0200858BH   XDATA    WORD      L_FINISH
      0200869EH   XDATA    FLOAT     L_Float
      0200850EH   XDATA    WORD      L_i
      020086E4H   XDATA    WORD      L_int
      02008704H   XDATA    WORD      l_lasttime
      0200862DH   XDATA    FLOAT     L_m
      020086A2H   XDATA    WORD      l_mode2
      02008510H   XDATA    ---       L_q
      02008551H   XDATA    ---       L_s2
      020086B3H   XDATA    WORD      L_sp_ad
      02008530H   XDATA    ---       L_suanfa
      02008736H   XDATA    WORD      L_T_FLAG
      0200874BH   XDATA    WORD      L_T_S_FLAG
      020086B5H   XDATA    WORD      L_vp_ad
      01003ADBH   CODE     ---       led1_off
      010096FDH   CODE     ---       led1_on
      010091A7H   CODE     ---       led2_off
      010078C8H   CODE     ---       led2_on
      01000052H   CODE     ---       led3_off
*SFR* 000000A0H.3 DATA     BIT       LED_B
*SFR* 000000A0H.1 DATA     BIT       LED_G
      01006665H   CODE     ---       LED_jiguang_Check
*SFR* 00000090H.7 DATA     BIT       LED_R
      010095CAH   CODE     ---       led_register
      0200850CH   XDATA    INT       length
      010033EEH   CODE     ---       lianji_run
      01005A4CH   CODE     ---       Lock_current_page
*SFR* 000000E5H   DATA     BYTE      MAC_MODE
      0200867AH   XDATA    WORD      maichong_off
      01004BE7H   CODE     ---       main
      02008820H   XDATA    FLOAT     mj_mode4
      020086A4H   XDATA    WORD      MODE
      020087E3H   XDATA    WORD      mode4_1s_time
      0200882CH   XDATA    BYTE      mode4_first_flag
      01006D79H   CODE     ---       mode4_isr
      02008826H   XDATA    ---       mode4_maichong_off
      0200882AH   XDATA    ---       mode4_maichong_on
      0200881EH   XDATA    ---       mode4_min
      02008767H   XDATA    BYTE      MODE_1_Finish
      01008A7BH   CODE     ---       Mode_1_run
      02008738H   XDATA    BYTE      MODE_2_Finish
      0100780AH   CODE     ---       Mode_2_run
      020086E9H   XDATA    BYTE      MODE_2_RUN_Draw
      01009712H   CODE     ---       mode_3_isr
      01009511H   CODE     ---       mode_3_reset
      020087C7H   XDATA    WORD      mode_4_500ms
      0200881DH   XDATA    BYTE      MODE_4_Finish
      020087ADH   XDATA    BYTE      mode_4_flag_start
      0100915CH   CODE     ---       mode_4_Init
      01008FC8H   CODE     ---       mode_4_reset
      01009238H   CODE     ---       mode_4_run
      02008639H   XDATA    WORD      mode_close
      0200864DH   XDATA    WORD      mode_open
LX51 LINKER/LOCATER V4.66.93.0                                                        04/24/2025  12:33:12  PAGE 23


      01000062H   CODE     ---       Mode_p_work
      00000022H.2 BIT      BIT       MODE_S_Aerosols
      0200875FH   XDATA    ---       MODE_S_C
      0100798DH   CODE     ---       MODE_S_CHOOSE
      00000022H.4 BIT      BIT       MODE_S_Surfaces_All
      00000022H.3 BIT      BIT       MODE_S_Surfaces_Centre
      020086E1H   XDATA    WORD      MODE_Static
*SFR* 000000C9H   DATA     BYTE      MUX_SEL
      02008793H   XDATA    ---       Nor_Adress
      01009381H   CODE     ---       norflash_check_Adress
      020087CDH   XDATA    WORD      norflash_Close_UV_Flag
      020086B1H   XDATA    WORD      norflash_Guanji_flag_5s
      020087DBH   XDATA    WORD      norflash_Open_UV_Flag
      020087DFH   XDATA    WORD      norflash_Stop_UV_Flag
      0100884CH   CODE     ---       norflash_Write_Close_UV
      01009643H   CODE     ---       norflash_Write_guanji
      01008569H   CODE     ---       norflash_Write_Open_UV
      0100006EH   CODE     ---       norflash_Write_Stop_UV
      02008724H   XDATA    WORD      Off_On_pwm_flag
      00000021H.4 BIT      BIT       OPEN_P
      00000021H.5 BIT      BIT       OPEN_S
      010061FCH   CODE     ---       open_sudo_Init
*SFR* 000000D0H.2 DATA     BIT       OV
*SFR* 000000D0H.0 DATA     BIT       P
*SFR* 00000080H   DATA     BYTE      P0
*SFR* 00000080H.0 DATA     BIT       P0_0
*SFR* 000000B7H   DATA     BYTE      P0MDOUT
*SFR* 00000090H   DATA     BYTE      P1
*SFR* 00000090H.0 DATA     BIT       P1_0
*SFR* 00000090H.1 DATA     BIT       P1_1
*SFR* 000000BCH   DATA     BYTE      P1MDOUT
*SFR* 000000A0H   DATA     BYTE      P2
*SFR* 000000BDH   DATA     BYTE      P2MDOUT
*SFR* 000000B0H   DATA     BYTE      P3
*SFR* 000000B0H.1 DATA     BIT       P3_1
*SFR* 000000BEH   DATA     BYTE      P3MDOUT
      0200872AH   XDATA    FLOAT     P_FINISH
      020086ECH   XDATA    FLOAT     P_LASTTIME
      02008670H   XDATA    FLOAT     P_mW_First
      020086FEH   XDATA    FLOAT     P_mW_T
      020086E8H   XDATA    BYTE      Page_flag
      0200863FH   XDATA    BYTE      Page_Lasttime
      02008668H   XDATA    ---       Page_s
*SFR* 00000094H   DATA     BYTE      PAGESEL
      02008664H   XDATA    BYTE      PageSliding
      02008649H   XDATA    FLOAT     pai
*SFR* 00000087H   DATA     BYTE      PCON
*SFR* 000000F9H   DATA     BYTE      PORTDRV
*SFR* 000000D0H   DATA     BYTE      PSW
      02008702H   XDATA    ---       PWM_OFF
      02008728H   XDATA    ---       PWM_ON
      02008739H   XDATA    FLOAT     qirongjiao_j
      0200875BH   XDATA    FLOAT     quyu_zhongxin_j
*SFR* 000000F8H   DATA     BYTE      RAMMODE
*SFR* 00000098H.2 DATA     BIT       RB80
      00000021H.2 BIT      BIT       Read_buff
      020086E6H   XDATA    ---       Read_First_Distance
      02008757H   XDATA    WORD      Read_log_j
      010058EFH   CODE     ---       Read_Time
      02008640H   XDATA    WORD      ReadCurrentPage_Adress
      0200823BH   XDATA    WORD      rec_ok
*SFR* 00000098H.4 DATA     BIT       REN0
      01002907H   CODE     ---       reset_data
      00000022H.6 BIT      BIT       reset_mode2
      00000022H.7 BIT      BIT       reset_mode4
LX51 LINKER/LOCATER V4.66.93.0                                                        04/24/2025  12:33:12  PAGE 24


      02008667H   XDATA    BYTE      Returnkey
*SFR* 00000098H.0 DATA     BIT       RI0
*SFR* 000000D0H.3 DATA     BIT       RS0
*SFR* 000000D0H.4 DATA     BIT       RS1
      020087F7H   XDATA    ---       rtc_chengxu
      00000023H.1 BIT      BIT       RTC_Flog
*SFR* 000000B0H.2 DATA     BIT       RTC_SCL
*SFR* 000000B0H.3 DATA     BIT       RTC_SDA
      01002EC3H   CODE     ---       RTC_SET_IN
      010051FFH   CODE     ---       RTC_Set_Time
      0100002EH   CODE     ---       Rx8130_Cack
      010096A9H   CODE     ---       Rx8130_Mack
      010096E7H   CODE     ---       Rx8130_Mnak
      01009490H   CODE     ---       Rx8130_Read_Byte
      01009657H   CODE     ---       Rx8130_Start
      01009598H   CODE     ---       Rx8130_Stop
      00000023H.2 BIT      BIT       s
      01008E0DH   CODE     ---       S_bianliangqingling
      01006318H   CODE     ---       S_D_Surfaces_All
      02008653H   XDATA    FLOAT     S_Write
*SFR* 00000099H   DATA     BYTE      SBUF0
*SFR* 0000009CH   DATA     BYTE      SBUF1
*SFR* 0000009FH   DATA     BYTE      SBUF2_RX
*SFR* 0000009EH   DATA     BYTE      SBUF2_TX
*SFR* 000000ADH   DATA     BYTE      SBUF3_RX
*SFR* 000000ACH   DATA     BYTE      SBUF3_TX
*SFR* 00000098H   DATA     BYTE      SCON0
*SFR* 0000009BH   DATA     BYTE      SCON1
*SFR* 00000097H   DATA     BYTE      SCON2R
*SFR* 00000096H   DATA     BYTE      SCON2T
*SFR* 000000ABH   DATA     BYTE      SCON3R
*SFR* 000000A7H   DATA     BYTE      SCON3T
      01008F1EH   CODE     ---       Screen_Init
      02008786H   XDATA    ---       Screen_Light
      0100806CH   CODE     ---       Screen_review
      0200876CH   XDATA    WORD      Screen_set_Time_min
      020087D1H   XDATA    WORD      Screen_Time_500ms
      0200878EH   XDATA    BYTE      Screen_Touch_flag
      0100005EH   CODE     ---       SDA_IN
      01000066H   CODE     ---       SDA_OUT
      02008648H   XDATA    BYTE      second_firstdraw_flag
      02008814H   XDATA    BYTE      Select_rtc
      01008F73H   CODE     ---       set_page_write
      01008DA9H   CODE     ---       set_shoudong_Init
      01008251H   CODE     ---       set_zhiliao_Init
      010021E5H   CODE     ---       shangchuan
      01008C6BH   CODE     ---       shoudong_read_norflash
      010094BDH   CODE     ---       shuju_bianliang_chongzhi
      00000022H.1 BIT      BIT       shuju_change
      01004A37H   CODE     ---       shujuchuli
*SFR* 00000098H.7 DATA     BIT       SM0
*SFR* 00000098H.6 DATA     BIT       SM1
*SFR* 00000098H.5 DATA     BIT       SM2
*SFR* 00000081H   DATA     BYTE      SP
      0200867CH   XDATA    FLOAT     Square
*SFR* 000000BAH   DATA     BYTE      SREL0H
*SFR* 000000AAH   DATA     BYTE      SREL0L
*SFR* 000000BBH   DATA     BYTE      SREL1H
*SFR* 0000009DH   DATA     BYTE      SREL1L
      02008567H   XDATA    FLOAT     standard
      02008548H   XDATA    BYTE      start_first_flag
      00000023H.0 BIT      BIT       start_mode4
      010093D7H   CODE     ---       Static_T_Current_mode1
      01008BF7H   CODE     ---       Static_T_Current_mode2
      0100869DH   CODE     ---       Static_T_Current_mode4
LX51 LINKER/LOCATER V4.66.93.0                                                        04/24/2025  12:33:12  PAGE 25


      02008689H   XDATA    ---       Status
      020086C0H   XDATA    WORD      Status_Current
      0200878AH   XDATA    ---       sudo_buff
      0100966BH   CODE     ---       sudo_click_start
      010089F2H   CODE     ---       Sudoopen_set_handle
      0200856BH   XDATA    FLOAT     sum
      01003F0DH   CODE     ---       Switch_page
      0200884DH   XDATA    WORD      SysTick_RTC
      0100968EH   CODE     ---       T0_Init
      01004303H   CODE     ---       T0_ISR_PC
      020087D9H   XDATA    WORD      t15ms
      020087CFH   XDATA    WORD      t2
      0100962FH   CODE     ---       T2_Init
      01005CFCH   CODE     ---       t2_isr
      01005E49H   CODE     ---       T2_ISR_PC
*SFR* 000000C8H   DATA     BYTE      T2CON
      010096F2H   CODE     ---       T5L_HMIslvInit
      010087BEH   CODE     ---       T5L_HMIslvSub
      0100410FH   CODE     ---       T5L_Uart4_RX
      0100927CH   CODE     ---       T5L_Uart4_TX
      02008577H   XDATA    WORD      T_06S
      020087C5H   XDATA    WORD      T_100MS_ADC
      0100766EH   CODE     ---       T_100MS_ADC_isr
      020087D5H   XDATA    WORD      T_1S
      020087E1H   XDATA    WORD      T_1S_S
      02008824H   XDATA    WORD      T_4_ON_OFF
      02008665H   XDATA    WORD      T_All
      0200874DH   XDATA    FLOAT     T_beishu
      02008662H   XDATA    WORD      T_doing
      020086F8H   XDATA    WORD      T_dynamic
      0200872EH   XDATA    WORD      T_FINISH
      0200864FH   XDATA    FLOAT     T_First
      01006A8CH   CODE     ---       T_jisuan
      020086F2H   XDATA    WORD      T_LASTTIME
      02008828H   XDATA    WORD      t_mode4
      020086EAH   XDATA    WORD      T_ON_OFF
      02008726H   XDATA    WORD      T_P_First
      02008759H   XDATA    WORD      T_S_First
      02008743H   XDATA    FLOAT     T_S_WORK
      02008720H   XDATA    WORD      T_Static_MODE2
      02008730H   XDATA    WORD      T_WORK
      0200870AH   XDATA    WORD      T_XIANSHI
      02008747H   XDATA    FLOAT     T_y
      0200873FH   XDATA    FLOAT     T_y_Last
      02008615H   XDATA    FLOAT     Tan_zhongxin
      02008631H   XDATA    FLOAT     Tanx
*SFR* 00000098H.3 DATA     BIT       TB80
*SFR* 00000088H   DATA     BYTE      TCON
      020086B9H   XDATA    BYTE      test
      020086C2H   XDATA    ---       test_error
*SFR* 00000088H.5 DATA     BIT       TF0
*SFR* 00000088H.7 DATA     BIT       TF1
*SFR* 000000C0H.6 DATA     BIT       TF2
*SFR* 0000008CH   DATA     BYTE      TH0
*SFR* 0000008DH   DATA     BYTE      TH1
*SFR* 000000CDH   DATA     BYTE      TH2
*SFR* 00000098H.1 DATA     BIT       TI0
      01005368H   CODE     ---       TIM0_1S_isr
      010081B0H   CODE     ---       TIM0_1S_S_isr
      01004F04H   CODE     ---       TIM0_suanfa_isr
*SFR* 0000008AH   DATA     BYTE      TL0
*SFR* 0000008BH   DATA     BYTE      TL1
*SFR* 000000CCH   DATA     BYTE      TL2
*SFR* 00000089H   DATA     BYTE      TMOD
      020087FFH   XDATA    ---       today_date
LX51 LINKER/LOCATER V4.66.93.0                                                        04/24/2025  12:33:12  PAGE 26


      020087D7H   XDATA    WORD      TOF_suanfa_Count
      01000DCEH   CODE     ---       TouchHandle
*SFR* 00000088H.4 DATA     BIT       TR0
*SFR* 00000088H.6 DATA     BIT       TR1
*SFR* 000000C8H.0 DATA     BIT       TR2
*SFR* 000000CBH   DATA     BYTE      TRL2H
*SFR* 000000CAH   DATA     BYTE      TRL2L
*SFR* 000000C8H.7 DATA     BIT       TSF2
      01006C81H   CODE     ---       Uart4_Open
      020087A4H   XDATA    ---       uart4_open_buff
      0100969CH   CODE     ---       Uart4Init
      020086DFH   XDATA    WORD      UART5_FLAG
      01005083H   CODE     ---       UART5_isr
      02008593H   XDATA    ---       Uart5_Rx
      02008613H   XDATA    WORD      uart5_rx_count
      01008B01H   CODE     ---       UART5_RX_ISR_PC
      01000051H   CODE     ---       UART5_TX_ISR_PC
      01000016H   CODE     ---       Uart5Init
      02008000H   XDATA    BYTE      uartRecCnt
      02008001H   XDATA    ---       uartRecStr
      020087F6H   XDATA    BYTE      UE
      01005634H   CODE     ---       Unlock_current_page
*SFR* 00000090H.5 DATA     BIT       UV
      020087D3H   XDATA    WORD      uv_f
      020086A6H   XDATA    BYTE      UV_FLAG
*SFR* 000000A0H.7 DATA     BIT       UV_St
      020087BCH   XDATA    ---       value0F00
      0200854DH   XDATA    FLOAT     var
      02008682H   XDATA    FLOAT     Volume
      0200871AH   XDATA    FLOAT     W_18mJ
      02008732H   XDATA    FLOAT     W_FINISH
      020086F4H   XDATA    FLOAT     W_LASTTIME
      02008674H   XDATA    FLOAT     W_mJ_doing
      02008753H   XDATA    FLOAT     W_mJ_XIANSHI
      02008627H   XDATA    FLOAT     W_mJ_zong
      02008706H   XDATA    FLOAT     W_Mode
      020086A7H   XDATA    ---       W_P_uJ
      02008693H   XDATA    ---       W_S
      020086FAH   XDATA    FLOAT     W_Static
      020087C3H   XDATA    WORD      Wait_Count
      020087CBH   XDATA    WORD      Wait_Count_2
      020087F1H   XDATA    ---       week_check
      02008807H   XDATA    BYTE      weekday
      01004D7DH   CODE     ---       X_Y_huoqu
      02008642H   XDATA    WORD      X_zuobiao
      0200862BH   XDATA    WORD      X_zuobiao_second
      02008644H   XDATA    WORD      Y_zuobiao
      0200863BH   XDATA    WORD      Y_zuobiao_static
      01007B0AH   CODE     ---       yichu_run
      01007E7DH   CODE     ---       yichu_set
      00000022H.5 BIT      BIT       yichu_T
      020087A8H   XDATA    BYTE      yushu_chengxu
      0200865DH   XDATA    BYTE      zengliang
      01003CFAH   CODE     ---       zhexian_Draw
      01007214H   CODE     ---       zhiliao_Choose_Mode_1
      010072F9H   CODE     ---       zhiliao_Choose_Mode_2
      010073DEH   CODE     ---       zhiliao_Choose_Mode_3
      010075A3H   CODE     ---       zhiliao_read_norflash
      010025B5H   CODE     ---       zhiliao_SET
      02008635H   XDATA    FLOAT     zhongxin_35mm
      0200871EH   XDATA    WORD      ZIWAIXIAN_FINISH_FLAG
      0200873DH   XDATA    WORD      ZIWAIXIAN_S_FINISH_FLAG



LX51 LINKER/LOCATER V4.66.93.0                                                        04/24/2025  12:33:12  PAGE 27


IGNORED SYMBOLS:
   b



SYMBOL TABLE OF MODULE:  .\Objects\T5L51 (?C_STARTUP)

      VALUE       REP       CLASS    TYPE      SYMBOL NAME
      ====================================================
      ---         MODULE    ---      ---       ?C_STARTUP
      01000000H   PUBLIC    CODE     ---       ?C_STARTUP
      000000E0H   SYMBOL    DATA     ---       ACC
      000000F0H   SYMBOL    DATA     ---       B
      0000008EH   SYMBOL    DATA     ---       CKCON
      00000094H   SYMBOL    DATA     ---       DAGESEL
      00000093H   SYMBOL    DATA     ---       DPC
      00000083H   SYMBOL    DATA     ---       DPH
      00000082H   SYMBOL    DATA     ---       DPL
      00000095H   SYMBOL    DATA     ---       D_PAGESEL
      00000000H   SYMBOL    NUMBER   ---       IBPSTACK
      00000100H   SYMBOL    NUMBER   ---       IBPSTACKTOP
      00000080H   SYMBOL    NUMBER   ---       IDATALEN
      01008127H   SYMBOL    CODE     ---       IDATALOOP
      000000C9H   SYMBOL    DATA     ---       MUX_SEL
      00000000H   SYMBOL    NUMBER   ---       PBPSTACK
      00000100H   SYMBOL    NUMBER   ---       PBPSTACKTOP
      00000000H   SYMBOL    NUMBER   ---       PDATALEN
      00000000H   SYMBOL    NUMBER   ---       PDATASTART
      00000000H   SYMBOL    NUMBER   ---       PPAGE
      00000000H   SYMBOL    NUMBER   ---       PPAGEENABLE
      000000A0H   SYMBOL    DATA     ---       PPAGE_SFR
      000000F8H   SYMBOL    DATA     ---       RAMMODE
      00000081H   SYMBOL    DATA     ---       SP
      0100810FH   SYMBOL    CODE     ---       STARTUP1
      000000C8H   SYMBOL    DATA     ---       T2CON
      00000000H   SYMBOL    NUMBER   ---       XBPSTACK
      00000000H   SYMBOL    NUMBER   ---       XBPSTACKTOP
      00000000H   SYMBOL    NUMBER   ---       XDATALEN
      00000000H   SYMBOL    NUMBER   ---       XDATASTART
      01000000H   LINE      CODE     ---       #133
      0100810FH   LINE      CODE     ---       #143
      01008112H   LINE      CODE     ---       #144
      01008115H   LINE      CODE     ---       #145
      01008118H   LINE      CODE     ---       #146
      0100811BH   LINE      CODE     ---       #147
      0100811EH   LINE      CODE     ---       #148
      01008121H   LINE      CODE     ---       #149
      01008124H   LINE      CODE     ---       #152
      01008126H   LINE      CODE     ---       #153
      01008127H   LINE      CODE     ---       #154
      01008128H   LINE      CODE     ---       #155
      0100812AH   LINE      CODE     ---       #204
      0100812DH   LINE      CODE     ---       #215

      ---         MODULE    ---      ---       MAIN
      020086E8H   PUBLIC    XDATA    BYTE      Page_flag
      020086E6H   PUBLIC    XDATA    ---       Read_First_Distance
      020086E4H   PUBLIC    XDATA    WORD      L_int
      020086E3H   PUBLIC    XDATA    BYTE      first_page_shoudong
      020086E1H   PUBLIC    XDATA    WORD      MODE_Static
      020086DFH   PUBLIC    XDATA    WORD      UART5_FLAG
      00000021H.5 PUBLIC    BIT      BIT       OPEN_S
      020086CFH   PUBLIC    XDATA    ---       GY53_Data
      00000021H.4 PUBLIC    BIT      BIT       OPEN_P
      020086CDH   PUBLIC    XDATA    WORD      c
LX51 LINKER/LOCATER V4.66.93.0                                                        04/24/2025  12:33:12  PAGE 28


      020086CBH   PUBLIC    XDATA    WORD      b
      020086C2H   PUBLIC    XDATA    ---       test_error
      020086C0H   PUBLIC    XDATA    WORD      Status_Current
      020086BAH   PUBLIC    XDATA    ---       L
      020086B9H   PUBLIC    XDATA    BYTE      test
      020086B7H   PUBLIC    XDATA    WORD      hour
      020086B5H   PUBLIC    XDATA    WORD      L_vp_ad
      020086B3H   PUBLIC    XDATA    WORD      L_sp_ad
      020086B1H   PUBLIC    XDATA    WORD      norflash_Guanji_flag_5s
      020086A7H   PUBLIC    XDATA    ---       W_P_uJ
      020086A6H   PUBLIC    XDATA    BYTE      UV_FLAG
      020086A4H   PUBLIC    XDATA    WORD      MODE
      020086A2H   PUBLIC    XDATA    WORD      l_mode2
      0200869EH   PUBLIC    XDATA    FLOAT     L_Float
      0200869DH   PUBLIC    XDATA    BYTE      Dat
      00000021H.3 PUBLIC    BIT      BIT       L_change
      02008693H   PUBLIC    XDATA    ---       W_S
      02008689H   PUBLIC    XDATA    ---       Status
      02008688H   PUBLIC    XDATA    BYTE      first_page_lianji
      00000021H.2 PUBLIC    BIT      BIT       Read_buff
      02008687H   PUBLIC    XDATA    BYTE      DATA15
      00000021H.1 PUBLIC    BIT      BIT       First_Init
      02008686H   PUBLIC    XDATA    BYTE      first_page_zhiliao
      01004BE7H   PUBLIC    CODE     ---       main
      01005CFCH   PUBLIC    CODE     ---       t2_isr
      01003F0DH   PUBLIC    CODE     ---       Switch_page
      0100780AH   PUBLIC    CODE     ---       Mode_2_run
      01008A7BH   PUBLIC    CODE     ---       Mode_1_run
      010021E5H   PUBLIC    CODE     ---       shangchuan
      01005083H   PUBLIC    CODE     ---       UART5_isr
      00000098H.3 SFRSYM    DATA     BIT       TB80
      000000F1H   SFRSYM    DATA     BYTE      ADR_H
      00000080H   SFRSYM    DATA     BYTE      P0
      00000090H   SFRSYM    DATA     BYTE      P1
      000000A0H   SFRSYM    DATA     BYTE      P2
      000000B0H   SFRSYM    DATA     BYTE      P3
      000000D0H.6 SFRSYM    DATA     BIT       AC
      000000F3H   SFRSYM    DATA     BYTE      ADR_L
      00000094H   SFRSYM    DATA     BYTE      PAGESEL
      000000F2H   SFRSYM    DATA     BYTE      ADR_M
      000000A8H.7 SFRSYM    DATA     BIT       EA
      000000A0H.5 SFRSYM    DATA     BIT       JIGUANG
      00000090H.7 SFRSYM    DATA     BIT       LED_R
      000000F8H   SFRSYM    DATA     BYTE      RAMMODE
      000000B7H   SFRSYM    DATA     BYTE      P0MDOUT
      000000A8H   SFRSYM    DATA     BYTE      IEN0
      000000BCH   SFRSYM    DATA     BYTE      P1MDOUT
      000000B8H   SFRSYM    DATA     BYTE      IEN1
      000000BDH   SFRSYM    DATA     BYTE      P2MDOUT
      000000F8H.0 SFRSYM    DATA     BIT       APP_DATA0
      0000009AH   SFRSYM    DATA     BYTE      IEN2
      000000BEH   SFRSYM    DATA     BYTE      P3MDOUT
      000000F8H.1 SFRSYM    DATA     BIT       APP_DATA1
      000000D1H   SFRSYM    DATA     BYTE      IEN3
      00000080H.0 SFRSYM    DATA     BIT       P0_0
      000000F8H.2 SFRSYM    DATA     BIT       APP_DATA2
      00000090H.0 SFRSYM    DATA     BIT       P1_0
      000000F8H.3 SFRSYM    DATA     BIT       APP_DATA3
      00000090H.1 SFRSYM    DATA     BIT       P1_1
      000000F8H.4 SFRSYM    DATA     BIT       APP_ACK
      000000F4H   SFRSYM    DATA     BYTE      ADR_INC
      000000B0H.1 SFRSYM    DATA     BIT       P3_1
      00000098H.4 SFRSYM    DATA     BIT       REN0
      000000B8H.1 SFRSYM    DATA     BIT       ECAN
      000000D0H.7 SFRSYM    DATA     BIT       CY
LX51 LINKER/LOCATER V4.66.93.0                                                        04/24/2025  12:33:12  PAGE 29


      000000B8H.3 SFRSYM    DATA     BIT       ES2R
      000000B8H.5 SFRSYM    DATA     BIT       ES3R
      000000B8H.2 SFRSYM    DATA     BIT       ES2T
      000000B8H.4 SFRSYM    DATA     BIT       ES3T
      000000C8H.7 SFRSYM    DATA     BIT       TSF2
      000000B0H.3 SFRSYM    DATA     BIT       RTC_SDA
      00000081H   SFRSYM    DATA     BYTE      SP
      000000D0H.2 SFRSYM    DATA     BIT       OV
      00000095H   SFRSYM    DATA     BYTE      D_PAGESEL
      00000090H.5 SFRSYM    DATA     BIT       UV
      000000F8H.7 SFRSYM    DATA     BIT       APP_REQ
      000000B0H.2 SFRSYM    DATA     BIT       RTC_SCL
      000000BFH   SFRSYM    DATA     BYTE      IRCON2
      000000BAH   SFRSYM    DATA     BYTE      SREL0H
      000000BBH   SFRSYM    DATA     BYTE      SREL1H
      00000087H   SFRSYM    DATA     BYTE      PCON
      000000AAH   SFRSYM    DATA     BYTE      SREL0L
      000000F9H   SFRSYM    DATA     BYTE      PORTDRV
      0000009DH   SFRSYM    DATA     BYTE      SREL1L
      00000089H   SFRSYM    DATA     BYTE      TMOD
      00000088H   SFRSYM    DATA     BYTE      TCON
      00000097H   SFRSYM    DATA     BYTE      SCON2R
      000000FFH   SFRSYM    DATA     BYTE      EXDATA
      000000ABH   SFRSYM    DATA     BYTE      SCON3R
      000000D9H   SFRSYM    DATA     BYTE      BODE2_DIV_H
      000000AEH   SFRSYM    DATA     BYTE      BODE3_DIV_H
      00000096H   SFRSYM    DATA     BYTE      SCON2T
      000000A7H   SFRSYM    DATA     BYTE      SCON3T
      000000E7H   SFRSYM    DATA     BYTE      BODE2_DIV_L
      00000088H.1 SFRSYM    DATA     BIT       IE0
      000000AFH   SFRSYM    DATA     BYTE      BODE3_DIV_L
      00000088H.3 SFRSYM    DATA     BIT       IE1
      000000C9H   SFRSYM    DATA     BYTE      MUX_SEL
      020086CBH   SFRSYM    XDATA    WORD      B
      000000E0H   SFRSYM    DATA     BYTE      ACC
      000000A8H.4 SFRSYM    DATA     BIT       ES0
      0000008FH   SFRSYM    DATA     BYTE      CAN_CR
      000000A8H.1 SFRSYM    DATA     BIT       ET0
      000000A9H   SFRSYM    DATA     BYTE      IP0
      000000A8H.3 SFRSYM    DATA     BIT       ET1
      00000088H.5 SFRSYM    DATA     BIT       TF0
      000000B9H   SFRSYM    DATA     BYTE      IP1
      000000A8H.5 SFRSYM    DATA     BIT       ET2
      00000098H.0 SFRSYM    DATA     BIT       RI0
      00000088H.7 SFRSYM    DATA     BIT       TF1
      000000FDH   SFRSYM    DATA     BYTE      DATA0
      000000C0H.6 SFRSYM    DATA     BIT       TF2
      000000E8H   SFRSYM    DATA     BYTE      CAN_ET
      000000FCH   SFRSYM    DATA     BYTE      DATA1
      0000008CH   SFRSYM    DATA     BYTE      TH0
      000000A8H.0 SFRSYM    DATA     BIT       EX0
      00000098H.1 SFRSYM    DATA     BIT       TI0
      00000088H.0 SFRSYM    DATA     BIT       IT0
      000000FBH   SFRSYM    DATA     BYTE      DATA2
      0000008DH   SFRSYM    DATA     BYTE      TH1
      000000A8H.2 SFRSYM    DATA     BIT       EX1
      00000091H   SFRSYM    DATA     BYTE      CAN_IR
      000000CDH   SFRSYM    DATA     BYTE      TH2
      00000088H.2 SFRSYM    DATA     BIT       IT1
      000000FAH   SFRSYM    DATA     BYTE      DATA3
      000000D0H.0 SFRSYM    DATA     BIT       P
      00000098H.7 SFRSYM    DATA     BIT       SM0
      0000008AH   SFRSYM    DATA     BYTE      TL0
      00000098H.6 SFRSYM    DATA     BIT       SM1
      0000008BH   SFRSYM    DATA     BYTE      TL1
LX51 LINKER/LOCATER V4.66.93.0                                                        04/24/2025  12:33:12  PAGE 30


      00000098H.5 SFRSYM    DATA     BIT       SM2
      000000CCH   SFRSYM    DATA     BYTE      TL2
      000000A0H.7 SFRSYM    DATA     BIT       UV_St
      000000D0H.3 SFRSYM    DATA     BIT       RS0
      000000F8H.6 SFRSYM    DATA     BIT       APP_EN
      000000D0H.4 SFRSYM    DATA     BIT       RS1
      00000088H.4 SFRSYM    DATA     BIT       TR0
      00000088H.6 SFRSYM    DATA     BIT       TR1
      00000093H   SFRSYM    DATA     BYTE      DPC
      000000C8H.0 SFRSYM    DATA     BIT       TR2
      000000E5H   SFRSYM    DATA     BYTE      MAC_MODE
      00000083H   SFRSYM    DATA     BYTE      DPH
      00000082H   SFRSYM    DATA     BYTE      DPL
      00000099H   SFRSYM    DATA     BYTE      SBUF0
      0000009CH   SFRSYM    DATA     BYTE      SBUF1
      00000098H   SFRSYM    DATA     BYTE      SCON0
      0000009BH   SFRSYM    DATA     BYTE      SCON1
      000000D8H   SFRSYM    DATA     BYTE      ADCON
      000000C8H   SFRSYM    DATA     BYTE      T2CON
      000000E6H   SFRSYM    DATA     BYTE      DIV_MODE
      000000F8H.5 SFRSYM    DATA     BIT       APP_RW
      000000CBH   SFRSYM    DATA     BYTE      TRL2H
      0000009FH   SFRSYM    DATA     BYTE      SBUF2_RX
      000000ADH   SFRSYM    DATA     BYTE      SBUF3_RX
      0000008EH   SFRSYM    DATA     BYTE      CKCON
      0000009EH   SFRSYM    DATA     BYTE      SBUF2_TX
      000000ACH   SFRSYM    DATA     BYTE      SBUF3_TX
      000000CAH   SFRSYM    DATA     BYTE      TRL2L
      000000D0H.5 SFRSYM    DATA     BIT       F0
      000000FEH   SFRSYM    DATA     BYTE      EXADR
      000000D0H.1 SFRSYM    DATA     BIT       F1
      000000A0H.3 SFRSYM    DATA     BIT       LED_B
      000000D0H   SFRSYM    DATA     BYTE      PSW
      000000A0H.1 SFRSYM    DATA     BIT       LED_G
      000000C0H   SFRSYM    DATA     BYTE      IRCON
      00000098H.2 SFRSYM    DATA     BIT       RB80

      01005083H   BLOCK     CODE     ---       LVL=0
      01005083H   BLOCK     CODE     NEAR LAB  LVL=1
      00000007H   SYMBOL    DATA     BYTE      Dat
      ---         BLOCKEND  ---      ---       LVL=1
      01005083H   LINE      CODE     ---       #81
      01005083H   LINE      CODE     ---       #82
      01005083H   LINE      CODE     ---       #84
      01005085H   LINE      CODE     ---       #88
      01005097H   LINE      CODE     ---       #89
      01005097H   LINE      CODE     ---       #90
      01005097H   LINE      CODE     ---       #91
      01005097H   LINE      CODE     ---       #92
      0100509FH   LINE      CODE     ---       #93
      0100509FH   LINE      CODE     ---       #94
      010050ABH   LINE      CODE     ---       #95
      010050B3H   LINE      CODE     ---       #96
      010050B3H   LINE      CODE     ---       #97
      010050B4H   LINE      CODE     ---       #98
      010050B4H   LINE      CODE     ---       #99
      010050B4H   LINE      CODE     ---       #100
      010050B4H   LINE      CODE     ---       #101
      010050B7H   LINE      CODE     ---       #102
      010050B7H   LINE      CODE     ---       #103
      010050C9H   LINE      CODE     ---       #104
      010050D2H   LINE      CODE     ---       #105
      010050D3H   LINE      CODE     ---       #107
      010050D3H   LINE      CODE     ---       #108
      010050DAH   LINE      CODE     ---       #109
LX51 LINKER/LOCATER V4.66.93.0                                                        04/24/2025  12:33:12  PAGE 31


      010050DAH   LINE      CODE     ---       #110
      010050DBH   LINE      CODE     ---       #111
      010050DBH   LINE      CODE     ---       #112
      010050DBH   LINE      CODE     ---       #113
      010050DBH   LINE      CODE     ---       #114
      010050EDH   LINE      CODE     ---       #115
      010050FBH   LINE      CODE     ---       #116
      0100510DH   LINE      CODE     ---       #117
      0100510DH   LINE      CODE     ---       #119
      01005111H   LINE      CODE     ---       #120
      01005159H   LINE      CODE     ---       #123
      01005163H   LINE      CODE     ---       #124
      01005163H   LINE      CODE     ---       #128
      01005166H   LINE      CODE     ---       #129
      01005166H   LINE      CODE     ---       #131
      0100518DH   LINE      CODE     ---       #133
      01005190H   LINE      CODE     ---       #134
      01005190H   LINE      CODE     ---       #135
      01005192H   LINE      CODE     ---       #136
      010051A6H   LINE      CODE     ---       #138
      010051BAH   LINE      CODE     ---       #139
      010051BAH   LINE      CODE     ---       #141
      010051BCH   LINE      CODE     ---       #142
      010051BEH   LINE      CODE     ---       #143
      010051DEH   LINE      CODE     ---       #144
      010051FEH   LINE      CODE     ---       #147
      010051FEH   LINE      CODE     ---       #148
      010051FEH   LINE      CODE     ---       #149
      010051FEH   LINE      CODE     ---       #150
      010051FEH   LINE      CODE     ---       #151
      010051FEH   LINE      CODE     ---       #152
      ---         BLOCKEND  ---      ---       LVL=0

      010021E5H   BLOCK     CODE     ---       LVL=0
      010021E5H   BLOCK     CODE     NEAR LAB  LVL=1
      020083BBH   SYMBOL    XDATA    WORD      T_doing_min_int
      020083BDH   SYMBOL    XDATA    WORD      T_first_min_int
      00000002H   SYMBOL    DATA     WORD      T_doing_sec_int
      020083BFH   SYMBOL    XDATA    WORD      T_first_sec_int
      020083C1H   SYMBOL    XDATA    WORD      T_first_h_int
      020083C3H   SYMBOL    XDATA    WORD      baifenbi_T
      020083C5H   SYMBOL    XDATA    FLOAT     I
      ---         BLOCKEND  ---      ---       LVL=1
      010021E5H   LINE      CODE     ---       #168
      010021E5H   LINE      CODE     ---       #169
      010021E5H   LINE      CODE     ---       #171
      010021ECH   LINE      CODE     ---       #172
      010021F0H   LINE      CODE     ---       #173
      010021F2H   LINE      CODE     ---       #174
      010021F6H   LINE      CODE     ---       #175
      010021FAH   LINE      CODE     ---       #176
      010021FEH   LINE      CODE     ---       #177
      01002206H   LINE      CODE     ---       #179
      0100221DH   LINE      CODE     ---       #180
      0100222CH   LINE      CODE     ---       #182
      01002242H   LINE      CODE     ---       #183
      01002242H   LINE      CODE     ---       #184
      01002245H   LINE      CODE     ---       #185
      01002245H   LINE      CODE     ---       #186
      01002247H   LINE      CODE     ---       #188
      01002247H   LINE      CODE     ---       #189
      01002261H   LINE      CODE     ---       #190
      01002272H   LINE      CODE     ---       #191
      01002272H   LINE      CODE     ---       #193
      01002274H   LINE      CODE     ---       #196
LX51 LINKER/LOCATER V4.66.93.0                                                        04/24/2025  12:33:12  PAGE 32


      0100228EH   LINE      CODE     ---       #197
      010022A1H   LINE      CODE     ---       #200
      010022B7H   LINE      CODE     ---       #201
      010022B7H   LINE      CODE     ---       #202
      010022BAH   LINE      CODE     ---       #203
      010022FCH   LINE      CODE     ---       #207
      01002312H   LINE      CODE     ---       #208
      01002312H   LINE      CODE     ---       #209
      0100231BH   LINE      CODE     ---       #210
      0100231BH   LINE      CODE     ---       #213
      0100232AH   LINE      CODE     ---       #214
      0100232AH   LINE      CODE     ---       #215
      0100238CH   LINE      CODE     ---       #217
      010023A2H   LINE      CODE     ---       #219
      010023B1H   LINE      CODE     ---       #220
      010023B1H   LINE      CODE     ---       #221
      01002402H   LINE      CODE     ---       #222
      01002404H   LINE      CODE     ---       #223
      0100241AH   LINE      CODE     ---       #224
      0100241AH   LINE      CODE     ---       #227
      01002430H   LINE      CODE     ---       #228
      01002446H   LINE      CODE     ---       #231
      0100245CH   LINE      CODE     ---       #233
      0100247DH   LINE      CODE     ---       #235
      01002493H   LINE      CODE     ---       #236
      010024A9H   LINE      CODE     ---       #238
      010024B5H   LINE      CODE     ---       #239
      010024CAH   LINE      CODE     ---       #240
      010024EDH   LINE      CODE     ---       #241
      01002503H   LINE      CODE     ---       #242
      01002503H   LINE      CODE     ---       #243
      0100250BH   LINE      CODE     ---       #244
      0100250BH   LINE      CODE     ---       #245
      01002544H   LINE      CODE     ---       #246
      0100255AH   LINE      CODE     ---       #247
      01002570H   LINE      CODE     ---       #248
      01002586H   LINE      CODE     ---       #249
      01002586H   LINE      CODE     ---       #252
      0100259CH   LINE      CODE     ---       #253
      010025B2H   LINE      CODE     ---       #255
      010025B4H   LINE      CODE     ---       #257
      ---         BLOCKEND  ---      ---       LVL=0

      01008A7BH   BLOCK     CODE     ---       LVL=0
      01008A7BH   LINE      CODE     ---       #259
      01008A7BH   LINE      CODE     ---       #260
      01008A7BH   LINE      CODE     ---       #261
      01008A7DH   LINE      CODE     ---       #262
      01008A89H   LINE      CODE     ---       #263
      01008A89H   LINE      CODE     ---       #264
      01008A9EH   LINE      CODE     ---       #265
      01008AA5H   LINE      CODE     ---       #266
      01008AA9H   LINE      CODE     ---       #267
      01008AB3H   LINE      CODE     ---       #268
      01008AB3H   LINE      CODE     ---       #269
      01008AC0H   LINE      CODE     ---       #270
      01008AC0H   LINE      CODE     ---       #271
      01008AC3H   LINE      CODE     ---       #272
      01008AC3H   LINE      CODE     ---       #273
      01008ACAH   LINE      CODE     ---       #276
      01008AD2H   LINE      CODE     ---       #277
      01008AD4H   LINE      CODE     ---       #278
      01008AD4H   LINE      CODE     ---       #279
      01008AD6H   LINE      CODE     ---       #280
      01008AE4H   LINE      CODE     ---       #282
LX51 LINKER/LOCATER V4.66.93.0                                                        04/24/2025  12:33:12  PAGE 33


      01008AEEH   LINE      CODE     ---       #283
      01008AEEH   LINE      CODE     ---       #284
      01008AF1H   LINE      CODE     ---       #285
      01008AF1H   LINE      CODE     ---       #287
      01008B00H   LINE      CODE     ---       #290
      ---         BLOCKEND  ---      ---       LVL=0

      01007801H   BLOCK     CODE     VOID      LVL=0
      ---         BLOCKEND  ---      ---       LVL=0

      0100780AH   BLOCK     CODE     ---       LVL=0
      0100780AH   LINE      CODE     ---       #293
      0100780AH   LINE      CODE     ---       #294
      0100780AH   LINE      CODE     ---       #295
      0100780CH   LINE      CODE     ---       #296
      01007818H   LINE      CODE     ---       #297
      01007818H   LINE      CODE     ---       #298
      0100782DH   LINE      CODE     ---       #299
      01007834H   LINE      CODE     ---       #300
      01007838H   LINE      CODE     ---       #301
      01007838H   LINE      CODE     ---       #302
      01007845H   LINE      CODE     ---       #303
      01007845H   LINE      CODE     ---       #304
      0100784CH   LINE      CODE     ---       #305
      01007855H   LINE      CODE     ---       #306
      01007858H   LINE      CODE     ---       #307
      01007858H   LINE      CODE     ---       #312
      0100785AH   LINE      CODE     ---       #313
      0100785AH   LINE      CODE     ---       #314
      0100785BH   LINE      CODE     ---       #315
      0100785FH   LINE      CODE     ---       #316
      01007865H   LINE      CODE     ---       #317
      0100787AH   LINE      CODE     ---       #318
      0100788CH   LINE      CODE     ---       #319
      010078A2H   LINE      CODE     ---       #320
      010078B8H   LINE      CODE     ---       #321
      010078BAH   LINE      CODE     ---       #322
      010078C4H   LINE      CODE     ---       #323
      010078C4H   LINE      CODE     ---       #325
      010078C7H   LINE      CODE     ---       #326
      010078C7H   LINE      CODE     ---       #328
      010078C7H   LINE      CODE     ---       #332
      ---         BLOCKEND  ---      ---       LVL=0

      01003F0DH   BLOCK     CODE     ---       LVL=0
      01003F0DH   LINE      CODE     ---       #341
      01003F0DH   LINE      CODE     ---       #342
      01003F0DH   LINE      CODE     ---       #343
      01003F0FH   LINE      CODE     ---       #344
      01003F46H   LINE      CODE     ---       #345
      01003F46H   LINE      CODE     ---       #346
      01003F46H   LINE      CODE     ---       #347
      01003F4BH   LINE      CODE     ---       #348
      01003F4FH   LINE      CODE     ---       #349
      01003F53H   LINE      CODE     ---       #350
      01003F55H   LINE      CODE     ---       #351
      01003F57H   LINE      CODE     ---       #353
      01003F5DH   LINE      CODE     ---       #354
      01003F60H   LINE      CODE     ---       #355
      01003F60H   LINE      CODE     ---       #357
      01003F60H   LINE      CODE     ---       #358
      01003F60H   LINE      CODE     ---       #360
      01003F6FH   LINE      CODE     ---       #361
      01003F71H   LINE      CODE     ---       #362
      01003F71H   LINE      CODE     ---       #365
LX51 LINKER/LOCATER V4.66.93.0                                                        04/24/2025  12:33:12  PAGE 34


      01003F71H   LINE      CODE     ---       #366
      01003F71H   LINE      CODE     ---       #367
      01003F81H   LINE      CODE     ---       #368
      01003F83H   LINE      CODE     ---       #369
      01003F83H   LINE      CODE     ---       #372
      01003F83H   LINE      CODE     ---       #373
      01003F83H   LINE      CODE     ---       #374
      01003F97H   LINE      CODE     ---       #375
      01003F9AH   LINE      CODE     ---       #376
      01003F9AH   LINE      CODE     ---       #379
      01003F9AH   LINE      CODE     ---       #380
      01003F9AH   LINE      CODE     ---       #381
      01003FA7H   LINE      CODE     ---       #382
      01003FADH   LINE      CODE     ---       #383
      01003FADH   LINE      CODE     ---       #387
      01003FADH   LINE      CODE     ---       #388
      01003FB0H   LINE      CODE     ---       #389
      01003FB0H   LINE      CODE     ---       #392
      01003FB0H   LINE      CODE     ---       #393
      01003FB0H   LINE      CODE     ---       #395
      01003FB0H   LINE      CODE     ---       #396
      01003FB3H   LINE      CODE     ---       #398
      01003FB9H   LINE      CODE     ---       #399
      01003FB9H   LINE      CODE     ---       #401
      01003FBBH   LINE      CODE     ---       #402
      01003FC7H   LINE      CODE     ---       #403
      01003FD5H   LINE      CODE     ---       #404
      01003FE3H   LINE      CODE     ---       #405
      01003FF9H   LINE      CODE     ---       #406
      0100400FH   LINE      CODE     ---       #407
      01004025H   LINE      CODE     ---       #408
      01004025H   LINE      CODE     ---       #409
      0100402AH   LINE      CODE     ---       #411
      0100402DH   LINE      CODE     ---       #412
      0100402DH   LINE      CODE     ---       #415
      0100402DH   LINE      CODE     ---       #416
      0100402DH   LINE      CODE     ---       #418
      01004036H   LINE      CODE     ---       #419
      0100403EH   LINE      CODE     ---       #420
      01004041H   LINE      CODE     ---       #422
      0100404AH   LINE      CODE     ---       #423
      0100404AH   LINE      CODE     ---       #424
      0100404CH   LINE      CODE     ---       #425
      0100404EH   LINE      CODE     ---       #426
      01004050H   LINE      CODE     ---       #427
      0100405CH   LINE      CODE     ---       #428
      0100406AH   LINE      CODE     ---       #429
      01004078H   LINE      CODE     ---       #430
      0100408EH   LINE      CODE     ---       #431
      010040A4H   LINE      CODE     ---       #432
      010040BAH   LINE      CODE     ---       #433
      010040BAH   LINE      CODE     ---       #435
      010040BCH   LINE      CODE     ---       #436
      010040BCH   LINE      CODE     ---       #439
      010040BCH   LINE      CODE     ---       #440
      010040BCH   LINE      CODE     ---       #441
      010040C1H   LINE      CODE     ---       #443
      010040C7H   LINE      CODE     ---       #444
      010040C7H   LINE      CODE     ---       #445
      010040C9H   LINE      CODE     ---       #446
      010040CBH   LINE      CODE     ---       #447
      010040CEH   LINE      CODE     ---       #448
      010040D4H   LINE      CODE     ---       #449
      010040D4H   LINE      CODE     ---       #450
      010040EAH   LINE      CODE     ---       #452
LX51 LINKER/LOCATER V4.66.93.0                                                        04/24/2025  12:33:12  PAGE 35


      010040EDH   LINE      CODE     ---       #453
      010040EFH   LINE      CODE     ---       #454
      010040EFH   LINE      CODE     ---       #457
      010040EFH   LINE      CODE     ---       #458
      010040EFH   LINE      CODE     ---       #459
      010040F4H   LINE      CODE     ---       #460
      010040F6H   LINE      CODE     ---       #461
      010040F8H   LINE      CODE     ---       #462
      010040FAH   LINE      CODE     ---       #463
      010040FAH   LINE      CODE     ---       #465
      010040FAH   LINE      CODE     ---       #466
      010040FAH   LINE      CODE     ---       #467
      01004107H   LINE      CODE     ---       #474
      01004109H   LINE      CODE     ---       #475
      01004109H   LINE      CODE     ---       #477
      01004109H   LINE      CODE     ---       #478
      01004109H   LINE      CODE     ---       #479
      01004109H   LINE      CODE     ---       #480
      0100410CH   LINE      CODE     ---       #481
      0100410CH   LINE      CODE     ---       #482
      0100410CH   LINE      CODE     ---       #483
      0100410CH   LINE      CODE     ---       #485
      0100410CH   LINE      CODE     ---       #486
      0100410CH   LINE      CODE     ---       #492
      0100410CH   LINE      CODE     ---       #493
      0100410EH   LINE      CODE     ---       #494
      ---         BLOCKEND  ---      ---       LVL=0

      01005CFCH   BLOCK     CODE     ---       LVL=0
      01005CFCH   LINE      CODE     ---       #498
      01005CFCH   LINE      CODE     ---       #499
      01005CFCH   LINE      CODE     ---       #501
      01005D18H   LINE      CODE     ---       #502
      01005D18H   LINE      CODE     ---       #503
      01005D27H   LINE      CODE     ---       #504
      01005D27H   LINE      CODE     ---       #506
      01005D2DH   LINE      CODE     ---       #508
      01005D30H   LINE      CODE     ---       #510
      01005D3AH   LINE      CODE     ---       #511
      01005D44H   LINE      CODE     ---       #512
      01005D4BH   LINE      CODE     ---       #513
      01005D51H   LINE      CODE     ---       #514
      01005D55H   LINE      CODE     ---       #516
      01005D57H   LINE      CODE     ---       #517
      01005D6BH   LINE      CODE     ---       #519
      01005D6EH   LINE      CODE     ---       #523
      01005D75H   LINE      CODE     ---       #524
      01005D7BH   LINE      CODE     ---       #526
      01005D81H   LINE      CODE     ---       #527
      01005D95H   LINE      CODE     ---       #529
      01005D98H   LINE      CODE     ---       #530
      01005D9DH   LINE      CODE     ---       #533
      01005DA3H   LINE      CODE     ---       #534
      01005DA9H   LINE      CODE     ---       #537
      01005DA9H   LINE      CODE     ---       #547
      01005DA9H   LINE      CODE     ---       #548
      01005DA9H   LINE      CODE     ---       #553
      01005DB5H   LINE      CODE     ---       #554
      01005DB5H   LINE      CODE     ---       #555
      01005DBBH   LINE      CODE     ---       #556
      01005DBEH   LINE      CODE     ---       #558
      01005DC0H   LINE      CODE     ---       #560
      01005DCCH   LINE      CODE     ---       #561
      01005DCCH   LINE      CODE     ---       #563
      01005DD2H   LINE      CODE     ---       #564
LX51 LINKER/LOCATER V4.66.93.0                                                        04/24/2025  12:33:12  PAGE 36


      01005DD5H   LINE      CODE     ---       #566
      01005DD7H   LINE      CODE     ---       #567
      01005DE3H   LINE      CODE     ---       #568
      01005DE3H   LINE      CODE     ---       #569
      01005DE9H   LINE      CODE     ---       #570
      01005DECH   LINE      CODE     ---       #571
      01005DEEH   LINE      CODE     ---       #573
      01005DEEH   LINE      CODE     ---       #574
      01005DFCH   LINE      CODE     ---       #575
      01005E0BH   LINE      CODE     ---       #576
      01005E0BH   LINE      CODE     ---       #577
      01005E0FH   LINE      CODE     ---       #578
      01005E12H   LINE      CODE     ---       #580
      01005E12H   LINE      CODE     ---       #581
      01005E12H   LINE      CODE     ---       #584
      01005E1CH   LINE      CODE     ---       #585
      01005E1CH   LINE      CODE     ---       #586
      01005E1FH   LINE      CODE     ---       #587
      01005E1FH   LINE      CODE     ---       #589
      01005E2CH   LINE      CODE     ---       #590
      01005E2CH   LINE      CODE     ---       #591
      01005E2FH   LINE      CODE     ---       #592
      01005E2FH   LINE      CODE     ---       #593
      01005E37H   LINE      CODE     ---       #594
      01005E37H   LINE      CODE     ---       #596
      01005E3AH   LINE      CODE     ---       #597
      01005E3DH   LINE      CODE     ---       #599
      01005E3DH   LINE      CODE     ---       #600
      01005E48H   LINE      CODE     ---       #601
      ---         BLOCKEND  ---      ---       LVL=0

      01004BE7H   BLOCK     CODE     ---       LVL=0
      01004BE7H   LINE      CODE     ---       #605
      01004BE7H   LINE      CODE     ---       #606
      01004BE7H   LINE      CODE     ---       #608
      01004BEAH   LINE      CODE     ---       #609
      01004BEDH   LINE      CODE     ---       #610
      01004BF4H   LINE      CODE     ---       #611
      01004C0AH   LINE      CODE     ---       #612
      01004C20H   LINE      CODE     ---       #614
      01004C23H   LINE      CODE     ---       #615
      01004C26H   LINE      CODE     ---       #617
      01004C29H   LINE      CODE     ---       #619
      01004C2CH   LINE      CODE     ---       #624
      01004C42H   LINE      CODE     ---       #626
      01004C58H   LINE      CODE     ---       #628
      01004C6EH   LINE      CODE     ---       #629
      01004C70H   LINE      CODE     ---       #630
      01004C70H   LINE      CODE     ---       #631
      01004C70H   LINE      CODE     ---       #632
      01004C73H   LINE      CODE     ---       #634
      01004C82H   LINE      CODE     ---       #635
      01004C82H   LINE      CODE     ---       #637
      01004C97H   LINE      CODE     ---       #638
      01004C9AH   LINE      CODE     ---       #639
      01004CA1H   LINE      CODE     ---       #641
      01004CB5H   LINE      CODE     ---       #643
      01004CC2H   LINE      CODE     ---       #644
      01004CC2H   LINE      CODE     ---       #645
      01004CC4H   LINE      CODE     ---       #646
      01004CE6H   LINE      CODE     ---       #647
      01004CE8H   LINE      CODE     ---       #648
      01004CEAH   LINE      CODE     ---       #649
      01004D0DH   LINE      CODE     ---       #651
      01004D10H   LINE      CODE     ---       #652
LX51 LINKER/LOCATER V4.66.93.0                                                        04/24/2025  12:33:12  PAGE 37


      01004D1FH   LINE      CODE     ---       #654
      01004D2BH   LINE      CODE     ---       #657
      01004D47H   LINE      CODE     ---       #658
      01004D5DH   LINE      CODE     ---       #660
      01004D72H   LINE      CODE     ---       #661
      01004D74H   LINE      CODE     ---       #679
      01004D74H   LINE      CODE     ---       #680
      01004D77H   LINE      CODE     ---       #681
      01004D7AH   LINE      CODE     ---       #685
      ---         BLOCKEND  ---      ---       LVL=0

      ---         MODULE    ---      ---       SYS
      0100967DH   PUBLIC    CODE     ---       InitCPU
      0200848BH   PUBLIC    XDATA    BYTE      ?_sys_read_vp?BYTE
      0100712FH   PUBLIC    CODE     ---       _sys_read_vp
      0100000EH   PUBLIC    CODE     ---       EX1_ISR_PC
      01000006H   PUBLIC    CODE     ---       EX0_ISR_PC
      010095EAH   PUBLIC    CODE     ---       InitGPIO
      010096C3H   PUBLIC    CODE     ---       InitInt
      010095AAH   PUBLIC    CODE     ---       _DelayMs
      00000098H.3 SFRSYM    DATA     BIT       TB80
      000000F1H   SFRSYM    DATA     BYTE      ADR_H
      00000080H   SFRSYM    DATA     BYTE      P0
      00000090H   SFRSYM    DATA     BYTE      P1
      000000A0H   SFRSYM    DATA     BYTE      P2
      000000B0H   SFRSYM    DATA     BYTE      P3
      000000D0H.6 SFRSYM    DATA     BIT       AC
      000000F3H   SFRSYM    DATA     BYTE      ADR_L
      00000094H   SFRSYM    DATA     BYTE      PAGESEL
      000000F2H   SFRSYM    DATA     BYTE      ADR_M
      000000A8H.7 SFRSYM    DATA     BIT       EA
      000000A0H.5 SFRSYM    DATA     BIT       JIGUANG
      00000090H.7 SFRSYM    DATA     BIT       LED_R
      000000F8H   SFRSYM    DATA     BYTE      RAMMODE
      000000B7H   SFRSYM    DATA     BYTE      P0MDOUT
      000000A8H   SFRSYM    DATA     BYTE      IEN0
      000000BCH   SFRSYM    DATA     BYTE      P1MDOUT
      000000B8H   SFRSYM    DATA     BYTE      IEN1
      000000BDH   SFRSYM    DATA     BYTE      P2MDOUT
      000000F8H.0 SFRSYM    DATA     BIT       APP_DATA0
      0000009AH   SFRSYM    DATA     BYTE      IEN2
      000000BEH   SFRSYM    DATA     BYTE      P3MDOUT
      000000F8H.1 SFRSYM    DATA     BIT       APP_DATA1
      000000D1H   SFRSYM    DATA     BYTE      IEN3
      00000080H.0 SFRSYM    DATA     BIT       P0_0
      000000F8H.2 SFRSYM    DATA     BIT       APP_DATA2
      00000090H.0 SFRSYM    DATA     BIT       P1_0
      000000F8H.3 SFRSYM    DATA     BIT       APP_DATA3
      00000090H.1 SFRSYM    DATA     BIT       P1_1
      000000F8H.4 SFRSYM    DATA     BIT       APP_ACK
      000000F4H   SFRSYM    DATA     BYTE      ADR_INC
      000000B0H.1 SFRSYM    DATA     BIT       P3_1
      00000098H.4 SFRSYM    DATA     BIT       REN0
      000000B8H.1 SFRSYM    DATA     BIT       ECAN
      000000D0H.7 SFRSYM    DATA     BIT       CY
      000000B8H.3 SFRSYM    DATA     BIT       ES2R
      000000B8H.5 SFRSYM    DATA     BIT       ES3R
      000000B8H.2 SFRSYM    DATA     BIT       ES2T
      000000B8H.4 SFRSYM    DATA     BIT       ES3T
      000000C8H.7 SFRSYM    DATA     BIT       TSF2
      000000B0H.3 SFRSYM    DATA     BIT       RTC_SDA
      00000081H   SFRSYM    DATA     BYTE      SP
      000000D0H.2 SFRSYM    DATA     BIT       OV
      00000095H   SFRSYM    DATA     BYTE      D_PAGESEL
      00000090H.5 SFRSYM    DATA     BIT       UV
LX51 LINKER/LOCATER V4.66.93.0                                                        04/24/2025  12:33:12  PAGE 38


      000000F8H.7 SFRSYM    DATA     BIT       APP_REQ
      000000B0H.2 SFRSYM    DATA     BIT       RTC_SCL
      000000BFH   SFRSYM    DATA     BYTE      IRCON2
      000000BAH   SFRSYM    DATA     BYTE      SREL0H
      000000BBH   SFRSYM    DATA     BYTE      SREL1H
      00000087H   SFRSYM    DATA     BYTE      PCON
      000000AAH   SFRSYM    DATA     BYTE      SREL0L
      000000F9H   SFRSYM    DATA     BYTE      PORTDRV
      0000009DH   SFRSYM    DATA     BYTE      SREL1L
      00000089H   SFRSYM    DATA     BYTE      TMOD
      00000088H   SFRSYM    DATA     BYTE      TCON
      00000097H   SFRSYM    DATA     BYTE      SCON2R
      000000FFH   SFRSYM    DATA     BYTE      EXDATA
      000000ABH   SFRSYM    DATA     BYTE      SCON3R
      000000D9H   SFRSYM    DATA     BYTE      BODE2_DIV_H
      000000AEH   SFRSYM    DATA     BYTE      BODE3_DIV_H
      00000096H   SFRSYM    DATA     BYTE      SCON2T
      000000A7H   SFRSYM    DATA     BYTE      SCON3T
      000000E7H   SFRSYM    DATA     BYTE      BODE2_DIV_L
      00000088H.1 SFRSYM    DATA     BIT       IE0
      000000AFH   SFRSYM    DATA     BYTE      BODE3_DIV_L
      00000088H.3 SFRSYM    DATA     BIT       IE1
      000000C9H   SFRSYM    DATA     BYTE      MUX_SEL
      020086CBH   SFRSYM    XDATA    WORD      B
      000000E0H   SFRSYM    DATA     BYTE      ACC
      000000A8H.4 SFRSYM    DATA     BIT       ES0
      0000008FH   SFRSYM    DATA     BYTE      CAN_CR
      000000A8H.1 SFRSYM    DATA     BIT       ET0
      000000A9H   SFRSYM    DATA     BYTE      IP0
      000000A8H.3 SFRSYM    DATA     BIT       ET1
      00000088H.5 SFRSYM    DATA     BIT       TF0
      000000B9H   SFRSYM    DATA     BYTE      IP1
      000000A8H.5 SFRSYM    DATA     BIT       ET2
      00000098H.0 SFRSYM    DATA     BIT       RI0
      00000088H.7 SFRSYM    DATA     BIT       TF1
      000000FDH   SFRSYM    DATA     BYTE      DATA0
      000000C0H.6 SFRSYM    DATA     BIT       TF2
      000000E8H   SFRSYM    DATA     BYTE      CAN_ET
      000000FCH   SFRSYM    DATA     BYTE      DATA1
      0000008CH   SFRSYM    DATA     BYTE      TH0
      000000A8H.0 SFRSYM    DATA     BIT       EX0
      00000098H.1 SFRSYM    DATA     BIT       TI0
      00000088H.0 SFRSYM    DATA     BIT       IT0
      000000FBH   SFRSYM    DATA     BYTE      DATA2
      0000008DH   SFRSYM    DATA     BYTE      TH1
      000000A8H.2 SFRSYM    DATA     BIT       EX1
      00000091H   SFRSYM    DATA     BYTE      CAN_IR
      000000CDH   SFRSYM    DATA     BYTE      TH2
      00000088H.2 SFRSYM    DATA     BIT       IT1
      000000FAH   SFRSYM    DATA     BYTE      DATA3
      000000D0H.0 SFRSYM    DATA     BIT       P
      00000098H.7 SFRSYM    DATA     BIT       SM0
      0000008AH   SFRSYM    DATA     BYTE      TL0
      00000098H.6 SFRSYM    DATA     BIT       SM1
      0000008BH   SFRSYM    DATA     BYTE      TL1
      00000098H.5 SFRSYM    DATA     BIT       SM2
      000000CCH   SFRSYM    DATA     BYTE      TL2
      000000A0H.7 SFRSYM    DATA     BIT       UV_St
      000000D0H.3 SFRSYM    DATA     BIT       RS0
      000000F8H.6 SFRSYM    DATA     BIT       APP_EN
      000000D0H.4 SFRSYM    DATA     BIT       RS1
      00000088H.4 SFRSYM    DATA     BIT       TR0
      00000088H.6 SFRSYM    DATA     BIT       TR1
      00000093H   SFRSYM    DATA     BYTE      DPC
      000000C8H.0 SFRSYM    DATA     BIT       TR2
LX51 LINKER/LOCATER V4.66.93.0                                                        04/24/2025  12:33:12  PAGE 39


      000000E5H   SFRSYM    DATA     BYTE      MAC_MODE
      00000083H   SFRSYM    DATA     BYTE      DPH
      00000082H   SFRSYM    DATA     BYTE      DPL
      00000099H   SFRSYM    DATA     BYTE      SBUF0
      0000009CH   SFRSYM    DATA     BYTE      SBUF1
      00000098H   SFRSYM    DATA     BYTE      SCON0
      0000009BH   SFRSYM    DATA     BYTE      SCON1
      000000D8H   SFRSYM    DATA     BYTE      ADCON
      000000C8H   SFRSYM    DATA     BYTE      T2CON
      000000E6H   SFRSYM    DATA     BYTE      DIV_MODE
      000000F8H.5 SFRSYM    DATA     BIT       APP_RW
      000000CBH   SFRSYM    DATA     BYTE      TRL2H
      0000009FH   SFRSYM    DATA     BYTE      SBUF2_RX
      000000ADH   SFRSYM    DATA     BYTE      SBUF3_RX
      0000008EH   SFRSYM    DATA     BYTE      CKCON
      0000009EH   SFRSYM    DATA     BYTE      SBUF2_TX
      000000ACH   SFRSYM    DATA     BYTE      SBUF3_TX
      000000CAH   SFRSYM    DATA     BYTE      TRL2L
      000000D0H.5 SFRSYM    DATA     BIT       F0
      000000FEH   SFRSYM    DATA     BYTE      EXADR
      000000D0H.1 SFRSYM    DATA     BIT       F1
      000000A0H.3 SFRSYM    DATA     BIT       LED_B
      000000D0H   SFRSYM    DATA     BYTE      PSW
      000000A0H.1 SFRSYM    DATA     BIT       LED_G
      000000C0H   SFRSYM    DATA     BYTE      IRCON
      00000098H.2 SFRSYM    DATA     BIT       RB80

      010095AAH   BLOCK     CODE     ---       LVL=0
      00000006H   SYMBOL    DATA     WORD      n
      010095AAH   BLOCK     CODE     NEAR LAB  LVL=1
      00000004H   SYMBOL    DATA     WORD      i
      00000002H   SYMBOL    DATA     WORD      j
      ---         BLOCKEND  ---      ---       LVL=1
      010095AAH   LINE      CODE     ---       #32
      010095AAH   LINE      CODE     ---       #33
      010095AAH   LINE      CODE     ---       #35
      010095B4H   LINE      CODE     ---       #36
      010095C9H   LINE      CODE     ---       #37
      ---         BLOCKEND  ---      ---       LVL=0

      010096C3H   BLOCK     CODE     ---       LVL=0
      010096C3H   LINE      CODE     ---       #55
      010096C3H   LINE      CODE     ---       #56
      010096C3H   LINE      CODE     ---       #57
      010096C6H   LINE      CODE     ---       #58
      010096C8H   LINE      CODE     ---       #59
      010096CAH   LINE      CODE     ---       #60
      010096CCH   LINE      CODE     ---       #61
      010096CEH   LINE      CODE     ---       #62
      ---         BLOCKEND  ---      ---       LVL=0

      010095EAH   BLOCK     CODE     ---       LVL=0
      010095EAH   LINE      CODE     ---       #65
      010095EAH   LINE      CODE     ---       #66
      010095EAH   LINE      CODE     ---       #67
      010095EDH   LINE      CODE     ---       #68
      010095F0H   LINE      CODE     ---       #69
      010095F3H   LINE      CODE     ---       #71
      010095F6H   LINE      CODE     ---       #72
      010095F9H   LINE      CODE     ---       #73
      010095FCH   LINE      CODE     ---       #74
      010095FEH   LINE      CODE     ---       #75
      01009600H   LINE      CODE     ---       #76
      01009602H   LINE      CODE     ---       #77
      ---         BLOCKEND  ---      ---       LVL=0
LX51 LINKER/LOCATER V4.66.93.0                                                        04/24/2025  12:33:12  PAGE 40



      01000006H   BLOCK     CODE     ---       LVL=0
      01000006H   LINE      CODE     ---       #78
      01000006H   LINE      CODE     ---       #80
      01000008H   LINE      CODE     ---       #82
      0100000AH   LINE      CODE     ---       #83
      ---         BLOCKEND  ---      ---       LVL=0

      0100000EH   BLOCK     CODE     ---       LVL=0
      0100000EH   LINE      CODE     ---       #84
      0100000EH   LINE      CODE     ---       #86
      01000010H   LINE      CODE     ---       #88
      01000012H   LINE      CODE     ---       #89
      ---         BLOCKEND  ---      ---       LVL=0

      0100712FH   BLOCK     CODE     ---       LVL=0
      00000004H   SYMBOL    DATA     WORD      addr
      0200848DH   SYMBOL    XDATA    ---       buf
      02008490H   SYMBOL    XDATA    WORD      len
      0100713EH   BLOCK     CODE     NEAR LAB  LVL=1
      00000003H   SYMBOL    DATA     BYTE      i
      ---         BLOCKEND  ---      ---       LVL=1
      0100712FH   LINE      CODE     ---       #92
      0100713EH   LINE      CODE     ---       #93
      0100713EH   LINE      CODE     ---       #96
      01007142H   LINE      CODE     ---       #97
      01007149H   LINE      CODE     ---       #98
      0100714CH   LINE      CODE     ---       #99
      0100714FH   LINE      CODE     ---       #100
      01007153H   LINE      CODE     ---       #101
      01007156H   LINE      CODE     ---       #102
      01007159H   LINE      CODE     ---       #103
      0100715CH   LINE      CODE     ---       #104
      0100716EH   LINE      CODE     ---       #105
      0100716EH   LINE      CODE     ---       #106
      01007170H   LINE      CODE     ---       #107
      01007173H   LINE      CODE     ---       #108
      01007185H   LINE      CODE     ---       #109
      01007185H   LINE      CODE     ---       #110
      0100719AH   LINE      CODE     ---       #111
      010071AFH   LINE      CODE     ---       #112
      010071B1H   LINE      CODE     ---       #113
      010071BFH   LINE      CODE     ---       #114
      010071BFH   LINE      CODE     ---       #115
      010071D3H   LINE      CODE     ---       #116
      010071D3H   LINE      CODE     ---       #117
      010071E8H   LINE      CODE     ---       #118
      010071FDH   LINE      CODE     ---       #119
      010071FFH   LINE      CODE     ---       #120
      0100720DH   LINE      CODE     ---       #121
      0100720DH   LINE      CODE     ---       #122
      01007210H   LINE      CODE     ---       #123
      01007213H   LINE      CODE     ---       #124
      ---         BLOCKEND  ---      ---       LVL=0

      0100967DH   BLOCK     CODE     ---       LVL=0
      0100967DH   LINE      CODE     ---       #127
      0100967DH   LINE      CODE     ---       #128
      0100967DH   LINE      CODE     ---       #129
      0100967FH   LINE      CODE     ---       #131
      01009682H   LINE      CODE     ---       #132
      01009685H   LINE      CODE     ---       #133
      01009688H   LINE      CODE     ---       #134
      0100968BH   LINE      CODE     ---       #136
      0100968DH   LINE      CODE     ---       #137
LX51 LINKER/LOCATER V4.66.93.0                                                        04/24/2025  12:33:12  PAGE 41


      ---         BLOCKEND  ---      ---       LVL=0

      ---         MODULE    ---      ---       DGUS
      020084FBH   PUBLIC    XDATA    BYTE      ?_WriteDGUS?BYTE
      01003646H   PUBLIC    CODE     ---       _WriteDGUS
      020084F3H   PUBLIC    XDATA    BYTE      ?_ReadDGUS?BYTE
      01003893H   PUBLIC    CODE     ---       _ReadDGUS
      00000098H.3 SFRSYM    DATA     BIT       TB80
      000000F1H   SFRSYM    DATA     BYTE      ADR_H
      00000080H   SFRSYM    DATA     BYTE      P0
      00000090H   SFRSYM    DATA     BYTE      P1
      000000A0H   SFRSYM    DATA     BYTE      P2
      000000B0H   SFRSYM    DATA     BYTE      P3
      000000D0H.6 SFRSYM    DATA     BIT       AC
      000000F3H   SFRSYM    DATA     BYTE      ADR_L
      00000094H   SFRSYM    DATA     BYTE      PAGESEL
      000000F2H   SFRSYM    DATA     BYTE      ADR_M
      000000A8H.7 SFRSYM    DATA     BIT       EA
      000000A0H.5 SFRSYM    DATA     BIT       JIGUANG
      00000090H.7 SFRSYM    DATA     BIT       LED_R
      000000F8H   SFRSYM    DATA     BYTE      RAMMODE
      000000B7H   SFRSYM    DATA     BYTE      P0MDOUT
      000000A8H   SFRSYM    DATA     BYTE      IEN0
      000000BCH   SFRSYM    DATA     BYTE      P1MDOUT
      000000B8H   SFRSYM    DATA     BYTE      IEN1
      000000BDH   SFRSYM    DATA     BYTE      P2MDOUT
      000000F8H.0 SFRSYM    DATA     BIT       APP_DATA0
      0000009AH   SFRSYM    DATA     BYTE      IEN2
      000000BEH   SFRSYM    DATA     BYTE      P3MDOUT
      000000F8H.1 SFRSYM    DATA     BIT       APP_DATA1
      000000D1H   SFRSYM    DATA     BYTE      IEN3
      00000080H.0 SFRSYM    DATA     BIT       P0_0
      000000F8H.2 SFRSYM    DATA     BIT       APP_DATA2
      00000090H.0 SFRSYM    DATA     BIT       P1_0
      000000F8H.3 SFRSYM    DATA     BIT       APP_DATA3
      00000090H.1 SFRSYM    DATA     BIT       P1_1
      000000F8H.4 SFRSYM    DATA     BIT       APP_ACK
      000000F4H   SFRSYM    DATA     BYTE      ADR_INC
      000000B0H.1 SFRSYM    DATA     BIT       P3_1
      00000098H.4 SFRSYM    DATA     BIT       REN0
      000000B8H.1 SFRSYM    DATA     BIT       ECAN
      000000D0H.7 SFRSYM    DATA     BIT       CY
      000000B8H.3 SFRSYM    DATA     BIT       ES2R
      000000B8H.5 SFRSYM    DATA     BIT       ES3R
      000000B8H.2 SFRSYM    DATA     BIT       ES2T
      000000B8H.4 SFRSYM    DATA     BIT       ES3T
      000000C8H.7 SFRSYM    DATA     BIT       TSF2
      000000B0H.3 SFRSYM    DATA     BIT       RTC_SDA
      00000081H   SFRSYM    DATA     BYTE      SP
      000000D0H.2 SFRSYM    DATA     BIT       OV
      00000095H   SFRSYM    DATA     BYTE      D_PAGESEL
      00000090H.5 SFRSYM    DATA     BIT       UV
      000000F8H.7 SFRSYM    DATA     BIT       APP_REQ
      000000B0H.2 SFRSYM    DATA     BIT       RTC_SCL
      000000BFH   SFRSYM    DATA     BYTE      IRCON2
      000000BAH   SFRSYM    DATA     BYTE      SREL0H
      000000BBH   SFRSYM    DATA     BYTE      SREL1H
      00000087H   SFRSYM    DATA     BYTE      PCON
      000000AAH   SFRSYM    DATA     BYTE      SREL0L
      000000F9H   SFRSYM    DATA     BYTE      PORTDRV
      0000009DH   SFRSYM    DATA     BYTE      SREL1L
      00000089H   SFRSYM    DATA     BYTE      TMOD
      00000088H   SFRSYM    DATA     BYTE      TCON
      00000097H   SFRSYM    DATA     BYTE      SCON2R
      000000FFH   SFRSYM    DATA     BYTE      EXDATA
LX51 LINKER/LOCATER V4.66.93.0                                                        04/24/2025  12:33:12  PAGE 42


      000000ABH   SFRSYM    DATA     BYTE      SCON3R
      000000D9H   SFRSYM    DATA     BYTE      BODE2_DIV_H
      000000AEH   SFRSYM    DATA     BYTE      BODE3_DIV_H
      00000096H   SFRSYM    DATA     BYTE      SCON2T
      000000A7H   SFRSYM    DATA     BYTE      SCON3T
      000000E7H   SFRSYM    DATA     BYTE      BODE2_DIV_L
      00000088H.1 SFRSYM    DATA     BIT       IE0
      000000AFH   SFRSYM    DATA     BYTE      BODE3_DIV_L
      00000088H.3 SFRSYM    DATA     BIT       IE1
      000000C9H   SFRSYM    DATA     BYTE      MUX_SEL
      020086CBH   SFRSYM    XDATA    WORD      B
      000000E0H   SFRSYM    DATA     BYTE      ACC
      000000A8H.4 SFRSYM    DATA     BIT       ES0
      0000008FH   SFRSYM    DATA     BYTE      CAN_CR
      000000A8H.1 SFRSYM    DATA     BIT       ET0
      000000A9H   SFRSYM    DATA     BYTE      IP0
      000000A8H.3 SFRSYM    DATA     BIT       ET1
      00000088H.5 SFRSYM    DATA     BIT       TF0
      000000B9H   SFRSYM    DATA     BYTE      IP1
      000000A8H.5 SFRSYM    DATA     BIT       ET2
      00000098H.0 SFRSYM    DATA     BIT       RI0
      00000088H.7 SFRSYM    DATA     BIT       TF1
      000000FDH   SFRSYM    DATA     BYTE      DATA0
      000000C0H.6 SFRSYM    DATA     BIT       TF2
      000000E8H   SFRSYM    DATA     BYTE      CAN_ET
      000000FCH   SFRSYM    DATA     BYTE      DATA1
      0000008CH   SFRSYM    DATA     BYTE      TH0
      000000A8H.0 SFRSYM    DATA     BIT       EX0
      00000098H.1 SFRSYM    DATA     BIT       TI0
      00000088H.0 SFRSYM    DATA     BIT       IT0
      000000FBH   SFRSYM    DATA     BYTE      DATA2
      0000008DH   SFRSYM    DATA     BYTE      TH1
      000000A8H.2 SFRSYM    DATA     BIT       EX1
      00000091H   SFRSYM    DATA     BYTE      CAN_IR
      000000CDH   SFRSYM    DATA     BYTE      TH2
      00000088H.2 SFRSYM    DATA     BIT       IT1
      000000FAH   SFRSYM    DATA     BYTE      DATA3
      000000D0H.0 SFRSYM    DATA     BIT       P
      00000098H.7 SFRSYM    DATA     BIT       SM0
      0000008AH   SFRSYM    DATA     BYTE      TL0
      00000098H.6 SFRSYM    DATA     BIT       SM1
      0000008BH   SFRSYM    DATA     BYTE      TL1
      00000098H.5 SFRSYM    DATA     BIT       SM2
      000000CCH   SFRSYM    DATA     BYTE      TL2
      000000A0H.7 SFRSYM    DATA     BIT       UV_St
      000000D0H.3 SFRSYM    DATA     BIT       RS0
      000000F8H.6 SFRSYM    DATA     BIT       APP_EN
      000000D0H.4 SFRSYM    DATA     BIT       RS1
      00000088H.4 SFRSYM    DATA     BIT       TR0
      00000088H.6 SFRSYM    DATA     BIT       TR1
      00000093H   SFRSYM    DATA     BYTE      DPC
      000000C8H.0 SFRSYM    DATA     BIT       TR2
      000000E5H   SFRSYM    DATA     BYTE      MAC_MODE
      00000083H   SFRSYM    DATA     BYTE      DPH
      00000082H   SFRSYM    DATA     BYTE      DPL
      00000099H   SFRSYM    DATA     BYTE      SBUF0
      0000009CH   SFRSYM    DATA     BYTE      SBUF1
      00000098H   SFRSYM    DATA     BYTE      SCON0
      0000009BH   SFRSYM    DATA     BYTE      SCON1
      000000D8H   SFRSYM    DATA     BYTE      ADCON
      000000C8H   SFRSYM    DATA     BYTE      T2CON
      000000E6H   SFRSYM    DATA     BYTE      DIV_MODE
      000000F8H.5 SFRSYM    DATA     BIT       APP_RW
      000000CBH   SFRSYM    DATA     BYTE      TRL2H
      0000009FH   SFRSYM    DATA     BYTE      SBUF2_RX
LX51 LINKER/LOCATER V4.66.93.0                                                        04/24/2025  12:33:12  PAGE 43


      000000ADH   SFRSYM    DATA     BYTE      SBUF3_RX
      0000008EH   SFRSYM    DATA     BYTE      CKCON
      0000009EH   SFRSYM    DATA     BYTE      SBUF2_TX
      000000ACH   SFRSYM    DATA     BYTE      SBUF3_TX
      000000CAH   SFRSYM    DATA     BYTE      TRL2L
      000000D0H.5 SFRSYM    DATA     BIT       F0
      000000FEH   SFRSYM    DATA     BYTE      EXADR
      000000D0H.1 SFRSYM    DATA     BIT       F1
      000000A0H.3 SFRSYM    DATA     BIT       LED_B
      000000D0H   SFRSYM    DATA     BYTE      PSW
      000000A0H.1 SFRSYM    DATA     BIT       LED_G
      000000C0H   SFRSYM    DATA     BYTE      IRCON
      00000098H.2 SFRSYM    DATA     BIT       RB80

      01003893H   BLOCK     CODE     ---       LVL=0
      00000004H   SYMBOL    DATA     WORD      Addr
      020084F5H   SYMBOL    XDATA    ---       pBuf
      020084F8H   SYMBOL    XDATA    WORD      Len
      010038A2H   BLOCK     CODE     NEAR LAB  LVL=1
      00000003H   SYMBOL    DATA     BYTE      Aoffset
      ---         BLOCKEND  ---      ---       LVL=1
      01003893H   LINE      CODE     ---       #31
      010038A2H   LINE      CODE     ---       #32
      010038A2H   LINE      CODE     ---       #34
      010038B3H   LINE      CODE     ---       #35
      010038BFH   LINE      CODE     ---       #36
      010038D6H   LINE      CODE     ---       #37
      010038D8H   LINE      CODE     ---       #38
      010038DCH   LINE      CODE     ---       #39
      010038E3H   LINE      CODE     ---       #40
      010038F0H   LINE      CODE     ---       #41
      010038F3H   LINE      CODE     ---       #42
      010038F7H   LINE      CODE     ---       #43
      010038FAH   LINE      CODE     ---       #44
      010038FDH   LINE      CODE     ---       #45
      010038FFH   LINE      CODE     ---       #46
      01003902H   LINE      CODE     ---       #47
      01003904H   LINE      CODE     ---       #49
      01003909H   LINE      CODE     ---       #50
      01003909H   LINE      CODE     ---       #51
      0100391FH   LINE      CODE     ---       #52
      01003927H   LINE      CODE     ---       #53
      01003929H   LINE      CODE     ---       #54
      0100392CH   LINE      CODE     ---       #55
      01003956H   LINE      CODE     ---       #56
      01003983H   LINE      CODE     ---       #57
      01003986H   LINE      CODE     ---       #58
      01003986H   LINE      CODE     ---       #59
      01003986H   LINE      CODE     ---       #60
      01003994H   LINE      CODE     ---       #61
      010039A0H   LINE      CODE     ---       #62
      010039A0H   LINE      CODE     ---       #63
      010039ADH   LINE      CODE     ---       #64
      010039ADH   LINE      CODE     ---       #65
      010039B7H   LINE      CODE     ---       #66
      010039BDH   LINE      CODE     ---       #67
      010039C5H   LINE      CODE     ---       #68
      010039C5H   LINE      CODE     ---       #69
      010039C7H   LINE      CODE     ---       #70
      010039CAH   LINE      CODE     ---       #71
      010039E5H   LINE      CODE     ---       #72
      010039E5H   LINE      CODE     ---       #73
      01003A23H   LINE      CODE     ---       #74
      01003A4CH   LINE      CODE     ---       #75
      01003A63H   LINE      CODE     ---       #76
LX51 LINKER/LOCATER V4.66.93.0                                                        04/24/2025  12:33:12  PAGE 44


      01003A63H   LINE      CODE     ---       #77
      01003A63H   LINE      CODE     ---       #78
      01003A63H   LINE      CODE     ---       #80
      01003A63H   LINE      CODE     ---       #81
      01003A6BH   LINE      CODE     ---       #82
      01003A6DH   LINE      CODE     ---       #83
      01003A70H   LINE      CODE     ---       #84
      01003AC4H   LINE      CODE     ---       #85
      01003AD2H   LINE      CODE     ---       #86
      01003AD2H   LINE      CODE     ---       #87
      01003AD5H   LINE      CODE     ---       #89
      01003AD8H   LINE      CODE     ---       #90
      01003ADAH   LINE      CODE     ---       #91
      ---         BLOCKEND  ---      ---       LVL=0

      01003646H   BLOCK     CODE     ---       LVL=0
      00000004H   SYMBOL    DATA     WORD      Addr
      020084FDH   SYMBOL    XDATA    ---       pBuf
      02008500H   SYMBOL    XDATA    WORD      Len
      01003655H   BLOCK     CODE     NEAR LAB  LVL=1
      00000003H   SYMBOL    DATA     BYTE      Aoffset
      ---         BLOCKEND  ---      ---       LVL=1
      01003646H   LINE      CODE     ---       #107
      01003655H   LINE      CODE     ---       #108
      01003655H   LINE      CODE     ---       #110
      01003666H   LINE      CODE     ---       #111
      01003672H   LINE      CODE     ---       #112
      01003689H   LINE      CODE     ---       #113
      0100368BH   LINE      CODE     ---       #114
      0100368FH   LINE      CODE     ---       #115
      01003696H   LINE      CODE     ---       #116
      010036A3H   LINE      CODE     ---       #117
      010036A6H   LINE      CODE     ---       #118
      010036AAH   LINE      CODE     ---       #119
      010036ADH   LINE      CODE     ---       #120
      010036B0H   LINE      CODE     ---       #121
      010036B2H   LINE      CODE     ---       #122
      010036B5H   LINE      CODE     ---       #123
      010036B7H   LINE      CODE     ---       #125
      010036BCH   LINE      CODE     ---       #126
      010036BCH   LINE      CODE     ---       #127
      010036D3H   LINE      CODE     ---       #128
      010036DBH   LINE      CODE     ---       #129
      010036FEH   LINE      CODE     ---       #130
      01003733H   LINE      CODE     ---       #131
      01003735H   LINE      CODE     ---       #132
      01003738H   LINE      CODE     ---       #133
      01003738H   LINE      CODE     ---       #134
      01003738H   LINE      CODE     ---       #135
      01003738H   LINE      CODE     ---       #136
      01003746H   LINE      CODE     ---       #137
      01003752H   LINE      CODE     ---       #138
      01003752H   LINE      CODE     ---       #139
      0100375FH   LINE      CODE     ---       #140
      0100375FH   LINE      CODE     ---       #141
      01003769H   LINE      CODE     ---       #142
      0100376FH   LINE      CODE     ---       #143
      01003777H   LINE      CODE     ---       #144
      01003777H   LINE      CODE     ---       #145
      01003792H   LINE      CODE     ---       #146
      01003792H   LINE      CODE     ---       #147
      010037D3H   LINE      CODE     ---       #148
      010037FFH   LINE      CODE     ---       #149
      01003814H   LINE      CODE     ---       #150
      01003814H   LINE      CODE     ---       #151
LX51 LINKER/LOCATER V4.66.93.0                                                        04/24/2025  12:33:12  PAGE 45


      01003816H   LINE      CODE     ---       #152
      0100381BH   LINE      CODE     ---       #153
      0100381BH   LINE      CODE     ---       #154
      0100381BH   LINE      CODE     ---       #156
      0100381BH   LINE      CODE     ---       #157
      01003823H   LINE      CODE     ---       #158
      01003877H   LINE      CODE     ---       #159
      01003879H   LINE      CODE     ---       #160
      0100387CH   LINE      CODE     ---       #161
      0100388AH   LINE      CODE     ---       #162
      0100388AH   LINE      CODE     ---       #163
      0100388DH   LINE      CODE     ---       #165
      01003890H   LINE      CODE     ---       #166
      01003892H   LINE      CODE     ---       #167
      ---         BLOCKEND  ---      ---       LVL=0

      ---         MODULE    ---      ---       NORFLASH
      020084E5H   PUBLIC    XDATA    BYTE      ?_ReadNorFlash_Str?BYTE
      01007FC9H   PUBLIC    CODE     ---       _ReadNorFlash_Str
      020084DDH   PUBLIC    XDATA    BYTE      ?_WriteNorFlash_Str?BYTE
      01007F26H   PUBLIC    CODE     ---       _WriteNorFlash_Str
      01007DD1H   PUBLIC    CODE     ---       _WriteNorFlash_Dgus
      01007D25H   PUBLIC    CODE     ---       _ReadNorFlash_Dgus
      020084F4H   PUBLIC    XDATA    BYTE      ?_sys_read_vp_nor?BYTE
      01006B98H   PUBLIC    CODE     ---       _sys_read_vp_nor
      020084F4H   PUBLIC    XDATA    BYTE      ?_sys_write_vp_nor?BYTE
      01005FA3H   PUBLIC    CODE     ---       _sys_write_vp_nor
      00000098H.3 SFRSYM    DATA     BIT       TB80
      000000F1H   SFRSYM    DATA     BYTE      ADR_H
      00000080H   SFRSYM    DATA     BYTE      P0
      00000090H   SFRSYM    DATA     BYTE      P1
      000000A0H   SFRSYM    DATA     BYTE      P2
      000000B0H   SFRSYM    DATA     BYTE      P3
      000000D0H.6 SFRSYM    DATA     BIT       AC
      000000F3H   SFRSYM    DATA     BYTE      ADR_L
      00000094H   SFRSYM    DATA     BYTE      PAGESEL
      000000F2H   SFRSYM    DATA     BYTE      ADR_M
      000000A8H.7 SFRSYM    DATA     BIT       EA
      000000A0H.5 SFRSYM    DATA     BIT       JIGUANG
      00000090H.7 SFRSYM    DATA     BIT       LED_R
      000000F8H   SFRSYM    DATA     BYTE      RAMMODE
      000000B7H   SFRSYM    DATA     BYTE      P0MDOUT
      000000A8H   SFRSYM    DATA     BYTE      IEN0
      000000BCH   SFRSYM    DATA     BYTE      P1MDOUT
      000000B8H   SFRSYM    DATA     BYTE      IEN1
      000000BDH   SFRSYM    DATA     BYTE      P2MDOUT
      000000F8H.0 SFRSYM    DATA     BIT       APP_DATA0
      0000009AH   SFRSYM    DATA     BYTE      IEN2
      000000BEH   SFRSYM    DATA     BYTE      P3MDOUT
      000000F8H.1 SFRSYM    DATA     BIT       APP_DATA1
      000000D1H   SFRSYM    DATA     BYTE      IEN3
      00000080H.0 SFRSYM    DATA     BIT       P0_0
      000000F8H.2 SFRSYM    DATA     BIT       APP_DATA2
      00000090H.0 SFRSYM    DATA     BIT       P1_0
      000000F8H.3 SFRSYM    DATA     BIT       APP_DATA3
      00000090H.1 SFRSYM    DATA     BIT       P1_1
      000000F8H.4 SFRSYM    DATA     BIT       APP_ACK
      000000F4H   SFRSYM    DATA     BYTE      ADR_INC
      000000B0H.1 SFRSYM    DATA     BIT       P3_1
      00000098H.4 SFRSYM    DATA     BIT       REN0
      000000B8H.1 SFRSYM    DATA     BIT       ECAN
      000000D0H.7 SFRSYM    DATA     BIT       CY
      000000B8H.3 SFRSYM    DATA     BIT       ES2R
      000000B8H.5 SFRSYM    DATA     BIT       ES3R
      000000B8H.2 SFRSYM    DATA     BIT       ES2T
LX51 LINKER/LOCATER V4.66.93.0                                                        04/24/2025  12:33:12  PAGE 46


      000000B8H.4 SFRSYM    DATA     BIT       ES3T
      000000C8H.7 SFRSYM    DATA     BIT       TSF2
      000000B0H.3 SFRSYM    DATA     BIT       RTC_SDA
      00000081H   SFRSYM    DATA     BYTE      SP
      000000D0H.2 SFRSYM    DATA     BIT       OV
      00000095H   SFRSYM    DATA     BYTE      D_PAGESEL
      00000090H.5 SFRSYM    DATA     BIT       UV
      000000F8H.7 SFRSYM    DATA     BIT       APP_REQ
      000000B0H.2 SFRSYM    DATA     BIT       RTC_SCL
      000000BFH   SFRSYM    DATA     BYTE      IRCON2
      000000BAH   SFRSYM    DATA     BYTE      SREL0H
      000000BBH   SFRSYM    DATA     BYTE      SREL1H
      00000087H   SFRSYM    DATA     BYTE      PCON
      000000AAH   SFRSYM    DATA     BYTE      SREL0L
      000000F9H   SFRSYM    DATA     BYTE      PORTDRV
      0000009DH   SFRSYM    DATA     BYTE      SREL1L
      00000089H   SFRSYM    DATA     BYTE      TMOD
      00000088H   SFRSYM    DATA     BYTE      TCON
      00000097H   SFRSYM    DATA     BYTE      SCON2R
      000000FFH   SFRSYM    DATA     BYTE      EXDATA
      000000ABH   SFRSYM    DATA     BYTE      SCON3R
      000000D9H   SFRSYM    DATA     BYTE      BODE2_DIV_H
      000000AEH   SFRSYM    DATA     BYTE      BODE3_DIV_H
      00000096H   SFRSYM    DATA     BYTE      SCON2T
      000000A7H   SFRSYM    DATA     BYTE      SCON3T
      000000E7H   SFRSYM    DATA     BYTE      BODE2_DIV_L
      00000088H.1 SFRSYM    DATA     BIT       IE0
      000000AFH   SFRSYM    DATA     BYTE      BODE3_DIV_L
      00000088H.3 SFRSYM    DATA     BIT       IE1
      000000C9H   SFRSYM    DATA     BYTE      MUX_SEL
      020086CBH   SFRSYM    XDATA    WORD      B
      000000E0H   SFRSYM    DATA     BYTE      ACC
      000000A8H.4 SFRSYM    DATA     BIT       ES0
      0000008FH   SFRSYM    DATA     BYTE      CAN_CR
      000000A8H.1 SFRSYM    DATA     BIT       ET0
      000000A9H   SFRSYM    DATA     BYTE      IP0
      000000A8H.3 SFRSYM    DATA     BIT       ET1
      00000088H.5 SFRSYM    DATA     BIT       TF0
      000000B9H   SFRSYM    DATA     BYTE      IP1
      000000A8H.5 SFRSYM    DATA     BIT       ET2
      00000098H.0 SFRSYM    DATA     BIT       RI0
      00000088H.7 SFRSYM    DATA     BIT       TF1
      000000FDH   SFRSYM    DATA     BYTE      DATA0
      000000C0H.6 SFRSYM    DATA     BIT       TF2
      000000E8H   SFRSYM    DATA     BYTE      CAN_ET
      000000FCH   SFRSYM    DATA     BYTE      DATA1
      0000008CH   SFRSYM    DATA     BYTE      TH0
      000000A8H.0 SFRSYM    DATA     BIT       EX0
      00000098H.1 SFRSYM    DATA     BIT       TI0
      00000088H.0 SFRSYM    DATA     BIT       IT0
      000000FBH   SFRSYM    DATA     BYTE      DATA2
      0000008DH   SFRSYM    DATA     BYTE      TH1
      000000A8H.2 SFRSYM    DATA     BIT       EX1
      00000091H   SFRSYM    DATA     BYTE      CAN_IR
      000000CDH   SFRSYM    DATA     BYTE      TH2
      00000088H.2 SFRSYM    DATA     BIT       IT1
      000000FAH   SFRSYM    DATA     BYTE      DATA3
      000000D0H.0 SFRSYM    DATA     BIT       P
      00000098H.7 SFRSYM    DATA     BIT       SM0
      0000008AH   SFRSYM    DATA     BYTE      TL0
      00000098H.6 SFRSYM    DATA     BIT       SM1
      0000008BH   SFRSYM    DATA     BYTE      TL1
      00000098H.5 SFRSYM    DATA     BIT       SM2
      000000CCH   SFRSYM    DATA     BYTE      TL2
      000000A0H.7 SFRSYM    DATA     BIT       UV_St
LX51 LINKER/LOCATER V4.66.93.0                                                        04/24/2025  12:33:12  PAGE 47


      000000D0H.3 SFRSYM    DATA     BIT       RS0
      000000F8H.6 SFRSYM    DATA     BIT       APP_EN
      000000D0H.4 SFRSYM    DATA     BIT       RS1
      00000088H.4 SFRSYM    DATA     BIT       TR0
      00000088H.6 SFRSYM    DATA     BIT       TR1
      00000093H   SFRSYM    DATA     BYTE      DPC
      000000C8H.0 SFRSYM    DATA     BIT       TR2
      000000E5H   SFRSYM    DATA     BYTE      MAC_MODE
      00000083H   SFRSYM    DATA     BYTE      DPH
      00000082H   SFRSYM    DATA     BYTE      DPL
      00000099H   SFRSYM    DATA     BYTE      SBUF0
      0000009CH   SFRSYM    DATA     BYTE      SBUF1
      00000098H   SFRSYM    DATA     BYTE      SCON0
      0000009BH   SFRSYM    DATA     BYTE      SCON1
      000000D8H   SFRSYM    DATA     BYTE      ADCON
      000000C8H   SFRSYM    DATA     BYTE      T2CON
      000000E6H   SFRSYM    DATA     BYTE      DIV_MODE
      000000F8H.5 SFRSYM    DATA     BIT       APP_RW
      000000CBH   SFRSYM    DATA     BYTE      TRL2H
      0000009FH   SFRSYM    DATA     BYTE      SBUF2_RX
      000000ADH   SFRSYM    DATA     BYTE      SBUF3_RX
      0000008EH   SFRSYM    DATA     BYTE      CKCON
      0000009EH   SFRSYM    DATA     BYTE      SBUF2_TX
      000000ACH   SFRSYM    DATA     BYTE      SBUF3_TX
      000000CAH   SFRSYM    DATA     BYTE      TRL2L
      000000D0H.5 SFRSYM    DATA     BIT       F0
      000000FEH   SFRSYM    DATA     BYTE      EXADR
      000000D0H.1 SFRSYM    DATA     BIT       F1
      000000A0H.3 SFRSYM    DATA     BIT       LED_B
      000000D0H   SFRSYM    DATA     BYTE      PSW
      000000A0H.1 SFRSYM    DATA     BIT       LED_G
      000000C0H   SFRSYM    DATA     BYTE      IRCON
      00000098H.2 SFRSYM    DATA     BIT       RB80
      01009DFDH   SYMBOL    CONST    ---       _?ix1000
      01009E05H   SYMBOL    CONST    ---       _?ix1001
      01009E0DH   SYMBOL    CONST    ---       _?ix1002
      01009E15H   SYMBOL    CONST    ---       _?ix1003

      01005F94H   BLOCK     CODE     ---       LVL=0
      ---         BLOCKEND  ---      ---       LVL=0

      01005FA3H   BLOCK     CODE     ---       LVL=0
      00000004H   SYMBOL    DATA     WORD      addr
      020084F6H   SYMBOL    XDATA    ---       buf
      020084F9H   SYMBOL    XDATA    WORD      len
      00000003H   SYMBOL    DATA     BYTE      i
      01005FB2H   BLOCK     CODE     NEAR LAB  LVL=1
      00000003H   SYMBOL    DATA     BYTE      i
      ---         BLOCKEND  ---      ---       LVL=1
      01005FA3H   LINE      CODE     ---       #16
      01005FB2H   LINE      CODE     ---       #17
      01005FB2H   LINE      CODE     ---       #19
      01005FB4H   LINE      CODE     ---       #20
      01005FB8H   LINE      CODE     ---       #21
      01005FBFH   LINE      CODE     ---       #22
      01005FC2H   LINE      CODE     ---       #23
      01005FC5H   LINE      CODE     ---       #24
      01005FC9H   LINE      CODE     ---       #25
      01005FCCH   LINE      CODE     ---       #26
      01005FCFH   LINE      CODE     ---       #27
      01005FD2H   LINE      CODE     ---       #28
      01005FE4H   LINE      CODE     ---       #29
      01005FE4H   LINE      CODE     ---       #30
      01005FE7H   LINE      CODE     ---       #31
      01005FFCH   LINE      CODE     ---       #32
LX51 LINKER/LOCATER V4.66.93.0                                                        04/24/2025  12:33:12  PAGE 48


      01006011H   LINE      CODE     ---       #33
      01006013H   LINE      CODE     ---       #34
      01006021H   LINE      CODE     ---       #35
      01006021H   LINE      CODE     ---       #36
      01006024H   LINE      CODE     ---       #37
      01006034H   LINE      CODE     ---       #38
      01006034H   LINE      CODE     ---       #39
      01006049H   LINE      CODE     ---       #40
      0100605EH   LINE      CODE     ---       #41
      01006073H   LINE      CODE     ---       #42
      01006088H   LINE      CODE     ---       #43
      0100608AH   LINE      CODE     ---       #44
      01006098H   LINE      CODE     ---       #45
      0100609AH   LINE      CODE     ---       #46
      0100609EH   LINE      CODE     ---       #47
      0100609EH   LINE      CODE     ---       #48
      010060A1H   LINE      CODE     ---       #49
      010060B6H   LINE      CODE     ---       #50
      010060CBH   LINE      CODE     ---       #51
      010060CDH   LINE      CODE     ---       #52
      010060CDH   LINE      CODE     ---       #53
      010060D0H   LINE      CODE     ---       #54
      010060D2H   LINE      CODE     ---       #55
      ---         BLOCKEND  ---      ---       LVL=0

      01006B89H   BLOCK     CODE     ---       LVL=0
      ---         BLOCKEND  ---      ---       LVL=0

      01006B98H   BLOCK     CODE     ---       LVL=0
      00000004H   SYMBOL    DATA     WORD      addr
      020084F6H   SYMBOL    XDATA    ---       buf
      020084F9H   SYMBOL    XDATA    WORD      len
      00000003H   SYMBOL    DATA     BYTE      i
      01006BA7H   BLOCK     CODE     NEAR LAB  LVL=1
      00000003H   SYMBOL    DATA     BYTE      i
      ---         BLOCKEND  ---      ---       LVL=1
      01006B98H   LINE      CODE     ---       #60
      01006BA7H   LINE      CODE     ---       #61
      01006BA7H   LINE      CODE     ---       #63
      01006BA9H   LINE      CODE     ---       #64
      01006BADH   LINE      CODE     ---       #65
      01006BB4H   LINE      CODE     ---       #66
      01006BB7H   LINE      CODE     ---       #67
      01006BBAH   LINE      CODE     ---       #68
      01006BBEH   LINE      CODE     ---       #69
      01006BC1H   LINE      CODE     ---       #70
      01006BC4H   LINE      CODE     ---       #71
      01006BC7H   LINE      CODE     ---       #72
      01006BD9H   LINE      CODE     ---       #73
      01006BD9H   LINE      CODE     ---       #74
      01006BDBH   LINE      CODE     ---       #75
      01006BDEH   LINE      CODE     ---       #76
      01006BF0H   LINE      CODE     ---       #77
      01006BF0H   LINE      CODE     ---       #78
      01006C05H   LINE      CODE     ---       #79
      01006C1AH   LINE      CODE     ---       #80
      01006C1CH   LINE      CODE     ---       #81
      01006C2AH   LINE      CODE     ---       #82
      01006C2AH   LINE      CODE     ---       #83
      01006C3EH   LINE      CODE     ---       #84
      01006C3EH   LINE      CODE     ---       #85
      01006C53H   LINE      CODE     ---       #86
      01006C68H   LINE      CODE     ---       #87
      01006C6AH   LINE      CODE     ---       #88
      01006C78H   LINE      CODE     ---       #89
LX51 LINKER/LOCATER V4.66.93.0                                                        04/24/2025  12:33:12  PAGE 49


      01006C78H   LINE      CODE     ---       #90
      01006C7BH   LINE      CODE     ---       #91
      01006C7EH   LINE      CODE     ---       #92
      01006C80H   LINE      CODE     ---       #93
      ---         BLOCKEND  ---      ---       LVL=0

      01007D25H   BLOCK     CODE     ---       LVL=0
      020084E5H   SYMBOL    XDATA    WORD      NorAddr
      020084E7H   SYMBOL    XDATA    WORD      DgusAddr
      020084E9H   SYMBOL    XDATA    WORD      Len
      01007D39H   BLOCK     CODE     NEAR LAB  LVL=1
      020084EBH   SYMBOL    XDATA    ---       temp
      ---         BLOCKEND  ---      ---       LVL=1
      01007D25H   LINE      CODE     ---       #109
      01007D39H   LINE      CODE     ---       #110
      01007D39H   LINE      CODE     ---       #111
      01007D4CH   LINE      CODE     ---       #112
      01007D4EH   LINE      CODE     ---       #113
      01007D54H   LINE      CODE     ---       #114
      01007D6BH   LINE      CODE     ---       #115
      01007D6EH   LINE      CODE     ---       #116
      01007D77H   LINE      CODE     ---       #117
      01007D84H   LINE      CODE     ---       #118
      01007D87H   LINE      CODE     ---       #119
      01007D94H   LINE      CODE     ---       #120
      01007D97H   LINE      CODE     ---       #121
      01007DACH   LINE      CODE     ---       #123
      01007DACH   LINE      CODE     ---       #124
      01007DB3H   LINE      CODE     ---       #125
      01007DC8H   LINE      CODE     ---       #126
      01007DCEH   LINE      CODE     ---       #127
      01007DD0H   LINE      CODE     ---       #128
      ---         BLOCKEND  ---      ---       LVL=0

      01007DD1H   BLOCK     CODE     ---       LVL=0
      020084DDH   SYMBOL    XDATA    WORD      NorAddr
      020084DFH   SYMBOL    XDATA    WORD      DgusAddr
      020084E1H   SYMBOL    XDATA    WORD      Len
      01007DE5H   BLOCK     CODE     NEAR LAB  LVL=1
      020084E3H   SYMBOL    XDATA    ---       temp
      ---         BLOCKEND  ---      ---       LVL=1
      01007DD1H   LINE      CODE     ---       #145
      01007DE5H   LINE      CODE     ---       #146
      01007DE5H   LINE      CODE     ---       #148
      01007DF8H   LINE      CODE     ---       #149
      01007DFAH   LINE      CODE     ---       #150
      01007E00H   LINE      CODE     ---       #151
      01007E17H   LINE      CODE     ---       #152
      01007E1AH   LINE      CODE     ---       #153
      01007E23H   LINE      CODE     ---       #154
      01007E30H   LINE      CODE     ---       #155
      01007E33H   LINE      CODE     ---       #156
      01007E40H   LINE      CODE     ---       #157
      01007E43H   LINE      CODE     ---       #158
      01007E58H   LINE      CODE     ---       #160
      01007E58H   LINE      CODE     ---       #161
      01007E5FH   LINE      CODE     ---       #162
      01007E74H   LINE      CODE     ---       #163
      01007E7AH   LINE      CODE     ---       #164
      01007E7CH   LINE      CODE     ---       #165
      ---         BLOCKEND  ---      ---       LVL=0

      01007F26H   BLOCK     CODE     ---       LVL=0
      020084DDH   SYMBOL    XDATA    WORD      NorAddr
      020084DFH   SYMBOL    XDATA    ---       buff
LX51 LINKER/LOCATER V4.66.93.0                                                        04/24/2025  12:33:12  PAGE 50


      020084E2H   SYMBOL    XDATA    WORD      Len
      01007F37H   BLOCK     CODE     NEAR LAB  LVL=1
      020084E4H   SYMBOL    XDATA    ---       temp
      ---         BLOCKEND  ---      ---       LVL=1
      01007F26H   LINE      CODE     ---       #178
      01007F37H   LINE      CODE     ---       #179
      01007F37H   LINE      CODE     ---       #180
      01007F4AH   LINE      CODE     ---       #181
      01007F4CH   LINE      CODE     ---       #182
      01007F6BH   LINE      CODE     ---       #184
      01007F71H   LINE      CODE     ---       #185
      01007F88H   LINE      CODE     ---       #186
      01007F8BH   LINE      CODE     ---       #187
      01007F94H   LINE      CODE     ---       #188
      01007F98H   LINE      CODE     ---       #189
      01007F9BH   LINE      CODE     ---       #190
      01007FA8H   LINE      CODE     ---       #191
      01007FABH   LINE      CODE     ---       #192
      01007FB2H   LINE      CODE     ---       #194
      01007FB2H   LINE      CODE     ---       #195
      01007FB9H   LINE      CODE     ---       #196
      01007FC0H   LINE      CODE     ---       #197
      01007FC6H   LINE      CODE     ---       #198
      01007FC8H   LINE      CODE     ---       #199
      ---         BLOCKEND  ---      ---       LVL=0

      01007FC9H   BLOCK     CODE     ---       LVL=0
      020084E5H   SYMBOL    XDATA    WORD      NorAddr
      020084E7H   SYMBOL    XDATA    ---       buff
      020084EAH   SYMBOL    XDATA    WORD      Len
      01007FDAH   BLOCK     CODE     NEAR LAB  LVL=1
      020084ECH   SYMBOL    XDATA    ---       temp
      ---         BLOCKEND  ---      ---       LVL=1
      01007FC9H   LINE      CODE     ---       #201
      01007FDAH   LINE      CODE     ---       #202
      01007FDAH   LINE      CODE     ---       #203
      01007FEDH   LINE      CODE     ---       #204
      01007FEFH   LINE      CODE     ---       #205
      01007FF5H   LINE      CODE     ---       #206
      0100800CH   LINE      CODE     ---       #207
      0100800FH   LINE      CODE     ---       #208
      01008018H   LINE      CODE     ---       #209
      0100801CH   LINE      CODE     ---       #210
      0100801FH   LINE      CODE     ---       #211
      0100802CH   LINE      CODE     ---       #212
      0100802FH   LINE      CODE     ---       #213
      01008036H   LINE      CODE     ---       #215
      01008036H   LINE      CODE     ---       #216
      0100803DH   LINE      CODE     ---       #217
      01008044H   LINE      CODE     ---       #218
      0100804AH   LINE      CODE     ---       #219
      01008069H   LINE      CODE     ---       #220
      0100806BH   LINE      CODE     ---       #221
      ---         BLOCKEND  ---      ---       LVL=0

      ---         MODULE    ---      ---       TIMER
      020087E3H   PUBLIC    XDATA    WORD      mode4_1s_time
      020087E1H   PUBLIC    XDATA    WORD      T_1S_S
      020087DFH   PUBLIC    XDATA    WORD      norflash_Stop_UV_Flag
      020087DDH   PUBLIC    XDATA    WORD      D_1s
      020087DBH   PUBLIC    XDATA    WORD      norflash_Open_UV_Flag
      020087D9H   PUBLIC    XDATA    WORD      t15ms
      020087D7H   PUBLIC    XDATA    WORD      TOF_suanfa_Count
      020087D5H   PUBLIC    XDATA    WORD      T_1S
      020087D3H   PUBLIC    XDATA    WORD      uv_f
LX51 LINKER/LOCATER V4.66.93.0                                                        04/24/2025  12:33:12  PAGE 51


      020087D1H   PUBLIC    XDATA    WORD      Screen_Time_500ms
      020087CFH   PUBLIC    XDATA    WORD      t2
      020087CDH   PUBLIC    XDATA    WORD      norflash_Close_UV_Flag
      020087CBH   PUBLIC    XDATA    WORD      Wait_Count_2
      020087C9H   PUBLIC    XDATA    WORD      Draw_1s
      020087C7H   PUBLIC    XDATA    WORD      mode_4_500ms
      020087C5H   PUBLIC    XDATA    WORD      T_100MS_ADC
      020087C3H   PUBLIC    XDATA    WORD      Wait_Count
      020087C1H   PUBLIC    XDATA    WORD      Draw_1ms
      01009706H   PUBLIC    CODE     ---       InitTimer
      01005E49H   PUBLIC    CODE     ---       T2_ISR_PC
      0100962FH   PUBLIC    CODE     ---       T2_Init
      01004303H   PUBLIC    CODE     ---       T0_ISR_PC
      0100968EH   PUBLIC    CODE     ---       T0_Init
      00000098H.3 SFRSYM    DATA     BIT       TB80
      000000F1H   SFRSYM    DATA     BYTE      ADR_H
      00000080H   SFRSYM    DATA     BYTE      P0
      00000090H   SFRSYM    DATA     BYTE      P1
      000000A0H   SFRSYM    DATA     BYTE      P2
      000000B0H   SFRSYM    DATA     BYTE      P3
      000000D0H.6 SFRSYM    DATA     BIT       AC
      000000F3H   SFRSYM    DATA     BYTE      ADR_L
      00000094H   SFRSYM    DATA     BYTE      PAGESEL
      000000F2H   SFRSYM    DATA     BYTE      ADR_M
      000000A8H.7 SFRSYM    DATA     BIT       EA
      000000A0H.5 SFRSYM    DATA     BIT       JIGUANG
      00000090H.7 SFRSYM    DATA     BIT       LED_R
      000000F8H   SFRSYM    DATA     BYTE      RAMMODE
      000000B7H   SFRSYM    DATA     BYTE      P0MDOUT
      000000A8H   SFRSYM    DATA     BYTE      IEN0
      000000BCH   SFRSYM    DATA     BYTE      P1MDOUT
      000000B8H   SFRSYM    DATA     BYTE      IEN1
      000000BDH   SFRSYM    DATA     BYTE      P2MDOUT
      000000F8H.0 SFRSYM    DATA     BIT       APP_DATA0
      0000009AH   SFRSYM    DATA     BYTE      IEN2
      000000BEH   SFRSYM    DATA     BYTE      P3MDOUT
      000000F8H.1 SFRSYM    DATA     BIT       APP_DATA1
      000000D1H   SFRSYM    DATA     BYTE      IEN3
      00000080H.0 SFRSYM    DATA     BIT       P0_0
      000000F8H.2 SFRSYM    DATA     BIT       APP_DATA2
      00000090H.0 SFRSYM    DATA     BIT       P1_0
      000000F8H.3 SFRSYM    DATA     BIT       APP_DATA3
      00000090H.1 SFRSYM    DATA     BIT       P1_1
      000000F8H.4 SFRSYM    DATA     BIT       APP_ACK
      000000F4H   SFRSYM    DATA     BYTE      ADR_INC
      000000B0H.1 SFRSYM    DATA     BIT       P3_1
      00000098H.4 SFRSYM    DATA     BIT       REN0
      000000B8H.1 SFRSYM    DATA     BIT       ECAN
      000000D0H.7 SFRSYM    DATA     BIT       CY
      000000B8H.3 SFRSYM    DATA     BIT       ES2R
      000000B8H.5 SFRSYM    DATA     BIT       ES3R
      000000B8H.2 SFRSYM    DATA     BIT       ES2T
      000000B8H.4 SFRSYM    DATA     BIT       ES3T
      000000C8H.7 SFRSYM    DATA     BIT       TSF2
      000000B0H.3 SFRSYM    DATA     BIT       RTC_SDA
      00000081H   SFRSYM    DATA     BYTE      SP
      000000D0H.2 SFRSYM    DATA     BIT       OV
      00000095H   SFRSYM    DATA     BYTE      D_PAGESEL
      00000090H.5 SFRSYM    DATA     BIT       UV
      000000F8H.7 SFRSYM    DATA     BIT       APP_REQ
      000000B0H.2 SFRSYM    DATA     BIT       RTC_SCL
      000000BFH   SFRSYM    DATA     BYTE      IRCON2
      000000BAH   SFRSYM    DATA     BYTE      SREL0H
      000000BBH   SFRSYM    DATA     BYTE      SREL1H
      00000087H   SFRSYM    DATA     BYTE      PCON
LX51 LINKER/LOCATER V4.66.93.0                                                        04/24/2025  12:33:12  PAGE 52


      000000AAH   SFRSYM    DATA     BYTE      SREL0L
      000000F9H   SFRSYM    DATA     BYTE      PORTDRV
      0000009DH   SFRSYM    DATA     BYTE      SREL1L
      00000089H   SFRSYM    DATA     BYTE      TMOD
      00000088H   SFRSYM    DATA     BYTE      TCON
      00000097H   SFRSYM    DATA     BYTE      SCON2R
      000000FFH   SFRSYM    DATA     BYTE      EXDATA
      000000ABH   SFRSYM    DATA     BYTE      SCON3R
      000000D9H   SFRSYM    DATA     BYTE      BODE2_DIV_H
      000000AEH   SFRSYM    DATA     BYTE      BODE3_DIV_H
      00000096H   SFRSYM    DATA     BYTE      SCON2T
      000000A7H   SFRSYM    DATA     BYTE      SCON3T
      000000E7H   SFRSYM    DATA     BYTE      BODE2_DIV_L
      00000088H.1 SFRSYM    DATA     BIT       IE0
      000000AFH   SFRSYM    DATA     BYTE      BODE3_DIV_L
      00000088H.3 SFRSYM    DATA     BIT       IE1
      000000C9H   SFRSYM    DATA     BYTE      MUX_SEL
      020086CBH   SFRSYM    XDATA    WORD      B
      000000E0H   SFRSYM    DATA     BYTE      ACC
      000000A8H.4 SFRSYM    DATA     BIT       ES0
      0000008FH   SFRSYM    DATA     BYTE      CAN_CR
      000000A8H.1 SFRSYM    DATA     BIT       ET0
      000000A9H   SFRSYM    DATA     BYTE      IP0
      000000A8H.3 SFRSYM    DATA     BIT       ET1
      00000088H.5 SFRSYM    DATA     BIT       TF0
      000000B9H   SFRSYM    DATA     BYTE      IP1
      000000A8H.5 SFRSYM    DATA     BIT       ET2
      00000098H.0 SFRSYM    DATA     BIT       RI0
      00000088H.7 SFRSYM    DATA     BIT       TF1
      000000FDH   SFRSYM    DATA     BYTE      DATA0
      000000C0H.6 SFRSYM    DATA     BIT       TF2
      000000E8H   SFRSYM    DATA     BYTE      CAN_ET
      000000FCH   SFRSYM    DATA     BYTE      DATA1
      0000008CH   SFRSYM    DATA     BYTE      TH0
      000000A8H.0 SFRSYM    DATA     BIT       EX0
      00000098H.1 SFRSYM    DATA     BIT       TI0
      00000088H.0 SFRSYM    DATA     BIT       IT0
      000000FBH   SFRSYM    DATA     BYTE      DATA2
      0000008DH   SFRSYM    DATA     BYTE      TH1
      000000A8H.2 SFRSYM    DATA     BIT       EX1
      00000091H   SFRSYM    DATA     BYTE      CAN_IR
      000000CDH   SFRSYM    DATA     BYTE      TH2
      00000088H.2 SFRSYM    DATA     BIT       IT1
      000000FAH   SFRSYM    DATA     BYTE      DATA3
      000000D0H.0 SFRSYM    DATA     BIT       P
      00000098H.7 SFRSYM    DATA     BIT       SM0
      0000008AH   SFRSYM    DATA     BYTE      TL0
      00000098H.6 SFRSYM    DATA     BIT       SM1
      0000008BH   SFRSYM    DATA     BYTE      TL1
      00000098H.5 SFRSYM    DATA     BIT       SM2
      000000CCH   SFRSYM    DATA     BYTE      TL2
      000000A0H.7 SFRSYM    DATA     BIT       UV_St
      000000D0H.3 SFRSYM    DATA     BIT       RS0
      000000F8H.6 SFRSYM    DATA     BIT       APP_EN
      000000D0H.4 SFRSYM    DATA     BIT       RS1
      00000088H.4 SFRSYM    DATA     BIT       TR0
      00000088H.6 SFRSYM    DATA     BIT       TR1
      00000093H   SFRSYM    DATA     BYTE      DPC
      000000C8H.0 SFRSYM    DATA     BIT       TR2
      000000E5H   SFRSYM    DATA     BYTE      MAC_MODE
      00000083H   SFRSYM    DATA     BYTE      DPH
      00000082H   SFRSYM    DATA     BYTE      DPL
      00000099H   SFRSYM    DATA     BYTE      SBUF0
      0000009CH   SFRSYM    DATA     BYTE      SBUF1
      00000098H   SFRSYM    DATA     BYTE      SCON0
LX51 LINKER/LOCATER V4.66.93.0                                                        04/24/2025  12:33:12  PAGE 53


      0000009BH   SFRSYM    DATA     BYTE      SCON1
      000000D8H   SFRSYM    DATA     BYTE      ADCON
      000000C8H   SFRSYM    DATA     BYTE      T2CON
      000000E6H   SFRSYM    DATA     BYTE      DIV_MODE
      000000F8H.5 SFRSYM    DATA     BIT       APP_RW
      000000CBH   SFRSYM    DATA     BYTE      TRL2H
      0000009FH   SFRSYM    DATA     BYTE      SBUF2_RX
      000000ADH   SFRSYM    DATA     BYTE      SBUF3_RX
      0000008EH   SFRSYM    DATA     BYTE      CKCON
      0000009EH   SFRSYM    DATA     BYTE      SBUF2_TX
      000000ACH   SFRSYM    DATA     BYTE      SBUF3_TX
      000000CAH   SFRSYM    DATA     BYTE      TRL2L
      000000D0H.5 SFRSYM    DATA     BIT       F0
      000000FEH   SFRSYM    DATA     BYTE      EXADR
      000000D0H.1 SFRSYM    DATA     BIT       F1
      000000A0H.3 SFRSYM    DATA     BIT       LED_B
      000000D0H   SFRSYM    DATA     BYTE      PSW
      000000A0H.1 SFRSYM    DATA     BIT       LED_G
      000000C0H   SFRSYM    DATA     BYTE      IRCON
      00000098H.2 SFRSYM    DATA     BIT       RB80

      0100968EH   BLOCK     CODE     ---       LVL=0
      0100968EH   LINE      CODE     ---       #46
      0100968EH   LINE      CODE     ---       #47
      0100968EH   LINE      CODE     ---       #48
      01009691H   LINE      CODE     ---       #49
      01009694H   LINE      CODE     ---       #50
      01009697H   LINE      CODE     ---       #51
      01009699H   LINE      CODE     ---       #52
      0100969BH   LINE      CODE     ---       #53
      ---         BLOCKEND  ---      ---       LVL=0

      01004303H   BLOCK     CODE     ---       LVL=0
      01004303H   LINE      CODE     ---       #54
      01004320H   LINE      CODE     ---       #56
      01004322H   LINE      CODE     ---       #57
      01004325H   LINE      CODE     ---       #58
      01004328H   LINE      CODE     ---       #59
      01004336H   LINE      CODE     ---       #60
      01004344H   LINE      CODE     ---       #71
      01004353H   LINE      CODE     ---       #72
      01004353H   LINE      CODE     ---       #73
      01004357H   LINE      CODE     ---       #74
      0100435EH   LINE      CODE     ---       #75
      01004364H   LINE      CODE     ---       #76
      01004364H   LINE      CODE     ---       #77
      01004372H   LINE      CODE     ---       #78
      01004372H   LINE      CODE     ---       #80
      01004372H   LINE      CODE     ---       #86
      010043AAH   LINE      CODE     ---       #87
      010043AAH   LINE      CODE     ---       #89
      010043B8H   LINE      CODE     ---       #90
      010043CDH   LINE      CODE     ---       #108
      010043D3H   LINE      CODE     ---       #109
      010043D3H   LINE      CODE     ---       #110
      010043E1H   LINE      CODE     ---       #111
      01004408H   LINE      CODE     ---       #112
      0100440BH   LINE      CODE     ---       #114
      01004414H   LINE      CODE     ---       #115
      01004414H   LINE      CODE     ---       #116
      01004422H   LINE      CODE     ---       #117
      01004431H   LINE      CODE     ---       #118
      01004431H   LINE      CODE     ---       #119
      01004434H   LINE      CODE     ---       #120
      01004437H   LINE      CODE     ---       #121
LX51 LINKER/LOCATER V4.66.93.0                                                        04/24/2025  12:33:12  PAGE 54


      01004437H   LINE      CODE     ---       #122
      01004439H   LINE      CODE     ---       #127
      01004445H   LINE      CODE     ---       #128
      01004445H   LINE      CODE     ---       #130
      01004453H   LINE      CODE     ---       #131
      01004456H   LINE      CODE     ---       #132
      01004465H   LINE      CODE     ---       #133
      01004465H   LINE      CODE     ---       #135
      01004469H   LINE      CODE     ---       #136
      0100446CH   LINE      CODE     ---       #137
      0100446CH   LINE      CODE     ---       #139
      0100446EH   LINE      CODE     ---       #143
      0100447AH   LINE      CODE     ---       #144
      0100447AH   LINE      CODE     ---       #145
      01004488H   LINE      CODE     ---       #146
      0100448BH   LINE      CODE     ---       #147
      0100449AH   LINE      CODE     ---       #148
      0100449AH   LINE      CODE     ---       #149
      0100449EH   LINE      CODE     ---       #151
      010044A1H   LINE      CODE     ---       #152
      010044A1H   LINE      CODE     ---       #154
      010044AAH   LINE      CODE     ---       #157
      010044BFH   LINE      CODE     ---       #158
      010044C1H   LINE      CODE     ---       #159
      010044C8H   LINE      CODE     ---       #161
      010044CAH   LINE      CODE     ---       #162
      ---         BLOCKEND  ---      ---       LVL=0

      0100962FH   BLOCK     CODE     ---       LVL=0
      0100962FH   LINE      CODE     ---       #165
      0100962FH   LINE      CODE     ---       #166
      0100962FH   LINE      CODE     ---       #167
      01009632H   LINE      CODE     ---       #168
      01009635H   LINE      CODE     ---       #169
      01009637H   LINE      CODE     ---       #170
      0100963AH   LINE      CODE     ---       #171
      0100963DH   LINE      CODE     ---       #172
      01009640H   LINE      CODE     ---       #173
      01009642H   LINE      CODE     ---       #174
      ---         BLOCKEND  ---      ---       LVL=0

      01005E49H   BLOCK     CODE     ---       LVL=0
      01005E49H   LINE      CODE     ---       #175
      01005E66H   LINE      CODE     ---       #177
      01005E68H   LINE      CODE     ---       #178
      01005E6AH   LINE      CODE     ---       #179
      01005E78H   LINE      CODE     ---       #180
      01005E86H   LINE      CODE     ---       #182
      01005E91H   LINE      CODE     ---       #183
      01005E91H   LINE      CODE     ---       #184
      01005E9FH   LINE      CODE     ---       #185
      01005EAEH   LINE      CODE     ---       #186
      01005EAEH   LINE      CODE     ---       #187
      01005EB2H   LINE      CODE     ---       #189
      01005EB8H   LINE      CODE     ---       #190
      01005EBAH   LINE      CODE     ---       #191
      01005EC8H   LINE      CODE     ---       #192
      01005EC8H   LINE      CODE     ---       #193
      01005EDDH   LINE      CODE     ---       #194
      01005EDDH   LINE      CODE     ---       #195
      01005EDFH   LINE      CODE     ---       #196
      01005EEAH   LINE      CODE     ---       #197
      01005EEAH   LINE      CODE     ---       #198
      01005EEDH   LINE      CODE     ---       #199
      01005EF0H   LINE      CODE     ---       #200
LX51 LINKER/LOCATER V4.66.93.0                                                        04/24/2025  12:33:12  PAGE 55


      01005EF3H   LINE      CODE     ---       #201
      01005EF3H   LINE      CODE     ---       #202
      01005EF5H   LINE      CODE     ---       #203
      01005EF8H   LINE      CODE     ---       #204
      01005EF8H   LINE      CODE     ---       #205
      01005EFAH   LINE      CODE     ---       #206
      01005F00H   LINE      CODE     ---       #207
      01005F00H   LINE      CODE     ---       #208
      01005F0EH   LINE      CODE     ---       #209
      01005F1DH   LINE      CODE     ---       #210
      01005F1DH   LINE      CODE     ---       #211
      01005F21H   LINE      CODE     ---       #212
      01005F24H   LINE      CODE     ---       #213
      01005F24H   LINE      CODE     ---       #214
      01005F24H   LINE      CODE     ---       #217
      01005F33H   LINE      CODE     ---       #218
      01005F33H   LINE      CODE     ---       #219
      01005F36H   LINE      CODE     ---       #221
      01005F3DH   LINE      CODE     ---       #222
      01005F3DH   LINE      CODE     ---       #235
      01005F4CH   LINE      CODE     ---       #236
      01005F4CH   LINE      CODE     ---       #237
      01005F50H   LINE      CODE     ---       #238
      01005F53H   LINE      CODE     ---       #239
      01005F53H   LINE      CODE     ---       #240
      01005F62H   LINE      CODE     ---       #241
      01005F62H   LINE      CODE     ---       #242
      01005F6AH   LINE      CODE     ---       #243
      01005F6CH   LINE      CODE     ---       #244
      01005F77H   LINE      CODE     ---       #246
      01005F77H   LINE      CODE     ---       #247
      01005F77H   LINE      CODE     ---       #250
      01005F79H   LINE      CODE     ---       #251
      ---         BLOCKEND  ---      ---       LVL=0

      01009706H   BLOCK     CODE     ---       LVL=0
      01009706H   LINE      CODE     ---       #254
      01009706H   LINE      CODE     ---       #255
      01009706H   LINE      CODE     ---       #256
      01009709H   LINE      CODE     ---       #257
      ---         BLOCKEND  ---      ---       LVL=0

      ---         MODULE    ---      ---       UART
      02008613H   PUBLIC    XDATA    WORD      uart5_rx_count
      02008593H   PUBLIC    XDATA    ---       Uart5_Rx
      0100970CH   PUBLIC    CODE     ---       InitUart
      01008B01H   PUBLIC    CODE     ---       UART5_RX_ISR_PC
      01000051H   PUBLIC    CODE     ---       UART5_TX_ISR_PC
      010092BFH   PUBLIC    CODE     ---       _Uart5SendStr
      010096CFH   PUBLIC    CODE     ---       _Uart5SendByte
      01000016H   PUBLIC    CODE     ---       Uart5Init
      0100969CH   PUBLIC    CODE     ---       Uart4Init
      00000098H.3 SFRSYM    DATA     BIT       TB80
      000000F1H   SFRSYM    DATA     BYTE      ADR_H
      00000080H   SFRSYM    DATA     BYTE      P0
      00000090H   SFRSYM    DATA     BYTE      P1
      000000A0H   SFRSYM    DATA     BYTE      P2
      000000B0H   SFRSYM    DATA     BYTE      P3
      000000D0H.6 SFRSYM    DATA     BIT       AC
      000000F3H   SFRSYM    DATA     BYTE      ADR_L
      00000094H   SFRSYM    DATA     BYTE      PAGESEL
      000000F2H   SFRSYM    DATA     BYTE      ADR_M
      000000A8H.7 SFRSYM    DATA     BIT       EA
      000000A0H.5 SFRSYM    DATA     BIT       JIGUANG
      00000090H.7 SFRSYM    DATA     BIT       LED_R
LX51 LINKER/LOCATER V4.66.93.0                                                        04/24/2025  12:33:12  PAGE 56


      000000F8H   SFRSYM    DATA     BYTE      RAMMODE
      000000B7H   SFRSYM    DATA     BYTE      P0MDOUT
      000000A8H   SFRSYM    DATA     BYTE      IEN0
      000000BCH   SFRSYM    DATA     BYTE      P1MDOUT
      000000B8H   SFRSYM    DATA     BYTE      IEN1
      000000BDH   SFRSYM    DATA     BYTE      P2MDOUT
      000000F8H.0 SFRSYM    DATA     BIT       APP_DATA0
      0000009AH   SFRSYM    DATA     BYTE      IEN2
      000000BEH   SFRSYM    DATA     BYTE      P3MDOUT
      000000F8H.1 SFRSYM    DATA     BIT       APP_DATA1
      000000D1H   SFRSYM    DATA     BYTE      IEN3
      00000080H.0 SFRSYM    DATA     BIT       P0_0
      000000F8H.2 SFRSYM    DATA     BIT       APP_DATA2
      00000090H.0 SFRSYM    DATA     BIT       P1_0
      000000F8H.3 SFRSYM    DATA     BIT       APP_DATA3
      00000090H.1 SFRSYM    DATA     BIT       P1_1
      000000F8H.4 SFRSYM    DATA     BIT       APP_ACK
      000000F4H   SFRSYM    DATA     BYTE      ADR_INC
      000000B0H.1 SFRSYM    DATA     BIT       P3_1
      00000098H.4 SFRSYM    DATA     BIT       REN0
      000000B8H.1 SFRSYM    DATA     BIT       ECAN
      000000D0H.7 SFRSYM    DATA     BIT       CY
      000000B8H.3 SFRSYM    DATA     BIT       ES2R
      000000B8H.5 SFRSYM    DATA     BIT       ES3R
      000000B8H.2 SFRSYM    DATA     BIT       ES2T
      000000B8H.4 SFRSYM    DATA     BIT       ES3T
      000000C8H.7 SFRSYM    DATA     BIT       TSF2
      000000B0H.3 SFRSYM    DATA     BIT       RTC_SDA
      00000081H   SFRSYM    DATA     BYTE      SP
      000000D0H.2 SFRSYM    DATA     BIT       OV
      00000095H   SFRSYM    DATA     BYTE      D_PAGESEL
      00000090H.5 SFRSYM    DATA     BIT       UV
      000000F8H.7 SFRSYM    DATA     BIT       APP_REQ
      000000B0H.2 SFRSYM    DATA     BIT       RTC_SCL
      000000BFH   SFRSYM    DATA     BYTE      IRCON2
      000000BAH   SFRSYM    DATA     BYTE      SREL0H
      000000BBH   SFRSYM    DATA     BYTE      SREL1H
      00000087H   SFRSYM    DATA     BYTE      PCON
      000000AAH   SFRSYM    DATA     BYTE      SREL0L
      000000F9H   SFRSYM    DATA     BYTE      PORTDRV
      0000009DH   SFRSYM    DATA     BYTE      SREL1L
      00000089H   SFRSYM    DATA     BYTE      TMOD
      00000088H   SFRSYM    DATA     BYTE      TCON
      00000097H   SFRSYM    DATA     BYTE      SCON2R
      000000FFH   SFRSYM    DATA     BYTE      EXDATA
      000000ABH   SFRSYM    DATA     BYTE      SCON3R
      000000D9H   SFRSYM    DATA     BYTE      BODE2_DIV_H
      000000AEH   SFRSYM    DATA     BYTE      BODE3_DIV_H
      00000096H   SFRSYM    DATA     BYTE      SCON2T
      000000A7H   SFRSYM    DATA     BYTE      SCON3T
      000000E7H   SFRSYM    DATA     BYTE      BODE2_DIV_L
      00000088H.1 SFRSYM    DATA     BIT       IE0
      000000AFH   SFRSYM    DATA     BYTE      BODE3_DIV_L
      00000088H.3 SFRSYM    DATA     BIT       IE1
      000000C9H   SFRSYM    DATA     BYTE      MUX_SEL
      020086CBH   SFRSYM    XDATA    WORD      B
      000000E0H   SFRSYM    DATA     BYTE      ACC
      000000A8H.4 SFRSYM    DATA     BIT       ES0
      0000008FH   SFRSYM    DATA     BYTE      CAN_CR
      000000A8H.1 SFRSYM    DATA     BIT       ET0
      000000A9H   SFRSYM    DATA     BYTE      IP0
      000000A8H.3 SFRSYM    DATA     BIT       ET1
      00000088H.5 SFRSYM    DATA     BIT       TF0
      000000B9H   SFRSYM    DATA     BYTE      IP1
      000000A8H.5 SFRSYM    DATA     BIT       ET2
LX51 LINKER/LOCATER V4.66.93.0                                                        04/24/2025  12:33:12  PAGE 57


      00000098H.0 SFRSYM    DATA     BIT       RI0
      00000088H.7 SFRSYM    DATA     BIT       TF1
      000000FDH   SFRSYM    DATA     BYTE      DATA0
      000000C0H.6 SFRSYM    DATA     BIT       TF2
      000000E8H   SFRSYM    DATA     BYTE      CAN_ET
      000000FCH   SFRSYM    DATA     BYTE      DATA1
      0000008CH   SFRSYM    DATA     BYTE      TH0
      000000A8H.0 SFRSYM    DATA     BIT       EX0
      00000098H.1 SFRSYM    DATA     BIT       TI0
      00000088H.0 SFRSYM    DATA     BIT       IT0
      000000FBH   SFRSYM    DATA     BYTE      DATA2
      0000008DH   SFRSYM    DATA     BYTE      TH1
      000000A8H.2 SFRSYM    DATA     BIT       EX1
      00000091H   SFRSYM    DATA     BYTE      CAN_IR
      000000CDH   SFRSYM    DATA     BYTE      TH2
      00000088H.2 SFRSYM    DATA     BIT       IT1
      000000FAH   SFRSYM    DATA     BYTE      DATA3
      000000D0H.0 SFRSYM    DATA     BIT       P
      00000098H.7 SFRSYM    DATA     BIT       SM0
      0000008AH   SFRSYM    DATA     BYTE      TL0
      00000098H.6 SFRSYM    DATA     BIT       SM1
      0000008BH   SFRSYM    DATA     BYTE      TL1
      00000098H.5 SFRSYM    DATA     BIT       SM2
      000000CCH   SFRSYM    DATA     BYTE      TL2
      000000A0H.7 SFRSYM    DATA     BIT       UV_St
      000000D0H.3 SFRSYM    DATA     BIT       RS0
      000000F8H.6 SFRSYM    DATA     BIT       APP_EN
      000000D0H.4 SFRSYM    DATA     BIT       RS1
      00000088H.4 SFRSYM    DATA     BIT       TR0
      00000088H.6 SFRSYM    DATA     BIT       TR1
      00000093H   SFRSYM    DATA     BYTE      DPC
      000000C8H.0 SFRSYM    DATA     BIT       TR2
      000000E5H   SFRSYM    DATA     BYTE      MAC_MODE
      00000083H   SFRSYM    DATA     BYTE      DPH
      00000082H   SFRSYM    DATA     BYTE      DPL
      00000099H   SFRSYM    DATA     BYTE      SBUF0
      0000009CH   SFRSYM    DATA     BYTE      SBUF1
      00000098H   SFRSYM    DATA     BYTE      SCON0
      0000009BH   SFRSYM    DATA     BYTE      SCON1
      000000D8H   SFRSYM    DATA     BYTE      ADCON
      000000C8H   SFRSYM    DATA     BYTE      T2CON
      000000E6H   SFRSYM    DATA     BYTE      DIV_MODE
      000000F8H.5 SFRSYM    DATA     BIT       APP_RW
      000000CBH   SFRSYM    DATA     BYTE      TRL2H
      0000009FH   SFRSYM    DATA     BYTE      SBUF2_RX
      000000ADH   SFRSYM    DATA     BYTE      SBUF3_RX
      0000008EH   SFRSYM    DATA     BYTE      CKCON
      0000009EH   SFRSYM    DATA     BYTE      SBUF2_TX
      000000ACH   SFRSYM    DATA     BYTE      SBUF3_TX
      000000CAH   SFRSYM    DATA     BYTE      TRL2L
      000000D0H.5 SFRSYM    DATA     BIT       F0
      000000FEH   SFRSYM    DATA     BYTE      EXADR
      000000D0H.1 SFRSYM    DATA     BIT       F1
      000000A0H.3 SFRSYM    DATA     BIT       LED_B
      000000D0H   SFRSYM    DATA     BYTE      PSW
      000000A0H.1 SFRSYM    DATA     BIT       LED_G
      000000C0H   SFRSYM    DATA     BYTE      IRCON
      00000098H.2 SFRSYM    DATA     BIT       RB80

      0100969CH   BLOCK     CODE     ---       LVL=0
      0100969CH   LINE      CODE     ---       #178
      0100969CH   LINE      CODE     ---       #179
      0100969CH   LINE      CODE     ---       #181
      0100969FH   LINE      CODE     ---       #182
      010096A2H   LINE      CODE     ---       #183
LX51 LINKER/LOCATER V4.66.93.0                                                        04/24/2025  12:33:12  PAGE 58


      010096A5H   LINE      CODE     ---       #184
      010096A8H   LINE      CODE     ---       #190
      ---         BLOCKEND  ---      ---       LVL=0

      01000016H   BLOCK     CODE     ---       LVL=0
      01000016H   LINE      CODE     ---       #247
      01000016H   LINE      CODE     ---       #248
      01000016H   LINE      CODE     ---       #249
      0100001DH   LINE      CODE     ---       #250
      01000020H   LINE      CODE     ---       #251
      01000023H   LINE      CODE     ---       #252
      01000025H   LINE      CODE     ---       #253
      01000028H   LINE      CODE     ---       #255
      0100002AH   LINE      CODE     ---       #256
      ---         BLOCKEND  ---      ---       LVL=0

      010096CFH   BLOCK     CODE     ---       LVL=0
      00000007H   SYMBOL    DATA     BYTE      dat
      010096CFH   LINE      CODE     ---       #259
      010096CFH   LINE      CODE     ---       #260
      010096CFH   LINE      CODE     ---       #261
      010096D1H   LINE      CODE     ---       #262
      010096D7H   LINE      CODE     ---       #263
      010096DAH   LINE      CODE     ---       #264
      ---         BLOCKEND  ---      ---       LVL=0

      010092BFH   BLOCK     CODE     ---       LVL=0
      0200884AH   SYMBOL    XDATA    ---       pstr
      00000005H   SYMBOL    DATA     BYTE      strlen
      010092BFH   LINE      CODE     ---       #267
      010092CAH   LINE      CODE     ---       #268
      010092CAH   LINE      CODE     ---       #269
      010092DBH   LINE      CODE     ---       #270
      010092DBH   LINE      CODE     ---       #272
      010092DBH   LINE      CODE     ---       #273
      010092E1H   LINE      CODE     ---       #274
      010092E1H   LINE      CODE     ---       #275
      010092F3H   LINE      CODE     ---       #276
      010092FDH   LINE      CODE     ---       #277
      010092FFH   LINE      CODE     ---       #278
      ---         BLOCKEND  ---      ---       LVL=0

      01000051H   BLOCK     CODE     ---       LVL=0
      01000051H   LINE      CODE     ---       #281
      01000051H   LINE      CODE     ---       #283
      ---         BLOCKEND  ---      ---       LVL=0

      01008B01H   BLOCK     CODE     ---       LVL=0
      01008B1EH   BLOCK     CODE     NEAR LAB  LVL=1
      00000007H   SYMBOL    DATA     BYTE      res
      ---         BLOCKEND  ---      ---       LVL=1
      01008B01H   LINE      CODE     ---       #286
      01008B1EH   LINE      CODE     ---       #288
      01008B20H   LINE      CODE     ---       #289
      01008B22H   LINE      CODE     ---       #290
      01008B2AH   LINE      CODE     ---       #291
      01008B2AH   LINE      CODE     ---       #292
      01008B2DH   LINE      CODE     ---       #293
      01008B2FH   LINE      CODE     ---       #294
      01008B41H   LINE      CODE     ---       #295
      01008B4FH   LINE      CODE     ---       #296
      01008B52H   LINE      CODE     ---       #297
      01008B61H   LINE      CODE     ---       #299
      01008B65H   LINE      CODE     ---       #300
      01008B65H   LINE      CODE     ---       #301
LX51 LINKER/LOCATER V4.66.93.0                                                        04/24/2025  12:33:12  PAGE 59


      01008B65H   LINE      CODE     ---       #305
      01008B67H   LINE      CODE     ---       #306
      ---         BLOCKEND  ---      ---       LVL=0

      0100970CH   BLOCK     CODE     ---       LVL=0
      0100970CH   LINE      CODE     ---       #316
      0100970CH   LINE      CODE     ---       #317
      0100970CH   LINE      CODE     ---       #320
      0100970FH   LINE      CODE     ---       #321
      ---         BLOCKEND  ---      ---       LVL=0

      ---         MODULE    ---      ---       HANDLE
      020087C0H   PUBLIC    XDATA    BYTE      Ad_chengxu
      020087BCH   PUBLIC    XDATA    ---       value0F00
      020087BAH   PUBLIC    XDATA    WORD      colour_y
      020087B8H   PUBLIC    XDATA    WORD      colour_w
      020087B4H   PUBLIC    XDATA    ---       BUff_main
      020087B3H   PUBLIC    XDATA    BYTE      chushu_chengxu
      020087B2H   PUBLIC    XDATA    BYTE      control_chengxu_flag
      020087B0H   PUBLIC    XDATA    WORD      control_zhiliao_flag
      020087AEH   PUBLIC    XDATA    WORD      control_shoudong_flag
      020087ADH   PUBLIC    XDATA    BYTE      mode_4_flag_start
      020087ABH   PUBLIC    XDATA    ---       icon_exit
      020087AAH   PUBLIC    XDATA    BYTE      chengxu_stop
      020087A9H   PUBLIC    XDATA    BYTE      chengxu_start_1
      020087A8H   PUBLIC    XDATA    BYTE      yushu_chengxu
      020087A6H   PUBLIC    XDATA    ---       icon_attend
      020087A4H   PUBLIC    XDATA    ---       uart4_open_buff
      020087A3H   PUBLIC    XDATA    BYTE      chengxu_start
      0100933FH   PUBLIC    CODE     ---       HandleProc
      01009563H   PUBLIC    CODE     ---       _Analog_click
      01000DCEH   PUBLIC    CODE     ---       TouchHandle
      01006882H   PUBLIC    CODE     ---       _chengxu_1_24_lock
      01008D43H   PUBLIC    CODE     ---       _JumpPage
      010090C4H   PUBLIC    CODE     ---       GetValue0F00
      00000098H.3 SFRSYM    DATA     BIT       TB80
      000000F1H   SFRSYM    DATA     BYTE      ADR_H
      00000080H   SFRSYM    DATA     BYTE      P0
      00000090H   SFRSYM    DATA     BYTE      P1
      000000A0H   SFRSYM    DATA     BYTE      P2
      000000B0H   SFRSYM    DATA     BYTE      P3
      000000D0H.6 SFRSYM    DATA     BIT       AC
      000000F3H   SFRSYM    DATA     BYTE      ADR_L
      00000094H   SFRSYM    DATA     BYTE      PAGESEL
      000000F2H   SFRSYM    DATA     BYTE      ADR_M
      000000A8H.7 SFRSYM    DATA     BIT       EA
      000000A0H.5 SFRSYM    DATA     BIT       JIGUANG
      00000090H.7 SFRSYM    DATA     BIT       LED_R
      000000F8H   SFRSYM    DATA     BYTE      RAMMODE
      000000B7H   SFRSYM    DATA     BYTE      P0MDOUT
      000000A8H   SFRSYM    DATA     BYTE      IEN0
      000000BCH   SFRSYM    DATA     BYTE      P1MDOUT
      000000B8H   SFRSYM    DATA     BYTE      IEN1
      000000BDH   SFRSYM    DATA     BYTE      P2MDOUT
      000000F8H.0 SFRSYM    DATA     BIT       APP_DATA0
      0000009AH   SFRSYM    DATA     BYTE      IEN2
      000000BEH   SFRSYM    DATA     BYTE      P3MDOUT
      000000F8H.1 SFRSYM    DATA     BIT       APP_DATA1
      000000D1H   SFRSYM    DATA     BYTE      IEN3
      00000080H.0 SFRSYM    DATA     BIT       P0_0
      000000F8H.2 SFRSYM    DATA     BIT       APP_DATA2
      00000090H.0 SFRSYM    DATA     BIT       P1_0
      000000F8H.3 SFRSYM    DATA     BIT       APP_DATA3
      00000090H.1 SFRSYM    DATA     BIT       P1_1
      000000F8H.4 SFRSYM    DATA     BIT       APP_ACK
LX51 LINKER/LOCATER V4.66.93.0                                                        04/24/2025  12:33:12  PAGE 60


      000000F4H   SFRSYM    DATA     BYTE      ADR_INC
      000000B0H.1 SFRSYM    DATA     BIT       P3_1
      00000098H.4 SFRSYM    DATA     BIT       REN0
      000000B8H.1 SFRSYM    DATA     BIT       ECAN
      000000D0H.7 SFRSYM    DATA     BIT       CY
      000000B8H.3 SFRSYM    DATA     BIT       ES2R
      000000B8H.5 SFRSYM    DATA     BIT       ES3R
      000000B8H.2 SFRSYM    DATA     BIT       ES2T
      000000B8H.4 SFRSYM    DATA     BIT       ES3T
      000000C8H.7 SFRSYM    DATA     BIT       TSF2
      000000B0H.3 SFRSYM    DATA     BIT       RTC_SDA
      00000081H   SFRSYM    DATA     BYTE      SP
      000000D0H.2 SFRSYM    DATA     BIT       OV
      00000095H   SFRSYM    DATA     BYTE      D_PAGESEL
      00000090H.5 SFRSYM    DATA     BIT       UV
      000000F8H.7 SFRSYM    DATA     BIT       APP_REQ
      000000B0H.2 SFRSYM    DATA     BIT       RTC_SCL
      000000BFH   SFRSYM    DATA     BYTE      IRCON2
      000000BAH   SFRSYM    DATA     BYTE      SREL0H
      000000BBH   SFRSYM    DATA     BYTE      SREL1H
      00000087H   SFRSYM    DATA     BYTE      PCON
      000000AAH   SFRSYM    DATA     BYTE      SREL0L
      000000F9H   SFRSYM    DATA     BYTE      PORTDRV
      0000009DH   SFRSYM    DATA     BYTE      SREL1L
      00000089H   SFRSYM    DATA     BYTE      TMOD
      00000088H   SFRSYM    DATA     BYTE      TCON
      00000097H   SFRSYM    DATA     BYTE      SCON2R
      000000FFH   SFRSYM    DATA     BYTE      EXDATA
      000000ABH   SFRSYM    DATA     BYTE      SCON3R
      000000D9H   SFRSYM    DATA     BYTE      BODE2_DIV_H
      000000AEH   SFRSYM    DATA     BYTE      BODE3_DIV_H
      00000096H   SFRSYM    DATA     BYTE      SCON2T
      000000A7H   SFRSYM    DATA     BYTE      SCON3T
      000000E7H   SFRSYM    DATA     BYTE      BODE2_DIV_L
      00000088H.1 SFRSYM    DATA     BIT       IE0
      000000AFH   SFRSYM    DATA     BYTE      BODE3_DIV_L
      00000088H.3 SFRSYM    DATA     BIT       IE1
      000000C9H   SFRSYM    DATA     BYTE      MUX_SEL
      020086CBH   SFRSYM    XDATA    WORD      B
      000000E0H   SFRSYM    DATA     BYTE      ACC
      000000A8H.4 SFRSYM    DATA     BIT       ES0
      0000008FH   SFRSYM    DATA     BYTE      CAN_CR
      000000A8H.1 SFRSYM    DATA     BIT       ET0
      000000A9H   SFRSYM    DATA     BYTE      IP0
      000000A8H.3 SFRSYM    DATA     BIT       ET1
      00000088H.5 SFRSYM    DATA     BIT       TF0
      000000B9H   SFRSYM    DATA     BYTE      IP1
      000000A8H.5 SFRSYM    DATA     BIT       ET2
      00000098H.0 SFRSYM    DATA     BIT       RI0
      00000088H.7 SFRSYM    DATA     BIT       TF1
      000000FDH   SFRSYM    DATA     BYTE      DATA0
      000000C0H.6 SFRSYM    DATA     BIT       TF2
      000000E8H   SFRSYM    DATA     BYTE      CAN_ET
      000000FCH   SFRSYM    DATA     BYTE      DATA1
      0000008CH   SFRSYM    DATA     BYTE      TH0
      000000A8H.0 SFRSYM    DATA     BIT       EX0
      00000098H.1 SFRSYM    DATA     BIT       TI0
      00000088H.0 SFRSYM    DATA     BIT       IT0
      000000FBH   SFRSYM    DATA     BYTE      DATA2
      0000008DH   SFRSYM    DATA     BYTE      TH1
      000000A8H.2 SFRSYM    DATA     BIT       EX1
      00000091H   SFRSYM    DATA     BYTE      CAN_IR
      000000CDH   SFRSYM    DATA     BYTE      TH2
      00000088H.2 SFRSYM    DATA     BIT       IT1
      000000FAH   SFRSYM    DATA     BYTE      DATA3
LX51 LINKER/LOCATER V4.66.93.0                                                        04/24/2025  12:33:12  PAGE 61


      000000D0H.0 SFRSYM    DATA     BIT       P
      00000098H.7 SFRSYM    DATA     BIT       SM0
      0000008AH   SFRSYM    DATA     BYTE      TL0
      00000098H.6 SFRSYM    DATA     BIT       SM1
      0000008BH   SFRSYM    DATA     BYTE      TL1
      00000098H.5 SFRSYM    DATA     BIT       SM2
      000000CCH   SFRSYM    DATA     BYTE      TL2
      000000A0H.7 SFRSYM    DATA     BIT       UV_St
      000000D0H.3 SFRSYM    DATA     BIT       RS0
      000000F8H.6 SFRSYM    DATA     BIT       APP_EN
      000000D0H.4 SFRSYM    DATA     BIT       RS1
      00000088H.4 SFRSYM    DATA     BIT       TR0
      00000088H.6 SFRSYM    DATA     BIT       TR1
      00000093H   SFRSYM    DATA     BYTE      DPC
      000000C8H.0 SFRSYM    DATA     BIT       TR2
      000000E5H   SFRSYM    DATA     BYTE      MAC_MODE
      00000083H   SFRSYM    DATA     BYTE      DPH
      00000082H   SFRSYM    DATA     BYTE      DPL
      00000099H   SFRSYM    DATA     BYTE      SBUF0
      0000009CH   SFRSYM    DATA     BYTE      SBUF1
      00000098H   SFRSYM    DATA     BYTE      SCON0
      0000009BH   SFRSYM    DATA     BYTE      SCON1
      000000D8H   SFRSYM    DATA     BYTE      ADCON
      000000C8H   SFRSYM    DATA     BYTE      T2CON
      000000E6H   SFRSYM    DATA     BYTE      DIV_MODE
      000000F8H.5 SFRSYM    DATA     BIT       APP_RW
      000000CBH   SFRSYM    DATA     BYTE      TRL2H
      0000009FH   SFRSYM    DATA     BYTE      SBUF2_RX
      000000ADH   SFRSYM    DATA     BYTE      SBUF3_RX
      0000008EH   SFRSYM    DATA     BYTE      CKCON
      0000009EH   SFRSYM    DATA     BYTE      SBUF2_TX
      000000ACH   SFRSYM    DATA     BYTE      SBUF3_TX
      000000CAH   SFRSYM    DATA     BYTE      TRL2L
      000000D0H.5 SFRSYM    DATA     BIT       F0
      000000FEH   SFRSYM    DATA     BYTE      EXADR
      000000D0H.1 SFRSYM    DATA     BIT       F1
      000000A0H.3 SFRSYM    DATA     BIT       LED_B
      000000D0H   SFRSYM    DATA     BYTE      PSW
      000000A0H.1 SFRSYM    DATA     BIT       LED_G
      000000C0H   SFRSYM    DATA     BYTE      IRCON
      00000098H.2 SFRSYM    DATA     BIT       RB80
      01009E4CH   SYMBOL    CONST    ---       _?ix1000
      01009E50H   SYMBOL    CONST    ---       _?ix1001
      01009E54H   SYMBOL    CONST    ---       _?ix1002
      01009E56H   SYMBOL    CONST    ---       _?ix1003

      010090C4H   BLOCK     CODE     ---       LVL=0
      010090C4H   BLOCK     CODE     NEAR LAB  LVL=1
      020083BBH   SYMBOL    XDATA    ---       cleanData
      ---         BLOCKEND  ---      ---       LVL=1
      010090C4H   LINE      CODE     ---       #40
      010090C4H   LINE      CODE     ---       #41
      010090C4H   LINE      CODE     ---       #42
      010090D7H   LINE      CODE     ---       #43
      010090EDH   LINE      CODE     ---       #44
      010090F5H   LINE      CODE     ---       #45
      010090F5H   LINE      CODE     ---       #46
      0100910AH   LINE      CODE     ---       #47
      0100910DH   LINE      CODE     ---       #48
      0100910DH   LINE      CODE     ---       #49
      0100910FH   LINE      CODE     ---       #50
      ---         BLOCKEND  ---      ---       LVL=0

      01008D43H   BLOCK     CODE     ---       LVL=0
      02008491H   SYMBOL    XDATA    WORD      pageId
LX51 LINKER/LOCATER V4.66.93.0                                                        04/24/2025  12:33:12  PAGE 62


      01008D4BH   BLOCK     CODE     NEAR LAB  LVL=1
      02008493H   SYMBOL    XDATA    ---       temp
      ---         BLOCKEND  ---      ---       LVL=1
      01008D43H   LINE      CODE     ---       #56
      01008D4BH   LINE      CODE     ---       #57
      01008D4BH   LINE      CODE     ---       #58
      01008D5EH   LINE      CODE     ---       #59
      01008D6BH   LINE      CODE     ---       #60
      01008D6EH   LINE      CODE     ---       #61
      01008D70H   LINE      CODE     ---       #62
      01008D86H   LINE      CODE     ---       #64
      01008D86H   LINE      CODE     ---       #65
      01008D8DH   LINE      CODE     ---       #66
      01008DA2H   LINE      CODE     ---       #67
      01008DA8H   LINE      CODE     ---       #69
      ---         BLOCKEND  ---      ---       LVL=0

      01006882H   BLOCK     CODE     ---       LVL=0
      020083C3H   SYMBOL    XDATA    BYTE      buff
      01006887H   BLOCK     CODE     NEAR LAB  LVL=1
      020083C4H   SYMBOL    XDATA    BYTE      buffer
      020083C5H   SYMBOL    XDATA    ---       reset
      ---         BLOCKEND  ---      ---       LVL=1
      01006882H   LINE      CODE     ---       #81
      01006887H   LINE      CODE     ---       #82
      01006887H   LINE      CODE     ---       #84
      0100689AH   LINE      CODE     ---       #85
      010068A1H   LINE      CODE     ---       #86
      010068A9H   LINE      CODE     ---       #87
      010068A9H   LINE      CODE     ---       #88
      010068BDH   LINE      CODE     ---       #89
      010068BDH   LINE      CODE     ---       #90
      010068C1H   LINE      CODE     ---       #91
      010068C1H   LINE      CODE     ---       #92
      010068C3H   LINE      CODE     ---       #93
      010068C3H   LINE      CODE     ---       #94
      010068CBH   LINE      CODE     ---       #95
      010068CBH   LINE      CODE     ---       #96
      010068CFH   LINE      CODE     ---       #97
      010068D3H   LINE      CODE     ---       #98
      010068E9H   LINE      CODE     ---       #99
      010068EBH   LINE      CODE     ---       #100
      010068EBH   LINE      CODE     ---       #101
      010068EDH   LINE      CODE     ---       #102
      010068EDH   LINE      CODE     ---       #103
      010068F5H   LINE      CODE     ---       #104
      010068F5H   LINE      CODE     ---       #105
      0100690DH   LINE      CODE     ---       #106
      0100690DH   LINE      CODE     ---       #107
      01006910H   LINE      CODE     ---       #108
      01006925H   LINE      CODE     ---       #109
      01006927H   LINE      CODE     ---       #110
      01006927H   LINE      CODE     ---       #111
      0100692FH   LINE      CODE     ---       #112
      0100692FH   LINE      CODE     ---       #113
      01006933H   LINE      CODE     ---       #114
      01006937H   LINE      CODE     ---       #115
      0100694DH   LINE      CODE     ---       #116
      0100694FH   LINE      CODE     ---       #117
      0100694FH   LINE      CODE     ---       #118
      01006951H   LINE      CODE     ---       #119
      01006951H   LINE      CODE     ---       #120
      01006961H   LINE      CODE     ---       #121
      01006961H   LINE      CODE     ---       #123
      01006967H   LINE      CODE     ---       #124
LX51 LINKER/LOCATER V4.66.93.0                                                        04/24/2025  12:33:12  PAGE 63


      01006967H   LINE      CODE     ---       #125
      0100696AH   LINE      CODE     ---       #126
      0100696EH   LINE      CODE     ---       #127
      01006983H   LINE      CODE     ---       #128
      01006985H   LINE      CODE     ---       #129
      01006985H   LINE      CODE     ---       #130
      01006987H   LINE      CODE     ---       #131
      01006987H   LINE      CODE     ---       #133
      0100698CH   LINE      CODE     ---       #135
      ---         BLOCKEND  ---      ---       LVL=0

      01000DCEH   BLOCK     CODE     ---       LVL=0
      01000DCEH   BLOCK     CODE     NEAR LAB  LVL=1
      020083BBH   SYMBOL    XDATA    ---       buff_chengxuhua
      02008797H   SYMBOL    XDATA    WORD      before_ad
      02008799H   SYMBOL    XDATA    WORD      current_ad
      020083BDH   SYMBOL    XDATA    ---       data_read
      020083C1H   SYMBOL    XDATA    WORD      getDar
      ---         BLOCKEND  ---      ---       LVL=1
      01000DCEH   LINE      CODE     ---       #149
      01000DCEH   LINE      CODE     ---       #150
      01000DCEH   LINE      CODE     ---       #159
      01000DE1H   LINE      CODE     ---       #162
      01000DE8H   LINE      CODE     ---       #163
      01000DEAH   LINE      CODE     ---       #164
      01000DFCH   LINE      CODE     ---       #178
      01000E08H   LINE      CODE     ---       #179
      01000E08H   LINE      CODE     ---       #181
      01000E1DH   LINE      CODE     ---       #182
      01000E29H   LINE      CODE     ---       #183
      01000E29H   LINE      CODE     ---       #184
      01000E30H   LINE      CODE     ---       #185
      01000E49H   LINE      CODE     ---       #186
      01000E62H   LINE      CODE     ---       #187
      01000E6EH   LINE      CODE     ---       #188
      01000E73H   LINE      CODE     ---       #189
      01000E7AH   LINE      CODE     ---       #190
      01000E8BH   LINE      CODE     ---       #191
      01000EA1H   LINE      CODE     ---       #193
      01000EA4H   LINE      CODE     ---       #194
      01000EB1H   LINE      CODE     ---       #195
      01000EB1H   LINE      CODE     ---       #196
      01000EBEH   LINE      CODE     ---       #197
      01000ED1H   LINE      CODE     ---       #198
      01000EDDH   LINE      CODE     ---       #199
      01000EE3H   LINE      CODE     ---       #200
      01000EF0H   LINE      CODE     ---       #201
      01000EFBH   LINE      CODE     ---       #203
      01000EFBH   LINE      CODE     ---       #204
      01000EFEH   LINE      CODE     ---       #206
      01000F0FH   LINE      CODE     ---       #207
      01000F0FH   LINE      CODE     ---       #209
      01000F2DH   LINE      CODE     ---       #210
      01000F39H   LINE      CODE     ---       #211
      01000F52H   LINE      CODE     ---       #213
      01000F5EH   LINE      CODE     ---       #214
      01000F5EH   LINE      CODE     ---       #215
      01000F64H   LINE      CODE     ---       #216
      01000F69H   LINE      CODE     ---       #217
      01000F7EH   LINE      CODE     ---       #218
      01000F83H   LINE      CODE     ---       #219
      01000F87H   LINE      CODE     ---       #220
      01000F89H   LINE      CODE     ---       #221
      01000F95H   LINE      CODE     ---       #222
      01000FA7H   LINE      CODE     ---       #225
LX51 LINKER/LOCATER V4.66.93.0                                                        04/24/2025  12:33:12  PAGE 64


      01000FA9H   LINE      CODE     ---       #228
      01000FACH   LINE      CODE     ---       #232
      01000FB3H   LINE      CODE     ---       #235
      01000FB6H   LINE      CODE     ---       #237
      01000FB6H   LINE      CODE     ---       #257
      01000FC1H   LINE      CODE     ---       #258
      01000FC1H   LINE      CODE     ---       #260
      01000FD2H   LINE      CODE     ---       #261
      01000FD2H   LINE      CODE     ---       #264
      01000FE7H   LINE      CODE     ---       #265
      01000FF5H   LINE      CODE     ---       #266
      0100100BH   LINE      CODE     ---       #267
      01001019H   LINE      CODE     ---       #269
      0100102FH   LINE      CODE     ---       #270
      01001045H   LINE      CODE     ---       #271
      0100105BH   LINE      CODE     ---       #272
      01001063H   LINE      CODE     ---       #273
      0100106FH   LINE      CODE     ---       #274
      01001080H   LINE      CODE     ---       #275
      01001083H   LINE      CODE     ---       #276
      01001094H   LINE      CODE     ---       #278
      01001094H   LINE      CODE     ---       #279
      010010A9H   LINE      CODE     ---       #280
      010010BFH   LINE      CODE     ---       #281
      010010D5H   LINE      CODE     ---       #282
      010010EBH   LINE      CODE     ---       #283
      010010F9H   LINE      CODE     ---       #284
      0100110FH   LINE      CODE     ---       #285
      0100111CH   LINE      CODE     ---       #287
      01001125H   LINE      CODE     ---       #288
      01001131H   LINE      CODE     ---       #289
      01001142H   LINE      CODE     ---       #290
      01001145H   LINE      CODE     ---       #291
      01001156H   LINE      CODE     ---       #292
      0100116BH   LINE      CODE     ---       #293
      01001181H   LINE      CODE     ---       #294
      01001197H   LINE      CODE     ---       #295
      010011ADH   LINE      CODE     ---       #296
      010011BAH   LINE      CODE     ---       #297
      010011D0H   LINE      CODE     ---       #298
      010011DEH   LINE      CODE     ---       #299
      010011E7H   LINE      CODE     ---       #300
      010011F4H   LINE      CODE     ---       #301
      01001207H   LINE      CODE     ---       #302
      0100120AH   LINE      CODE     ---       #303
      01001216H   LINE      CODE     ---       #304
      01001216H   LINE      CODE     ---       #306
      01001219H   LINE      CODE     ---       #307
      0100121CH   LINE      CODE     ---       #309
      01001227H   LINE      CODE     ---       #310
      01001227H   LINE      CODE     ---       #311
      01001241H   LINE      CODE     ---       #312
      01001241H   LINE      CODE     ---       #313
      01001241H   LINE      CODE     ---       #315
      01001241H   LINE      CODE     ---       #316
      01001241H   LINE      CODE     ---       #317
      01001248H   LINE      CODE     ---       #318
      0100125DH   LINE      CODE     ---       #319
      0100126AH   LINE      CODE     ---       #320
      0100126AH   LINE      CODE     ---       #322
      0100126AH   LINE      CODE     ---       #323
      0100126AH   LINE      CODE     ---       #324
      01001271H   LINE      CODE     ---       #325
      01001286H   LINE      CODE     ---       #326
      01001294H   LINE      CODE     ---       #327
LX51 LINKER/LOCATER V4.66.93.0                                                        04/24/2025  12:33:12  PAGE 65


      01001294H   LINE      CODE     ---       #329
      01001294H   LINE      CODE     ---       #330
      01001294H   LINE      CODE     ---       #331
      0100129BH   LINE      CODE     ---       #332
      010012B0H   LINE      CODE     ---       #333
      010012BEH   LINE      CODE     ---       #334
      010012BEH   LINE      CODE     ---       #335
      010012BEH   LINE      CODE     ---       #337
      010012BEH   LINE      CODE     ---       #339
      010012CAH   LINE      CODE     ---       #340
      010012CAH   LINE      CODE     ---       #341
      010012CDH   LINE      CODE     ---       #342
      010012D0H   LINE      CODE     ---       #343
      010012DCH   LINE      CODE     ---       #344
      010012DCH   LINE      CODE     ---       #345
      010012DFH   LINE      CODE     ---       #346
      010012E2H   LINE      CODE     ---       #347
      010012F3H   LINE      CODE     ---       #348
      010012F3H   LINE      CODE     ---       #349
      010012F6H   LINE      CODE     ---       #350
      010012F6H   LINE      CODE     ---       #352
      010012F6H   LINE      CODE     ---       #354
      010012F9H   LINE      CODE     ---       #358
      01001304H   LINE      CODE     ---       #359
      01001304H   LINE      CODE     ---       #367
      01001323H   LINE      CODE     ---       #368
      01001323H   LINE      CODE     ---       #370
      01001341H   LINE      CODE     ---       #371
      01001361H   LINE      CODE     ---       #372
      01001381H   LINE      CODE     ---       #373
      01001390H   LINE      CODE     ---       #376
      010013A6H   LINE      CODE     ---       #377
      010013B1H   LINE      CODE     ---       #378
      010013BCH   LINE      CODE     ---       #380
      010013C4H   LINE      CODE     ---       #381
      010013C4H   LINE      CODE     ---       #382
      010013CAH   LINE      CODE     ---       #383
      010013CCH   LINE      CODE     ---       #384
      010013D8H   LINE      CODE     ---       #385
      010013D8H   LINE      CODE     ---       #386
      010013DEH   LINE      CODE     ---       #387
      010013E0H   LINE      CODE     ---       #392
      010013ECH   LINE      CODE     ---       #393
      010013ECH   LINE      CODE     ---       #394
      010013F2H   LINE      CODE     ---       #395
      010013F9H   LINE      CODE     ---       #399
      01001416H   LINE      CODE     ---       #400
      01001429H   LINE      CODE     ---       #403
      0100142CH   LINE      CODE     ---       #404
      01001445H   LINE      CODE     ---       #405
      01001445H   LINE      CODE     ---       #406
      01001458H   LINE      CODE     ---       #408
      0100145BH   LINE      CODE     ---       #409
      0100146CH   LINE      CODE     ---       #410
      0100146CH   LINE      CODE     ---       #411
      01001481H   LINE      CODE     ---       #412
      0100148EH   LINE      CODE     ---       #413
      010014A8H   LINE      CODE     ---       #414
      010014ABH   LINE      CODE     ---       #417
      010014ABH   LINE      CODE     ---       #420
      010014ABH   LINE      CODE     ---       #422
      010014ABH   LINE      CODE     ---       #426
      010014B6H   LINE      CODE     ---       #427
      010014B6H   LINE      CODE     ---       #428
      010014CDH   LINE      CODE     ---       #429
LX51 LINKER/LOCATER V4.66.93.0                                                        04/24/2025  12:33:12  PAGE 66


      010014CDH   LINE      CODE     ---       #430
      010014D0H   LINE      CODE     ---       #431
      010014D3H   LINE      CODE     ---       #432
      010014DFH   LINE      CODE     ---       #433
      010014DFH   LINE      CODE     ---       #434
      010014E2H   LINE      CODE     ---       #435
      010014E5H   LINE      CODE     ---       #436
      010014F1H   LINE      CODE     ---       #437
      010014F1H   LINE      CODE     ---       #438
      010014F4H   LINE      CODE     ---       #439
      010014F7H   LINE      CODE     ---       #440
      01001503H   LINE      CODE     ---       #441
      01001503H   LINE      CODE     ---       #442
      01001506H   LINE      CODE     ---       #443
      01001509H   LINE      CODE     ---       #444
      01001515H   LINE      CODE     ---       #445
      01001515H   LINE      CODE     ---       #446
      01001518H   LINE      CODE     ---       #447
      0100151BH   LINE      CODE     ---       #448
      0100152CH   LINE      CODE     ---       #449
      0100152CH   LINE      CODE     ---       #451
      01001541H   LINE      CODE     ---       #452
      01001557H   LINE      CODE     ---       #454
      01001557H   LINE      CODE     ---       #464
      0100155AH   LINE      CODE     ---       #467
      01001565H   LINE      CODE     ---       #468
      01001565H   LINE      CODE     ---       #469
      01001573H   LINE      CODE     ---       #470
      01001573H   LINE      CODE     ---       #471
      01001588H   LINE      CODE     ---       #472
      01001596H   LINE      CODE     ---       #473
      010015ACH   LINE      CODE     ---       #474
      010015BAH   LINE      CODE     ---       #475
      010015C2H   LINE      CODE     ---       #476
      010015CEH   LINE      CODE     ---       #477
      010015E1H   LINE      CODE     ---       #478
      010015E4H   LINE      CODE     ---       #479
      010015F2H   LINE      CODE     ---       #481
      010015F2H   LINE      CODE     ---       #482
      01001607H   LINE      CODE     ---       #483
      01001615H   LINE      CODE     ---       #484
      0100162BH   LINE      CODE     ---       #485
      01001638H   LINE      CODE     ---       #487
      01001641H   LINE      CODE     ---       #488
      0100164DH   LINE      CODE     ---       #489
      01001660H   LINE      CODE     ---       #490
      01001662H   LINE      CODE     ---       #491
      01001670H   LINE      CODE     ---       #492
      01001670H   LINE      CODE     ---       #493
      01001685H   LINE      CODE     ---       #494
      01001692H   LINE      CODE     ---       #495
      010016A8H   LINE      CODE     ---       #496
      010016B6H   LINE      CODE     ---       #497
      010016BFH   LINE      CODE     ---       #498
      010016CCH   LINE      CODE     ---       #499
      010016E2H   LINE      CODE     ---       #500
      010016E5H   LINE      CODE     ---       #503
      010016F0H   LINE      CODE     ---       #504
      010016F0H   LINE      CODE     ---       #506
      010016F0H   LINE      CODE     ---       #507
      010016F0H   LINE      CODE     ---       #510
      010016F0H   LINE      CODE     ---       #511
      0100170DH   LINE      CODE     ---       #512
      0100170DH   LINE      CODE     ---       #513
      0100170DH   LINE      CODE     ---       #515
LX51 LINKER/LOCATER V4.66.93.0                                                        04/24/2025  12:33:12  PAGE 67


      0100170DH   LINE      CODE     ---       #516
      0100170DH   LINE      CODE     ---       #517
      01001714H   LINE      CODE     ---       #518
      01001729H   LINE      CODE     ---       #519
      01001736H   LINE      CODE     ---       #520
      01001736H   LINE      CODE     ---       #522
      01001736H   LINE      CODE     ---       #523
      01001736H   LINE      CODE     ---       #524
      0100173DH   LINE      CODE     ---       #525
      01001752H   LINE      CODE     ---       #526
      01001760H   LINE      CODE     ---       #527
      01001760H   LINE      CODE     ---       #529
      01001760H   LINE      CODE     ---       #530
      01001760H   LINE      CODE     ---       #531
      01001767H   LINE      CODE     ---       #532
      0100177CH   LINE      CODE     ---       #533
      0100178AH   LINE      CODE     ---       #534
      0100178AH   LINE      CODE     ---       #535
      0100178CH   LINE      CODE     ---       #537
      0100178CH   LINE      CODE     ---       #540
      0100178CH   LINE      CODE     ---       #542
      0100178CH   LINE      CODE     ---       #544
      01001794H   LINE      CODE     ---       #545
      01001794H   LINE      CODE     ---       #548
      010017A0H   LINE      CODE     ---       #549
      010017A0H   LINE      CODE     ---       #550
      010017B5H   LINE      CODE     ---       #552
      010017BBH   LINE      CODE     ---       #553
      010017BBH   LINE      CODE     ---       #554
      010017D7H   LINE      CODE     ---       #555
      010017DAH   LINE      CODE     ---       #556
      010017DAH   LINE      CODE     ---       #558
      010017DAH   LINE      CODE     ---       #559
      010017DAH   LINE      CODE     ---       #560
      010017DAH   LINE      CODE     ---       #561
      010017DCH   LINE      CODE     ---       #562
      ---         BLOCKEND  ---      ---       LVL=0

      01009563H   BLOCK     CODE     ---       LVL=0
      00000006H   SYMBOL    DATA     WORD      x
      00000004H   SYMBOL    DATA     WORD      y
      01009563H   BLOCK     CODE     NEAR LAB  LVL=1
      0200879BH   SYMBOL    XDATA    ---       buff_analog
      ---         BLOCKEND  ---      ---       LVL=1
      01009563H   LINE      CODE     ---       #564
      01009563H   LINE      CODE     ---       #565
      01009563H   LINE      CODE     ---       #568
      0100956BH   LINE      CODE     ---       #569
      01009573H   LINE      CODE     ---       #572
      ---         BLOCKEND  ---      ---       LVL=0

      0100933FH   BLOCK     CODE     ---       LVL=0
      0100933FH   LINE      CODE     ---       #576
      0100933FH   LINE      CODE     ---       #577
      0100933FH   LINE      CODE     ---       #579
      01009345H   LINE      CODE     ---       #580
      01009345H   LINE      CODE     ---       #581
      0100935AH   LINE      CODE     ---       #582
      0100935DH   LINE      CODE     ---       #583
      01009372H   LINE      CODE     ---       #585
      01009372H   LINE      CODE     ---       #588
      ---         BLOCKEND  ---      ---       LVL=0

      ---         MODULE    ---      ---       CRC16
      00000098H.3 SFRSYM    DATA     BIT       TB80
LX51 LINKER/LOCATER V4.66.93.0                                                        04/24/2025  12:33:12  PAGE 68


      000000F1H   SFRSYM    DATA     BYTE      ADR_H
      00000080H   SFRSYM    DATA     BYTE      P0
      00000090H   SFRSYM    DATA     BYTE      P1
      000000A0H   SFRSYM    DATA     BYTE      P2
      000000B0H   SFRSYM    DATA     BYTE      P3
      000000D0H.6 SFRSYM    DATA     BIT       AC
      000000F3H   SFRSYM    DATA     BYTE      ADR_L
      00000094H   SFRSYM    DATA     BYTE      PAGESEL
      000000F2H   SFRSYM    DATA     BYTE      ADR_M
      000000A8H.7 SFRSYM    DATA     BIT       EA
      000000A0H.5 SFRSYM    DATA     BIT       JIGUANG
      00000090H.7 SFRSYM    DATA     BIT       LED_R
      000000F8H   SFRSYM    DATA     BYTE      RAMMODE
      000000B7H   SFRSYM    DATA     BYTE      P0MDOUT
      000000A8H   SFRSYM    DATA     BYTE      IEN0
      000000BCH   SFRSYM    DATA     BYTE      P1MDOUT
      000000B8H   SFRSYM    DATA     BYTE      IEN1
      000000BDH   SFRSYM    DATA     BYTE      P2MDOUT
      000000F8H.0 SFRSYM    DATA     BIT       APP_DATA0
      0000009AH   SFRSYM    DATA     BYTE      IEN2
      000000BEH   SFRSYM    DATA     BYTE      P3MDOUT
      000000F8H.1 SFRSYM    DATA     BIT       APP_DATA1
      000000D1H   SFRSYM    DATA     BYTE      IEN3
      00000080H.0 SFRSYM    DATA     BIT       P0_0
      000000F8H.2 SFRSYM    DATA     BIT       APP_DATA2
      00000090H.0 SFRSYM    DATA     BIT       P1_0
      000000F8H.3 SFRSYM    DATA     BIT       APP_DATA3
      00000090H.1 SFRSYM    DATA     BIT       P1_1
      000000F8H.4 SFRSYM    DATA     BIT       APP_ACK
      000000F4H   SFRSYM    DATA     BYTE      ADR_INC
      000000B0H.1 SFRSYM    DATA     BIT       P3_1
      00000098H.4 SFRSYM    DATA     BIT       REN0
      000000B8H.1 SFRSYM    DATA     BIT       ECAN
      000000D0H.7 SFRSYM    DATA     BIT       CY
      000000B8H.3 SFRSYM    DATA     BIT       ES2R
      000000B8H.5 SFRSYM    DATA     BIT       ES3R
      000000B8H.2 SFRSYM    DATA     BIT       ES2T
      000000B8H.4 SFRSYM    DATA     BIT       ES3T
      000000C8H.7 SFRSYM    DATA     BIT       TSF2
      000000B0H.3 SFRSYM    DATA     BIT       RTC_SDA
      00000081H   SFRSYM    DATA     BYTE      SP
      000000D0H.2 SFRSYM    DATA     BIT       OV
      00000095H   SFRSYM    DATA     BYTE      D_PAGESEL
      00000090H.5 SFRSYM    DATA     BIT       UV
      000000F8H.7 SFRSYM    DATA     BIT       APP_REQ
      000000B0H.2 SFRSYM    DATA     BIT       RTC_SCL
      000000BFH   SFRSYM    DATA     BYTE      IRCON2
      000000BAH   SFRSYM    DATA     BYTE      SREL0H
      000000BBH   SFRSYM    DATA     BYTE      SREL1H
      00000087H   SFRSYM    DATA     BYTE      PCON
      000000AAH   SFRSYM    DATA     BYTE      SREL0L
      000000F9H   SFRSYM    DATA     BYTE      PORTDRV
      0000009DH   SFRSYM    DATA     BYTE      SREL1L
      00000089H   SFRSYM    DATA     BYTE      TMOD
      00000088H   SFRSYM    DATA     BYTE      TCON
      00000097H   SFRSYM    DATA     BYTE      SCON2R
      000000FFH   SFRSYM    DATA     BYTE      EXDATA
      000000ABH   SFRSYM    DATA     BYTE      SCON3R
      000000D9H   SFRSYM    DATA     BYTE      BODE2_DIV_H
      000000AEH   SFRSYM    DATA     BYTE      BODE3_DIV_H
      00000096H   SFRSYM    DATA     BYTE      SCON2T
      000000A7H   SFRSYM    DATA     BYTE      SCON3T
      000000E7H   SFRSYM    DATA     BYTE      BODE2_DIV_L
      00000088H.1 SFRSYM    DATA     BIT       IE0
      000000AFH   SFRSYM    DATA     BYTE      BODE3_DIV_L
LX51 LINKER/LOCATER V4.66.93.0                                                        04/24/2025  12:33:12  PAGE 69


      00000088H.3 SFRSYM    DATA     BIT       IE1
      000000C9H   SFRSYM    DATA     BYTE      MUX_SEL
      020086CBH   SFRSYM    XDATA    WORD      B
      000000E0H   SFRSYM    DATA     BYTE      ACC
      000000A8H.4 SFRSYM    DATA     BIT       ES0
      0000008FH   SFRSYM    DATA     BYTE      CAN_CR
      000000A8H.1 SFRSYM    DATA     BIT       ET0
      000000A9H   SFRSYM    DATA     BYTE      IP0
      000000A8H.3 SFRSYM    DATA     BIT       ET1
      00000088H.5 SFRSYM    DATA     BIT       TF0
      000000B9H   SFRSYM    DATA     BYTE      IP1
      000000A8H.5 SFRSYM    DATA     BIT       ET2
      00000098H.0 SFRSYM    DATA     BIT       RI0
      00000088H.7 SFRSYM    DATA     BIT       TF1
      000000FDH   SFRSYM    DATA     BYTE      DATA0
      000000C0H.6 SFRSYM    DATA     BIT       TF2
      000000E8H   SFRSYM    DATA     BYTE      CAN_ET
      000000FCH   SFRSYM    DATA     BYTE      DATA1
      0000008CH   SFRSYM    DATA     BYTE      TH0
      000000A8H.0 SFRSYM    DATA     BIT       EX0
      00000098H.1 SFRSYM    DATA     BIT       TI0
      00000088H.0 SFRSYM    DATA     BIT       IT0
      000000FBH   SFRSYM    DATA     BYTE      DATA2
      0000008DH   SFRSYM    DATA     BYTE      TH1
      000000A8H.2 SFRSYM    DATA     BIT       EX1
      00000091H   SFRSYM    DATA     BYTE      CAN_IR
      000000CDH   SFRSYM    DATA     BYTE      TH2
      00000088H.2 SFRSYM    DATA     BIT       IT1
      000000FAH   SFRSYM    DATA     BYTE      DATA3
      000000D0H.0 SFRSYM    DATA     BIT       P
      00000098H.7 SFRSYM    DATA     BIT       SM0
      0000008AH   SFRSYM    DATA     BYTE      TL0
      00000098H.6 SFRSYM    DATA     BIT       SM1
      0000008BH   SFRSYM    DATA     BYTE      TL1
      00000098H.5 SFRSYM    DATA     BIT       SM2
      000000CCH   SFRSYM    DATA     BYTE      TL2
      000000A0H.7 SFRSYM    DATA     BIT       UV_St
      000000D0H.3 SFRSYM    DATA     BIT       RS0
      000000F8H.6 SFRSYM    DATA     BIT       APP_EN
      000000D0H.4 SFRSYM    DATA     BIT       RS1
      00000088H.4 SFRSYM    DATA     BIT       TR0
      00000088H.6 SFRSYM    DATA     BIT       TR1
      00000093H   SFRSYM    DATA     BYTE      DPC
      000000C8H.0 SFRSYM    DATA     BIT       TR2
      000000E5H   SFRSYM    DATA     BYTE      MAC_MODE
      00000083H   SFRSYM    DATA     BYTE      DPH
      00000082H   SFRSYM    DATA     BYTE      DPL
      00000099H   SFRSYM    DATA     BYTE      SBUF0
      0000009CH   SFRSYM    DATA     BYTE      SBUF1
      00000098H   SFRSYM    DATA     BYTE      SCON0
      0000009BH   SFRSYM    DATA     BYTE      SCON1
      000000D8H   SFRSYM    DATA     BYTE      ADCON
      000000C8H   SFRSYM    DATA     BYTE      T2CON
      000000E6H   SFRSYM    DATA     BYTE      DIV_MODE
      000000F8H.5 SFRSYM    DATA     BIT       APP_RW
      000000CBH   SFRSYM    DATA     BYTE      TRL2H
      0000009FH   SFRSYM    DATA     BYTE      SBUF2_RX
      000000ADH   SFRSYM    DATA     BYTE      SBUF3_RX
      0000008EH   SFRSYM    DATA     BYTE      CKCON
      0000009EH   SFRSYM    DATA     BYTE      SBUF2_TX
      000000ACH   SFRSYM    DATA     BYTE      SBUF3_TX
      000000CAH   SFRSYM    DATA     BYTE      TRL2L
      000000D0H.5 SFRSYM    DATA     BIT       F0
      000000FEH   SFRSYM    DATA     BYTE      EXADR
      000000D0H.1 SFRSYM    DATA     BIT       F1
LX51 LINKER/LOCATER V4.66.93.0                                                        04/24/2025  12:33:12  PAGE 70


      000000A0H.3 SFRSYM    DATA     BIT       LED_B
      000000D0H   SFRSYM    DATA     BYTE      PSW
      000000A0H.1 SFRSYM    DATA     BIT       LED_G
      000000C0H   SFRSYM    DATA     BYTE      IRCON
      00000098H.2 SFRSYM    DATA     BIT       RB80

      ---         MODULE    ---      ---       UART4
      010095CAH   PUBLIC    CODE     ---       led_register
      01000052H   PUBLIC    CODE     ---       led3_off
      010091A7H   PUBLIC    CODE     ---       led2_off
      010078C8H   PUBLIC    CODE     ---       led2_on
      01003ADBH   PUBLIC    CODE     ---       led1_off
      010096FDH   PUBLIC    CODE     ---       led1_on
      00000098H.3 SFRSYM    DATA     BIT       TB80
      000000F1H   SFRSYM    DATA     BYTE      ADR_H
      00000080H   SFRSYM    DATA     BYTE      P0
      00000090H   SFRSYM    DATA     BYTE      P1
      000000A0H   SFRSYM    DATA     BYTE      P2
      000000B0H   SFRSYM    DATA     BYTE      P3
      000000D0H.6 SFRSYM    DATA     BIT       AC
      000000F3H   SFRSYM    DATA     BYTE      ADR_L
      00000094H   SFRSYM    DATA     BYTE      PAGESEL
      000000F2H   SFRSYM    DATA     BYTE      ADR_M
      000000A8H.7 SFRSYM    DATA     BIT       EA
      000000A0H.5 SFRSYM    DATA     BIT       JIGUANG
      00000090H.7 SFRSYM    DATA     BIT       LED_R
      000000F8H   SFRSYM    DATA     BYTE      RAMMODE
      000000B7H   SFRSYM    DATA     BYTE      P0MDOUT
      000000A8H   SFRSYM    DATA     BYTE      IEN0
      000000BCH   SFRSYM    DATA     BYTE      P1MDOUT
      000000B8H   SFRSYM    DATA     BYTE      IEN1
      000000BDH   SFRSYM    DATA     BYTE      P2MDOUT
      000000F8H.0 SFRSYM    DATA     BIT       APP_DATA0
      0000009AH   SFRSYM    DATA     BYTE      IEN2
      000000BEH   SFRSYM    DATA     BYTE      P3MDOUT
      000000F8H.1 SFRSYM    DATA     BIT       APP_DATA1
      000000D1H   SFRSYM    DATA     BYTE      IEN3
      00000080H.0 SFRSYM    DATA     BIT       P0_0
      000000F8H.2 SFRSYM    DATA     BIT       APP_DATA2
      00000090H.0 SFRSYM    DATA     BIT       P1_0
      000000F8H.3 SFRSYM    DATA     BIT       APP_DATA3
      00000090H.1 SFRSYM    DATA     BIT       P1_1
      000000F8H.4 SFRSYM    DATA     BIT       APP_ACK
      000000F4H   SFRSYM    DATA     BYTE      ADR_INC
      000000B0H.1 SFRSYM    DATA     BIT       P3_1
      00000098H.4 SFRSYM    DATA     BIT       REN0
      000000B8H.1 SFRSYM    DATA     BIT       ECAN
      000000D0H.7 SFRSYM    DATA     BIT       CY
      000000B8H.3 SFRSYM    DATA     BIT       ES2R
      000000B8H.5 SFRSYM    DATA     BIT       ES3R
      000000B8H.2 SFRSYM    DATA     BIT       ES2T
      000000B8H.4 SFRSYM    DATA     BIT       ES3T
      000000C8H.7 SFRSYM    DATA     BIT       TSF2
      000000B0H.3 SFRSYM    DATA     BIT       RTC_SDA
      00000081H   SFRSYM    DATA     BYTE      SP
      000000D0H.2 SFRSYM    DATA     BIT       OV
      00000095H   SFRSYM    DATA     BYTE      D_PAGESEL
      00000090H.5 SFRSYM    DATA     BIT       UV
      000000F8H.7 SFRSYM    DATA     BIT       APP_REQ
      000000B0H.2 SFRSYM    DATA     BIT       RTC_SCL
      000000BFH   SFRSYM    DATA     BYTE      IRCON2
      000000BAH   SFRSYM    DATA     BYTE      SREL0H
      000000BBH   SFRSYM    DATA     BYTE      SREL1H
      00000087H   SFRSYM    DATA     BYTE      PCON
      000000AAH   SFRSYM    DATA     BYTE      SREL0L
LX51 LINKER/LOCATER V4.66.93.0                                                        04/24/2025  12:33:12  PAGE 71


      000000F9H   SFRSYM    DATA     BYTE      PORTDRV
      0000009DH   SFRSYM    DATA     BYTE      SREL1L
      00000089H   SFRSYM    DATA     BYTE      TMOD
      00000088H   SFRSYM    DATA     BYTE      TCON
      00000097H   SFRSYM    DATA     BYTE      SCON2R
      000000FFH   SFRSYM    DATA     BYTE      EXDATA
      000000ABH   SFRSYM    DATA     BYTE      SCON3R
      000000D9H   SFRSYM    DATA     BYTE      BODE2_DIV_H
      000000AEH   SFRSYM    DATA     BYTE      BODE3_DIV_H
      00000096H   SFRSYM    DATA     BYTE      SCON2T
      000000A7H   SFRSYM    DATA     BYTE      SCON3T
      000000E7H   SFRSYM    DATA     BYTE      BODE2_DIV_L
      00000088H.1 SFRSYM    DATA     BIT       IE0
      000000AFH   SFRSYM    DATA     BYTE      BODE3_DIV_L
      00000088H.3 SFRSYM    DATA     BIT       IE1
      000000C9H   SFRSYM    DATA     BYTE      MUX_SEL
      020086CBH   SFRSYM    XDATA    WORD      B
      000000E0H   SFRSYM    DATA     BYTE      ACC
      000000A8H.4 SFRSYM    DATA     BIT       ES0
      0000008FH   SFRSYM    DATA     BYTE      CAN_CR
      000000A8H.1 SFRSYM    DATA     BIT       ET0
      000000A9H   SFRSYM    DATA     BYTE      IP0
      000000A8H.3 SFRSYM    DATA     BIT       ET1
      00000088H.5 SFRSYM    DATA     BIT       TF0
      000000B9H   SFRSYM    DATA     BYTE      IP1
      000000A8H.5 SFRSYM    DATA     BIT       ET2
      00000098H.0 SFRSYM    DATA     BIT       RI0
      00000088H.7 SFRSYM    DATA     BIT       TF1
      000000FDH   SFRSYM    DATA     BYTE      DATA0
      000000C0H.6 SFRSYM    DATA     BIT       TF2
      000000E8H   SFRSYM    DATA     BYTE      CAN_ET
      000000FCH   SFRSYM    DATA     BYTE      DATA1
      0000008CH   SFRSYM    DATA     BYTE      TH0
      000000A8H.0 SFRSYM    DATA     BIT       EX0
      00000098H.1 SFRSYM    DATA     BIT       TI0
      00000088H.0 SFRSYM    DATA     BIT       IT0
      000000FBH   SFRSYM    DATA     BYTE      DATA2
      0000008DH   SFRSYM    DATA     BYTE      TH1
      000000A8H.2 SFRSYM    DATA     BIT       EX1
      00000091H   SFRSYM    DATA     BYTE      CAN_IR
      000000CDH   SFRSYM    DATA     BYTE      TH2
      00000088H.2 SFRSYM    DATA     BIT       IT1
      000000FAH   SFRSYM    DATA     BYTE      DATA3
      000000D0H.0 SFRSYM    DATA     BIT       P
      00000098H.7 SFRSYM    DATA     BIT       SM0
      0000008AH   SFRSYM    DATA     BYTE      TL0
      00000098H.6 SFRSYM    DATA     BIT       SM1
      0000008BH   SFRSYM    DATA     BYTE      TL1
      00000098H.5 SFRSYM    DATA     BIT       SM2
      000000CCH   SFRSYM    DATA     BYTE      TL2
      000000A0H.7 SFRSYM    DATA     BIT       UV_St
      000000D0H.3 SFRSYM    DATA     BIT       RS0
      000000F8H.6 SFRSYM    DATA     BIT       APP_EN
      000000D0H.4 SFRSYM    DATA     BIT       RS1
      00000088H.4 SFRSYM    DATA     BIT       TR0
      00000088H.6 SFRSYM    DATA     BIT       TR1
      00000093H   SFRSYM    DATA     BYTE      DPC
      000000C8H.0 SFRSYM    DATA     BIT       TR2
      000000E5H   SFRSYM    DATA     BYTE      MAC_MODE
      00000083H   SFRSYM    DATA     BYTE      DPH
      00000082H   SFRSYM    DATA     BYTE      DPL
      00000099H   SFRSYM    DATA     BYTE      SBUF0
      0000009CH   SFRSYM    DATA     BYTE      SBUF1
      00000098H   SFRSYM    DATA     BYTE      SCON0
      0000009BH   SFRSYM    DATA     BYTE      SCON1
LX51 LINKER/LOCATER V4.66.93.0                                                        04/24/2025  12:33:12  PAGE 72


      000000D8H   SFRSYM    DATA     BYTE      ADCON
      000000C8H   SFRSYM    DATA     BYTE      T2CON
      000000E6H   SFRSYM    DATA     BYTE      DIV_MODE
      000000F8H.5 SFRSYM    DATA     BIT       APP_RW
      000000CBH   SFRSYM    DATA     BYTE      TRL2H
      0000009FH   SFRSYM    DATA     BYTE      SBUF2_RX
      000000ADH   SFRSYM    DATA     BYTE      SBUF3_RX
      0000008EH   SFRSYM    DATA     BYTE      CKCON
      0000009EH   SFRSYM    DATA     BYTE      SBUF2_TX
      000000ACH   SFRSYM    DATA     BYTE      SBUF3_TX
      000000CAH   SFRSYM    DATA     BYTE      TRL2L
      000000D0H.5 SFRSYM    DATA     BIT       F0
      000000FEH   SFRSYM    DATA     BYTE      EXADR
      000000D0H.1 SFRSYM    DATA     BIT       F1
      000000A0H.3 SFRSYM    DATA     BIT       LED_B
      000000D0H   SFRSYM    DATA     BYTE      PSW
      000000A0H.1 SFRSYM    DATA     BIT       LED_G
      000000C0H   SFRSYM    DATA     BYTE      IRCON
      00000098H.2 SFRSYM    DATA     BIT       RB80
      01009927H   SYMBOL    CONST    ---       _?ix1000
      01009937H   SYMBOL    CONST    ---       _?ix1001
      01009939H   SYMBOL    CONST    ---       _?ix1002
      01009949H   SYMBOL    CONST    ---       _?ix1003

      010096FDH   BLOCK     CODE     ---       LVL=0
      010096FDH   LINE      CODE     ---       #5
      010096FDH   LINE      CODE     ---       #6
      010096FDH   LINE      CODE     ---       #10
      ---         BLOCKEND  ---      ---       LVL=0

      01003ADBH   BLOCK     CODE     ---       LVL=0
      01003ADBH   BLOCK     CODE     NEAR LAB  LVL=1
      02008407H   SYMBOL    XDATA    WORD      i
      02008409H   SYMBOL    XDATA    ---       dat
      02008419H   SYMBOL    XDATA    ---       dat_Ad
      0200841DH   SYMBOL    XDATA    WORD      Ad4
      0200841FH   SYMBOL    XDATA    WORD      beishu
      ---         BLOCKEND  ---      ---       LVL=1
      01003ADBH   LINE      CODE     ---       #14
      01003ADBH   LINE      CODE     ---       #15
      01003ADBH   LINE      CODE     ---       #17
      01003AEEH   LINE      CODE     ---       #19
      01003AF7H   LINE      CODE     ---       #23
      01003AFEH   LINE      CODE     ---       #25
      01003B05H   LINE      CODE     ---       #28
      01003B1AH   LINE      CODE     ---       #29
      01003B39H   LINE      CODE     ---       #33
      01003B43H   LINE      CODE     ---       #36
      01003B62H   LINE      CODE     ---       #37
      01003B62H   LINE      CODE     ---       #38
      01003B7CH   LINE      CODE     ---       #39
      01003B83H   LINE      CODE     ---       #41
      01003B8EH   LINE      CODE     ---       #42
      01003B8EH   LINE      CODE     ---       #43
      01003B9EH   LINE      CODE     ---       #44
      01003BAFH   LINE      CODE     ---       #45
      01003BC3H   LINE      CODE     ---       #47
      01003BFFH   LINE      CODE     ---       #48
      01003BFFH   LINE      CODE     ---       #51
      01003C07H   LINE      CODE     ---       #53
      01003C0FH   LINE      CODE     ---       #55
      01003C17H   LINE      CODE     ---       #57
      01003C1FH   LINE      CODE     ---       #59
      01003C27H   LINE      CODE     ---       #61
      01003C2FH   LINE      CODE     ---       #63
LX51 LINKER/LOCATER V4.66.93.0                                                        04/24/2025  12:33:12  PAGE 73


      01003C37H   LINE      CODE     ---       #64
      01003C3FH   LINE      CODE     ---       #65
      01003C3FH   LINE      CODE     ---       #67
      01003C3FH   LINE      CODE     ---       #68
      01003C3FH   LINE      CODE     ---       #69
      01003C4FH   LINE      CODE     ---       #70
      01003C60H   LINE      CODE     ---       #72
      01003C67H   LINE      CODE     ---       #73
      01003CACH   LINE      CODE     ---       #76
      01003CAEH   LINE      CODE     ---       #78
      01003CAEH   LINE      CODE     ---       #79
      01003CB5H   LINE      CODE     ---       #80
      01003CBEH   LINE      CODE     ---       #81
      01003CBEH   LINE      CODE     ---       #83
      01003CC5H   LINE      CODE     ---       #84
      01003CD3H   LINE      CODE     ---       #85
      01003CD3H   LINE      CODE     ---       #87
      01003CD3H   LINE      CODE     ---       #88
      01003CD3H   LINE      CODE     ---       #89
      01003CE0H   LINE      CODE     ---       #90
      01003CF1H   LINE      CODE     ---       #92
      ---         BLOCKEND  ---      ---       LVL=0

      010078C8H   BLOCK     CODE     ---       LVL=0
      010078C8H   BLOCK     CODE     NEAR LAB  LVL=1
      02008407H   SYMBOL    XDATA    WORD      i
      02008409H   SYMBOL    XDATA    ---       dat_txst
      0200840BH   SYMBOL    XDATA    ---       clean_0
      ---         BLOCKEND  ---      ---       LVL=1
      010078C8H   LINE      CODE     ---       #95
      010078C8H   LINE      CODE     ---       #96
      010078C8H   LINE      CODE     ---       #98
      010078DBH   LINE      CODE     ---       #99
      010078EEH   LINE      CODE     ---       #100
      01007903H   LINE      CODE     ---       #101
      0100790CH   LINE      CODE     ---       #102
      01007923H   LINE      CODE     ---       #103
      01007923H   LINE      CODE     ---       #104
      0100794AH   LINE      CODE     ---       #105
      01007974H   LINE      CODE     ---       #106
      01007984H   LINE      CODE     ---       #108
      ---         BLOCKEND  ---      ---       LVL=0

      010091A7H   BLOCK     CODE     ---       LVL=0
      010091A7H   BLOCK     CODE     NEAR LAB  LVL=1
      02008407H   SYMBOL    XDATA    WORD      Adress_Flag
      02008409H   SYMBOL    XDATA    ---       dat_Ad
      ---         BLOCKEND  ---      ---       LVL=1
      010091A7H   LINE      CODE     ---       #113
      010091A7H   LINE      CODE     ---       #114
      010091A7H   LINE      CODE     ---       #115
      010091AFH   LINE      CODE     ---       #116
      010091C3H   LINE      CODE     ---       #119
      010091CAH   LINE      CODE     ---       #121
      010091D1H   LINE      CODE     ---       #123
      ---         BLOCKEND  ---      ---       LVL=0

      01000052H   BLOCK     CODE     ---       LVL=0
      01000052H   LINE      CODE     ---       #128
      01000052H   LINE      CODE     ---       #129
      01000052H   LINE      CODE     ---       #133
      ---         BLOCKEND  ---      ---       LVL=0

      010095CAH   BLOCK     CODE     ---       LVL=0
      010095CAH   BLOCK     CODE     NEAR LAB  LVL=1
LX51 LINKER/LOCATER V4.66.93.0                                                        04/24/2025  12:33:12  PAGE 74


      020083BBH   SYMBOL    XDATA    ---       led_cmds
      ---         BLOCKEND  ---      ---       LVL=1
      010095CAH   LINE      CODE     ---       #136
      010095CAH   LINE      CODE     ---       #137
      010095CAH   LINE      CODE     ---       #140
      010095DDH   LINE      CODE     ---       #151
      ---         BLOCKEND  ---      ---       LVL=0

      ---         MODULE    ---      ---       MODE_P
      02008738H   PUBLIC    XDATA    BYTE      MODE_2_Finish
      02008736H   PUBLIC    XDATA    WORD      L_T_FLAG
      02008732H   PUBLIC    XDATA    FLOAT     W_FINISH
      02008730H   PUBLIC    XDATA    WORD      T_WORK
      0200872EH   PUBLIC    XDATA    WORD      T_FINISH
      0200872AH   PUBLIC    XDATA    FLOAT     P_FINISH
      02008728H   PUBLIC    XDATA    ---       PWM_ON
      02008726H   PUBLIC    XDATA    WORD      T_P_First
      02008724H   PUBLIC    XDATA    WORD      Off_On_pwm_flag
      02008722H   PUBLIC    XDATA    WORD      a
      00000022H.6 PUBLIC    BIT      BIT       reset_mode2
      00000022H.5 PUBLIC    BIT      BIT       yichu_T
      02008720H   PUBLIC    XDATA    WORD      T_Static_MODE2
      0200871EH   PUBLIC    XDATA    WORD      ZIWAIXIAN_FINISH_FLAG
      0200871AH   PUBLIC    XDATA    FLOAT     W_18mJ
      0200870CH   PUBLIC    XDATA    WORD      dynamic_static_flag
      0200870AH   PUBLIC    XDATA    WORD      T_XIANSHI
      02008706H   PUBLIC    XDATA    FLOAT     W_Mode
      02008704H   PUBLIC    XDATA    WORD      l_lasttime
      02008702H   PUBLIC    XDATA    ---       PWM_OFF
      020086FEH   PUBLIC    XDATA    FLOAT     P_mW_T
      020086FAH   PUBLIC    XDATA    FLOAT     W_Static
      020086F8H   PUBLIC    XDATA    WORD      T_dynamic
      020086F4H   PUBLIC    XDATA    FLOAT     W_LASTTIME
      020086F2H   PUBLIC    XDATA    WORD      T_LASTTIME
      020086F0H   PUBLIC    XDATA    WORD      First_shuju_FLAG
      020086ECH   PUBLIC    XDATA    FLOAT     P_LASTTIME
      020086EAH   PUBLIC    XDATA    WORD      T_ON_OFF
      020086E9H   PUBLIC    XDATA    BYTE      MODE_2_RUN_Draw
      010075A3H   PUBLIC    CODE     ---       zhiliao_read_norflash
      01008251H   PUBLIC    CODE     ---       set_zhiliao_Init
      010073DEH   PUBLIC    CODE     ---       zhiliao_Choose_Mode_3
      010072F9H   PUBLIC    CODE     ---       zhiliao_Choose_Mode_2
      01007214H   PUBLIC    CODE     ---       zhiliao_Choose_Mode_1
      010025B5H   PUBLIC    CODE     ---       zhiliao_SET
      01008BF7H   PUBLIC    CODE     ---       Static_T_Current_mode2
      0100872FH   PUBLIC    CODE     ---       CLOSE_W_bianliangchongzhi
      01005368H   PUBLIC    CODE     ---       TIM0_1S_isr
      01000062H   PUBLIC    CODE     ---       Mode_p_work
      01006A8CH   PUBLIC    CODE     ---       T_jisuan
      01008B82H   PUBLIC    CODE     ---       First_shuju
      00000098H.3 SFRSYM    DATA     BIT       TB80
      000000F1H   SFRSYM    DATA     BYTE      ADR_H
      00000080H   SFRSYM    DATA     BYTE      P0
      00000090H   SFRSYM    DATA     BYTE      P1
      000000A0H   SFRSYM    DATA     BYTE      P2
      000000B0H   SFRSYM    DATA     BYTE      P3
      000000D0H.6 SFRSYM    DATA     BIT       AC
      000000F3H   SFRSYM    DATA     BYTE      ADR_L
      00000094H   SFRSYM    DATA     BYTE      PAGESEL
      000000F2H   SFRSYM    DATA     BYTE      ADR_M
      000000A8H.7 SFRSYM    DATA     BIT       EA
      000000A0H.5 SFRSYM    DATA     BIT       JIGUANG
      00000090H.7 SFRSYM    DATA     BIT       LED_R
      000000F8H   SFRSYM    DATA     BYTE      RAMMODE
      000000B7H   SFRSYM    DATA     BYTE      P0MDOUT
LX51 LINKER/LOCATER V4.66.93.0                                                        04/24/2025  12:33:12  PAGE 75


      000000A8H   SFRSYM    DATA     BYTE      IEN0
      000000BCH   SFRSYM    DATA     BYTE      P1MDOUT
      000000B8H   SFRSYM    DATA     BYTE      IEN1
      000000BDH   SFRSYM    DATA     BYTE      P2MDOUT
      000000F8H.0 SFRSYM    DATA     BIT       APP_DATA0
      0000009AH   SFRSYM    DATA     BYTE      IEN2
      000000BEH   SFRSYM    DATA     BYTE      P3MDOUT
      000000F8H.1 SFRSYM    DATA     BIT       APP_DATA1
      000000D1H   SFRSYM    DATA     BYTE      IEN3
      00000080H.0 SFRSYM    DATA     BIT       P0_0
      000000F8H.2 SFRSYM    DATA     BIT       APP_DATA2
      00000090H.0 SFRSYM    DATA     BIT       P1_0
      000000F8H.3 SFRSYM    DATA     BIT       APP_DATA3
      00000090H.1 SFRSYM    DATA     BIT       P1_1
      000000F8H.4 SFRSYM    DATA     BIT       APP_ACK
      000000F4H   SFRSYM    DATA     BYTE      ADR_INC
      000000B0H.1 SFRSYM    DATA     BIT       P3_1
      00000098H.4 SFRSYM    DATA     BIT       REN0
      000000B8H.1 SFRSYM    DATA     BIT       ECAN
      000000D0H.7 SFRSYM    DATA     BIT       CY
      000000B8H.3 SFRSYM    DATA     BIT       ES2R
      000000B8H.5 SFRSYM    DATA     BIT       ES3R
      000000B8H.2 SFRSYM    DATA     BIT       ES2T
      000000B8H.4 SFRSYM    DATA     BIT       ES3T
      000000C8H.7 SFRSYM    DATA     BIT       TSF2
      000000B0H.3 SFRSYM    DATA     BIT       RTC_SDA
      00000081H   SFRSYM    DATA     BYTE      SP
      000000D0H.2 SFRSYM    DATA     BIT       OV
      00000095H   SFRSYM    DATA     BYTE      D_PAGESEL
      00000090H.5 SFRSYM    DATA     BIT       UV
      000000F8H.7 SFRSYM    DATA     BIT       APP_REQ
      000000B0H.2 SFRSYM    DATA     BIT       RTC_SCL
      000000BFH   SFRSYM    DATA     BYTE      IRCON2
      000000BAH   SFRSYM    DATA     BYTE      SREL0H
      000000BBH   SFRSYM    DATA     BYTE      SREL1H
      00000087H   SFRSYM    DATA     BYTE      PCON
      000000AAH   SFRSYM    DATA     BYTE      SREL0L
      000000F9H   SFRSYM    DATA     BYTE      PORTDRV
      0000009DH   SFRSYM    DATA     BYTE      SREL1L
      00000089H   SFRSYM    DATA     BYTE      TMOD
      00000088H   SFRSYM    DATA     BYTE      TCON
      00000097H   SFRSYM    DATA     BYTE      SCON2R
      000000FFH   SFRSYM    DATA     BYTE      EXDATA
      000000ABH   SFRSYM    DATA     BYTE      SCON3R
      000000D9H   SFRSYM    DATA     BYTE      BODE2_DIV_H
      000000AEH   SFRSYM    DATA     BYTE      BODE3_DIV_H
      00000096H   SFRSYM    DATA     BYTE      SCON2T
      000000A7H   SFRSYM    DATA     BYTE      SCON3T
      000000E7H   SFRSYM    DATA     BYTE      BODE2_DIV_L
      00000088H.1 SFRSYM    DATA     BIT       IE0
      000000AFH   SFRSYM    DATA     BYTE      BODE3_DIV_L
      00000088H.3 SFRSYM    DATA     BIT       IE1
      000000C9H   SFRSYM    DATA     BYTE      MUX_SEL
      020086CBH   SFRSYM    XDATA    WORD      B
      000000E0H   SFRSYM    DATA     BYTE      ACC
      000000A8H.4 SFRSYM    DATA     BIT       ES0
      0000008FH   SFRSYM    DATA     BYTE      CAN_CR
      000000A8H.1 SFRSYM    DATA     BIT       ET0
      000000A9H   SFRSYM    DATA     BYTE      IP0
      000000A8H.3 SFRSYM    DATA     BIT       ET1
      00000088H.5 SFRSYM    DATA     BIT       TF0
      000000B9H   SFRSYM    DATA     BYTE      IP1
      000000A8H.5 SFRSYM    DATA     BIT       ET2
      00000098H.0 SFRSYM    DATA     BIT       RI0
      00000088H.7 SFRSYM    DATA     BIT       TF1
LX51 LINKER/LOCATER V4.66.93.0                                                        04/24/2025  12:33:12  PAGE 76


      000000FDH   SFRSYM    DATA     BYTE      DATA0
      000000C0H.6 SFRSYM    DATA     BIT       TF2
      000000E8H   SFRSYM    DATA     BYTE      CAN_ET
      000000FCH   SFRSYM    DATA     BYTE      DATA1
      0000008CH   SFRSYM    DATA     BYTE      TH0
      000000A8H.0 SFRSYM    DATA     BIT       EX0
      00000098H.1 SFRSYM    DATA     BIT       TI0
      00000088H.0 SFRSYM    DATA     BIT       IT0
      000000FBH   SFRSYM    DATA     BYTE      DATA2
      0000008DH   SFRSYM    DATA     BYTE      TH1
      000000A8H.2 SFRSYM    DATA     BIT       EX1
      00000091H   SFRSYM    DATA     BYTE      CAN_IR
      000000CDH   SFRSYM    DATA     BYTE      TH2
      00000088H.2 SFRSYM    DATA     BIT       IT1
      000000FAH   SFRSYM    DATA     BYTE      DATA3
      000000D0H.0 SFRSYM    DATA     BIT       P
      00000098H.7 SFRSYM    DATA     BIT       SM0
      0000008AH   SFRSYM    DATA     BYTE      TL0
      00000098H.6 SFRSYM    DATA     BIT       SM1
      0000008BH   SFRSYM    DATA     BYTE      TL1
      00000098H.5 SFRSYM    DATA     BIT       SM2
      000000CCH   SFRSYM    DATA     BYTE      TL2
      000000A0H.7 SFRSYM    DATA     BIT       UV_St
      000000D0H.3 SFRSYM    DATA     BIT       RS0
      000000F8H.6 SFRSYM    DATA     BIT       APP_EN
      000000D0H.4 SFRSYM    DATA     BIT       RS1
      00000088H.4 SFRSYM    DATA     BIT       TR0
      00000088H.6 SFRSYM    DATA     BIT       TR1
      00000093H   SFRSYM    DATA     BYTE      DPC
      000000C8H.0 SFRSYM    DATA     BIT       TR2
      000000E5H   SFRSYM    DATA     BYTE      MAC_MODE
      00000083H   SFRSYM    DATA     BYTE      DPH
      00000082H   SFRSYM    DATA     BYTE      DPL
      00000099H   SFRSYM    DATA     BYTE      SBUF0
      0000009CH   SFRSYM    DATA     BYTE      SBUF1
      00000098H   SFRSYM    DATA     BYTE      SCON0
      0000009BH   SFRSYM    DATA     BYTE      SCON1
      000000D8H   SFRSYM    DATA     BYTE      ADCON
      000000C8H   SFRSYM    DATA     BYTE      T2CON
      000000E6H   SFRSYM    DATA     BYTE      DIV_MODE
      000000F8H.5 SFRSYM    DATA     BIT       APP_RW
      000000CBH   SFRSYM    DATA     BYTE      TRL2H
      0000009FH   SFRSYM    DATA     BYTE      SBUF2_RX
      000000ADH   SFRSYM    DATA     BYTE      SBUF3_RX
      0000008EH   SFRSYM    DATA     BYTE      CKCON
      0000009EH   SFRSYM    DATA     BYTE      SBUF2_TX
      000000ACH   SFRSYM    DATA     BYTE      SBUF3_TX
      000000CAH   SFRSYM    DATA     BYTE      TRL2L
      000000D0H.5 SFRSYM    DATA     BIT       F0
      000000FEH   SFRSYM    DATA     BYTE      EXADR
      000000D0H.1 SFRSYM    DATA     BIT       F1
      000000A0H.3 SFRSYM    DATA     BIT       LED_B
      000000D0H   SFRSYM    DATA     BYTE      PSW
      000000A0H.1 SFRSYM    DATA     BIT       LED_G
      000000C0H   SFRSYM    DATA     BYTE      IRCON
      00000098H.2 SFRSYM    DATA     BIT       RB80
      01009E1DH   SYMBOL    CONST    ---       _?ix1000
      01009E29H   SYMBOL    CONST    ---       _?ix1001
      01009E2BH   SYMBOL    CONST    ---       _?ix1002
      01009E2DH   SYMBOL    CONST    ---       _?ix1003
      01009E2FH   SYMBOL    CONST    ---       _?ix1004
      0200870EH   SYMBOL    XDATA    ---       zhiliao_set_nor

      01008B82H   BLOCK     CODE     ---       LVL=0
      01008B82H   LINE      CODE     ---       #71
LX51 LINKER/LOCATER V4.66.93.0                                                        04/24/2025  12:33:12  PAGE 77


      01008B82H   LINE      CODE     ---       #72
      01008B82H   LINE      CODE     ---       #75
      01008B84H   LINE      CODE     ---       #77
      01008B8EH   LINE      CODE     ---       #78
      01008B8EH   LINE      CODE     ---       #79
      01008B92H   LINE      CODE     ---       #80
      01008BA1H   LINE      CODE     ---       #81
      01008BB5H   LINE      CODE     ---       #84
      01008BB8H   LINE      CODE     ---       #86
      01008BC0H   LINE      CODE     ---       #87
      01008BD0H   LINE      CODE     ---       #90
      01008BDAH   LINE      CODE     ---       #91
      01008BEEH   LINE      CODE     ---       #92
      01008BF6H   LINE      CODE     ---       #94
      01008BF6H   LINE      CODE     ---       #96
      ---         BLOCKEND  ---      ---       LVL=0

      01006A8CH   BLOCK     CODE     ---       LVL=0
      01006A8CH   LINE      CODE     ---       #102
      01006A8CH   LINE      CODE     ---       #103
      01006A8CH   LINE      CODE     ---       #116
      01006AA0H   LINE      CODE     ---       #117
      01006AC4H   LINE      CODE     ---       #118
      01006AC4H   LINE      CODE     ---       #119
      01006AE9H   LINE      CODE     ---       #120
      01006B14H   LINE      CODE     ---       #121
      01006B14H   LINE      CODE     ---       #122
      01006B3EH   LINE      CODE     ---       #123
      01006B53H   LINE      CODE     ---       #124
      01006B65H   LINE      CODE     ---       #125
      01006B65H   LINE      CODE     ---       #126
      01006B65H   LINE      CODE     ---       #128
      01006B79H   LINE      CODE     ---       #129
      01006B88H   LINE      CODE     ---       #131
      ---         BLOCKEND  ---      ---       LVL=0

      01000062H   BLOCK     CODE     ---       LVL=0
      01000062H   LINE      CODE     ---       #133
      01000062H   LINE      CODE     ---       #134
      01000062H   LINE      CODE     ---       #137
      ---         BLOCKEND  ---      ---       LVL=0

      01005368H   BLOCK     CODE     ---       LVL=0
      01005368H   LINE      CODE     ---       #140
      01005368H   LINE      CODE     ---       #141
      01005368H   LINE      CODE     ---       #143
      01005375H   LINE      CODE     ---       #145
      01005386H   LINE      CODE     ---       #146
      01005386H   LINE      CODE     ---       #147
      010053A4H   LINE      CODE     ---       #148
      010053A4H   LINE      CODE     ---       #149
      010053ABH   LINE      CODE     ---       #150
      010053ADH   LINE      CODE     ---       #151
      010053AEH   LINE      CODE     ---       #152
      010053B0H   LINE      CODE     ---       #154
      010053C4H   LINE      CODE     ---       #155
      010053C4H   LINE      CODE     ---       #156
      010053CBH   LINE      CODE     ---       #157
      010053CDH   LINE      CODE     ---       #158
      010053D3H   LINE      CODE     ---       #159
      010053D3H   LINE      CODE     ---       #162
      010053D5H   LINE      CODE     ---       #164
      010053D5H   LINE      CODE     ---       #165
      010053D7H   LINE      CODE     ---       #166
      010053D7H   LINE      CODE     ---       #168
LX51 LINKER/LOCATER V4.66.93.0                                                        04/24/2025  12:33:12  PAGE 78


      010053E8H   LINE      CODE     ---       #169
      010053E8H   LINE      CODE     ---       #170
      010053EAH   LINE      CODE     ---       #171
      010053EAH   LINE      CODE     ---       #174
      010053FEH   LINE      CODE     ---       #175
      010053FEH   LINE      CODE     ---       #177
      0100540CH   LINE      CODE     ---       #178
      0100541AH   LINE      CODE     ---       #179
      01005435H   LINE      CODE     ---       #180
      01005443H   LINE      CODE     ---       #181
      01005443H   LINE      CODE     ---       #183
      01005466H   LINE      CODE     ---       #184
      01005466H   LINE      CODE     ---       #185
      01005473H   LINE      CODE     ---       #188
      01005483H   LINE      CODE     ---       #190
      01005486H   LINE      CODE     ---       #193
      01005486H   LINE      CODE     ---       #194
      010054C6H   LINE      CODE     ---       #195
      010054C6H   LINE      CODE     ---       #196
      010054CDH   LINE      CODE     ---       #197
      010054CDH   LINE      CODE     ---       #200
      ---         BLOCKEND  ---      ---       LVL=0

      0100872FH   BLOCK     CODE     ---       LVL=0
      0100872FH   LINE      CODE     ---       #203
      0100872FH   LINE      CODE     ---       #204
      0100872FH   LINE      CODE     ---       #207
      01008741H   LINE      CODE     ---       #208
      01008743H   LINE      CODE     ---       #209
      0100875FH   LINE      CODE     ---       #211
      01008766H   LINE      CODE     ---       #212
      0100876CH   LINE      CODE     ---       #213
      01008770H   LINE      CODE     ---       #214
      01008776H   LINE      CODE     ---       #215
      0100877CH   LINE      CODE     ---       #216
      0100877EH   LINE      CODE     ---       #217
      01008784H   LINE      CODE     ---       #220
      0100878BH   LINE      CODE     ---       #222
      0100878DH   LINE      CODE     ---       #223
      01008794H   LINE      CODE     ---       #224
      0100879AH   LINE      CODE     ---       #225
      0100879CH   LINE      CODE     ---       #226
      010087A2H   LINE      CODE     ---       #227
      010087ACH   LINE      CODE     ---       #228
      010087B3H   LINE      CODE     ---       #233
      010087B9H   LINE      CODE     ---       #235
      010087BDH   LINE      CODE     ---       #237
      ---         BLOCKEND  ---      ---       LVL=0

      01008BF7H   BLOCK     CODE     ---       LVL=0
      01008BF7H   LINE      CODE     ---       #239
      01008BF7H   LINE      CODE     ---       #240
      01008BF7H   LINE      CODE     ---       #241
      01008C03H   LINE      CODE     ---       #242
      01008C03H   LINE      CODE     ---       #246
      01008C2DH   LINE      CODE     ---       #250
      01008C34H   LINE      CODE     ---       #251
      01008C34H   LINE      CODE     ---       #252
      01008C4CH   LINE      CODE     ---       #253
      01008C4FH   LINE      CODE     ---       #254
      01008C52H   LINE      CODE     ---       #255
      01008C52H   LINE      CODE     ---       #257
      01008C52H   LINE      CODE     ---       #259
      01008C52H   LINE      CODE     ---       #260
      01008C62H   LINE      CODE     ---       #261
LX51 LINKER/LOCATER V4.66.93.0                                                        04/24/2025  12:33:12  PAGE 79


      01008C6AH   LINE      CODE     ---       #264
      01008C6AH   LINE      CODE     ---       #265
      ---         BLOCKEND  ---      ---       LVL=0

      010025B5H   BLOCK     CODE     ---       LVL=0
      010025B5H   BLOCK     CODE     NEAR LAB  LVL=1
      02008433H   SYMBOL    XDATA    ---       MJ_H
      02008437H   SYMBOL    XDATA    ---       MJ_M
      0200843BH   SYMBOL    XDATA    ---       MJ_L
      0200843FH   SYMBOL    XDATA    ---       MJ_H_M_L
      0200844BH   SYMBOL    XDATA    DWORD     MJ_H_HEX
      0200844FH   SYMBOL    XDATA    DWORD     MJ_L_HEX
      02008453H   SYMBOL    XDATA    DWORD     MJ_M_HEX
      ---         BLOCKEND  ---      ---       LVL=1
      010025B5H   LINE      CODE     ---       #285
      010025B5H   LINE      CODE     ---       #286
      010025B5H   LINE      CODE     ---       #293
      010025C8H   LINE      CODE     ---       #298
      010025CEH   LINE      CODE     ---       #299
      010025D3H   LINE      CODE     ---       #300
      010025D8H   LINE      CODE     ---       #302
      010025EEH   LINE      CODE     ---       #303
      01002604H   LINE      CODE     ---       #304
      0100261AH   LINE      CODE     ---       #317
      01002629H   LINE      CODE     ---       #318
      01002638H   LINE      CODE     ---       #319
      01002647H   LINE      CODE     ---       #321
      010026BBH   LINE      CODE     ---       #322
      0100272FH   LINE      CODE     ---       #323
      010027A3H   LINE      CODE     ---       #326
      010027CAH   LINE      CODE     ---       #327
      010027EFH   LINE      CODE     ---       #328
      0100280BH   LINE      CODE     ---       #330
      01002832H   LINE      CODE     ---       #331
      01002857H   LINE      CODE     ---       #332
      01002873H   LINE      CODE     ---       #335
      0100289AH   LINE      CODE     ---       #336
      010028BFH   LINE      CODE     ---       #337
      010028DBH   LINE      CODE     ---       #339
      010028F1H   LINE      CODE     ---       #340
      ---         BLOCKEND  ---      ---       LVL=0

      01007214H   BLOCK     CODE     ---       LVL=0
      01007214H   BLOCK     CODE     NEAR LAB  LVL=1
      020083C3H   SYMBOL    XDATA    ---       icon_esc
      020083C5H   SYMBOL    XDATA    ---       receive_buff
      020083C7H   SYMBOL    XDATA    ---       set_buff
      020083CBH   SYMBOL    XDATA    ---       buff_zhiliao
      ---         BLOCKEND  ---      ---       LVL=1
      01007214H   LINE      CODE     ---       #343
      01007214H   LINE      CODE     ---       #344
      01007214H   LINE      CODE     ---       #345
      01007227H   LINE      CODE     ---       #349
      0100723DH   LINE      CODE     ---       #350
      01007248H   LINE      CODE     ---       #351
      01007248H   LINE      CODE     ---       #352
      0100725DH   LINE      CODE     ---       #353
      01007273H   LINE      CODE     ---       #354
      01007289H   LINE      CODE     ---       #355
      01007291H   LINE      CODE     ---       #356
      01007291H   LINE      CODE     ---       #357
      0100729CH   LINE      CODE     ---       #358
      010072A9H   LINE      CODE     ---       #359
      010072B6H   LINE      CODE     ---       #360
      010072CCH   LINE      CODE     ---       #361
LX51 LINKER/LOCATER V4.66.93.0                                                        04/24/2025  12:33:12  PAGE 80


      010072E2H   LINE      CODE     ---       #362
      010072F8H   LINE      CODE     ---       #363
      010072F8H   LINE      CODE     ---       #364
      010072F8H   LINE      CODE     ---       #366
      ---         BLOCKEND  ---      ---       LVL=0

      010072F9H   BLOCK     CODE     ---       LVL=0
      010072F9H   BLOCK     CODE     NEAR LAB  LVL=1
      020083C3H   SYMBOL    XDATA    ---       icon_esc
      020083C5H   SYMBOL    XDATA    ---       receive_buff
      020083C7H   SYMBOL    XDATA    ---       set_buff
      020083CBH   SYMBOL    XDATA    ---       buff_zhiliao
      ---         BLOCKEND  ---      ---       LVL=1
      010072F9H   LINE      CODE     ---       #368
      010072F9H   LINE      CODE     ---       #369
      010072F9H   LINE      CODE     ---       #370
      0100730CH   LINE      CODE     ---       #374
      01007322H   LINE      CODE     ---       #375
      0100732DH   LINE      CODE     ---       #376
      0100732DH   LINE      CODE     ---       #377
      01007342H   LINE      CODE     ---       #378
      01007358H   LINE      CODE     ---       #379
      0100736EH   LINE      CODE     ---       #380
      01007376H   LINE      CODE     ---       #381
      01007376H   LINE      CODE     ---       #382
      01007381H   LINE      CODE     ---       #383
      0100738EH   LINE      CODE     ---       #384
      0100739BH   LINE      CODE     ---       #385
      010073B1H   LINE      CODE     ---       #386
      010073C7H   LINE      CODE     ---       #387
      010073DDH   LINE      CODE     ---       #388
      010073DDH   LINE      CODE     ---       #389
      010073DDH   LINE      CODE     ---       #391
      ---         BLOCKEND  ---      ---       LVL=0

      010073DEH   BLOCK     CODE     ---       LVL=0
      010073DEH   BLOCK     CODE     NEAR LAB  LVL=1
      020083C3H   SYMBOL    XDATA    ---       icon_esc
      020083C5H   SYMBOL    XDATA    ---       receive_buff
      020083C7H   SYMBOL    XDATA    ---       buff_zhiliao
      020083CDH   SYMBOL    XDATA    ---       set_buff
      ---         BLOCKEND  ---      ---       LVL=1
      010073DEH   LINE      CODE     ---       #393
      010073DEH   LINE      CODE     ---       #394
      010073DEH   LINE      CODE     ---       #395
      010073F1H   LINE      CODE     ---       #399
      01007407H   LINE      CODE     ---       #400
      01007412H   LINE      CODE     ---       #401
      01007412H   LINE      CODE     ---       #402
      01007427H   LINE      CODE     ---       #403
      0100743DH   LINE      CODE     ---       #404
      01007452H   LINE      CODE     ---       #405
      0100745AH   LINE      CODE     ---       #406
      0100745AH   LINE      CODE     ---       #408
      01007465H   LINE      CODE     ---       #409
      01007472H   LINE      CODE     ---       #410
      0100747FH   LINE      CODE     ---       #411
      01007495H   LINE      CODE     ---       #412
      010074ABH   LINE      CODE     ---       #413
      010074C1H   LINE      CODE     ---       #414
      010074C1H   LINE      CODE     ---       #415
      010074C1H   LINE      CODE     ---       #417
      ---         BLOCKEND  ---      ---       LVL=0

      01008251H   BLOCK     CODE     ---       LVL=0
LX51 LINKER/LOCATER V4.66.93.0                                                        04/24/2025  12:33:12  PAGE 81


      01008251H   BLOCK     CODE     NEAR LAB  LVL=1
      020084DDH   SYMBOL    XDATA    ---       buff_user
      ---         BLOCKEND  ---      ---       LVL=1
      01008251H   LINE      CODE     ---       #419
      01008251H   LINE      CODE     ---       #420
      01008251H   LINE      CODE     ---       #427
      01008260H   LINE      CODE     ---       #447
      01008276H   LINE      CODE     ---       #448
      01008282H   LINE      CODE     ---       #449
      01008282H   LINE      CODE     ---       #450
      01008297H   LINE      CODE     ---       #451
      010082ADH   LINE      CODE     ---       #452
      010082C3H   LINE      CODE     ---       #454
      010082C3H   LINE      CODE     ---       #455
      010082D2H   LINE      CODE     ---       #456
      010082E1H   LINE      CODE     ---       #457
      ---         BLOCKEND  ---      ---       LVL=0

      010075A3H   BLOCK     CODE     ---       LVL=0
      010075A3H   BLOCK     CODE     NEAR LAB  LVL=1
      020083C3H   SYMBOL    XDATA    ---       buff_read
      020083C9H   SYMBOL    XDATA    ---       buff_user
      ---         BLOCKEND  ---      ---       LVL=1
      010075A3H   LINE      CODE     ---       #466
      010075A3H   LINE      CODE     ---       #467
      010075A3H   LINE      CODE     ---       #469
      010075B6H   LINE      CODE     ---       #471
      010075CCH   LINE      CODE     ---       #472
      010075E2H   LINE      CODE     ---       #473
      010075F8H   LINE      CODE     ---       #474
      01007616H   LINE      CODE     ---       #475
      01007616H   LINE      CODE     ---       #477
      0100762BH   LINE      CODE     ---       #478
      01007641H   LINE      CODE     ---       #479
      01007657H   LINE      CODE     ---       #481
      0100766DH   LINE      CODE     ---       #484
      0100766DH   LINE      CODE     ---       #485
      ---         BLOCKEND  ---      ---       LVL=0

      ---         MODULE    ---      ---       MODE_S
      02008767H   PUBLIC    XDATA    BYTE      MODE_1_Finish
      0200875FH   PUBLIC    XDATA    ---       MODE_S_C
      0200875BH   PUBLIC    XDATA    FLOAT     quyu_zhongxin_j
      00000022H.4 PUBLIC    BIT      BIT       MODE_S_Surfaces_All
      02008759H   PUBLIC    XDATA    WORD      T_S_First
      02008757H   PUBLIC    XDATA    WORD      Read_log_j
      02008753H   PUBLIC    XDATA    FLOAT     W_mJ_XIANSHI
      02008751H   PUBLIC    XDATA    WORD      First_S_shuju_FLAG
      00000022H.3 PUBLIC    BIT      BIT       MODE_S_Surfaces_Centre
      0200874DH   PUBLIC    XDATA    FLOAT     T_beishu
      0200874BH   PUBLIC    XDATA    WORD      L_T_S_FLAG
      02008747H   PUBLIC    XDATA    FLOAT     T_y
      02008743H   PUBLIC    XDATA    FLOAT     T_S_WORK
      0200873FH   PUBLIC    XDATA    FLOAT     T_y_Last
      0200873DH   PUBLIC    XDATA    WORD      ZIWAIXIAN_S_FINISH_FLAG
      00000022H.2 PUBLIC    BIT      BIT       MODE_S_Aerosols
      02008739H   PUBLIC    XDATA    FLOAT     qirongjiao_j
      010093D7H   PUBLIC    CODE     ---       Static_T_Current_mode1
      01008E0DH   PUBLIC    CODE     ---       S_bianliangqingling
      010081B0H   PUBLIC    CODE     ---       TIM0_1S_S_isr
      0100842EH   PUBLIC    CODE     ---       _Transform_S_L_T_Surfaces_All
      0100838FH   PUBLIC    CODE     ---       _Transform_S_L_T_Surfaces_Centre
      010082F0H   PUBLIC    CODE     ---       _Transform_S_L_T_Aerosols
      01009071H   PUBLIC    CODE     ---       First_S_shuju
      01009110H   PUBLIC    CODE     ---       _qirongjiao_log
LX51 LINKER/LOCATER V4.66.93.0                                                        04/24/2025  12:33:12  PAGE 82


      01009025H   PUBLIC    CODE     ---       _quyu_zhongxin_log
      0100798DH   PUBLIC    CODE     ---       MODE_S_CHOOSE
      00000098H.3 SFRSYM    DATA     BIT       TB80
      000000F1H   SFRSYM    DATA     BYTE      ADR_H
      00000080H   SFRSYM    DATA     BYTE      P0
      00000090H   SFRSYM    DATA     BYTE      P1
      000000A0H   SFRSYM    DATA     BYTE      P2
      000000B0H   SFRSYM    DATA     BYTE      P3
      000000D0H.6 SFRSYM    DATA     BIT       AC
      000000F3H   SFRSYM    DATA     BYTE      ADR_L
      00000094H   SFRSYM    DATA     BYTE      PAGESEL
      000000F2H   SFRSYM    DATA     BYTE      ADR_M
      000000A8H.7 SFRSYM    DATA     BIT       EA
      000000A0H.5 SFRSYM    DATA     BIT       JIGUANG
      00000090H.7 SFRSYM    DATA     BIT       LED_R
      000000F8H   SFRSYM    DATA     BYTE      RAMMODE
      000000B7H   SFRSYM    DATA     BYTE      P0MDOUT
      000000A8H   SFRSYM    DATA     BYTE      IEN0
      000000BCH   SFRSYM    DATA     BYTE      P1MDOUT
      000000B8H   SFRSYM    DATA     BYTE      IEN1
      000000BDH   SFRSYM    DATA     BYTE      P2MDOUT
      000000F8H.0 SFRSYM    DATA     BIT       APP_DATA0
      0000009AH   SFRSYM    DATA     BYTE      IEN2
      000000BEH   SFRSYM    DATA     BYTE      P3MDOUT
      000000F8H.1 SFRSYM    DATA     BIT       APP_DATA1
      000000D1H   SFRSYM    DATA     BYTE      IEN3
      00000080H.0 SFRSYM    DATA     BIT       P0_0
      000000F8H.2 SFRSYM    DATA     BIT       APP_DATA2
      00000090H.0 SFRSYM    DATA     BIT       P1_0
      000000F8H.3 SFRSYM    DATA     BIT       APP_DATA3
      00000090H.1 SFRSYM    DATA     BIT       P1_1
      000000F8H.4 SFRSYM    DATA     BIT       APP_ACK
      000000F4H   SFRSYM    DATA     BYTE      ADR_INC
      000000B0H.1 SFRSYM    DATA     BIT       P3_1
      00000098H.4 SFRSYM    DATA     BIT       REN0
      000000B8H.1 SFRSYM    DATA     BIT       ECAN
      000000D0H.7 SFRSYM    DATA     BIT       CY
      000000B8H.3 SFRSYM    DATA     BIT       ES2R
      000000B8H.5 SFRSYM    DATA     BIT       ES3R
      000000B8H.2 SFRSYM    DATA     BIT       ES2T
      000000B8H.4 SFRSYM    DATA     BIT       ES3T
      000000C8H.7 SFRSYM    DATA     BIT       TSF2
      000000B0H.3 SFRSYM    DATA     BIT       RTC_SDA
      00000081H   SFRSYM    DATA     BYTE      SP
      000000D0H.2 SFRSYM    DATA     BIT       OV
      00000095H   SFRSYM    DATA     BYTE      D_PAGESEL
      00000090H.5 SFRSYM    DATA     BIT       UV
      000000F8H.7 SFRSYM    DATA     BIT       APP_REQ
      000000B0H.2 SFRSYM    DATA     BIT       RTC_SCL
      000000BFH   SFRSYM    DATA     BYTE      IRCON2
      000000BAH   SFRSYM    DATA     BYTE      SREL0H
      000000BBH   SFRSYM    DATA     BYTE      SREL1H
      00000087H   SFRSYM    DATA     BYTE      PCON
      000000AAH   SFRSYM    DATA     BYTE      SREL0L
      000000F9H   SFRSYM    DATA     BYTE      PORTDRV
      0000009DH   SFRSYM    DATA     BYTE      SREL1L
      00000089H   SFRSYM    DATA     BYTE      TMOD
      00000088H   SFRSYM    DATA     BYTE      TCON
      00000097H   SFRSYM    DATA     BYTE      SCON2R
      000000FFH   SFRSYM    DATA     BYTE      EXDATA
      000000ABH   SFRSYM    DATA     BYTE      SCON3R
      000000D9H   SFRSYM    DATA     BYTE      BODE2_DIV_H
      000000AEH   SFRSYM    DATA     BYTE      BODE3_DIV_H
      00000096H   SFRSYM    DATA     BYTE      SCON2T
      000000A7H   SFRSYM    DATA     BYTE      SCON3T
LX51 LINKER/LOCATER V4.66.93.0                                                        04/24/2025  12:33:12  PAGE 83


      000000E7H   SFRSYM    DATA     BYTE      BODE2_DIV_L
      00000088H.1 SFRSYM    DATA     BIT       IE0
      000000AFH   SFRSYM    DATA     BYTE      BODE3_DIV_L
      00000088H.3 SFRSYM    DATA     BIT       IE1
      000000C9H   SFRSYM    DATA     BYTE      MUX_SEL
      020086CBH   SFRSYM    XDATA    WORD      B
      000000E0H   SFRSYM    DATA     BYTE      ACC
      000000A8H.4 SFRSYM    DATA     BIT       ES0
      0000008FH   SFRSYM    DATA     BYTE      CAN_CR
      000000A8H.1 SFRSYM    DATA     BIT       ET0
      000000A9H   SFRSYM    DATA     BYTE      IP0
      000000A8H.3 SFRSYM    DATA     BIT       ET1
      00000088H.5 SFRSYM    DATA     BIT       TF0
      000000B9H   SFRSYM    DATA     BYTE      IP1
      000000A8H.5 SFRSYM    DATA     BIT       ET2
      00000098H.0 SFRSYM    DATA     BIT       RI0
      00000088H.7 SFRSYM    DATA     BIT       TF1
      000000FDH   SFRSYM    DATA     BYTE      DATA0
      000000C0H.6 SFRSYM    DATA     BIT       TF2
      000000E8H   SFRSYM    DATA     BYTE      CAN_ET
      000000FCH   SFRSYM    DATA     BYTE      DATA1
      0000008CH   SFRSYM    DATA     BYTE      TH0
      000000A8H.0 SFRSYM    DATA     BIT       EX0
      00000098H.1 SFRSYM    DATA     BIT       TI0
      00000088H.0 SFRSYM    DATA     BIT       IT0
      000000FBH   SFRSYM    DATA     BYTE      DATA2
      0000008DH   SFRSYM    DATA     BYTE      TH1
      000000A8H.2 SFRSYM    DATA     BIT       EX1
      00000091H   SFRSYM    DATA     BYTE      CAN_IR
      000000CDH   SFRSYM    DATA     BYTE      TH2
      00000088H.2 SFRSYM    DATA     BIT       IT1
      000000FAH   SFRSYM    DATA     BYTE      DATA3
      000000D0H.0 SFRSYM    DATA     BIT       P
      00000098H.7 SFRSYM    DATA     BIT       SM0
      0000008AH   SFRSYM    DATA     BYTE      TL0
      00000098H.6 SFRSYM    DATA     BIT       SM1
      0000008BH   SFRSYM    DATA     BYTE      TL1
      00000098H.5 SFRSYM    DATA     BIT       SM2
      000000CCH   SFRSYM    DATA     BYTE      TL2
      000000A0H.7 SFRSYM    DATA     BIT       UV_St
      000000D0H.3 SFRSYM    DATA     BIT       RS0
      000000F8H.6 SFRSYM    DATA     BIT       APP_EN
      000000D0H.4 SFRSYM    DATA     BIT       RS1
      00000088H.4 SFRSYM    DATA     BIT       TR0
      00000088H.6 SFRSYM    DATA     BIT       TR1
      00000093H   SFRSYM    DATA     BYTE      DPC
      000000C8H.0 SFRSYM    DATA     BIT       TR2
      000000E5H   SFRSYM    DATA     BYTE      MAC_MODE
      00000083H   SFRSYM    DATA     BYTE      DPH
      00000082H   SFRSYM    DATA     BYTE      DPL
      00000099H   SFRSYM    DATA     BYTE      SBUF0
      0000009CH   SFRSYM    DATA     BYTE      SBUF1
      00000098H   SFRSYM    DATA     BYTE      SCON0
      0000009BH   SFRSYM    DATA     BYTE      SCON1
      000000D8H   SFRSYM    DATA     BYTE      ADCON
      000000C8H   SFRSYM    DATA     BYTE      T2CON
      000000E6H   SFRSYM    DATA     BYTE      DIV_MODE
      000000F8H.5 SFRSYM    DATA     BIT       APP_RW
      000000CBH   SFRSYM    DATA     BYTE      TRL2H
      0000009FH   SFRSYM    DATA     BYTE      SBUF2_RX
      000000ADH   SFRSYM    DATA     BYTE      SBUF3_RX
      0000008EH   SFRSYM    DATA     BYTE      CKCON
      0000009EH   SFRSYM    DATA     BYTE      SBUF2_TX
      000000ACH   SFRSYM    DATA     BYTE      SBUF3_TX
      000000CAH   SFRSYM    DATA     BYTE      TRL2L
LX51 LINKER/LOCATER V4.66.93.0                                                        04/24/2025  12:33:12  PAGE 84


      000000D0H.5 SFRSYM    DATA     BIT       F0
      000000FEH   SFRSYM    DATA     BYTE      EXADR
      000000D0H.1 SFRSYM    DATA     BIT       F1
      000000A0H.3 SFRSYM    DATA     BIT       LED_B
      000000D0H   SFRSYM    DATA     BYTE      PSW
      000000A0H.1 SFRSYM    DATA     BIT       LED_G
      000000C0H   SFRSYM    DATA     BYTE      IRCON
      00000098H.2 SFRSYM    DATA     BIT       RB80

      0100798DH   BLOCK     CODE     ---       LVL=0
      0100798DH   LINE      CODE     ---       #42
      0100798DH   LINE      CODE     ---       #43
      0100798DH   LINE      CODE     ---       #45
      01007997H   LINE      CODE     ---       #46
      01007997H   LINE      CODE     ---       #47
      010079A6H   LINE      CODE     ---       #49
      010079A6H   LINE      CODE     ---       #55
      010079C3H   LINE      CODE     ---       #56
      010079C3H   LINE      CODE     ---       #57
      010079C3H   LINE      CODE     ---       #58
      010079C3H   LINE      CODE     ---       #59
      010079C5H   LINE      CODE     ---       #60
      010079C7H   LINE      CODE     ---       #61
      010079C9H   LINE      CODE     ---       #62
      010079DFH   LINE      CODE     ---       #63
      010079EAH   LINE      CODE     ---       #64
      010079F5H   LINE      CODE     ---       #65
      010079F5H   LINE      CODE     ---       #66
      010079F5H   LINE      CODE     ---       #67
      010079F5H   LINE      CODE     ---       #68
      010079F5H   LINE      CODE     ---       #69
      010079F7H   LINE      CODE     ---       #70
      010079F9H   LINE      CODE     ---       #71
      010079FBH   LINE      CODE     ---       #72
      01007A10H   LINE      CODE     ---       #73
      01007A13H   LINE      CODE     ---       #74
      01007A1EH   LINE      CODE     ---       #75
      01007A1EH   LINE      CODE     ---       #76
      01007A1EH   LINE      CODE     ---       #77
      01007A1EH   LINE      CODE     ---       #78
      01007A1EH   LINE      CODE     ---       #79
      01007A20H   LINE      CODE     ---       #80
      01007A22H   LINE      CODE     ---       #81
      01007A24H   LINE      CODE     ---       #82
      01007A3AH   LINE      CODE     ---       #83
      01007A3DH   LINE      CODE     ---       #84
      01007A48H   LINE      CODE     ---       #85
      01007A48H   LINE      CODE     ---       #86
      01007A48H   LINE      CODE     ---       #87
      01007A48H   LINE      CODE     ---       #88
      01007A48H   LINE      CODE     ---       #89
      01007A4AH   LINE      CODE     ---       #90
      01007A4CH   LINE      CODE     ---       #91
      01007A4EH   LINE      CODE     ---       #92
      01007A4EH   LINE      CODE     ---       #93
      01007A4EH   LINE      CODE     ---       #96
      ---         BLOCKEND  ---      ---       LVL=0

      0100901DH   BLOCK     CODE     VOID      LVL=0
      ---         BLOCKEND  ---      ---       LVL=0

      01009025H   BLOCK     CODE     ---       LVL=0
      00000006H   SYMBOL    DATA     WORD      log
      01009025H   LINE      CODE     ---       #100
      01009025H   LINE      CODE     ---       #101
LX51 LINKER/LOCATER V4.66.93.0                                                        04/24/2025  12:33:12  PAGE 85


      01009025H   LINE      CODE     ---       #102
      0100903AH   LINE      CODE     ---       #103
      0100903AH   LINE      CODE     ---       #104
      0100903AH   LINE      CODE     ---       #105
      0100903AH   LINE      CODE     ---       #106
      01009044H   LINE      CODE     ---       #107
      01009045H   LINE      CODE     ---       #108
      01009045H   LINE      CODE     ---       #109
      01009045H   LINE      CODE     ---       #110
      01009045H   LINE      CODE     ---       #111
      0100904FH   LINE      CODE     ---       #112
      01009050H   LINE      CODE     ---       #113
      01009050H   LINE      CODE     ---       #114
      01009050H   LINE      CODE     ---       #115
      01009050H   LINE      CODE     ---       #116
      0100905AH   LINE      CODE     ---       #117
      0100905BH   LINE      CODE     ---       #118
      0100905BH   LINE      CODE     ---       #119
      0100905BH   LINE      CODE     ---       #120
      0100905BH   LINE      CODE     ---       #121
      01009065H   LINE      CODE     ---       #122
      01009066H   LINE      CODE     ---       #123
      01009066H   LINE      CODE     ---       #124
      01009066H   LINE      CODE     ---       #125
      01009066H   LINE      CODE     ---       #126
      01009070H   LINE      CODE     ---       #127
      01009070H   LINE      CODE     ---       #128
      01009070H   LINE      CODE     ---       #130
      01009070H   LINE      CODE     ---       #131
      ---         BLOCKEND  ---      ---       LVL=0

      01009110H   BLOCK     CODE     ---       LVL=0
      00000006H   SYMBOL    DATA     WORD      log
      01009110H   LINE      CODE     ---       #134
      01009110H   LINE      CODE     ---       #135
      01009110H   LINE      CODE     ---       #136
      01009125H   LINE      CODE     ---       #137
      01009125H   LINE      CODE     ---       #138
      01009125H   LINE      CODE     ---       #139
      01009125H   LINE      CODE     ---       #140
      0100912FH   LINE      CODE     ---       #141
      01009130H   LINE      CODE     ---       #142
      01009130H   LINE      CODE     ---       #143
      01009130H   LINE      CODE     ---       #144
      01009130H   LINE      CODE     ---       #145
      0100913AH   LINE      CODE     ---       #146
      0100913BH   LINE      CODE     ---       #147
      0100913BH   LINE      CODE     ---       #148
      0100913BH   LINE      CODE     ---       #149
      0100913BH   LINE      CODE     ---       #150
      01009145H   LINE      CODE     ---       #151
      01009146H   LINE      CODE     ---       #152
      01009146H   LINE      CODE     ---       #153
      01009146H   LINE      CODE     ---       #154
      01009146H   LINE      CODE     ---       #155
      01009150H   LINE      CODE     ---       #156
      01009151H   LINE      CODE     ---       #157
      01009151H   LINE      CODE     ---       #158
      01009151H   LINE      CODE     ---       #159
      01009151H   LINE      CODE     ---       #160
      0100915BH   LINE      CODE     ---       #161
      0100915BH   LINE      CODE     ---       #162
      0100915BH   LINE      CODE     ---       #164
      0100915BH   LINE      CODE     ---       #165
      ---         BLOCKEND  ---      ---       LVL=0
LX51 LINKER/LOCATER V4.66.93.0                                                        04/24/2025  12:33:12  PAGE 86



      01009071H   BLOCK     CODE     ---       LVL=0
      01009071H   LINE      CODE     ---       #168
      01009071H   LINE      CODE     ---       #169
      01009071H   LINE      CODE     ---       #170
      0100907BH   LINE      CODE     ---       #171
      0100907BH   LINE      CODE     ---       #172
      0100907EH   LINE      CODE     ---       #173
      01009097H   LINE      CODE     ---       #174
      0100909FH   LINE      CODE     ---       #175
      010090B3H   LINE      CODE     ---       #177
      010090BBH   LINE      CODE     ---       #178
      010090C3H   LINE      CODE     ---       #179
      010090C3H   LINE      CODE     ---       #181
      ---         BLOCKEND  ---      ---       LVL=0

      010082F0H   BLOCK     CODE     ---       LVL=0
      00000006H   SYMBOL    DATA     WORD      L_T
      010082F0H   BLOCK     CODE     NEAR LAB  LVL=1
      0200846DH   SYMBOL    XDATA    FLOAT     L_CM
      ---         BLOCKEND  ---      ---       LVL=1
      010082F0H   LINE      CODE     ---       #188
      010082F0H   LINE      CODE     ---       #189
      010082F0H   LINE      CODE     ---       #193
      01008308H   LINE      CODE     ---       #197
      01008348H   LINE      CODE     ---       #199
      01008351H   LINE      CODE     ---       #202
      01008360H   LINE      CODE     ---       #203
      01008360H   LINE      CODE     ---       #204
      01008360H   LINE      CODE     ---       #205
      01008360H   LINE      CODE     ---       #206
      01008385H   LINE      CODE     ---       #207
      01008385H   LINE      CODE     ---       #208
      01008385H   LINE      CODE     ---       #210
      01008385H   LINE      CODE     ---       #211
      01008385H   LINE      CODE     ---       #212
      0100838EH   LINE      CODE     ---       #214
      0100838EH   LINE      CODE     ---       #215
      0100838EH   LINE      CODE     ---       #216
      0100838EH   LINE      CODE     ---       #218
      ---         BLOCKEND  ---      ---       LVL=0

      0100838FH   BLOCK     CODE     ---       LVL=0
      00000006H   SYMBOL    DATA     WORD      L_T
      0100838FH   BLOCK     CODE     NEAR LAB  LVL=1
      0200846DH   SYMBOL    XDATA    FLOAT     L_CM
      ---         BLOCKEND  ---      ---       LVL=1
      0100838FH   LINE      CODE     ---       #224
      0100838FH   LINE      CODE     ---       #225
      0100838FH   LINE      CODE     ---       #227
      010083A7H   LINE      CODE     ---       #228
      010083E7H   LINE      CODE     ---       #230
      010083F0H   LINE      CODE     ---       #233
      010083FFH   LINE      CODE     ---       #234
      010083FFH   LINE      CODE     ---       #235
      010083FFH   LINE      CODE     ---       #236
      010083FFH   LINE      CODE     ---       #237
      01008424H   LINE      CODE     ---       #238
      01008424H   LINE      CODE     ---       #239
      01008424H   LINE      CODE     ---       #241
      01008424H   LINE      CODE     ---       #242
      01008424H   LINE      CODE     ---       #243
      0100842DH   LINE      CODE     ---       #245
      0100842DH   LINE      CODE     ---       #246
      0100842DH   LINE      CODE     ---       #247
LX51 LINKER/LOCATER V4.66.93.0                                                        04/24/2025  12:33:12  PAGE 87


      0100842DH   LINE      CODE     ---       #248
      ---         BLOCKEND  ---      ---       LVL=0

      0100842EH   BLOCK     CODE     ---       LVL=0
      00000006H   SYMBOL    DATA     WORD      L_T
      0100842EH   BLOCK     CODE     NEAR LAB  LVL=1
      0200846DH   SYMBOL    XDATA    FLOAT     L_CM
      ---         BLOCKEND  ---      ---       LVL=1
      0100842EH   LINE      CODE     ---       #253
      0100842EH   LINE      CODE     ---       #254
      0100842EH   LINE      CODE     ---       #257
      01008446H   LINE      CODE     ---       #259
      01008486H   LINE      CODE     ---       #261
      0100848FH   LINE      CODE     ---       #264
      0100849EH   LINE      CODE     ---       #265
      0100849EH   LINE      CODE     ---       #266
      0100849EH   LINE      CODE     ---       #267
      0100849EH   LINE      CODE     ---       #268
      010084C3H   LINE      CODE     ---       #269
      010084C3H   LINE      CODE     ---       #270
      010084C3H   LINE      CODE     ---       #272
      010084C3H   LINE      CODE     ---       #273
      010084C3H   LINE      CODE     ---       #274
      010084CCH   LINE      CODE     ---       #276
      010084CCH   LINE      CODE     ---       #277
      010084CCH   LINE      CODE     ---       #278
      010084CCH   LINE      CODE     ---       #279
      ---         BLOCKEND  ---      ---       LVL=0

      010081B0H   BLOCK     CODE     ---       LVL=0
      010081B0H   LINE      CODE     ---       #316
      010081B0H   LINE      CODE     ---       #317
      010081B0H   LINE      CODE     ---       #318
      010081EFH   LINE      CODE     ---       #319
      010081FDH   LINE      CODE     ---       #320
      0100821BH   LINE      CODE     ---       #321
      01008236H   LINE      CODE     ---       #322
      01008238H   LINE      CODE     ---       #323
      01008247H   LINE      CODE     ---       #324
      01008247H   LINE      CODE     ---       #325
      0100824AH   LINE      CODE     ---       #326
      01008250H   LINE      CODE     ---       #328
      01008250H   LINE      CODE     ---       #329
      ---         BLOCKEND  ---      ---       LVL=0

      01008E0DH   BLOCK     CODE     ---       LVL=0
      01008E0DH   LINE      CODE     ---       #331
      01008E0DH   LINE      CODE     ---       #332
      01008E0DH   LINE      CODE     ---       #333
      01008E0FH   LINE      CODE     ---       #334
      01008E11H   LINE      CODE     ---       #335
      01008E13H   LINE      CODE     ---       #337
      01008E1BH   LINE      CODE     ---       #338
      01008E1DH   LINE      CODE     ---       #339
      01008E24H   LINE      CODE     ---       #340
      01008E2AH   LINE      CODE     ---       #341
      01008E34H   LINE      CODE     ---       #342
      01008E3EH   LINE      CODE     ---       #343
      01008E45H   LINE      CODE     ---       #344
      01008E4BH   LINE      CODE     ---       #346
      01008E52H   LINE      CODE     ---       #349
      01008E54H   LINE      CODE     ---       #350
      01008E5BH   LINE      CODE     ---       #351
      01008E61H   LINE      CODE     ---       #358
      01008E67H   LINE      CODE     ---       #359
LX51 LINKER/LOCATER V4.66.93.0                                                        04/24/2025  12:33:12  PAGE 88


      01008E6BH   LINE      CODE     ---       #360
      ---         BLOCKEND  ---      ---       LVL=0

      010093D7H   BLOCK     CODE     ---       LVL=0
      010093D7H   LINE      CODE     ---       #363
      010093D7H   LINE      CODE     ---       #364
      010093D7H   LINE      CODE     ---       #365
      010093E3H   LINE      CODE     ---       #366
      010093E3H   LINE      CODE     ---       #370
      010093E6H   LINE      CODE     ---       #371
      010093FFH   LINE      CODE     ---       #372
      01009407H   LINE      CODE     ---       #373
      01009407H   LINE      CODE     ---       #374
      ---         BLOCKEND  ---      ---       LVL=0

      ---         MODULE    ---      ---       SUANFA
      00000022H.1 PUBLIC    BIT      BIT       shuju_change
      02008591H   PUBLIC    XDATA    WORD      L_3FLAG
      0200858FH   PUBLIC    XDATA    WORD      attend_sp_sec_1
      0200858DH   PUBLIC    XDATA    WORD      attend_sp_sec_0
      0200858BH   PUBLIC    XDATA    WORD      L_FINISH
      02008579H   PUBLIC    XDATA    ---       jiaoyan
      02008577H   PUBLIC    XDATA    WORD      T_06S
      02008573H   PUBLIC    XDATA    FLOAT     average
      02008571H   PUBLIC    XDATA    WORD      attend_sp_1
      0200856FH   PUBLIC    XDATA    WORD      attend_sp_0
      0200856BH   PUBLIC    XDATA    FLOAT     sum
      02008567H   PUBLIC    XDATA    FLOAT     standard
      02008565H   PUBLIC    XDATA    WORD      attend_sp_error
      02008551H   PUBLIC    XDATA    ---       L_s2
      00000022H.0 PUBLIC    BIT      BIT       L_ARRAY_FINISH
      0200854DH   PUBLIC    XDATA    FLOAT     var
      02008549H   PUBLIC    XDATA    FLOAT     change_P_mW
      02008548H   PUBLIC    XDATA    BYTE      start_first_flag
      02008544H   PUBLIC    XDATA    FLOAT     change_P_mW_doing
      02008530H   PUBLIC    XDATA    ---       L_suanfa
      0200852CH   PUBLIC    XDATA    FLOAT     change_P_mW_First
      00000021H.7 PUBLIC    BIT      BIT       error_flag
      02008524H   PUBLIC    XDATA    ---       array
      02008510H   PUBLIC    XDATA    ---       L_q
      0200850EH   PUBLIC    XDATA    WORD      L_i
      0200850CH   PUBLIC    XDATA    INT       length
      0200850AH   PUBLIC    XDATA    ---       exit_sp
      02008508H   PUBLIC    XDATA    WORD      attend_sp_min_1
      02008506H   PUBLIC    XDATA    WORD      attend_sp_min_0
      01007E7DH   PUBLIC    CODE     ---       yichu_set
      01007B0AH   PUBLIC    CODE     ---       yichu_run
      01007C74H   PUBLIC    CODE     ---       _mode4_maichong
      01006774H   PUBLIC    CODE     ---       _maichong_suanfa
      01006665H   PUBLIC    CODE     ---       LED_jiguang_Check
      01002BFAH   PUBLIC    CODE     ---       _L_mm_TO_P_mw
      010094BDH   PUBLIC    CODE     ---       shuju_bianliang_chongzhi
      01004A37H   PUBLIC    CODE     ---       shujuchuli
      01004F04H   PUBLIC    CODE     ---       TIM0_suanfa_isr
      00000098H.3 SFRSYM    DATA     BIT       TB80
      000000F1H   SFRSYM    DATA     BYTE      ADR_H
      00000080H   SFRSYM    DATA     BYTE      P0
      00000090H   SFRSYM    DATA     BYTE      P1
      000000A0H   SFRSYM    DATA     BYTE      P2
      000000B0H   SFRSYM    DATA     BYTE      P3
      000000D0H.6 SFRSYM    DATA     BIT       AC
      000000F3H   SFRSYM    DATA     BYTE      ADR_L
      00000094H   SFRSYM    DATA     BYTE      PAGESEL
      000000F2H   SFRSYM    DATA     BYTE      ADR_M
      000000A8H.7 SFRSYM    DATA     BIT       EA
LX51 LINKER/LOCATER V4.66.93.0                                                        04/24/2025  12:33:12  PAGE 89


      000000A0H.5 SFRSYM    DATA     BIT       JIGUANG
      00000090H.7 SFRSYM    DATA     BIT       LED_R
      000000F8H   SFRSYM    DATA     BYTE      RAMMODE
      000000B7H   SFRSYM    DATA     BYTE      P0MDOUT
      000000A8H   SFRSYM    DATA     BYTE      IEN0
      000000BCH   SFRSYM    DATA     BYTE      P1MDOUT
      000000B8H   SFRSYM    DATA     BYTE      IEN1
      000000BDH   SFRSYM    DATA     BYTE      P2MDOUT
      000000F8H.0 SFRSYM    DATA     BIT       APP_DATA0
      0000009AH   SFRSYM    DATA     BYTE      IEN2
      000000BEH   SFRSYM    DATA     BYTE      P3MDOUT
      000000F8H.1 SFRSYM    DATA     BIT       APP_DATA1
      000000D1H   SFRSYM    DATA     BYTE      IEN3
      00000080H.0 SFRSYM    DATA     BIT       P0_0
      000000F8H.2 SFRSYM    DATA     BIT       APP_DATA2
      00000090H.0 SFRSYM    DATA     BIT       P1_0
      000000F8H.3 SFRSYM    DATA     BIT       APP_DATA3
      00000090H.1 SFRSYM    DATA     BIT       P1_1
      000000F8H.4 SFRSYM    DATA     BIT       APP_ACK
      000000F4H   SFRSYM    DATA     BYTE      ADR_INC
      000000B0H.1 SFRSYM    DATA     BIT       P3_1
      00000098H.4 SFRSYM    DATA     BIT       REN0
      000000B8H.1 SFRSYM    DATA     BIT       ECAN
      000000D0H.7 SFRSYM    DATA     BIT       CY
      000000B8H.3 SFRSYM    DATA     BIT       ES2R
      000000B8H.5 SFRSYM    DATA     BIT       ES3R
      000000B8H.2 SFRSYM    DATA     BIT       ES2T
      000000B8H.4 SFRSYM    DATA     BIT       ES3T
      000000C8H.7 SFRSYM    DATA     BIT       TSF2
      000000B0H.3 SFRSYM    DATA     BIT       RTC_SDA
      00000081H   SFRSYM    DATA     BYTE      SP
      000000D0H.2 SFRSYM    DATA     BIT       OV
      00000095H   SFRSYM    DATA     BYTE      D_PAGESEL
      00000090H.5 SFRSYM    DATA     BIT       UV
      000000F8H.7 SFRSYM    DATA     BIT       APP_REQ
      000000B0H.2 SFRSYM    DATA     BIT       RTC_SCL
      000000BFH   SFRSYM    DATA     BYTE      IRCON2
      000000BAH   SFRSYM    DATA     BYTE      SREL0H
      000000BBH   SFRSYM    DATA     BYTE      SREL1H
      00000087H   SFRSYM    DATA     BYTE      PCON
      000000AAH   SFRSYM    DATA     BYTE      SREL0L
      000000F9H   SFRSYM    DATA     BYTE      PORTDRV
      0000009DH   SFRSYM    DATA     BYTE      SREL1L
      00000089H   SFRSYM    DATA     BYTE      TMOD
      00000088H   SFRSYM    DATA     BYTE      TCON
      00000097H   SFRSYM    DATA     BYTE      SCON2R
      000000FFH   SFRSYM    DATA     BYTE      EXDATA
      000000ABH   SFRSYM    DATA     BYTE      SCON3R
      000000D9H   SFRSYM    DATA     BYTE      BODE2_DIV_H
      000000AEH   SFRSYM    DATA     BYTE      BODE3_DIV_H
      00000096H   SFRSYM    DATA     BYTE      SCON2T
      000000A7H   SFRSYM    DATA     BYTE      SCON3T
      000000E7H   SFRSYM    DATA     BYTE      BODE2_DIV_L
      00000088H.1 SFRSYM    DATA     BIT       IE0
      000000AFH   SFRSYM    DATA     BYTE      BODE3_DIV_L
      00000088H.3 SFRSYM    DATA     BIT       IE1
      000000C9H   SFRSYM    DATA     BYTE      MUX_SEL
      020086CBH   SFRSYM    XDATA    WORD      B
      000000E0H   SFRSYM    DATA     BYTE      ACC
      000000A8H.4 SFRSYM    DATA     BIT       ES0
      0000008FH   SFRSYM    DATA     BYTE      CAN_CR
      000000A8H.1 SFRSYM    DATA     BIT       ET0
      000000A9H   SFRSYM    DATA     BYTE      IP0
      000000A8H.3 SFRSYM    DATA     BIT       ET1
      00000088H.5 SFRSYM    DATA     BIT       TF0
LX51 LINKER/LOCATER V4.66.93.0                                                        04/24/2025  12:33:12  PAGE 90


      000000B9H   SFRSYM    DATA     BYTE      IP1
      000000A8H.5 SFRSYM    DATA     BIT       ET2
      00000098H.0 SFRSYM    DATA     BIT       RI0
      00000088H.7 SFRSYM    DATA     BIT       TF1
      000000FDH   SFRSYM    DATA     BYTE      DATA0
      000000C0H.6 SFRSYM    DATA     BIT       TF2
      000000E8H   SFRSYM    DATA     BYTE      CAN_ET
      000000FCH   SFRSYM    DATA     BYTE      DATA1
      0000008CH   SFRSYM    DATA     BYTE      TH0
      000000A8H.0 SFRSYM    DATA     BIT       EX0
      00000098H.1 SFRSYM    DATA     BIT       TI0
      00000088H.0 SFRSYM    DATA     BIT       IT0
      000000FBH   SFRSYM    DATA     BYTE      DATA2
      0000008DH   SFRSYM    DATA     BYTE      TH1
      000000A8H.2 SFRSYM    DATA     BIT       EX1
      00000091H   SFRSYM    DATA     BYTE      CAN_IR
      000000CDH   SFRSYM    DATA     BYTE      TH2
      00000088H.2 SFRSYM    DATA     BIT       IT1
      000000FAH   SFRSYM    DATA     BYTE      DATA3
      000000D0H.0 SFRSYM    DATA     BIT       P
      00000098H.7 SFRSYM    DATA     BIT       SM0
      0000008AH   SFRSYM    DATA     BYTE      TL0
      00000098H.6 SFRSYM    DATA     BIT       SM1
      0000008BH   SFRSYM    DATA     BYTE      TL1
      00000098H.5 SFRSYM    DATA     BIT       SM2
      000000CCH   SFRSYM    DATA     BYTE      TL2
      000000A0H.7 SFRSYM    DATA     BIT       UV_St
      000000D0H.3 SFRSYM    DATA     BIT       RS0
      000000F8H.6 SFRSYM    DATA     BIT       APP_EN
      000000D0H.4 SFRSYM    DATA     BIT       RS1
      00000088H.4 SFRSYM    DATA     BIT       TR0
      00000088H.6 SFRSYM    DATA     BIT       TR1
      00000093H   SFRSYM    DATA     BYTE      DPC
      000000C8H.0 SFRSYM    DATA     BIT       TR2
      000000E5H   SFRSYM    DATA     BYTE      MAC_MODE
      00000083H   SFRSYM    DATA     BYTE      DPH
      00000082H   SFRSYM    DATA     BYTE      DPL
      00000099H   SFRSYM    DATA     BYTE      SBUF0
      0000009CH   SFRSYM    DATA     BYTE      SBUF1
      00000098H   SFRSYM    DATA     BYTE      SCON0
      0000009BH   SFRSYM    DATA     BYTE      SCON1
      000000D8H   SFRSYM    DATA     BYTE      ADCON
      000000C8H   SFRSYM    DATA     BYTE      T2CON
      000000E6H   SFRSYM    DATA     BYTE      DIV_MODE
      000000F8H.5 SFRSYM    DATA     BIT       APP_RW
      000000CBH   SFRSYM    DATA     BYTE      TRL2H
      0000009FH   SFRSYM    DATA     BYTE      SBUF2_RX
      000000ADH   SFRSYM    DATA     BYTE      SBUF3_RX
      0000008EH   SFRSYM    DATA     BYTE      CKCON
      0000009EH   SFRSYM    DATA     BYTE      SBUF2_TX
      000000ACH   SFRSYM    DATA     BYTE      SBUF3_TX
      000000CAH   SFRSYM    DATA     BYTE      TRL2L
      000000D0H.5 SFRSYM    DATA     BIT       F0
      000000FEH   SFRSYM    DATA     BYTE      EXADR
      000000D0H.1 SFRSYM    DATA     BIT       F1
      000000A0H.3 SFRSYM    DATA     BIT       LED_B
      000000D0H   SFRSYM    DATA     BYTE      PSW
      000000A0H.1 SFRSYM    DATA     BIT       LED_G
      000000C0H   SFRSYM    DATA     BYTE      IRCON
      00000098H.2 SFRSYM    DATA     BIT       RB80

      01004F04H   BLOCK     CODE     ---       LVL=0
      01004F04H   LINE      CODE     ---       #49
      01004F04H   LINE      CODE     ---       #50
      01004F04H   LINE      CODE     ---       #51
LX51 LINKER/LOCATER V4.66.93.0                                                        04/24/2025  12:33:12  PAGE 91


      01004F06H   LINE      CODE     ---       #52
      01004F08H   LINE      CODE     ---       #53
      01004F2DH   LINE      CODE     ---       #55
      01004F3FH   LINE      CODE     ---       #56
      01004F3FH   LINE      CODE     ---       #58
      01004F59H   LINE      CODE     ---       #59
      01004F59H   LINE      CODE     ---       #60
      01004F59H   LINE      CODE     ---       #61
      01004F59H   LINE      CODE     ---       #62
      01004F70H   LINE      CODE     ---       #63
      01004F87H   LINE      CODE     ---       #64
      01004F8AH   LINE      CODE     ---       #65
      01004F8AH   LINE      CODE     ---       #66
      01004F8CH   LINE      CODE     ---       #67
      01004F8CH   LINE      CODE     ---       #68
      01004F8CH   LINE      CODE     ---       #69
      01004F8CH   LINE      CODE     ---       #70
      01004FA3H   LINE      CODE     ---       #71
      01004FBAH   LINE      CODE     ---       #72
      01004FBDH   LINE      CODE     ---       #73
      01004FBDH   LINE      CODE     ---       #74
      01004FBFH   LINE      CODE     ---       #75
      01004FBFH   LINE      CODE     ---       #76
      01004FBFH   LINE      CODE     ---       #77
      01004FBFH   LINE      CODE     ---       #78
      01004FD6H   LINE      CODE     ---       #79
      01004FEDH   LINE      CODE     ---       #80
      01005004H   LINE      CODE     ---       #81
      01005006H   LINE      CODE     ---       #82
      01005008H   LINE      CODE     ---       #83
      01005008H   LINE      CODE     ---       #84
      01005008H   LINE      CODE     ---       #85
      01005008H   LINE      CODE     ---       #86
      0100500AH   LINE      CODE     ---       #87
      01005021H   LINE      CODE     ---       #88
      01005038H   LINE      CODE     ---       #89
      0100504FH   LINE      CODE     ---       #90
      0100504FH   LINE      CODE     ---       #91
      0100504FH   LINE      CODE     ---       #92
      0100504FH   LINE      CODE     ---       #93
      0100504FH   LINE      CODE     ---       #95
      0100504FH   LINE      CODE     ---       #96
      0100504FH   LINE      CODE     ---       #98
      01005052H   LINE      CODE     ---       #99
      01005052H   LINE      CODE     ---       #102
      01005066H   LINE      CODE     ---       #103
      01005082H   LINE      CODE     ---       #106
      ---         BLOCKEND  ---      ---       LVL=0

      01004A37H   BLOCK     CODE     ---       LVL=0
      01004A37H   BLOCK     CODE     NEAR LAB  LVL=1
      0200883CH   SYMBOL    XDATA    INT       a
      0200883EH   SYMBOL    XDATA    INT       i
      02008840H   SYMBOL    XDATA    INT       j
      02008842H   SYMBOL    XDATA    FLOAT     average_jiaoyan
      02008846H   SYMBOL    XDATA    FLOAT     var_jiaoyan
      ---         BLOCKEND  ---      ---       LVL=1
      01004A37H   LINE      CODE     ---       #109
      01004A37H   LINE      CODE     ---       #110
      01004A37H   LINE      CODE     ---       #111
      01004A3EH   LINE      CODE     ---       #112
      01004A42H   LINE      CODE     ---       #113
      01004A46H   LINE      CODE     ---       #114
      01004A4EH   LINE      CODE     ---       #115
      01004A58H   LINE      CODE     ---       #117
LX51 LINKER/LOCATER V4.66.93.0                                                        04/24/2025  12:33:12  PAGE 92


      01004A5EH   LINE      CODE     ---       #118
      01004A5EH   LINE      CODE     ---       #120
      01004A65H   LINE      CODE     ---       #121
      01004A65H   LINE      CODE     ---       #122
      01004AACH   LINE      CODE     ---       #123
      01004AC6H   LINE      CODE     ---       #125
      01004ACFH   LINE      CODE     ---       #126
      01004AFAH   LINE      CODE     ---       #128
      01004B01H   LINE      CODE     ---       #129
      01004B01H   LINE      CODE     ---       #130
      01004B9DH   LINE      CODE     ---       #131
      01004BBFH   LINE      CODE     ---       #136
      01004BDBH   LINE      CODE     ---       #137
      01004BDBH   LINE      CODE     ---       #138
      01004BDDH   LINE      CODE     ---       #149
      01004BDFH   LINE      CODE     ---       #150
      01004BE4H   LINE      CODE     ---       #153
      01004BE4H   LINE      CODE     ---       #165
      01004BE4H   LINE      CODE     ---       #176
      01004BE6H   LINE      CODE     ---       #178
      ---         BLOCKEND  ---      ---       LVL=0

      010094BDH   BLOCK     CODE     ---       LVL=0
      010094BDH   LINE      CODE     ---       #179
      010094BDH   LINE      CODE     ---       #180
      010094BDH   LINE      CODE     ---       #181
      010094C7H   LINE      CODE     ---       #182
      010094D1H   LINE      CODE     ---       #183
      010094DBH   LINE      CODE     ---       #184
      010094E7H   LINE      CODE     ---       #185
      ---         BLOCKEND  ---      ---       LVL=0

      01002BFAH   BLOCK     CODE     ---       LVL=0
      00000002H   SYMBOL    DATA     WORD      L_mm_TO_P
      01002BFEH   BLOCK     CODE     NEAR LAB  LVL=1
      020083BBH   SYMBOL    XDATA    WORD      L_mm_TO_P_mw_FLAG
      020083BDH   SYMBOL    XDATA    FLOAT     BEISHU
      020083C1H   SYMBOL    XDATA    FLOAT     L_CM
      020083C5H   SYMBOL    XDATA    FLOAT     mihanshu
      ---         BLOCKEND  ---      ---       LVL=1
      01002BFAH   LINE      CODE     ---       #284
      01002BFEH   LINE      CODE     ---       #285
      01002BFEH   LINE      CODE     ---       #286
      01002C05H   LINE      CODE     ---       #287
      01002C0DH   LINE      CODE     ---       #294
      01002C17H   LINE      CODE     ---       #295
      01002C30H   LINE      CODE     ---       #297
      01002C71H   LINE      CODE     ---       #298
      01002CB5H   LINE      CODE     ---       #299
      01002CF8H   LINE      CODE     ---       #300
      01002D3BH   LINE      CODE     ---       #301
      01002D44H   LINE      CODE     ---       #304
      01002D67H   LINE      CODE     ---       #305
      01002D67H   LINE      CODE     ---       #306
      01002D67H   LINE      CODE     ---       #307
      01002D67H   LINE      CODE     ---       #311
      01002D88H   LINE      CODE     ---       #312
      01002D8EH   LINE      CODE     ---       #313
      01002D8EH   LINE      CODE     ---       #314
      01002D90H   LINE      CODE     ---       #315
      01002D90H   LINE      CODE     ---       #318
      01002D90H   LINE      CODE     ---       #319
      01002D90H   LINE      CODE     ---       #320
      01002DB1H   LINE      CODE     ---       #321
      01002DB7H   LINE      CODE     ---       #322
LX51 LINKER/LOCATER V4.66.93.0                                                        04/24/2025  12:33:12  PAGE 93


      01002DB7H   LINE      CODE     ---       #323
      01002DB9H   LINE      CODE     ---       #324
      01002DB9H   LINE      CODE     ---       #326
      01002DB9H   LINE      CODE     ---       #327
      01002DB9H   LINE      CODE     ---       #328
      01002DDAH   LINE      CODE     ---       #329
      01002DE2H   LINE      CODE     ---       #330
      01002DE2H   LINE      CODE     ---       #331
      01002DE4H   LINE      CODE     ---       #332
      01002DE4H   LINE      CODE     ---       #334
      01002DE4H   LINE      CODE     ---       #335
      01002DE4H   LINE      CODE     ---       #336
      01002E05H   LINE      CODE     ---       #337
      01002E24H   LINE      CODE     ---       #338
      01002E38H   LINE      CODE     ---       #339
      01002E3AH   LINE      CODE     ---       #340
      01002E3AH   LINE      CODE     ---       #343
      01002E3AH   LINE      CODE     ---       #344
      01002E3AH   LINE      CODE     ---       #345
      01002E43H   LINE      CODE     ---       #346
      01002E43H   LINE      CODE     ---       #347
      01002E43H   LINE      CODE     ---       #348
      01002E7AH   LINE      CODE     ---       #349
      01002E98H   LINE      CODE     ---       #352
      01002EAFH   LINE      CODE     ---       #353
      ---         BLOCKEND  ---      ---       LVL=0

      01006665H   BLOCK     CODE     ---       LVL=0
      01006665H   BLOCK     CODE     NEAR LAB  LVL=1
      020083BBH   SYMBOL    XDATA    ---       ui
      02008502H   SYMBOL    XDATA    ---       work_uv
      02008504H   SYMBOL    XDATA    ---       work_start
      00000021H.6 SYMBOL    BIT      BIT       shandong_flag
      ---         BLOCKEND  ---      ---       LVL=1
      01006665H   LINE      CODE     ---       #369
      01006665H   LINE      CODE     ---       #370
      01006665H   LINE      CODE     ---       #376
      01006667H   LINE      CODE     ---       #377
      01006680H   LINE      CODE     ---       #378
      01006680H   LINE      CODE     ---       #380
      01006696H   LINE      CODE     ---       #381
      010066AEH   LINE      CODE     ---       #382
      010066B9H   LINE      CODE     ---       #383
      010066B9H   LINE      CODE     ---       #384
      010066BEH   LINE      CODE     ---       #385
      010066D3H   LINE      CODE     ---       #386
      010066D7H   LINE      CODE     ---       #387
      010066D9H   LINE      CODE     ---       #388
      010066F0H   LINE      CODE     ---       #389
      0100670EH   LINE      CODE     ---       #390
      0100671CH   LINE      CODE     ---       #391
      0100671CH   LINE      CODE     ---       #392
      0100671FH   LINE      CODE     ---       #393
      01006721H   LINE      CODE     ---       #394
      0100672EH   LINE      CODE     ---       #395
      01006730H   LINE      CODE     ---       #396
      0100674CH   LINE      CODE     ---       #397
      0100674CH   LINE      CODE     ---       #409
      01006761H   LINE      CODE     ---       #410
      01006761H   LINE      CODE     ---       #411
      01006763H   LINE      CODE     ---       #412
      01006767H   LINE      CODE     ---       #414
      01006769H   LINE      CODE     ---       #415
      01006771H   LINE      CODE     ---       #416
      01006773H   LINE      CODE     ---       #417
LX51 LINKER/LOCATER V4.66.93.0                                                        04/24/2025  12:33:12  PAGE 94


      ---         BLOCKEND  ---      ---       LVL=0

      01006774H   BLOCK     CODE     ---       LVL=0
      0200846DH   SYMBOL    XDATA    WORD      T
      00000002H   SYMBOL    DATA     BYTE      on
      00000003H   SYMBOL    DATA     BYTE      off
      0100677EH   BLOCK     CODE     NEAR LAB  LVL=1
      0200846FH   SYMBOL    XDATA    WORD      T2
      02008471H   SYMBOL    XDATA    WORD      T1
      02008473H   SYMBOL    XDATA    WORD      T3
      ---         BLOCKEND  ---      ---       LVL=1
      01006774H   LINE      CODE     ---       #426
      0100677EH   LINE      CODE     ---       #427
      0100677EH   LINE      CODE     ---       #432
      01006794H   LINE      CODE     ---       #433
      01006794H   LINE      CODE     ---       #434
      010067A9H   LINE      CODE     ---       #435
      010067C0H   LINE      CODE     ---       #436
      010067CAH   LINE      CODE     ---       #437
      010067CAH   LINE      CODE     ---       #438
      010067E5H   LINE      CODE     ---       #439
      01006804H   LINE      CODE     ---       #440
      01006817H   LINE      CODE     ---       #446
      01006819H   LINE      CODE     ---       #447
      01006819H   LINE      CODE     ---       #449
      01006819H   LINE      CODE     ---       #452
      0100683AH   LINE      CODE     ---       #453
      01006868H   LINE      CODE     ---       #455
      01006877H   LINE      CODE     ---       #459
      01006879H   LINE      CODE     ---       #460
      01006879H   LINE      CODE     ---       #462
      01006879H   LINE      CODE     ---       #463
      01006881H   LINE      CODE     ---       #465
      ---         BLOCKEND  ---      ---       LVL=0

      01007C74H   BLOCK     CODE     ---       LVL=0
      020083C3H   SYMBOL    XDATA    WORD      T
      020083C5H   SYMBOL    XDATA    WORD      on
      020083C7H   SYMBOL    XDATA    WORD      off
      01007C8CH   BLOCK     CODE     NEAR LAB  LVL=1
      00000002H   SYMBOL    DATA     WORD      t1
      020083C9H   SYMBOL    XDATA    WORD      t2
      ---         BLOCKEND  ---      ---       LVL=1
      01007C74H   LINE      CODE     ---       #468
      01007C8CH   LINE      CODE     ---       #469
      01007C8CH   LINE      CODE     ---       #474
      01007CA5H   LINE      CODE     ---       #476
      01007CA9H   LINE      CODE     ---       #477
      01007CA9H   LINE      CODE     ---       #478
      01007CBEH   LINE      CODE     ---       #479
      01007CC3H   LINE      CODE     ---       #480
      01007CC3H   LINE      CODE     ---       #482
      01007CC3H   LINE      CODE     ---       #483
      01007CEDH   LINE      CODE     ---       #484
      01007D0EH   LINE      CODE     ---       #485
      01007D24H   LINE      CODE     ---       #486
      01007D24H   LINE      CODE     ---       #487
      ---         BLOCKEND  ---      ---       LVL=0

      01007B0AH   BLOCK     CODE     ---       LVL=0
      01007B0AH   LINE      CODE     ---       #491
      01007B0AH   LINE      CODE     ---       #492
      01007B0AH   LINE      CODE     ---       #494
      01007B10H   LINE      CODE     ---       #495
      01007B10H   LINE      CODE     ---       #496
LX51 LINKER/LOCATER V4.66.93.0                                                        04/24/2025  12:33:12  PAGE 95


      01007B12H   LINE      CODE     ---       #497
      01007B28H   LINE      CODE     ---       #498
      01007B3EH   LINE      CODE     ---       #499
      01007B54H   LINE      CODE     ---       #501
      01007B6AH   LINE      CODE     ---       #502
      01007B80H   LINE      CODE     ---       #503
      01007B96H   LINE      CODE     ---       #505
      01007BA9H   LINE      CODE     ---       #506
      01007BABH   LINE      CODE     ---       #509
      01007BC1H   LINE      CODE     ---       #511
      ---         BLOCKEND  ---      ---       LVL=0

      01007E7DH   BLOCK     CODE     ---       LVL=0
      01007E7DH   LINE      CODE     ---       #513
      01007E7DH   LINE      CODE     ---       #514
      01007E7DH   LINE      CODE     ---       #516
      01007E89H   LINE      CODE     ---       #517
      01007E89H   LINE      CODE     ---       #518
      01007E8BH   LINE      CODE     ---       #519
      01007EA1H   LINE      CODE     ---       #520
      01007EB7H   LINE      CODE     ---       #521
      01007ECDH   LINE      CODE     ---       #523
      01007EE3H   LINE      CODE     ---       #524
      01007EF9H   LINE      CODE     ---       #525
      01007F0FH   LINE      CODE     ---       #527
      01007F25H   LINE      CODE     ---       #528
      01007F25H   LINE      CODE     ---       #529
      ---         BLOCKEND  ---      ---       LVL=0

      ---         MODULE    ---      ---       RTC_SYS
      00000023H.1 PUBLIC    BIT      BIT       RTC_Flog
      0200884DH   PUBLIC    XDATA    WORD      SysTick_RTC
      01008EC8H   PUBLIC    CODE     ---       _Write_Dgus
      010091F0H   PUBLIC    CODE     ---       _Read_Dgus
      00000098H.3 SFRSYM    DATA     BIT       TB80
      000000F1H   SFRSYM    DATA     BYTE      ADR_H
      00000080H   SFRSYM    DATA     BYTE      P0
      00000090H   SFRSYM    DATA     BYTE      P1
      000000A0H   SFRSYM    DATA     BYTE      P2
      000000B0H   SFRSYM    DATA     BYTE      P3
      000000D0H.6 SFRSYM    DATA     BIT       AC
      000000F3H   SFRSYM    DATA     BYTE      ADR_L
      00000094H   SFRSYM    DATA     BYTE      PAGESEL
      000000F2H   SFRSYM    DATA     BYTE      ADR_M
      000000A8H.7 SFRSYM    DATA     BIT       EA
      000000F8H   SFRSYM    DATA     BYTE      RAMMODE
      000000B7H   SFRSYM    DATA     BYTE      P0MDOUT
      000000A8H   SFRSYM    DATA     BYTE      IEN0
      000000BCH   SFRSYM    DATA     BYTE      P1MDOUT
      000000B8H   SFRSYM    DATA     BYTE      IEN1
      000000BDH   SFRSYM    DATA     BYTE      P2MDOUT
      000000F8H.0 SFRSYM    DATA     BIT       APP_DATA0
      0000009AH   SFRSYM    DATA     BYTE      IEN2
      000000BEH   SFRSYM    DATA     BYTE      P3MDOUT
      000000F8H.1 SFRSYM    DATA     BIT       APP_DATA1
      000000D1H   SFRSYM    DATA     BYTE      IEN3
      00000080H.0 SFRSYM    DATA     BIT       P0_0
      000000F8H.2 SFRSYM    DATA     BIT       APP_DATA2
      00000090H.0 SFRSYM    DATA     BIT       P1_0
      000000F8H.3 SFRSYM    DATA     BIT       APP_DATA3
      00000090H.1 SFRSYM    DATA     BIT       P1_1
      000000F8H.4 SFRSYM    DATA     BIT       APP_ACK
      000000F4H   SFRSYM    DATA     BYTE      ADR_INC
      000000B0H.1 SFRSYM    DATA     BIT       P3_1
      00000098H.4 SFRSYM    DATA     BIT       REN0
LX51 LINKER/LOCATER V4.66.93.0                                                        04/24/2025  12:33:12  PAGE 96


      000000B8H.1 SFRSYM    DATA     BIT       ECAN
      000000D0H.7 SFRSYM    DATA     BIT       CY
      000000B8H.3 SFRSYM    DATA     BIT       ES2R
      000000B8H.5 SFRSYM    DATA     BIT       ES3R
      000000B8H.2 SFRSYM    DATA     BIT       ES2T
      000000B8H.4 SFRSYM    DATA     BIT       ES3T
      000000C8H.7 SFRSYM    DATA     BIT       TSF2
      000000B0H.3 SFRSYM    DATA     BIT       RTC_SDA
      00000081H   SFRSYM    DATA     BYTE      SP
      000000D0H.2 SFRSYM    DATA     BIT       OV
      00000095H   SFRSYM    DATA     BYTE      D_PAGESEL
      000000F8H.7 SFRSYM    DATA     BIT       APP_REQ
      000000B0H.2 SFRSYM    DATA     BIT       RTC_SCL
      000000BFH   SFRSYM    DATA     BYTE      IRCON2
      000000BAH   SFRSYM    DATA     BYTE      SREL0H
      000000BBH   SFRSYM    DATA     BYTE      SREL1H
      00000087H   SFRSYM    DATA     BYTE      PCON
      000000AAH   SFRSYM    DATA     BYTE      SREL0L
      000000F9H   SFRSYM    DATA     BYTE      PORTDRV
      0000009DH   SFRSYM    DATA     BYTE      SREL1L
      00000089H   SFRSYM    DATA     BYTE      TMOD
      00000088H   SFRSYM    DATA     BYTE      TCON
      00000097H   SFRSYM    DATA     BYTE      SCON2R
      000000FFH   SFRSYM    DATA     BYTE      EXDATA
      000000ABH   SFRSYM    DATA     BYTE      SCON3R
      000000D9H   SFRSYM    DATA     BYTE      BODE2_DIV_H
      000000AEH   SFRSYM    DATA     BYTE      BODE3_DIV_H
      00000096H   SFRSYM    DATA     BYTE      SCON2T
      000000A7H   SFRSYM    DATA     BYTE      SCON3T
      000000E7H   SFRSYM    DATA     BYTE      BODE2_DIV_L
      00000088H.1 SFRSYM    DATA     BIT       IE0
      000000AFH   SFRSYM    DATA     BYTE      BODE3_DIV_L
      00000088H.3 SFRSYM    DATA     BIT       IE1
      000000C9H   SFRSYM    DATA     BYTE      MUX_SEL
      020086CBH   SFRSYM    XDATA    WORD      B
      000000E0H   SFRSYM    DATA     BYTE      ACC
      000000A8H.4 SFRSYM    DATA     BIT       ES0
      0000008FH   SFRSYM    DATA     BYTE      CAN_CR
      000000A8H.1 SFRSYM    DATA     BIT       ET0
      000000A9H   SFRSYM    DATA     BYTE      IP0
      000000A8H.3 SFRSYM    DATA     BIT       ET1
      00000088H.5 SFRSYM    DATA     BIT       TF0
      000000B9H   SFRSYM    DATA     BYTE      IP1
      000000A8H.5 SFRSYM    DATA     BIT       ET2
      00000098H.0 SFRSYM    DATA     BIT       RI0
      00000088H.7 SFRSYM    DATA     BIT       TF1
      000000FDH   SFRSYM    DATA     BYTE      DATA0
      000000C0H.6 SFRSYM    DATA     BIT       TF2
      000000E8H   SFRSYM    DATA     BYTE      CAN_ET
      000000FCH   SFRSYM    DATA     BYTE      DATA1
      0000008CH   SFRSYM    DATA     BYTE      TH0
      000000A8H.0 SFRSYM    DATA     BIT       EX0
      00000098H.1 SFRSYM    DATA     BIT       TI0
      00000088H.0 SFRSYM    DATA     BIT       IT0
      000000FBH   SFRSYM    DATA     BYTE      DATA2
      0000008DH   SFRSYM    DATA     BYTE      TH1
      000000A8H.2 SFRSYM    DATA     BIT       EX1
      00000091H   SFRSYM    DATA     BYTE      CAN_IR
      000000CDH   SFRSYM    DATA     BYTE      TH2
      00000088H.2 SFRSYM    DATA     BIT       IT1
      000000FAH   SFRSYM    DATA     BYTE      DATA3
      000000D0H.0 SFRSYM    DATA     BIT       P
      00000098H.7 SFRSYM    DATA     BIT       SM0
      0000008AH   SFRSYM    DATA     BYTE      TL0
      00000098H.6 SFRSYM    DATA     BIT       SM1
LX51 LINKER/LOCATER V4.66.93.0                                                        04/24/2025  12:33:12  PAGE 97


      0000008BH   SFRSYM    DATA     BYTE      TL1
      00000098H.5 SFRSYM    DATA     BIT       SM2
      000000CCH   SFRSYM    DATA     BYTE      TL2
      000000D0H.3 SFRSYM    DATA     BIT       RS0
      000000F8H.6 SFRSYM    DATA     BIT       APP_EN
      000000D0H.4 SFRSYM    DATA     BIT       RS1
      00000088H.4 SFRSYM    DATA     BIT       TR0
      00000088H.6 SFRSYM    DATA     BIT       TR1
      00000093H   SFRSYM    DATA     BYTE      DPC
      000000C8H.0 SFRSYM    DATA     BIT       TR2
      000000E5H   SFRSYM    DATA     BYTE      MAC_MODE
      00000083H   SFRSYM    DATA     BYTE      DPH
      00000082H   SFRSYM    DATA     BYTE      DPL
      00000099H   SFRSYM    DATA     BYTE      SBUF0
      0000009CH   SFRSYM    DATA     BYTE      SBUF1
      00000098H   SFRSYM    DATA     BYTE      SCON0
      0000009BH   SFRSYM    DATA     BYTE      SCON1
      000000D8H   SFRSYM    DATA     BYTE      ADCON
      000000C8H   SFRSYM    DATA     BYTE      T2CON
      000000E6H   SFRSYM    DATA     BYTE      DIV_MODE
      000000F8H.5 SFRSYM    DATA     BIT       APP_RW
      000000CBH   SFRSYM    DATA     BYTE      TRL2H
      0000009FH   SFRSYM    DATA     BYTE      SBUF2_RX
      000000ADH   SFRSYM    DATA     BYTE      SBUF3_RX
      0000008EH   SFRSYM    DATA     BYTE      CKCON
      0000009EH   SFRSYM    DATA     BYTE      SBUF2_TX
      000000ACH   SFRSYM    DATA     BYTE      SBUF3_TX
      000000CAH   SFRSYM    DATA     BYTE      TRL2L
      000000D0H.5 SFRSYM    DATA     BIT       F0
      000000FEH   SFRSYM    DATA     BYTE      EXADR
      000000D0H.1 SFRSYM    DATA     BIT       F1
      000000D0H   SFRSYM    DATA     BYTE      PSW
      000000C0H   SFRSYM    DATA     BYTE      IRCON
      00000098H.2 SFRSYM    DATA     BIT       RB80

      010091F0H   BLOCK     CODE     ---       LVL=0
      00000004H   SYMBOL    DATA     WORD      Dgus_Addr
      010091F4H   BLOCK     CODE     NEAR LAB  LVL=1
      00000002H   SYMBOL    DATA     WORD      R_Dgus
      ---         BLOCKEND  ---      ---       LVL=1
      010091F0H   LINE      CODE     ---       #52
      010091F4H   LINE      CODE     ---       #53
      010091F7H   LINE      CODE     ---       #54
      010091F9H   LINE      CODE     ---       #55
      010091FBH   LINE      CODE     ---       #56
      01009202H   LINE      CODE     ---       #57
      01009209H   LINE      CODE     ---       #58
      0100920CH   LINE      CODE     ---       #59
      0100920FH   LINE      CODE     ---       #60
      01009211H   LINE      CODE     ---       #61
      01009214H   LINE      CODE     ---       #62
      01009220H   LINE      CODE     ---       #63
      0100922EH   LINE      CODE     ---       #64
      01009231H   LINE      CODE     ---       #65
      01009233H   LINE      CODE     ---       #66
      01009237H   LINE      CODE     ---       #67
      ---         BLOCKEND  ---      ---       LVL=0

      01008EC8H   BLOCK     CODE     ---       LVL=0
      00000002H   SYMBOL    DATA     WORD      Dgus_Addr
      00000004H   SYMBOL    DATA     WORD      Val
      01008EC8H   LINE      CODE     ---       #69
      01008ECCH   LINE      CODE     ---       #70
      01008ECCH   LINE      CODE     ---       #71
      01008ECEH   LINE      CODE     ---       #72
LX51 LINKER/LOCATER V4.66.93.0                                                        04/24/2025  12:33:12  PAGE 98


      01008ED1H   LINE      CODE     ---       #73
      01008ED8H   LINE      CODE     ---       #74
      01008EDFH   LINE      CODE     ---       #75
      01008EE2H   LINE      CODE     ---       #76
      01008EE5H   LINE      CODE     ---       #77
      01008EE7H   LINE      CODE     ---       #78
      01008EEAH   LINE      CODE     ---       #79
      01008EEDH   LINE      CODE     ---       #80
      01008EF4H   LINE      CODE     ---       #81
      01008EFBH   LINE      CODE     ---       #82
      01008EFEH   LINE      CODE     ---       #83
      01008F01H   LINE      CODE     ---       #84
      01008F0CH   LINE      CODE     ---       #85
      01008F13H   LINE      CODE     ---       #86
      01008F15H   LINE      CODE     ---       #87
      01008F18H   LINE      CODE     ---       #88
      01008F1BH   LINE      CODE     ---       #89
      01008F1DH   LINE      CODE     ---       #90
      ---         BLOCKEND  ---      ---       LVL=0

      ---         MODULE    ---      ---       ADC
      02008838H   PUBLIC    XDATA    FLOAT     adc_09
      02008834H   PUBLIC    XDATA    FLOAT     adc_08
      02008830H   PUBLIC    XDATA    FLOAT     adc_10
      0200882FH   PUBLIC    XDATA    BYTE      adc_channel
      0200882DH   PUBLIC    XDATA    WORD      ad
      0100766EH   PUBLIC    CODE     ---       T_100MS_ADC_isr
      01009408H   PUBLIC    CODE     ---       _adc_read
      00000098H.3 SFRSYM    DATA     BIT       TB80
      000000F1H   SFRSYM    DATA     BYTE      ADR_H
      00000080H   SFRSYM    DATA     BYTE      P0
      00000090H   SFRSYM    DATA     BYTE      P1
      000000A0H   SFRSYM    DATA     BYTE      P2
      000000B0H   SFRSYM    DATA     BYTE      P3
      000000D0H.6 SFRSYM    DATA     BIT       AC
      000000F3H   SFRSYM    DATA     BYTE      ADR_L
      00000094H   SFRSYM    DATA     BYTE      PAGESEL
      000000F2H   SFRSYM    DATA     BYTE      ADR_M
      000000A8H.7 SFRSYM    DATA     BIT       EA
      000000A0H.5 SFRSYM    DATA     BIT       JIGUANG
      00000090H.7 SFRSYM    DATA     BIT       LED_R
      000000F8H   SFRSYM    DATA     BYTE      RAMMODE
      000000B7H   SFRSYM    DATA     BYTE      P0MDOUT
      000000A8H   SFRSYM    DATA     BYTE      IEN0
      000000BCH   SFRSYM    DATA     BYTE      P1MDOUT
      000000B8H   SFRSYM    DATA     BYTE      IEN1
      000000BDH   SFRSYM    DATA     BYTE      P2MDOUT
      000000F8H.0 SFRSYM    DATA     BIT       APP_DATA0
      0000009AH   SFRSYM    DATA     BYTE      IEN2
      000000BEH   SFRSYM    DATA     BYTE      P3MDOUT
      000000F8H.1 SFRSYM    DATA     BIT       APP_DATA1
      000000D1H   SFRSYM    DATA     BYTE      IEN3
      00000080H.0 SFRSYM    DATA     BIT       P0_0
      000000F8H.2 SFRSYM    DATA     BIT       APP_DATA2
      00000090H.0 SFRSYM    DATA     BIT       P1_0
      000000F8H.3 SFRSYM    DATA     BIT       APP_DATA3
      00000090H.1 SFRSYM    DATA     BIT       P1_1
      000000F8H.4 SFRSYM    DATA     BIT       APP_ACK
      000000F4H   SFRSYM    DATA     BYTE      ADR_INC
      000000B0H.1 SFRSYM    DATA     BIT       P3_1
      00000098H.4 SFRSYM    DATA     BIT       REN0
      000000B8H.1 SFRSYM    DATA     BIT       ECAN
      000000D0H.7 SFRSYM    DATA     BIT       CY
      000000B8H.3 SFRSYM    DATA     BIT       ES2R
      000000B8H.5 SFRSYM    DATA     BIT       ES3R
LX51 LINKER/LOCATER V4.66.93.0                                                        04/24/2025  12:33:12  PAGE 99


      000000B8H.2 SFRSYM    DATA     BIT       ES2T
      000000B8H.4 SFRSYM    DATA     BIT       ES3T
      000000C8H.7 SFRSYM    DATA     BIT       TSF2
      000000B0H.3 SFRSYM    DATA     BIT       RTC_SDA
      00000081H   SFRSYM    DATA     BYTE      SP
      000000D0H.2 SFRSYM    DATA     BIT       OV
      00000095H   SFRSYM    DATA     BYTE      D_PAGESEL
      00000090H.5 SFRSYM    DATA     BIT       UV
      000000F8H.7 SFRSYM    DATA     BIT       APP_REQ
      000000B0H.2 SFRSYM    DATA     BIT       RTC_SCL
      000000BFH   SFRSYM    DATA     BYTE      IRCON2
      000000BAH   SFRSYM    DATA     BYTE      SREL0H
      000000BBH   SFRSYM    DATA     BYTE      SREL1H
      00000087H   SFRSYM    DATA     BYTE      PCON
      000000AAH   SFRSYM    DATA     BYTE      SREL0L
      000000F9H   SFRSYM    DATA     BYTE      PORTDRV
      0000009DH   SFRSYM    DATA     BYTE      SREL1L
      00000089H   SFRSYM    DATA     BYTE      TMOD
      00000088H   SFRSYM    DATA     BYTE      TCON
      00000097H   SFRSYM    DATA     BYTE      SCON2R
      000000FFH   SFRSYM    DATA     BYTE      EXDATA
      000000ABH   SFRSYM    DATA     BYTE      SCON3R
      000000D9H   SFRSYM    DATA     BYTE      BODE2_DIV_H
      000000AEH   SFRSYM    DATA     BYTE      BODE3_DIV_H
      00000096H   SFRSYM    DATA     BYTE      SCON2T
      000000A7H   SFRSYM    DATA     BYTE      SCON3T
      000000E7H   SFRSYM    DATA     BYTE      BODE2_DIV_L
      00000088H.1 SFRSYM    DATA     BIT       IE0
      000000AFH   SFRSYM    DATA     BYTE      BODE3_DIV_L
      00000088H.3 SFRSYM    DATA     BIT       IE1
      000000C9H   SFRSYM    DATA     BYTE      MUX_SEL
      020086CBH   SFRSYM    XDATA    WORD      B
      000000E0H   SFRSYM    DATA     BYTE      ACC
      000000A8H.4 SFRSYM    DATA     BIT       ES0
      0000008FH   SFRSYM    DATA     BYTE      CAN_CR
      000000A8H.1 SFRSYM    DATA     BIT       ET0
      000000A9H   SFRSYM    DATA     BYTE      IP0
      000000A8H.3 SFRSYM    DATA     BIT       ET1
      00000088H.5 SFRSYM    DATA     BIT       TF0
      000000B9H   SFRSYM    DATA     BYTE      IP1
      000000A8H.5 SFRSYM    DATA     BIT       ET2
      00000098H.0 SFRSYM    DATA     BIT       RI0
      00000088H.7 SFRSYM    DATA     BIT       TF1
      000000FDH   SFRSYM    DATA     BYTE      DATA0
      000000C0H.6 SFRSYM    DATA     BIT       TF2
      000000E8H   SFRSYM    DATA     BYTE      CAN_ET
      000000FCH   SFRSYM    DATA     BYTE      DATA1
      0000008CH   SFRSYM    DATA     BYTE      TH0
      000000A8H.0 SFRSYM    DATA     BIT       EX0
      00000098H.1 SFRSYM    DATA     BIT       TI0
      00000088H.0 SFRSYM    DATA     BIT       IT0
      000000FBH   SFRSYM    DATA     BYTE      DATA2
      0000008DH   SFRSYM    DATA     BYTE      TH1
      000000A8H.2 SFRSYM    DATA     BIT       EX1
      00000091H   SFRSYM    DATA     BYTE      CAN_IR
      000000CDH   SFRSYM    DATA     BYTE      TH2
      00000088H.2 SFRSYM    DATA     BIT       IT1
      000000FAH   SFRSYM    DATA     BYTE      DATA3
      000000D0H.0 SFRSYM    DATA     BIT       P
      00000098H.7 SFRSYM    DATA     BIT       SM0
      0000008AH   SFRSYM    DATA     BYTE      TL0
      00000098H.6 SFRSYM    DATA     BIT       SM1
      0000008BH   SFRSYM    DATA     BYTE      TL1
      00000098H.5 SFRSYM    DATA     BIT       SM2
      000000CCH   SFRSYM    DATA     BYTE      TL2
LX51 LINKER/LOCATER V4.66.93.0                                                        04/24/2025  12:33:12  PAGE 100


      000000A0H.7 SFRSYM    DATA     BIT       UV_St
      000000D0H.3 SFRSYM    DATA     BIT       RS0
      000000F8H.6 SFRSYM    DATA     BIT       APP_EN
      000000D0H.4 SFRSYM    DATA     BIT       RS1
      00000088H.4 SFRSYM    DATA     BIT       TR0
      00000088H.6 SFRSYM    DATA     BIT       TR1
      00000093H   SFRSYM    DATA     BYTE      DPC
      000000C8H.0 SFRSYM    DATA     BIT       TR2
      000000E5H   SFRSYM    DATA     BYTE      MAC_MODE
      00000083H   SFRSYM    DATA     BYTE      DPH
      00000082H   SFRSYM    DATA     BYTE      DPL
      00000099H   SFRSYM    DATA     BYTE      SBUF0
      0000009CH   SFRSYM    DATA     BYTE      SBUF1
      00000098H   SFRSYM    DATA     BYTE      SCON0
      0000009BH   SFRSYM    DATA     BYTE      SCON1
      000000D8H   SFRSYM    DATA     BYTE      ADCON
      000000C8H   SFRSYM    DATA     BYTE      T2CON
      000000E6H   SFRSYM    DATA     BYTE      DIV_MODE
      000000F8H.5 SFRSYM    DATA     BIT       APP_RW
      000000CBH   SFRSYM    DATA     BYTE      TRL2H
      0000009FH   SFRSYM    DATA     BYTE      SBUF2_RX
      000000ADH   SFRSYM    DATA     BYTE      SBUF3_RX
      0000008EH   SFRSYM    DATA     BYTE      CKCON
      0000009EH   SFRSYM    DATA     BYTE      SBUF2_TX
      000000ACH   SFRSYM    DATA     BYTE      SBUF3_TX
      000000CAH   SFRSYM    DATA     BYTE      TRL2L
      000000D0H.5 SFRSYM    DATA     BIT       F0
      000000FEH   SFRSYM    DATA     BYTE      EXADR
      000000D0H.1 SFRSYM    DATA     BIT       F1
      000000A0H.3 SFRSYM    DATA     BIT       LED_B
      000000D0H   SFRSYM    DATA     BYTE      PSW
      000000A0H.1 SFRSYM    DATA     BIT       LED_G
      000000C0H   SFRSYM    DATA     BYTE      IRCON
      00000098H.2 SFRSYM    DATA     BIT       RB80

      01009408H   BLOCK     CODE     ---       LVL=0
      02008489H   SYMBOL    XDATA    WORD      channel
      01009408H   LINE      CODE     ---       #21
      01009410H   LINE      CODE     ---       #22
      01009410H   LINE      CODE     ---       #23
      0100942DH   LINE      CODE     ---       #25
      01009435H   LINE      CODE     ---       #26
      ---         BLOCKEND  ---      ---       LVL=0

      0100766EH   BLOCK     CODE     ---       LVL=0
      0100766EH   LINE      CODE     ---       #29
      0100766EH   LINE      CODE     ---       #30
      0100766EH   LINE      CODE     ---       #32
      01007680H   LINE      CODE     ---       #38
      01007691H   LINE      CODE     ---       #39
      01007691H   LINE      CODE     ---       #40
      01007691H   LINE      CODE     ---       #41
      01007691H   LINE      CODE     ---       #42
      01007697H   LINE      CODE     ---       #43
      010076C6H   LINE      CODE     ---       #44
      010076C8H   LINE      CODE     ---       #45
      010076C8H   LINE      CODE     ---       #46
      010076C8H   LINE      CODE     ---       #47
      010076C8H   LINE      CODE     ---       #48
      010076CEH   LINE      CODE     ---       #49
      010076FDH   LINE      CODE     ---       #50
      010076FFH   LINE      CODE     ---       #51
      010076FFH   LINE      CODE     ---       #52
      010076FFH   LINE      CODE     ---       #53
      010076FFH   LINE      CODE     ---       #54
LX51 LINKER/LOCATER V4.66.93.0                                                        04/24/2025  12:33:12  PAGE 101


      01007705H   LINE      CODE     ---       #55
      01007737H   LINE      CODE     ---       #56
      01007737H   LINE      CODE     ---       #57
      01007737H   LINE      CODE     ---       #58
      01007737H   LINE      CODE     ---       #59
      ---         BLOCKEND  ---      ---       LVL=0

      ---         MODULE    ---      ---       SYS_PARAMS
      02008793H   PUBLIC    XDATA    ---       Nor_Adress
      0200878EH   PUBLIC    XDATA    BYTE      Screen_Touch_flag
      0200878AH   PUBLIC    XDATA    ---       sudo_buff
      02008786H   PUBLIC    XDATA    ---       Screen_Light
      0200876CH   PUBLIC    XDATA    WORD      Screen_set_Time_min
      0200876AH   PUBLIC    XDATA    WORD      Adress_Change_0
      01002907H   PUBLIC    CODE     ---       reset_data
      010033EEH   PUBLIC    CODE     ---       lianji_run
      0100966BH   PUBLIC    CODE     ---       sudo_click_start
      010089F2H   PUBLIC    CODE     ---       Sudoopen_set_handle
      010061FCH   PUBLIC    CODE     ---       open_sudo_Init
      0100806CH   PUBLIC    CODE     ---       Screen_review
      01008F73H   PUBLIC    CODE     ---       set_page_write
      01008F1EH   PUBLIC    CODE     ---       Screen_Init
      01006C81H   PUBLIC    CODE     ---       Uart4_Open
      01009643H   PUBLIC    CODE     ---       norflash_Write_guanji
      0100884CH   PUBLIC    CODE     ---       norflash_Write_Close_UV
      0100006EH   PUBLIC    CODE     ---       norflash_Write_Stop_UV
      01008569H   PUBLIC    CODE     ---       norflash_Write_Open_UV
      010044E5H   PUBLIC    CODE     ---       Init_Adress
      01009381H   PUBLIC    CODE     ---       norflash_check_Adress
      00000098H.3 SFRSYM    DATA     BIT       TB80
      000000F1H   SFRSYM    DATA     BYTE      ADR_H
      00000080H   SFRSYM    DATA     BYTE      P0
      00000090H   SFRSYM    DATA     BYTE      P1
      000000A0H   SFRSYM    DATA     BYTE      P2
      000000B0H   SFRSYM    DATA     BYTE      P3
      000000D0H.6 SFRSYM    DATA     BIT       AC
      000000F3H   SFRSYM    DATA     BYTE      ADR_L
      00000094H   SFRSYM    DATA     BYTE      PAGESEL
      000000F2H   SFRSYM    DATA     BYTE      ADR_M
      000000A8H.7 SFRSYM    DATA     BIT       EA
      000000A0H.5 SFRSYM    DATA     BIT       JIGUANG
      00000090H.7 SFRSYM    DATA     BIT       LED_R
      000000F8H   SFRSYM    DATA     BYTE      RAMMODE
      000000B7H   SFRSYM    DATA     BYTE      P0MDOUT
      000000A8H   SFRSYM    DATA     BYTE      IEN0
      000000BCH   SFRSYM    DATA     BYTE      P1MDOUT
      000000B8H   SFRSYM    DATA     BYTE      IEN1
      000000BDH   SFRSYM    DATA     BYTE      P2MDOUT
      000000F8H.0 SFRSYM    DATA     BIT       APP_DATA0
      0000009AH   SFRSYM    DATA     BYTE      IEN2
      000000BEH   SFRSYM    DATA     BYTE      P3MDOUT
      000000F8H.1 SFRSYM    DATA     BIT       APP_DATA1
      000000D1H   SFRSYM    DATA     BYTE      IEN3
      00000080H.0 SFRSYM    DATA     BIT       P0_0
      000000F8H.2 SFRSYM    DATA     BIT       APP_DATA2
      00000090H.0 SFRSYM    DATA     BIT       P1_0
      000000F8H.3 SFRSYM    DATA     BIT       APP_DATA3
      00000090H.1 SFRSYM    DATA     BIT       P1_1
      000000F8H.4 SFRSYM    DATA     BIT       APP_ACK
      000000F4H   SFRSYM    DATA     BYTE      ADR_INC
      000000B0H.1 SFRSYM    DATA     BIT       P3_1
      00000098H.4 SFRSYM    DATA     BIT       REN0
      000000B8H.1 SFRSYM    DATA     BIT       ECAN
      000000D0H.7 SFRSYM    DATA     BIT       CY
      000000B8H.3 SFRSYM    DATA     BIT       ES2R
LX51 LINKER/LOCATER V4.66.93.0                                                        04/24/2025  12:33:12  PAGE 102


      000000B8H.5 SFRSYM    DATA     BIT       ES3R
      000000B8H.2 SFRSYM    DATA     BIT       ES2T
      000000B8H.4 SFRSYM    DATA     BIT       ES3T
      000000C8H.7 SFRSYM    DATA     BIT       TSF2
      000000B0H.3 SFRSYM    DATA     BIT       RTC_SDA
      00000081H   SFRSYM    DATA     BYTE      SP
      000000D0H.2 SFRSYM    DATA     BIT       OV
      00000095H   SFRSYM    DATA     BYTE      D_PAGESEL
      00000090H.5 SFRSYM    DATA     BIT       UV
      000000F8H.7 SFRSYM    DATA     BIT       APP_REQ
      000000B0H.2 SFRSYM    DATA     BIT       RTC_SCL
      000000BFH   SFRSYM    DATA     BYTE      IRCON2
      000000BAH   SFRSYM    DATA     BYTE      SREL0H
      000000BBH   SFRSYM    DATA     BYTE      SREL1H
      00000087H   SFRSYM    DATA     BYTE      PCON
      000000AAH   SFRSYM    DATA     BYTE      SREL0L
      000000F9H   SFRSYM    DATA     BYTE      PORTDRV
      0000009DH   SFRSYM    DATA     BYTE      SREL1L
      00000089H   SFRSYM    DATA     BYTE      TMOD
      00000088H   SFRSYM    DATA     BYTE      TCON
      00000097H   SFRSYM    DATA     BYTE      SCON2R
      000000FFH   SFRSYM    DATA     BYTE      EXDATA
      000000ABH   SFRSYM    DATA     BYTE      SCON3R
      000000D9H   SFRSYM    DATA     BYTE      BODE2_DIV_H
      000000AEH   SFRSYM    DATA     BYTE      BODE3_DIV_H
      00000096H   SFRSYM    DATA     BYTE      SCON2T
      000000A7H   SFRSYM    DATA     BYTE      SCON3T
      000000E7H   SFRSYM    DATA     BYTE      BODE2_DIV_L
      00000088H.1 SFRSYM    DATA     BIT       IE0
      000000AFH   SFRSYM    DATA     BYTE      BODE3_DIV_L
      00000088H.3 SFRSYM    DATA     BIT       IE1
      000000C9H   SFRSYM    DATA     BYTE      MUX_SEL
      020086CBH   SFRSYM    XDATA    WORD      B
      000000E0H   SFRSYM    DATA     BYTE      ACC
      000000A8H.4 SFRSYM    DATA     BIT       ES0
      0000008FH   SFRSYM    DATA     BYTE      CAN_CR
      000000A8H.1 SFRSYM    DATA     BIT       ET0
      000000A9H   SFRSYM    DATA     BYTE      IP0
      000000A8H.3 SFRSYM    DATA     BIT       ET1
      00000088H.5 SFRSYM    DATA     BIT       TF0
      000000B9H   SFRSYM    DATA     BYTE      IP1
      000000A8H.5 SFRSYM    DATA     BIT       ET2
      00000098H.0 SFRSYM    DATA     BIT       RI0
      00000088H.7 SFRSYM    DATA     BIT       TF1
      000000FDH   SFRSYM    DATA     BYTE      DATA0
      000000C0H.6 SFRSYM    DATA     BIT       TF2
      000000E8H   SFRSYM    DATA     BYTE      CAN_ET
      000000FCH   SFRSYM    DATA     BYTE      DATA1
      0000008CH   SFRSYM    DATA     BYTE      TH0
      000000A8H.0 SFRSYM    DATA     BIT       EX0
      00000098H.1 SFRSYM    DATA     BIT       TI0
      00000088H.0 SFRSYM    DATA     BIT       IT0
      000000FBH   SFRSYM    DATA     BYTE      DATA2
      0000008DH   SFRSYM    DATA     BYTE      TH1
      000000A8H.2 SFRSYM    DATA     BIT       EX1
      00000091H   SFRSYM    DATA     BYTE      CAN_IR
      000000CDH   SFRSYM    DATA     BYTE      TH2
      00000088H.2 SFRSYM    DATA     BIT       IT1
      000000FAH   SFRSYM    DATA     BYTE      DATA3
      000000D0H.0 SFRSYM    DATA     BIT       P
      00000098H.7 SFRSYM    DATA     BIT       SM0
      0000008AH   SFRSYM    DATA     BYTE      TL0
      00000098H.6 SFRSYM    DATA     BIT       SM1
      0000008BH   SFRSYM    DATA     BYTE      TL1
      00000098H.5 SFRSYM    DATA     BIT       SM2
LX51 LINKER/LOCATER V4.66.93.0                                                        04/24/2025  12:33:12  PAGE 103


      000000CCH   SFRSYM    DATA     BYTE      TL2
      000000A0H.7 SFRSYM    DATA     BIT       UV_St
      000000D0H.3 SFRSYM    DATA     BIT       RS0
      000000F8H.6 SFRSYM    DATA     BIT       APP_EN
      000000D0H.4 SFRSYM    DATA     BIT       RS1
      00000088H.4 SFRSYM    DATA     BIT       TR0
      00000088H.6 SFRSYM    DATA     BIT       TR1
      00000093H   SFRSYM    DATA     BYTE      DPC
      000000C8H.0 SFRSYM    DATA     BIT       TR2
      000000E5H   SFRSYM    DATA     BYTE      MAC_MODE
      00000083H   SFRSYM    DATA     BYTE      DPH
      00000082H   SFRSYM    DATA     BYTE      DPL
      00000099H   SFRSYM    DATA     BYTE      SBUF0
      0000009CH   SFRSYM    DATA     BYTE      SBUF1
      00000098H   SFRSYM    DATA     BYTE      SCON0
      0000009BH   SFRSYM    DATA     BYTE      SCON1
      000000D8H   SFRSYM    DATA     BYTE      ADCON
      000000C8H   SFRSYM    DATA     BYTE      T2CON
      000000E6H   SFRSYM    DATA     BYTE      DIV_MODE
      000000F8H.5 SFRSYM    DATA     BIT       APP_RW
      000000CBH   SFRSYM    DATA     BYTE      TRL2H
      0000009FH   SFRSYM    DATA     BYTE      SBUF2_RX
      000000ADH   SFRSYM    DATA     BYTE      SBUF3_RX
      0000008EH   SFRSYM    DATA     BYTE      CKCON
      0000009EH   SFRSYM    DATA     BYTE      SBUF2_TX
      000000ACH   SFRSYM    DATA     BYTE      SBUF3_TX
      000000CAH   SFRSYM    DATA     BYTE      TRL2L
      000000D0H.5 SFRSYM    DATA     BIT       F0
      000000FEH   SFRSYM    DATA     BYTE      EXADR
      000000D0H.1 SFRSYM    DATA     BIT       F1
      000000A0H.3 SFRSYM    DATA     BIT       LED_B
      000000D0H   SFRSYM    DATA     BYTE      PSW
      000000A0H.1 SFRSYM    DATA     BIT       LED_G
      000000C0H   SFRSYM    DATA     BYTE      IRCON
      00000098H.2 SFRSYM    DATA     BIT       RB80
      0200876EH   SYMBOL    XDATA    ---       Link_Norflash
      01009CB7H   SYMBOL    CONST    ---       _?ix1000
      01009D2FH   SYMBOL    CONST    ---       _?ix1010
      01009CBFH   SYMBOL    CONST    ---       _?ix1001
      01009D33H   SYMBOL    CONST    ---       _?ix1011
      01009CC7H   SYMBOL    CONST    ---       _?ix1002
      01009D37H   SYMBOL    CONST    ---       _?ix1012
      01009D07H   SYMBOL    CONST    ---       _?ix1003
      01009D39H   SYMBOL    CONST    ---       _?ix1013
      01009D0BH   SYMBOL    CONST    ---       _?ix1004
      01009D41H   SYMBOL    CONST    ---       _?ix1014
      01009D13H   SYMBOL    CONST    ---       _?ix1005
      01009D49H   SYMBOL    CONST    ---       _?ix1015
      01009D1BH   SYMBOL    CONST    ---       _?ix1006
      01009D6DH   SYMBOL    CONST    ---       _?ix1016
      01009D23H   SYMBOL    CONST    ---       _?ix1007
      01009D8FH   SYMBOL    CONST    ---       _?ix1017
      01009D27H   SYMBOL    CONST    ---       _?ix1008
      01009D2BH   SYMBOL    CONST    ---       _?ix1009
      0200878FH   SYMBOL    XDATA    ---       sudoopen_set_nor

      01009373H   BLOCK     CODE     VOID      LVL=0
      ---         BLOCKEND  ---      ---       LVL=0

      01009381H   BLOCK     CODE     ---       LVL=0
      01009381H   LINE      CODE     ---       #21
      01009381H   LINE      CODE     ---       #22
      01009381H   LINE      CODE     ---       #23
      01009383H   LINE      CODE     ---       #24
      01009399H   LINE      CODE     ---       #25
LX51 LINKER/LOCATER V4.66.93.0                                                        04/24/2025  12:33:12  PAGE 104


      01009399H   LINE      CODE     ---       #26
      010093A2H   LINE      CODE     ---       #27
      010093A2H   LINE      CODE     ---       #28
      010093A4H   LINE      CODE     ---       #30
      ---         BLOCKEND  ---      ---       LVL=0

      010044E5H   BLOCK     CODE     ---       LVL=0
      010044E5H   BLOCK     CODE     NEAR LAB  LVL=1
      02008489H   SYMBOL    XDATA    ---       Close
      02008491H   SYMBOL    XDATA    ---       Open
      02008499H   SYMBOL    XDATA    ---       dat
      020084D9H   SYMBOL    XDATA    ---       p_set
      ---         BLOCKEND  ---      ---       LVL=1
      010044E5H   LINE      CODE     ---       #32
      010044E5H   LINE      CODE     ---       #33
      010044E5H   LINE      CODE     ---       #34
      010044F8H   LINE      CODE     ---       #35
      0100450BH   LINE      CODE     ---       #38
      0100451EH   LINE      CODE     ---       #39
      01004531H   LINE      CODE     ---       #42
      01004533H   LINE      CODE     ---       #45
      01004536H   LINE      CODE     ---       #46
      01004539H   LINE      CODE     ---       #48
      0100454FH   LINE      CODE     ---       #49
      0100455EH   LINE      CODE     ---       #50
      01004574H   LINE      CODE     ---       #54
      01004589H   LINE      CODE     ---       #55
      01004598H   LINE      CODE     ---       #56
      0100459FH   LINE      CODE     ---       #57
      010045B3H   LINE      CODE     ---       #58
      010045B3H   LINE      CODE     ---       #59
      010045C9H   LINE      CODE     ---       #60
      010045DEH   LINE      CODE     ---       #61
      010045E5H   LINE      CODE     ---       #62
      010045E5H   LINE      CODE     ---       #65
      010045F4H   LINE      CODE     ---       #66
      010045FBH   LINE      CODE     ---       #67
      01004615H   LINE      CODE     ---       #68
      0100461CH   LINE      CODE     ---       #69
      0100461FH   LINE      CODE     ---       #70
      01004632H   LINE      CODE     ---       #71
      01004639H   LINE      CODE     ---       #72
      0100463CH   LINE      CODE     ---       #76
      01004656H   LINE      CODE     ---       #77
      0100465DH   LINE      CODE     ---       #78
      01004660H   LINE      CODE     ---       #79
      01004673H   LINE      CODE     ---       #80
      0100467AH   LINE      CODE     ---       #81
      0100467DH   LINE      CODE     ---       #82
      01004693H   LINE      CODE     ---       #83
      010046A8H   LINE      CODE     ---       #84
      010046AFH   LINE      CODE     ---       #86
      010046B1H   LINE      CODE     ---       #87
      ---         BLOCKEND  ---      ---       LVL=0

      01008569H   BLOCK     CODE     ---       LVL=0
      01008569H   BLOCK     CODE     NEAR LAB  LVL=1
      02008489H   SYMBOL    XDATA    ---       bianliang_Write
      02008491H   SYMBOL    XDATA    ---       T
      ---         BLOCKEND  ---      ---       LVL=1
      01008569H   LINE      CODE     ---       #92
      01008569H   LINE      CODE     ---       #93
      01008569H   LINE      CODE     ---       #94
      0100857CH   LINE      CODE     ---       #97
      0100857EH   LINE      CODE     ---       #99
LX51 LINKER/LOCATER V4.66.93.0                                                        04/24/2025  12:33:12  PAGE 105


      0100858BH   LINE      CODE     ---       #100
      0100858EH   LINE      CODE     ---       #103
      01008594H   LINE      CODE     ---       #104
      0100859CH   LINE      CODE     ---       #106
      010085A2H   LINE      CODE     ---       #108
      010085BCH   LINE      CODE     ---       #109
      010085BFH   LINE      CODE     ---       #110
      010085D2H   LINE      CODE     ---       #111
      010085D5H   LINE      CODE     ---       #112
      010085EBH   LINE      CODE     ---       #113
      01008600H   LINE      CODE     ---       #117
      01008602H   LINE      CODE     ---       #120
      ---         BLOCKEND  ---      ---       LVL=0

      0100006EH   BLOCK     CODE     ---       LVL=0
      0100006EH   BLOCK     CODE     NEAR LAB  LVL=1
      02008489H   SYMBOL    XDATA    ---       bianliang_Write
      ---         BLOCKEND  ---      ---       LVL=1
      0100006EH   LINE      CODE     ---       #122
      0100006EH   LINE      CODE     ---       #123
      0100006EH   LINE      CODE     ---       #124
      01000081H   LINE      CODE     ---       #126
      01000083H   LINE      CODE     ---       #128
      01000089H   LINE      CODE     ---       #129
      01000091H   LINE      CODE     ---       #131
      01000097H   LINE      CODE     ---       #135
      010000B1H   LINE      CODE     ---       #136
      010000B4H   LINE      CODE     ---       #137
      010000C7H   LINE      CODE     ---       #138
      010000CAH   LINE      CODE     ---       #141
      010000E0H   LINE      CODE     ---       #142
      010000F5H   LINE      CODE     ---       #144
      010000F7H   LINE      CODE     ---       #147
      ---         BLOCKEND  ---      ---       LVL=0

      0100884CH   BLOCK     CODE     ---       LVL=0
      0100884CH   BLOCK     CODE     NEAR LAB  LVL=1
      02008489H   SYMBOL    XDATA    ---       bianliang_Write
      ---         BLOCKEND  ---      ---       LVL=1
      0100884CH   LINE      CODE     ---       #150
      0100884CH   LINE      CODE     ---       #151
      0100884CH   LINE      CODE     ---       #152
      0100885FH   LINE      CODE     ---       #154
      01008861H   LINE      CODE     ---       #156
      01008867H   LINE      CODE     ---       #157
      0100886AH   LINE      CODE     ---       #158
      0100886CH   LINE      CODE     ---       #159
      0100886EH   LINE      CODE     ---       #160
      01008870H   LINE      CODE     ---       #161
      01008872H   LINE      CODE     ---       #162
      01008874H   LINE      CODE     ---       #163
      01008878H   LINE      CODE     ---       #166
      01008892H   LINE      CODE     ---       #167
      01008895H   LINE      CODE     ---       #169
      010088A8H   LINE      CODE     ---       #170
      010088ABH   LINE      CODE     ---       #172
      010088C1H   LINE      CODE     ---       #173
      010088D6H   LINE      CODE     ---       #176
      010088D8H   LINE      CODE     ---       #179
      ---         BLOCKEND  ---      ---       LVL=0

      01009643H   BLOCK     CODE     ---       LVL=0
      01009643H   LINE      CODE     ---       #182
      01009643H   LINE      CODE     ---       #183
      01009643H   LINE      CODE     ---       #186
LX51 LINKER/LOCATER V4.66.93.0                                                        04/24/2025  12:33:12  PAGE 106


      01009645H   LINE      CODE     ---       #190
      01009654H   LINE      CODE     ---       #192
      01009656H   LINE      CODE     ---       #193
      ---         BLOCKEND  ---      ---       LVL=0

      01006C81H   BLOCK     CODE     ---       LVL=0
      01006C81H   BLOCK     CODE     NEAR LAB  LVL=1
      020083C3H   SYMBOL    XDATA    BYTE      flag
      ---         BLOCKEND  ---      ---       LVL=1
      01006C81H   LINE      CODE     ---       #198
      01006C81H   LINE      CODE     ---       #199
      01006C81H   LINE      CODE     ---       #200
      01006C87H   LINE      CODE     ---       #202
      01006C8EH   LINE      CODE     ---       #203
      01006C91H   LINE      CODE     ---       #204
      01006C9AH   LINE      CODE     ---       #206
      01006CA1H   LINE      CODE     ---       #207
      01006CB1H   LINE      CODE     ---       #208
      01006CBAH   LINE      CODE     ---       #209
      01006CCAH   LINE      CODE     ---       #210
      01006CDAH   LINE      CODE     ---       #212
      01006CEAH   LINE      CODE     ---       #213
      01006CFAH   LINE      CODE     ---       #214
      01006D00H   LINE      CODE     ---       #215
      01006D00H   LINE      CODE     ---       #216
      01006D07H   LINE      CODE     ---       #218
      01006D0EH   LINE      CODE     ---       #219
      01006D18H   LINE      CODE     ---       #220
      01006D18H   LINE      CODE     ---       #221
      01006D1FH   LINE      CODE     ---       #222
      01006D23H   LINE      CODE     ---       #224
      01006D2CH   LINE      CODE     ---       #225
      01006D3BH   LINE      CODE     ---       #226
      01006D3BH   LINE      CODE     ---       #228
      01006D51H   LINE      CODE     ---       #229
      01006D57H   LINE      CODE     ---       #230
      01006D57H   LINE      CODE     ---       #231
      01006D60H   LINE      CODE     ---       #232
      01006D63H   LINE      CODE     ---       #233
      01006D68H   LINE      CODE     ---       #234
      01006D68H   LINE      CODE     ---       #236
      01006D6AH   LINE      CODE     ---       #244
      01006D76H   LINE      CODE     ---       #246
      01006D78H   LINE      CODE     ---       #248
      ---         BLOCKEND  ---      ---       LVL=0

      01008F1EH   BLOCK     CODE     ---       LVL=0
      01008F1EH   LINE      CODE     ---       #260
      01008F1EH   LINE      CODE     ---       #261
      01008F1EH   LINE      CODE     ---       #262
      01008F34H   LINE      CODE     ---       #263
      01008F4AH   LINE      CODE     ---       #264
      01008F60H   LINE      CODE     ---       #265
      01008F72H   LINE      CODE     ---       #266
      ---         BLOCKEND  ---      ---       LVL=0

      01008F73H   BLOCK     CODE     ---       LVL=0
      01008F73H   LINE      CODE     ---       #269
      01008F73H   LINE      CODE     ---       #270
      01008F73H   LINE      CODE     ---       #271
      01008F89H   LINE      CODE     ---       #272
      01008F9FH   LINE      CODE     ---       #273
      01008FB5H   LINE      CODE     ---       #274
      01008FC7H   LINE      CODE     ---       #275
      ---         BLOCKEND  ---      ---       LVL=0
LX51 LINKER/LOCATER V4.66.93.0                                                        04/24/2025  12:33:12  PAGE 107



      0100806CH   BLOCK     CODE     ---       LVL=0
      0100806CH   BLOCK     CODE     NEAR LAB  LVL=1
      02008768H   SYMBOL    XDATA    BYTE      flag
      02008769H   SYMBOL    XDATA    BYTE      clean
      ---         BLOCKEND  ---      ---       LVL=1
      0100806CH   LINE      CODE     ---       #277
      0100806CH   LINE      CODE     ---       #278
      0100806CH   LINE      CODE     ---       #281
      01008081H   LINE      CODE     ---       #282
      0100808FH   LINE      CODE     ---       #283
      0100808FH   LINE      CODE     ---       #284
      010080A3H   LINE      CODE     ---       #285
      010080A4H   LINE      CODE     ---       #286
      010080A6H   LINE      CODE     ---       #287
      010080C8H   LINE      CODE     ---       #288
      010080C8H   LINE      CODE     ---       #289
      010080CAH   LINE      CODE     ---       #290
      010080DEH   LINE      CODE     ---       #291
      010080DEH   LINE      CODE     ---       #292
      010080EEH   LINE      CODE     ---       #293
      010080EEH   LINE      CODE     ---       #294
      01008103H   LINE      CODE     ---       #295
      01008108H   LINE      CODE     ---       #296
      0100810EH   LINE      CODE     ---       #297
      0100810EH   LINE      CODE     ---       #299
      ---         BLOCKEND  ---      ---       LVL=0

      010061FCH   BLOCK     CODE     ---       LVL=0
      010061FCH   BLOCK     CODE     NEAR LAB  LVL=1
      02008489H   SYMBOL    XDATA    ---       buff_user
      ---         BLOCKEND  ---      ---       LVL=1
      010061FCH   LINE      CODE     ---       #318
      010061FCH   LINE      CODE     ---       #319
      010061FCH   LINE      CODE     ---       #323
      0100620BH   LINE      CODE     ---       #324
      01006221H   LINE      CODE     ---       #326
      0100622CH   LINE      CODE     ---       #327
      0100622CH   LINE      CODE     ---       #330
      01006255H   LINE      CODE     ---       #331
      01006255H   LINE      CODE     ---       #332
      01006258H   LINE      CODE     ---       #334
      0100625DH   LINE      CODE     ---       #336
      01006262H   LINE      CODE     ---       #338
      01006267H   LINE      CODE     ---       #340
      0100626CH   LINE      CODE     ---       #342
      01006273H   LINE      CODE     ---       #343
      0100627BH   LINE      CODE     ---       #344
      0100627BH   LINE      CODE     ---       #345
      01006290H   LINE      CODE     ---       #346
      0100629CH   LINE      CODE     ---       #347
      0100629CH   LINE      CODE     ---       #348
      010062B1H   LINE      CODE     ---       #349
      010062C7H   LINE      CODE     ---       #350
      010062DDH   LINE      CODE     ---       #351
      010062DDH   LINE      CODE     ---       #353
      010062DDH   LINE      CODE     ---       #354
      010062E9H   LINE      CODE     ---       #355
      010062F5H   LINE      CODE     ---       #356
      01006307H   LINE      CODE     ---       #360
      01006307H   LINE      CODE     ---       #362
      0100630BH   LINE      CODE     ---       #364
      01006311H   LINE      CODE     ---       #366
      01006311H   LINE      CODE     ---       #367
      01006311H   LINE      CODE     ---       #372
LX51 LINKER/LOCATER V4.66.93.0                                                        04/24/2025  12:33:12  PAGE 108


      01006311H   LINE      CODE     ---       #373
      01006317H   LINE      CODE     ---       #375
      ---         BLOCKEND  ---      ---       LVL=0

      010089F2H   BLOCK     CODE     ---       LVL=0
      010089F2H   BLOCK     CODE     NEAR LAB  LVL=1
      02008433H   SYMBOL    XDATA    ---       read_buff
      00000002H   SYMBOL    DATA     WORD      concordance
      ---         BLOCKEND  ---      ---       LVL=1
      010089F2H   LINE      CODE     ---       #379
      010089F2H   LINE      CODE     ---       #380
      010089F2H   LINE      CODE     ---       #383
      01008A08H   LINE      CODE     ---       #384
      01008A08H   LINE      CODE     ---       #385
      01008A14H   LINE      CODE     ---       #386
      01008A1AH   LINE      CODE     ---       #387
      01008A28H   LINE      CODE     ---       #388
      01008A3FH   LINE      CODE     ---       #389
      01008A56H   LINE      CODE     ---       #390
      01008A6CH   LINE      CODE     ---       #391
      ---         BLOCKEND  ---      ---       LVL=0

      0100966BH   BLOCK     CODE     ---       LVL=0
      0100966BH   LINE      CODE     ---       #398
      0100966BH   LINE      CODE     ---       #399
      0100966BH   LINE      CODE     ---       #400
      0100967CH   LINE      CODE     ---       #401
      ---         BLOCKEND  ---      ---       LVL=0

      010033EEH   BLOCK     CODE     ---       LVL=0
      010033EEH   BLOCK     CODE     NEAR LAB  LVL=1
      020083BBH   SYMBOL    XDATA    ---       buff_nor
      020083CBH   SYMBOL    XDATA    BYTE      i
      020083CCH   SYMBOL    XDATA    WORD      Adress
      ---         BLOCKEND  ---      ---       LVL=1
      010033EEH   LINE      CODE     ---       #461
      010033EEH   LINE      CODE     ---       #462
      010033EEH   LINE      CODE     ---       #466
      010033F0H   LINE      CODE     ---       #469
      010033F8H   LINE      CODE     ---       #470
      01003407H   LINE      CODE     ---       #478
      0100341CH   LINE      CODE     ---       #479
      0100341CH   LINE      CODE     ---       #480
      0100342DH   LINE      CODE     ---       #481
      0100342DH   LINE      CODE     ---       #482
      01003439H   LINE      CODE     ---       #483
      01003439H   LINE      CODE     ---       #484
      01003439H   LINE      CODE     ---       #491
      01003450H   LINE      CODE     ---       #492
      0100345BH   LINE      CODE     ---       #493
      0100345BH   LINE      CODE     ---       #495
      01003463H   LINE      CODE     ---       #496
      0100346BH   LINE      CODE     ---       #497
      01003473H   LINE      CODE     ---       #498
      0100347BH   LINE      CODE     ---       #499
      01003483H   LINE      CODE     ---       #500
      0100348BH   LINE      CODE     ---       #502
      010034A3H   LINE      CODE     ---       #503
      010034B6H   LINE      CODE     ---       #504
      010034C1H   LINE      CODE     ---       #505
      010034C1H   LINE      CODE     ---       #506
      010034FDH   LINE      CODE     ---       #507
      010034FDH   LINE      CODE     ---       #508
      010034FDH   LINE      CODE     ---       #509
      01003507H   LINE      CODE     ---       #510
LX51 LINKER/LOCATER V4.66.93.0                                                        04/24/2025  12:33:12  PAGE 109


      01003511H   LINE      CODE     ---       #511
      0100351BH   LINE      CODE     ---       #512
      0100351BH   LINE      CODE     ---       #513
      0100351EH   LINE      CODE     ---       #514
      0100351EH   LINE      CODE     ---       #515
      0100351EH   LINE      CODE     ---       #516
      01003534H   LINE      CODE     ---       #518
      01003534H   LINE      CODE     ---       #519
      01003548H   LINE      CODE     ---       #520
      0100354AH   LINE      CODE     ---       #522
      0100354AH   LINE      CODE     ---       #523
      0100354AH   LINE      CODE     ---       #525
      01003554H   LINE      CODE     ---       #526
      0100355EH   LINE      CODE     ---       #527
      01003568H   LINE      CODE     ---       #528
      01003568H   LINE      CODE     ---       #529
      0100356AH   LINE      CODE     ---       #531
      0100356AH   LINE      CODE     ---       #532
      01003580H   LINE      CODE     ---       #533
      01003580H   LINE      CODE     ---       #534
      01003596H   LINE      CODE     ---       #536
      01003596H   LINE      CODE     ---       #537
      010035B9H   LINE      CODE     ---       #539
      010035B9H   LINE      CODE     ---       #540
      010035CDH   LINE      CODE     ---       #541
      010035D7H   LINE      CODE     ---       #542
      010035E3H   LINE      CODE     ---       #544
      010035E3H   LINE      CODE     ---       #545
      010035E3H   LINE      CODE     ---       #546
      010035E3H   LINE      CODE     ---       #548
      010035E3H   LINE      CODE     ---       #549
      010035FFH   LINE      CODE     ---       #550
      01003618H   LINE      CODE     ---       #552
      0100363AH   LINE      CODE     ---       #553
      0100363AH   LINE      CODE     ---       #555
      01003643H   LINE      CODE     ---       #556
      01003645H   LINE      CODE     ---       #557
      ---         BLOCKEND  ---      ---       LVL=0

      01002907H   BLOCK     CODE     ---       LVL=0
      01002907H   BLOCK     CODE     NEAR LAB  LVL=1
      020083C3H   SYMBOL    XDATA    ---       RTC_H
      020083C7H   SYMBOL    XDATA    ---       RTC_L
      020083CBH   SYMBOL    XDATA    ---       MJ_H
      020083CFH   SYMBOL    XDATA    ---       MJ_M
      020083D3H   SYMBOL    XDATA    ---       MJ_L
      020083D7H   SYMBOL    XDATA    ---       read_buff
      020083D9H   SYMBOL    XDATA    ---       buff_user
      020083E1H   SYMBOL    XDATA    ---       buff_zhiliao
      020083E9H   SYMBOL    XDATA    ---       buff_chengxuhua_0
      0200840DH   SYMBOL    XDATA    ---       buff_chengxuhua_1
      0200842FH   SYMBOL    XDATA    ---       P_SET
      ---         BLOCKEND  ---      ---       LVL=1
      01002907H   LINE      CODE     ---       #570
      01002907H   LINE      CODE     ---       #571
      01002907H   LINE      CODE     ---       #572
      0100291AH   LINE      CODE     ---       #573
      0100292DH   LINE      CODE     ---       #575
      01002940H   LINE      CODE     ---       #576
      01002953H   LINE      CODE     ---       #577
      01002966H   LINE      CODE     ---       #579
      01002979H   LINE      CODE     ---       #580
      0100298CH   LINE      CODE     ---       #582
      0100299FH   LINE      CODE     ---       #584
      010029B2H   LINE      CODE     ---       #585
LX51 LINKER/LOCATER V4.66.93.0                                                        04/24/2025  12:33:12  PAGE 110


      010029C5H   LINE      CODE     ---       #587
      010029D8H   LINE      CODE     ---       #588
      010029DEH   LINE      CODE     ---       #589
      010029E2H   LINE      CODE     ---       #590
      010029E5H   LINE      CODE     ---       #591
      010029E9H   LINE      CODE     ---       #593
      010029FFH   LINE      CODE     ---       #594
      01002A15H   LINE      CODE     ---       #595
      01002A18H   LINE      CODE     ---       #597
      01002A2EH   LINE      CODE     ---       #598
      01002A44H   LINE      CODE     ---       #599
      01002A5AH   LINE      CODE     ---       #600
      01002A5DH   LINE      CODE     ---       #602
      01002A73H   LINE      CODE     ---       #603
      01002A76H   LINE      CODE     ---       #605
      01002A8CH   LINE      CODE     ---       #606
      01002AA2H   LINE      CODE     ---       #607
      01002AB8H   LINE      CODE     ---       #608
      01002ACAH   LINE      CODE     ---       #614
      01002AE0H   LINE      CODE     ---       #615
      01002AF6H   LINE      CODE     ---       #616
      01002B0CH   LINE      CODE     ---       #618
      01002B22H   LINE      CODE     ---       #622
      01002B38H   LINE      CODE     ---       #623
      01002B4EH   LINE      CODE     ---       #624
      01002B64H   LINE      CODE     ---       #625
      01002B7AH   LINE      CODE     ---       #629
      01002B90H   LINE      CODE     ---       #630
      01002BA6H   LINE      CODE     ---       #631
      01002BA9H   LINE      CODE     ---       #634
      01002BBFH   LINE      CODE     ---       #636
      01002BD5H   LINE      CODE     ---       #637
      01002BE4H   LINE      CODE     ---       #638
      ---         BLOCKEND  ---      ---       LVL=0

      ---         MODULE    ---      ---       CMD
      010084CDH   PUBLIC    CODE     ---       _match_cmd
      01006E6AH   PUBLIC    CODE     ---       _register_cmds
      00000098H.3 SFRSYM    DATA     BIT       TB80
      000000F1H   SFRSYM    DATA     BYTE      ADR_H
      00000080H   SFRSYM    DATA     BYTE      P0
      00000090H   SFRSYM    DATA     BYTE      P1
      000000A0H   SFRSYM    DATA     BYTE      P2
      000000B0H   SFRSYM    DATA     BYTE      P3
      000000D0H.6 SFRSYM    DATA     BIT       AC
      000000F3H   SFRSYM    DATA     BYTE      ADR_L
      00000094H   SFRSYM    DATA     BYTE      PAGESEL
      000000F2H   SFRSYM    DATA     BYTE      ADR_M
      000000A8H.7 SFRSYM    DATA     BIT       EA
      000000A0H.5 SFRSYM    DATA     BIT       JIGUANG
      00000090H.7 SFRSYM    DATA     BIT       LED_R
      000000F8H   SFRSYM    DATA     BYTE      RAMMODE
      000000B7H   SFRSYM    DATA     BYTE      P0MDOUT
      000000A8H   SFRSYM    DATA     BYTE      IEN0
      000000BCH   SFRSYM    DATA     BYTE      P1MDOUT
      000000B8H   SFRSYM    DATA     BYTE      IEN1
      000000BDH   SFRSYM    DATA     BYTE      P2MDOUT
      000000F8H.0 SFRSYM    DATA     BIT       APP_DATA0
      0000009AH   SFRSYM    DATA     BYTE      IEN2
      000000BEH   SFRSYM    DATA     BYTE      P3MDOUT
      000000F8H.1 SFRSYM    DATA     BIT       APP_DATA1
      000000D1H   SFRSYM    DATA     BYTE      IEN3
      00000080H.0 SFRSYM    DATA     BIT       P0_0
      000000F8H.2 SFRSYM    DATA     BIT       APP_DATA2
      00000090H.0 SFRSYM    DATA     BIT       P1_0
LX51 LINKER/LOCATER V4.66.93.0                                                        04/24/2025  12:33:12  PAGE 111


      000000F8H.3 SFRSYM    DATA     BIT       APP_DATA3
      00000090H.1 SFRSYM    DATA     BIT       P1_1
      000000F8H.4 SFRSYM    DATA     BIT       APP_ACK
      000000F4H   SFRSYM    DATA     BYTE      ADR_INC
      000000B0H.1 SFRSYM    DATA     BIT       P3_1
      00000098H.4 SFRSYM    DATA     BIT       REN0
      000000B8H.1 SFRSYM    DATA     BIT       ECAN
      000000D0H.7 SFRSYM    DATA     BIT       CY
      000000B8H.3 SFRSYM    DATA     BIT       ES2R
      000000B8H.5 SFRSYM    DATA     BIT       ES3R
      000000B8H.2 SFRSYM    DATA     BIT       ES2T
      000000B8H.4 SFRSYM    DATA     BIT       ES3T
      000000C8H.7 SFRSYM    DATA     BIT       TSF2
      000000B0H.3 SFRSYM    DATA     BIT       RTC_SDA
      00000081H   SFRSYM    DATA     BYTE      SP
      000000D0H.2 SFRSYM    DATA     BIT       OV
      00000095H   SFRSYM    DATA     BYTE      D_PAGESEL
      00000090H.5 SFRSYM    DATA     BIT       UV
      000000F8H.7 SFRSYM    DATA     BIT       APP_REQ
      000000B0H.2 SFRSYM    DATA     BIT       RTC_SCL
      000000BFH   SFRSYM    DATA     BYTE      IRCON2
      000000BAH   SFRSYM    DATA     BYTE      SREL0H
      000000BBH   SFRSYM    DATA     BYTE      SREL1H
      00000087H   SFRSYM    DATA     BYTE      PCON
      000000AAH   SFRSYM    DATA     BYTE      SREL0L
      000000F9H   SFRSYM    DATA     BYTE      PORTDRV
      0000009DH   SFRSYM    DATA     BYTE      SREL1L
      00000089H   SFRSYM    DATA     BYTE      TMOD
      00000088H   SFRSYM    DATA     BYTE      TCON
      00000097H   SFRSYM    DATA     BYTE      SCON2R
      000000FFH   SFRSYM    DATA     BYTE      EXDATA
      000000ABH   SFRSYM    DATA     BYTE      SCON3R
      000000D9H   SFRSYM    DATA     BYTE      BODE2_DIV_H
      000000AEH   SFRSYM    DATA     BYTE      BODE3_DIV_H
      00000096H   SFRSYM    DATA     BYTE      SCON2T
      000000A7H   SFRSYM    DATA     BYTE      SCON3T
      000000E7H   SFRSYM    DATA     BYTE      BODE2_DIV_L
      00000088H.1 SFRSYM    DATA     BIT       IE0
      000000AFH   SFRSYM    DATA     BYTE      BODE3_DIV_L
      00000088H.3 SFRSYM    DATA     BIT       IE1
      000000C9H   SFRSYM    DATA     BYTE      MUX_SEL
      020086CBH   SFRSYM    XDATA    WORD      B
      000000E0H   SFRSYM    DATA     BYTE      ACC
      000000A8H.4 SFRSYM    DATA     BIT       ES0
      0000008FH   SFRSYM    DATA     BYTE      CAN_CR
      000000A8H.1 SFRSYM    DATA     BIT       ET0
      000000A9H   SFRSYM    DATA     BYTE      IP0
      000000A8H.3 SFRSYM    DATA     BIT       ET1
      00000088H.5 SFRSYM    DATA     BIT       TF0
      000000B9H   SFRSYM    DATA     BYTE      IP1
      000000A8H.5 SFRSYM    DATA     BIT       ET2
      00000098H.0 SFRSYM    DATA     BIT       RI0
      00000088H.7 SFRSYM    DATA     BIT       TF1
      000000FDH   SFRSYM    DATA     BYTE      DATA0
      000000C0H.6 SFRSYM    DATA     BIT       TF2
      000000E8H   SFRSYM    DATA     BYTE      CAN_ET
      000000FCH   SFRSYM    DATA     BYTE      DATA1
      0000008CH   SFRSYM    DATA     BYTE      TH0
      000000A8H.0 SFRSYM    DATA     BIT       EX0
      00000098H.1 SFRSYM    DATA     BIT       TI0
      00000088H.0 SFRSYM    DATA     BIT       IT0
      000000FBH   SFRSYM    DATA     BYTE      DATA2
      0000008DH   SFRSYM    DATA     BYTE      TH1
      000000A8H.2 SFRSYM    DATA     BIT       EX1
      00000091H   SFRSYM    DATA     BYTE      CAN_IR
LX51 LINKER/LOCATER V4.66.93.0                                                        04/24/2025  12:33:12  PAGE 112


      000000CDH   SFRSYM    DATA     BYTE      TH2
      00000088H.2 SFRSYM    DATA     BIT       IT1
      000000FAH   SFRSYM    DATA     BYTE      DATA3
      000000D0H.0 SFRSYM    DATA     BIT       P
      00000098H.7 SFRSYM    DATA     BIT       SM0
      0000008AH   SFRSYM    DATA     BYTE      TL0
      00000098H.6 SFRSYM    DATA     BIT       SM1
      0000008BH   SFRSYM    DATA     BYTE      TL1
      00000098H.5 SFRSYM    DATA     BIT       SM2
      000000CCH   SFRSYM    DATA     BYTE      TL2
      000000A0H.7 SFRSYM    DATA     BIT       UV_St
      000000D0H.3 SFRSYM    DATA     BIT       RS0
      000000F8H.6 SFRSYM    DATA     BIT       APP_EN
      000000D0H.4 SFRSYM    DATA     BIT       RS1
      00000088H.4 SFRSYM    DATA     BIT       TR0
      00000088H.6 SFRSYM    DATA     BIT       TR1
      00000093H   SFRSYM    DATA     BYTE      DPC
      000000C8H.0 SFRSYM    DATA     BIT       TR2
      000000E5H   SFRSYM    DATA     BYTE      MAC_MODE
      00000083H   SFRSYM    DATA     BYTE      DPH
      00000082H   SFRSYM    DATA     BYTE      DPL
      00000099H   SFRSYM    DATA     BYTE      SBUF0
      0000009CH   SFRSYM    DATA     BYTE      SBUF1
      00000098H   SFRSYM    DATA     BYTE      SCON0
      0000009BH   SFRSYM    DATA     BYTE      SCON1
      000000D8H   SFRSYM    DATA     BYTE      ADCON
      000000C8H   SFRSYM    DATA     BYTE      T2CON
      000000E6H   SFRSYM    DATA     BYTE      DIV_MODE
      000000F8H.5 SFRSYM    DATA     BIT       APP_RW
      000000CBH   SFRSYM    DATA     BYTE      TRL2H
      0000009FH   SFRSYM    DATA     BYTE      SBUF2_RX
      000000ADH   SFRSYM    DATA     BYTE      SBUF3_RX
      0000008EH   SFRSYM    DATA     BYTE      CKCON
      0000009EH   SFRSYM    DATA     BYTE      SBUF2_TX
      000000ACH   SFRSYM    DATA     BYTE      SBUF3_TX
      000000CAH   SFRSYM    DATA     BYTE      TRL2L
      000000D0H.5 SFRSYM    DATA     BIT       F0
      000000FEH   SFRSYM    DATA     BYTE      EXADR
      000000D0H.1 SFRSYM    DATA     BIT       F1
      000000A0H.3 SFRSYM    DATA     BIT       LED_B
      000000D0H   SFRSYM    DATA     BYTE      PSW
      000000A0H.1 SFRSYM    DATA     BIT       LED_G
      000000C0H   SFRSYM    DATA     BYTE      IRCON
      00000098H.2 SFRSYM    DATA     BIT       RB80
      0200823DH   SYMBOL    XDATA    ---       command_list

      01006E6AH   BLOCK     CODE     ---       LVL=0
      02008407H   SYMBOL    XDATA    ---       reg_cmds
      0200840AH   SYMBOL    XDATA    INT       length
      01006E7BH   BLOCK     CODE     NEAR LAB  LVL=1
      0200840CH   SYMBOL    XDATA    INT       i
      ---         BLOCKEND  ---      ---       LVL=1
      01006E6AH   LINE      CODE     ---       #15
      01006E7BH   LINE      CODE     ---       #16
      01006E7BH   LINE      CODE     ---       #18
      01006E88H   LINE      CODE     ---       #19
      01006E88H   LINE      CODE     ---       #21
      01006E88H   LINE      CODE     ---       #23
      01006EAAH   LINE      CODE     ---       #24
      01006EAAH   LINE      CODE     ---       #25
      01006EBEH   LINE      CODE     ---       #26
      01006EBEH   LINE      CODE     ---       #28
      01006EF2H   LINE      CODE     ---       #29
      01006F37H   LINE      CODE     ---       #30
      01006F45H   LINE      CODE     ---       #31
LX51 LINKER/LOCATER V4.66.93.0                                                        04/24/2025  12:33:12  PAGE 113


      01006F45H   LINE      CODE     ---       #32
      01006F59H   LINE      CODE     ---       #33
      ---         BLOCKEND  ---      ---       LVL=0

      010084CDH   BLOCK     CODE     ---       LVL=0
      020083C4H   SYMBOL    XDATA    ---       cmdStr
      010084D8H   BLOCK     CODE     NEAR LAB  LVL=1
      020083C7H   SYMBOL    XDATA    INT       i
      ---         BLOCKEND  ---      ---       LVL=1
      010084CDH   LINE      CODE     ---       #42
      010084D8H   LINE      CODE     ---       #43
      010084D8H   LINE      CODE     ---       #46
      010084E7H   LINE      CODE     ---       #47
      010084E7H   LINE      CODE     ---       #49
      010084E7H   LINE      CODE     ---       #51
      01008509H   LINE      CODE     ---       #52
      01008509H   LINE      CODE     ---       #53
      01008536H   LINE      CODE     ---       #54
      01008536H   LINE      CODE     ---       #55
      01008558H   LINE      CODE     ---       #56
      01008558H   LINE      CODE     ---       #57
      01008568H   LINE      CODE     ---       #59
      ---         BLOCKEND  ---      ---       LVL=0

      ---         MODULE    ---      ---       START_WIN
      02008682H   PUBLIC    XDATA    FLOAT     Volume
      02008680H   PUBLIC    XDATA    WORD      Adress_Now
      0200867CH   PUBLIC    XDATA    FLOAT     Square
      0200867AH   PUBLIC    XDATA    WORD      maichong_off
      02008678H   PUBLIC    XDATA    ---       Current_page
      02008674H   PUBLIC    XDATA    FLOAT     W_mJ_doing
      02008670H   PUBLIC    XDATA    FLOAT     P_mW_First
      0200866EH   PUBLIC    XDATA    WORD      chart_num_2
      0200866CH   PUBLIC    XDATA    WORD      First_Draw_Flag
      0200866AH   PUBLIC    XDATA    WORD      Current_Lock
      02008668H   PUBLIC    XDATA    ---       Page_s
      02008667H   PUBLIC    XDATA    BYTE      Returnkey
      02008665H   PUBLIC    XDATA    WORD      T_All
      02008664H   PUBLIC    XDATA    BYTE      PageSliding
      02008662H   PUBLIC    XDATA    WORD      T_doing
      02008660H   PUBLIC    XDATA    WORD      chart_num
      0200865EH   PUBLIC    XDATA    WORD      Adress_Now_dynamic
      0200865DH   PUBLIC    XDATA    BYTE      zengliang
      02008659H   PUBLIC    XDATA    FLOAT     D
      02008657H   PUBLIC    XDATA    ---       dynamic_y
      02008653H   PUBLIC    XDATA    FLOAT     S_Write
      0200864FH   PUBLIC    XDATA    FLOAT     T_First
      0200864DH   PUBLIC    XDATA    WORD      mode_open
      02008649H   PUBLIC    XDATA    FLOAT     pai
      02008648H   PUBLIC    XDATA    BYTE      second_firstdraw_flag
      02008646H   PUBLIC    XDATA    WORD      ControlPageLock_Adress
      02008644H   PUBLIC    XDATA    WORD      Y_zuobiao
      02008642H   PUBLIC    XDATA    WORD      X_zuobiao
      02008640H   PUBLIC    XDATA    WORD      ReadCurrentPage_Adress
      0200863FH   PUBLIC    XDATA    BYTE      Page_Lasttime
      0200863DH   PUBLIC    XDATA    WORD      Draw_W_Flag
      0200863BH   PUBLIC    XDATA    WORD      Y_zuobiao_static
      02008639H   PUBLIC    XDATA    WORD      mode_close
      02008635H   PUBLIC    XDATA    FLOAT     zhongxin_35mm
      02008631H   PUBLIC    XDATA    FLOAT     Tanx
      0200862DH   PUBLIC    XDATA    FLOAT     L_m
      0200862BH   PUBLIC    XDATA    WORD      X_zuobiao_second
      02008627H   PUBLIC    XDATA    FLOAT     W_mJ_zong
      02008625H   PUBLIC    XDATA    WORD      Adress_Now_2
      0200861BH   PUBLIC    XDATA    WORD      dynamic_Y_zuobiao
LX51 LINKER/LOCATER V4.66.93.0                                                        04/24/2025  12:33:12  PAGE 114


      02008619H   PUBLIC    XDATA    WORD      dynamic_X_zuobiao
      02008615H   PUBLIC    XDATA    FLOAT     Tan_zhongxin
      0200846FH   PUBLIC    XDATA    BYTE      ?_Unlock_current_page_zengliang?BYTE
      010074C2H   PUBLIC    CODE     ---       _Unlock_current_page_zengliang
      020083C3H   PUBLIC    XDATA    BYTE      ?_Lock_current_page_zengliang?BYTE
      01006F5AH   PUBLIC    CODE     ---       _Lock_current_page_zengliang
      01005634H   PUBLIC    CODE     ---       Unlock_current_page
      01005A4CH   PUBLIC    CODE     ---       Lock_current_page
      01006318H   PUBLIC    CODE     ---       S_D_Surfaces_All
      01009300H   PUBLIC    CODE     ---       Draw_Rest_2
      01008966H   PUBLIC    CODE     ---       Draw_Reset
      01003CFAH   PUBLIC    CODE     ---       zhexian_Draw
      010093A5H   PUBLIC    CODE     ---       dynamic_draw
      0100487BH   PUBLIC    CODE     ---       dynamic_X_Y_huoqu_2
      01003164H   PUBLIC    CODE     ---       dynamic_X_Y_huoqu
      01007063H   PUBLIC    CODE     ---       _dynamic_Write_New
      020083CBH   PUBLIC    XDATA    BYTE      ?_dynamic_first_Init?BYTE
      01007A69H   PUBLIC    CODE     ---       _dynamic_first_Init
      010094E8H   PUBLIC    CODE     ---       dynamic_draw_chart_Init
      01004D7DH   PUBLIC    CODE     ---       X_Y_huoqu
      0100654CH   PUBLIC    CODE     ---       _Write_New_2
      020083BBH   PUBLIC    XDATA    BYTE      ?_sys_write_chart_zhexian_Two_2?BYTE
      01007738H   PUBLIC    CODE     ---       _sys_write_chart_zhexian_Two_2
      01006433H   PUBLIC    CODE     ---       _Write_New
      020083BBH   PUBLIC    XDATA    BYTE      ?_sys_write_chart_zhexian_Two_Cankao?BYTE
      010088D9H   PUBLIC    CODE     ---       _sys_write_chart_zhexian_Two_Cankao
      020083BBH   PUBLIC    XDATA    BYTE      ?_sys_write_chart_zhexian_Two?BYTE
      01007BC2H   PUBLIC    CODE     ---       _sys_write_chart_zhexian_Two
      00000098H.3 SFRSYM    DATA     BIT       TB80
      000000F1H   SFRSYM    DATA     BYTE      ADR_H
      00000080H   SFRSYM    DATA     BYTE      P0
      00000090H   SFRSYM    DATA     BYTE      P1
      000000A0H   SFRSYM    DATA     BYTE      P2
      000000B0H   SFRSYM    DATA     BYTE      P3
      000000D0H.6 SFRSYM    DATA     BIT       AC
      000000F3H   SFRSYM    DATA     BYTE      ADR_L
      00000094H   SFRSYM    DATA     BYTE      PAGESEL
      000000F2H   SFRSYM    DATA     BYTE      ADR_M
      000000A8H.7 SFRSYM    DATA     BIT       EA
      000000A0H.5 SFRSYM    DATA     BIT       JIGUANG
      00000090H.7 SFRSYM    DATA     BIT       LED_R
      000000F8H   SFRSYM    DATA     BYTE      RAMMODE
      000000B7H   SFRSYM    DATA     BYTE      P0MDOUT
      000000A8H   SFRSYM    DATA     BYTE      IEN0
      000000BCH   SFRSYM    DATA     BYTE      P1MDOUT
      000000B8H   SFRSYM    DATA     BYTE      IEN1
      000000BDH   SFRSYM    DATA     BYTE      P2MDOUT
      000000F8H.0 SFRSYM    DATA     BIT       APP_DATA0
      0000009AH   SFRSYM    DATA     BYTE      IEN2
      000000BEH   SFRSYM    DATA     BYTE      P3MDOUT
      000000F8H.1 SFRSYM    DATA     BIT       APP_DATA1
      000000D1H   SFRSYM    DATA     BYTE      IEN3
      00000080H.0 SFRSYM    DATA     BIT       P0_0
      000000F8H.2 SFRSYM    DATA     BIT       APP_DATA2
      00000090H.0 SFRSYM    DATA     BIT       P1_0
      000000F8H.3 SFRSYM    DATA     BIT       APP_DATA3
      00000090H.1 SFRSYM    DATA     BIT       P1_1
      000000F8H.4 SFRSYM    DATA     BIT       APP_ACK
      000000F4H   SFRSYM    DATA     BYTE      ADR_INC
      000000B0H.1 SFRSYM    DATA     BIT       P3_1
      00000098H.4 SFRSYM    DATA     BIT       REN0
      000000B8H.1 SFRSYM    DATA     BIT       ECAN
      000000D0H.7 SFRSYM    DATA     BIT       CY
      000000B8H.3 SFRSYM    DATA     BIT       ES2R
      000000B8H.5 SFRSYM    DATA     BIT       ES3R
LX51 LINKER/LOCATER V4.66.93.0                                                        04/24/2025  12:33:12  PAGE 115


      000000B8H.2 SFRSYM    DATA     BIT       ES2T
      000000B8H.4 SFRSYM    DATA     BIT       ES3T
      000000C8H.7 SFRSYM    DATA     BIT       TSF2
      000000B0H.3 SFRSYM    DATA     BIT       RTC_SDA
      00000081H   SFRSYM    DATA     BYTE      SP
      000000D0H.2 SFRSYM    DATA     BIT       OV
      00000095H   SFRSYM    DATA     BYTE      D_PAGESEL
      00000090H.5 SFRSYM    DATA     BIT       UV
      000000F8H.7 SFRSYM    DATA     BIT       APP_REQ
      000000B0H.2 SFRSYM    DATA     BIT       RTC_SCL
      000000BFH   SFRSYM    DATA     BYTE      IRCON2
      000000BAH   SFRSYM    DATA     BYTE      SREL0H
      000000BBH   SFRSYM    DATA     BYTE      SREL1H
      00000087H   SFRSYM    DATA     BYTE      PCON
      000000AAH   SFRSYM    DATA     BYTE      SREL0L
      000000F9H   SFRSYM    DATA     BYTE      PORTDRV
      0000009DH   SFRSYM    DATA     BYTE      SREL1L
      00000089H   SFRSYM    DATA     BYTE      TMOD
      00000088H   SFRSYM    DATA     BYTE      TCON
      00000097H   SFRSYM    DATA     BYTE      SCON2R
      000000FFH   SFRSYM    DATA     BYTE      EXDATA
      000000ABH   SFRSYM    DATA     BYTE      SCON3R
      000000D9H   SFRSYM    DATA     BYTE      BODE2_DIV_H
      000000AEH   SFRSYM    DATA     BYTE      BODE3_DIV_H
      00000096H   SFRSYM    DATA     BYTE      SCON2T
      000000A7H   SFRSYM    DATA     BYTE      SCON3T
      000000E7H   SFRSYM    DATA     BYTE      BODE2_DIV_L
      00000088H.1 SFRSYM    DATA     BIT       IE0
      000000AFH   SFRSYM    DATA     BYTE      BODE3_DIV_L
      00000088H.3 SFRSYM    DATA     BIT       IE1
      000000C9H   SFRSYM    DATA     BYTE      MUX_SEL
      020086CBH   SFRSYM    XDATA    WORD      B
      000000E0H   SFRSYM    DATA     BYTE      ACC
      000000A8H.4 SFRSYM    DATA     BIT       ES0
      0000008FH   SFRSYM    DATA     BYTE      CAN_CR
      000000A8H.1 SFRSYM    DATA     BIT       ET0
      000000A9H   SFRSYM    DATA     BYTE      IP0
      000000A8H.3 SFRSYM    DATA     BIT       ET1
      00000088H.5 SFRSYM    DATA     BIT       TF0
      000000B9H   SFRSYM    DATA     BYTE      IP1
      000000A8H.5 SFRSYM    DATA     BIT       ET2
      00000098H.0 SFRSYM    DATA     BIT       RI0
      00000088H.7 SFRSYM    DATA     BIT       TF1
      000000FDH   SFRSYM    DATA     BYTE      DATA0
      000000C0H.6 SFRSYM    DATA     BIT       TF2
      000000E8H   SFRSYM    DATA     BYTE      CAN_ET
      000000FCH   SFRSYM    DATA     BYTE      DATA1
      0000008CH   SFRSYM    DATA     BYTE      TH0
      000000A8H.0 SFRSYM    DATA     BIT       EX0
      00000098H.1 SFRSYM    DATA     BIT       TI0
      00000088H.0 SFRSYM    DATA     BIT       IT0
      000000FBH   SFRSYM    DATA     BYTE      DATA2
      0000008DH   SFRSYM    DATA     BYTE      TH1
      000000A8H.2 SFRSYM    DATA     BIT       EX1
      00000091H   SFRSYM    DATA     BYTE      CAN_IR
      000000CDH   SFRSYM    DATA     BYTE      TH2
      00000088H.2 SFRSYM    DATA     BIT       IT1
      000000FAH   SFRSYM    DATA     BYTE      DATA3
      000000D0H.0 SFRSYM    DATA     BIT       P
      00000098H.7 SFRSYM    DATA     BIT       SM0
      0000008AH   SFRSYM    DATA     BYTE      TL0
      00000098H.6 SFRSYM    DATA     BIT       SM1
      0000008BH   SFRSYM    DATA     BYTE      TL1
      00000098H.5 SFRSYM    DATA     BIT       SM2
      000000CCH   SFRSYM    DATA     BYTE      TL2
LX51 LINKER/LOCATER V4.66.93.0                                                        04/24/2025  12:33:12  PAGE 116


      000000A0H.7 SFRSYM    DATA     BIT       UV_St
      000000D0H.3 SFRSYM    DATA     BIT       RS0
      000000F8H.6 SFRSYM    DATA     BIT       APP_EN
      000000D0H.4 SFRSYM    DATA     BIT       RS1
      00000088H.4 SFRSYM    DATA     BIT       TR0
      00000088H.6 SFRSYM    DATA     BIT       TR1
      00000093H   SFRSYM    DATA     BYTE      DPC
      000000C8H.0 SFRSYM    DATA     BIT       TR2
      000000E5H   SFRSYM    DATA     BYTE      MAC_MODE
      00000083H   SFRSYM    DATA     BYTE      DPH
      00000082H   SFRSYM    DATA     BYTE      DPL
      00000099H   SFRSYM    DATA     BYTE      SBUF0
      0000009CH   SFRSYM    DATA     BYTE      SBUF1
      00000098H   SFRSYM    DATA     BYTE      SCON0
      0000009BH   SFRSYM    DATA     BYTE      SCON1
      000000D8H   SFRSYM    DATA     BYTE      ADCON
      000000C8H   SFRSYM    DATA     BYTE      T2CON
      000000E6H   SFRSYM    DATA     BYTE      DIV_MODE
      000000F8H.5 SFRSYM    DATA     BIT       APP_RW
      000000CBH   SFRSYM    DATA     BYTE      TRL2H
      0000009FH   SFRSYM    DATA     BYTE      SBUF2_RX
      000000ADH   SFRSYM    DATA     BYTE      SBUF3_RX
      0000008EH   SFRSYM    DATA     BYTE      CKCON
      0000009EH   SFRSYM    DATA     BYTE      SBUF2_TX
      000000ACH   SFRSYM    DATA     BYTE      SBUF3_TX
      000000CAH   SFRSYM    DATA     BYTE      TRL2L
      000000D0H.5 SFRSYM    DATA     BIT       F0
      000000FEH   SFRSYM    DATA     BYTE      EXADR
      000000D0H.1 SFRSYM    DATA     BIT       F1
      000000A0H.3 SFRSYM    DATA     BIT       LED_B
      000000D0H   SFRSYM    DATA     BYTE      PSW
      000000A0H.1 SFRSYM    DATA     BIT       LED_G
      000000C0H   SFRSYM    DATA     BYTE      IRCON
      00000098H.2 SFRSYM    DATA     BIT       RB80
      0200861DH   SYMBOL    XDATA    ---       PageLock
      01009D93H   SYMBOL    CONST    ---       _?ix1000
      01009DEBH   SYMBOL    CONST    ---       _?ix1010
      01009DA3H   SYMBOL    CONST    ---       _?ix1001
      01009DEDH   SYMBOL    CONST    ---       _?ix1011
      01009DB3H   SYMBOL    CONST    ---       _?ix1002
      01009DF5H   SYMBOL    CONST    ---       _?ix1012
      01009DB9H   SYMBOL    CONST    ---       _?ix1003
      01009DBBH   SYMBOL    CONST    ---       _?ix1004
      01009DCBH   SYMBOL    CONST    ---       _?ix1005
      01009DD1H   SYMBOL    CONST    ---       _?ix1006
      01009DD3H   SYMBOL    CONST    ---       _?ix1007
      01009DD5H   SYMBOL    CONST    ---       _?ix1008
      01009DE5H   SYMBOL    CONST    ---       _?ix1009

      01007BC2H   BLOCK     CODE     ---       LVL=0
      020083BBH   SYMBOL    XDATA    WORD      x1
      020083BDH   SYMBOL    XDATA    WORD      y1
      020083BFH   SYMBOL    XDATA    WORD      x2
      020083C1H   SYMBOL    XDATA    WORD      y2
      01007BD6H   BLOCK     CODE     NEAR LAB  LVL=1
      020083C3H   SYMBOL    XDATA    ---       chart_cmd
      ---         BLOCKEND  ---      ---       LVL=1
      01007BC2H   LINE      CODE     ---       #51
      01007BD6H   LINE      CODE     ---       #52
      01007BD6H   LINE      CODE     ---       #57
      01007BE9H   LINE      CODE     ---       #58
      01007BF6H   LINE      CODE     ---       #59
      01007BF9H   LINE      CODE     ---       #60
      01007BFDH   LINE      CODE     ---       #61
      01007BFFH   LINE      CODE     ---       #62
LX51 LINKER/LOCATER V4.66.93.0                                                        04/24/2025  12:33:12  PAGE 117


      01007C0CH   LINE      CODE     ---       #63
      01007C0FH   LINE      CODE     ---       #64
      01007C1CH   LINE      CODE     ---       #65
      01007C1FH   LINE      CODE     ---       #66
      01007C2CH   LINE      CODE     ---       #67
      01007C2FH   LINE      CODE     ---       #68
      01007C3CH   LINE      CODE     ---       #69
      01007C3FH   LINE      CODE     ---       #70
      01007C43H   LINE      CODE     ---       #71
      01007C46H   LINE      CODE     ---       #74
      01007C5EH   LINE      CODE     ---       #76
      ---         BLOCKEND  ---      ---       LVL=0

      010088D9H   BLOCK     CODE     ---       LVL=0
      020083BBH   SYMBOL    XDATA    WORD      x1
      020083BDH   SYMBOL    XDATA    WORD      y1
      020083BFH   SYMBOL    XDATA    WORD      x2
      020083C1H   SYMBOL    XDATA    WORD      y2
      010088EDH   BLOCK     CODE     NEAR LAB  LVL=1
      020083C3H   SYMBOL    XDATA    ---       chart_cmd
      ---         BLOCKEND  ---      ---       LVL=1
      010088D9H   LINE      CODE     ---       #78
      010088EDH   LINE      CODE     ---       #79
      010088EDH   LINE      CODE     ---       #84
      01008900H   LINE      CODE     ---       #85
      01008906H   LINE      CODE     ---       #86
      0100890AH   LINE      CODE     ---       #87
      01008917H   LINE      CODE     ---       #88
      0100891AH   LINE      CODE     ---       #89
      01008927H   LINE      CODE     ---       #90
      0100892AH   LINE      CODE     ---       #91
      01008937H   LINE      CODE     ---       #92
      0100893AH   LINE      CODE     ---       #93
      01008947H   LINE      CODE     ---       #94
      0100894AH   LINE      CODE     ---       #95
      0100894EH   LINE      CODE     ---       #96
      01008951H   LINE      CODE     ---       #101
      ---         BLOCKEND  ---      ---       LVL=0

      01006433H   BLOCK     CODE     ---       LVL=0
      020083BBH   SYMBOL    XDATA    WORD      x1
      020083BDH   SYMBOL    XDATA    WORD      y1
      01006441H   BLOCK     CODE     NEAR LAB  LVL=1
      020083BFH   SYMBOL    XDATA    ---       chart_cmd
      020083C5H   SYMBOL    XDATA    ---       chart
      ---         BLOCKEND  ---      ---       LVL=1
      01006433H   LINE      CODE     ---       #116
      01006441H   LINE      CODE     ---       #117
      01006441H   LINE      CODE     ---       #119
      01006454H   LINE      CODE     ---       #120
      01006467H   LINE      CODE     ---       #121
      01006469H   LINE      CODE     ---       #122
      01006476H   LINE      CODE     ---       #123
      01006479H   LINE      CODE     ---       #124
      01006486H   LINE      CODE     ---       #125
      01006489H   LINE      CODE     ---       #126
      0100648DH   LINE      CODE     ---       #127
      01006490H   LINE      CODE     ---       #129
      0100649DH   LINE      CODE     ---       #130
      010064A0H   LINE      CODE     ---       #136
      010064B0H   LINE      CODE     ---       #137
      010064B0H   LINE      CODE     ---       #138
      010064BAH   LINE      CODE     ---       #139
      010064BCH   LINE      CODE     ---       #140
      010064CEH   LINE      CODE     ---       #142
LX51 LINKER/LOCATER V4.66.93.0                                                        04/24/2025  12:33:12  PAGE 118


      010064DEH   LINE      CODE     ---       #143
      010064DEH   LINE      CODE     ---       #144
      010064E8H   LINE      CODE     ---       #145
      010064EAH   LINE      CODE     ---       #146
      010064FDH   LINE      CODE     ---       #149
      01006513H   LINE      CODE     ---       #150
      0100652DH   LINE      CODE     ---       #152
      01006549H   LINE      CODE     ---       #153
      0100654BH   LINE      CODE     ---       #154
      ---         BLOCKEND  ---      ---       LVL=0

      01007738H   BLOCK     CODE     ---       LVL=0
      020083BBH   SYMBOL    XDATA    WORD      x1
      020083BDH   SYMBOL    XDATA    WORD      y1
      020083BFH   SYMBOL    XDATA    WORD      x2
      020083C1H   SYMBOL    XDATA    WORD      y2
      0100774CH   BLOCK     CODE     NEAR LAB  LVL=1
      020083C3H   SYMBOL    XDATA    ---       chart_cmd
      ---         BLOCKEND  ---      ---       LVL=1
      01007738H   LINE      CODE     ---       #161
      0100774CH   LINE      CODE     ---       #162
      0100774CH   LINE      CODE     ---       #168
      0100775FH   LINE      CODE     ---       #169
      01007761H   LINE      CODE     ---       #170
      01007769H   LINE      CODE     ---       #171
      01007776H   LINE      CODE     ---       #172
      01007779H   LINE      CODE     ---       #173
      0100777DH   LINE      CODE     ---       #174
      01007781H   LINE      CODE     ---       #175
      0100778EH   LINE      CODE     ---       #176
      01007791H   LINE      CODE     ---       #177
      0100779EH   LINE      CODE     ---       #178
      010077A1H   LINE      CODE     ---       #179
      010077AEH   LINE      CODE     ---       #180
      010077B1H   LINE      CODE     ---       #181
      010077BEH   LINE      CODE     ---       #182
      010077C1H   LINE      CODE     ---       #183
      010077C5H   LINE      CODE     ---       #184
      010077C8H   LINE      CODE     ---       #187
      010077D0H   LINE      CODE     ---       #188
      010077E8H   LINE      CODE     ---       #190
      010077FEH   LINE      CODE     ---       #191
      01007800H   LINE      CODE     ---       #192
      ---         BLOCKEND  ---      ---       LVL=0

      0100654CH   BLOCK     CODE     ---       LVL=0
      020083BBH   SYMBOL    XDATA    WORD      x1
      020083BDH   SYMBOL    XDATA    WORD      y1
      0100655AH   BLOCK     CODE     NEAR LAB  LVL=1
      020083BFH   SYMBOL    XDATA    ---       chart_cmd
      020083C5H   SYMBOL    XDATA    ---       chart
      ---         BLOCKEND  ---      ---       LVL=1
      0100654CH   LINE      CODE     ---       #193
      0100655AH   LINE      CODE     ---       #194
      0100655AH   LINE      CODE     ---       #196
      0100656DH   LINE      CODE     ---       #197
      01006580H   LINE      CODE     ---       #198
      01006582H   LINE      CODE     ---       #199
      0100658FH   LINE      CODE     ---       #200
      01006592H   LINE      CODE     ---       #201
      0100659FH   LINE      CODE     ---       #202
      010065A2H   LINE      CODE     ---       #203
      010065A6H   LINE      CODE     ---       #204
      010065A9H   LINE      CODE     ---       #206
      010065B6H   LINE      CODE     ---       #207
LX51 LINKER/LOCATER V4.66.93.0                                                        04/24/2025  12:33:12  PAGE 119


      010065B9H   LINE      CODE     ---       #213
      010065C9H   LINE      CODE     ---       #214
      010065C9H   LINE      CODE     ---       #215
      010065D3H   LINE      CODE     ---       #216
      010065D5H   LINE      CODE     ---       #217
      010065E7H   LINE      CODE     ---       #219
      010065F7H   LINE      CODE     ---       #220
      010065F7H   LINE      CODE     ---       #221
      01006601H   LINE      CODE     ---       #222
      01006603H   LINE      CODE     ---       #223
      01006616H   LINE      CODE     ---       #226
      0100662CH   LINE      CODE     ---       #227
      01006646H   LINE      CODE     ---       #229
      01006662H   LINE      CODE     ---       #230
      01006664H   LINE      CODE     ---       #231
      ---         BLOCKEND  ---      ---       LVL=0

      01004D7DH   BLOCK     CODE     ---       LVL=0
      01004D7DH   LINE      CODE     ---       #234
      01004D7DH   LINE      CODE     ---       #235
      01004D7DH   LINE      CODE     ---       #236
      01004D7FH   LINE      CODE     ---       #238
      01004D97H   LINE      CODE     ---       #239
      01004D97H   LINE      CODE     ---       #240
      01004DD6H   LINE      CODE     ---       #241
      01004DD8H   LINE      CODE     ---       #243
      01004DD8H   LINE      CODE     ---       #245
      01004E08H   LINE      CODE     ---       #246
      01004E22H   LINE      CODE     ---       #247
      01004E30H   LINE      CODE     ---       #248
      01004E30H   LINE      CODE     ---       #250
      01004E4EH   LINE      CODE     ---       #253
      01004E72H   LINE      CODE     ---       #254
      01004E72H   LINE      CODE     ---       #256
      01004E79H   LINE      CODE     ---       #258
      01004E89H   LINE      CODE     ---       #259
      01004E89H   LINE      CODE     ---       #260
      01004E97H   LINE      CODE     ---       #261
      01004EA0H   LINE      CODE     ---       #262
      01004EA2H   LINE      CODE     ---       #263
      01004EC0H   LINE      CODE     ---       #264
      01004EC0H   LINE      CODE     ---       #266
      01004EC6H   LINE      CODE     ---       #267
      01004EC6H   LINE      CODE     ---       #269
      01004EDDH   LINE      CODE     ---       #270
      01004EE3H   LINE      CODE     ---       #271
      01004EE3H   LINE      CODE     ---       #272
      01004EF1H   LINE      CODE     ---       #273
      01004F01H   LINE      CODE     ---       #276
      01004F01H   LINE      CODE     ---       #279
      01004F01H   LINE      CODE     ---       #280
      01004F03H   LINE      CODE     ---       #282
      ---         BLOCKEND  ---      ---       LVL=0

      010094E8H   BLOCK     CODE     ---       LVL=0
      010094E8H   BLOCK     CODE     NEAR LAB  LVL=1
      020083BBH   SYMBOL    XDATA    ---       buff_dynamic
      ---         BLOCKEND  ---      ---       LVL=1
      010094E8H   LINE      CODE     ---       #290
      010094E8H   LINE      CODE     ---       #291
      010094E8H   LINE      CODE     ---       #293
      010094FBH   LINE      CODE     ---       #295
      ---         BLOCKEND  ---      ---       LVL=0

      01007A4FH   BLOCK     CODE     ---       LVL=0
LX51 LINKER/LOCATER V4.66.93.0                                                        04/24/2025  12:33:12  PAGE 120


      ---         BLOCKEND  ---      ---       LVL=0

      01007A69H   BLOCK     CODE     ---       LVL=0
      020083CBH   SYMBOL    XDATA    WORD      x1
      020083CDH   SYMBOL    XDATA    WORD      y1
      020083CFH   SYMBOL    XDATA    WORD      x2
      020083D1H   SYMBOL    XDATA    WORD      y2
      020083D3H   SYMBOL    XDATA    ---       chart_cmd
      01007A7DH   BLOCK     CODE     NEAR LAB  LVL=1
      020083D3H   SYMBOL    XDATA    ---       chart_cmd
      ---         BLOCKEND  ---      ---       LVL=1
      01007A69H   LINE      CODE     ---       #298
      01007A7DH   LINE      CODE     ---       #299
      01007A7DH   LINE      CODE     ---       #304
      01007A90H   LINE      CODE     ---       #305
      01007A96H   LINE      CODE     ---       #306
      01007A99H   LINE      CODE     ---       #307
      01007AA6H   LINE      CODE     ---       #308
      01007AA9H   LINE      CODE     ---       #309
      01007AB6H   LINE      CODE     ---       #310
      01007AB9H   LINE      CODE     ---       #311
      01007AC6H   LINE      CODE     ---       #312
      01007AC9H   LINE      CODE     ---       #313
      01007AD6H   LINE      CODE     ---       #314
      01007AD9H   LINE      CODE     ---       #315
      01007ADDH   LINE      CODE     ---       #316
      01007AE0H   LINE      CODE     ---       #317
      01007AEAH   LINE      CODE     ---       #318
      01007B00H   LINE      CODE     ---       #319
      01007B09H   LINE      CODE     ---       #320
      ---         BLOCKEND  ---      ---       LVL=0

      01007048H   BLOCK     CODE     ---       LVL=0
      ---         BLOCKEND  ---      ---       LVL=0

      01007063H   BLOCK     CODE     ---       LVL=0
      020083CBH   SYMBOL    XDATA    WORD      x1
      020083CDH   SYMBOL    XDATA    BYTE      y1_h
      020083CEH   SYMBOL    XDATA    BYTE      y1_l
      020083CFH   SYMBOL    XDATA    ---       chart_cmd
      020083D5H   SYMBOL    XDATA    ---       chart
      00000006H   SYMBOL    DATA     WORD      y1
      01007071H   BLOCK     CODE     NEAR LAB  LVL=1
      020083CFH   SYMBOL    XDATA    ---       chart_cmd
      020083D5H   SYMBOL    XDATA    ---       chart
      00000006H   SYMBOL    DATA     WORD      y1
      ---         BLOCKEND  ---      ---       LVL=1
      01007063H   LINE      CODE     ---       #321
      01007071H   LINE      CODE     ---       #322
      01007071H   LINE      CODE     ---       #324
      01007084H   LINE      CODE     ---       #325
      01007097H   LINE      CODE     ---       #327
      01007099H   LINE      CODE     ---       #328
      010070A6H   LINE      CODE     ---       #329
      010070A9H   LINE      CODE     ---       #330
      010070B2H   LINE      CODE     ---       #331
      010070BBH   LINE      CODE     ---       #332
      010070BFH   LINE      CODE     ---       #333
      010070C2H   LINE      CODE     ---       #334
      010070C6H   LINE      CODE     ---       #336
      010070D4H   LINE      CODE     ---       #337
      010070D4H   LINE      CODE     ---       #338
      010070DEH   LINE      CODE     ---       #339
      010070E0H   LINE      CODE     ---       #340
      010070F2H   LINE      CODE     ---       #342
LX51 LINKER/LOCATER V4.66.93.0                                                        04/24/2025  12:33:12  PAGE 121


      010070FBH   LINE      CODE     ---       #343
      010070FBH   LINE      CODE     ---       #344
      010070FBH   LINE      CODE     ---       #345
      010070FDH   LINE      CODE     ---       #346
      01007104H   LINE      CODE     ---       #349
      0100711EH   LINE      CODE     ---       #350
      0100712CH   LINE      CODE     ---       #351
      0100712EH   LINE      CODE     ---       #352
      ---         BLOCKEND  ---      ---       LVL=0

      01003164H   BLOCK     CODE     ---       LVL=0
      01003164H   BLOCK     CODE     NEAR LAB  LVL=1
      020083BBH   SYMBOL    XDATA    WORD      i
      020083BDH   SYMBOL    XDATA    WORD      j
      00000002H   SYMBOL    DATA     WORD      draw_num
      020083BFH   SYMBOL    XDATA    FLOAT     beishu
      020083C3H   SYMBOL    XDATA    FLOAT     cha
      020083C7H   SYMBOL    XDATA    WORD      adress_now
      ---         BLOCKEND  ---      ---       LVL=1
      01003164H   LINE      CODE     ---       #354
      01003164H   LINE      CODE     ---       #355
      01003164H   LINE      CODE     ---       #357
      0100316BH   LINE      CODE     ---       #359
      0100316DH   LINE      CODE     ---       #360
      01003175H   LINE      CODE     ---       #363
      01003177H   LINE      CODE     ---       #364
      01003181H   LINE      CODE     ---       #365
      01003192H   LINE      CODE     ---       #367
      010031C3H   LINE      CODE     ---       #368
      010031D7H   LINE      CODE     ---       #369
      010031DAH   LINE      CODE     ---       #374
      010031F9H   LINE      CODE     ---       #375
      010031F9H   LINE      CODE     ---       #376
      010031FFH   LINE      CODE     ---       #377
      010031FFH   LINE      CODE     ---       #378
      0100320DH   LINE      CODE     ---       #379
      01003224H   LINE      CODE     ---       #380
      01003224H   LINE      CODE     ---       #381
      01003227H   LINE      CODE     ---       #382
      01003247H   LINE      CODE     ---       #383
      01003247H   LINE      CODE     ---       #385
      01003264H   LINE      CODE     ---       #386
      01003264H   LINE      CODE     ---       #387
      0100326BH   LINE      CODE     ---       #388
      0100326BH   LINE      CODE     ---       #389
      0100328CH   LINE      CODE     ---       #390
      0100328CH   LINE      CODE     ---       #391
      01003294H   LINE      CODE     ---       #392
      010032A2H   LINE      CODE     ---       #393
      010032B9H   LINE      CODE     ---       #394
      010032B9H   LINE      CODE     ---       #395
      010032B9H   LINE      CODE     ---       #396
      010032BBH   LINE      CODE     ---       #398
      010032BBH   LINE      CODE     ---       #399
      010032C9H   LINE      CODE     ---       #400
      010032C9H   LINE      CODE     ---       #401
      010032CCH   LINE      CODE     ---       #403
      010032CCH   LINE      CODE     ---       #406
      010032ECH   LINE      CODE     ---       #407
      010032ECH   LINE      CODE     ---       #409
      010032ECH   LINE      CODE     ---       #410
      01003307H   LINE      CODE     ---       #411
      01003334H   LINE      CODE     ---       #412
      0100333BH   LINE      CODE     ---       #413
      01003341H   LINE      CODE     ---       #414
LX51 LINKER/LOCATER V4.66.93.0                                                        04/24/2025  12:33:12  PAGE 122


      01003341H   LINE      CODE     ---       #415
      0100334FH   LINE      CODE     ---       #416
      01003370H   LINE      CODE     ---       #417
      01003370H   LINE      CODE     ---       #418
      01003378H   LINE      CODE     ---       #419
      0100337EH   LINE      CODE     ---       #420
      0100337EH   LINE      CODE     ---       #421
      01003380H   LINE      CODE     ---       #423
      01003380H   LINE      CODE     ---       #424
      0100338EH   LINE      CODE     ---       #425
      0100339CH   LINE      CODE     ---       #426
      010033B3H   LINE      CODE     ---       #427
      010033B9H   LINE      CODE     ---       #428
      010033BCH   LINE      CODE     ---       #429
      010033BCH   LINE      CODE     ---       #431
      010033CBH   LINE      CODE     ---       #432
      010033CBH   LINE      CODE     ---       #433
      010033CBH   LINE      CODE     ---       #434
      010033CBH   LINE      CODE     ---       #435
      010033EBH   LINE      CODE     ---       #436
      010033EBH   LINE      CODE     ---       #508
      010033EDH   LINE      CODE     ---       #509
      ---         BLOCKEND  ---      ---       LVL=0

      0100487BH   BLOCK     CODE     ---       LVL=0
      0100487BH   BLOCK     CODE     NEAR LAB  LVL=1
      020083BBH   SYMBOL    XDATA    WORD      num_all
      020083BDH   SYMBOL    XDATA    WORD      num_throwaway
      020083BFH   SYMBOL    XDATA    WORD      adress_now
      020083C1H   SYMBOL    XDATA    WORD      adress_now_2
      020083C3H   SYMBOL    XDATA    BYTE      i
      020083C4H   SYMBOL    XDATA    BYTE      j
      020083C5H   SYMBOL    XDATA    WORD      num_reset
      020083C7H   SYMBOL    XDATA    FLOAT     bei
      ---         BLOCKEND  ---      ---       LVL=1
      0100487BH   LINE      CODE     ---       #510
      0100487BH   LINE      CODE     ---       #511
      0100487BH   LINE      CODE     ---       #516
      01004882H   LINE      CODE     ---       #517
      0100488AH   LINE      CODE     ---       #518
      0100488CH   LINE      CODE     ---       #519
      01004896H   LINE      CODE     ---       #520
      0100489EH   LINE      CODE     ---       #521
      010048C0H   LINE      CODE     ---       #522
      010048F1H   LINE      CODE     ---       #523
      0100490EH   LINE      CODE     ---       #524
      01004911H   LINE      CODE     ---       #526
      0100491EH   LINE      CODE     ---       #527
      0100491EH   LINE      CODE     ---       #528
      01004933H   LINE      CODE     ---       #529
      01004933H   LINE      CODE     ---       #530
      01004943H   LINE      CODE     ---       #531
      01004943H   LINE      CODE     ---       #532
      01004951H   LINE      CODE     ---       #533
      01004957H   LINE      CODE     ---       #534
      01004972H   LINE      CODE     ---       #535
      01004972H   LINE      CODE     ---       #536
      0100497AH   LINE      CODE     ---       #538
      0100497CH   LINE      CODE     ---       #539
      0100499AH   LINE      CODE     ---       #540
      0100499AH   LINE      CODE     ---       #541
      010049A6H   LINE      CODE     ---       #543
      010049A8H   LINE      CODE     ---       #544
      010049A8H   LINE      CODE     ---       #545
      010049A8H   LINE      CODE     ---       #547
LX51 LINKER/LOCATER V4.66.93.0                                                        04/24/2025  12:33:12  PAGE 123


      010049A8H   LINE      CODE     ---       #548
      010049AEH   LINE      CODE     ---       #549
      010049AEH   LINE      CODE     ---       #552
      010049C9H   LINE      CODE     ---       #553
      010049C9H   LINE      CODE     ---       #554
      010049D1H   LINE      CODE     ---       #555
      010049D1H   LINE      CODE     ---       #557
      010049D3H   LINE      CODE     ---       #558
      010049EEH   LINE      CODE     ---       #559
      010049EEH   LINE      CODE     ---       #560
      010049FAH   LINE      CODE     ---       #561
      01004A11H   LINE      CODE     ---       #562
      01004A13H   LINE      CODE     ---       #563
      01004A1AH   LINE      CODE     ---       #565
      01004A21H   LINE      CODE     ---       #566
      01004A21H   LINE      CODE     ---       #567
      01004A24H   LINE      CODE     ---       #568
      01004A2BH   LINE      CODE     ---       #571
      01004A34H   LINE      CODE     ---       #573
      01004A34H   LINE      CODE     ---       #574
      01004A36H   LINE      CODE     ---       #575
      ---         BLOCKEND  ---      ---       LVL=0

      010093A5H   BLOCK     CODE     ---       LVL=0
      010093A5H   LINE      CODE     ---       #578
      010093A5H   LINE      CODE     ---       #579
      010093A5H   LINE      CODE     ---       #580
      010093A7H   LINE      CODE     ---       #581
      010093B9H   LINE      CODE     ---       #582
      010093B9H   LINE      CODE     ---       #583
      010093BFH   LINE      CODE     ---       #584
      010093BFH   LINE      CODE     ---       #585
      010093C7H   LINE      CODE     ---       #586
      010093C9H   LINE      CODE     ---       #588
      010093CFH   LINE      CODE     ---       #589
      010093D4H   LINE      CODE     ---       #592
      010093D4H   LINE      CODE     ---       #593
      010093D6H   LINE      CODE     ---       #594
      ---         BLOCKEND  ---      ---       LVL=0

      01003CFAH   BLOCK     CODE     ---       LVL=0
      01003CFAH   LINE      CODE     ---       #599
      01003CFAH   LINE      CODE     ---       #600
      01003CFAH   LINE      CODE     ---       #606
      01003CFCH   LINE      CODE     ---       #607
      01003CFFH   LINE      CODE     ---       #608
      01003D0EH   LINE      CODE     ---       #610
      01003D1DH   LINE      CODE     ---       #611
      01003D1DH   LINE      CODE     ---       #614
      01003D2AH   LINE      CODE     ---       #615
      01003D2AH   LINE      CODE     ---       #617
      01003D3FH   LINE      CODE     ---       #618
      01003D47H   LINE      CODE     ---       #620
      01003D4EH   LINE      CODE     ---       #622
      01003D63H   LINE      CODE     ---       #626
      01003D6CH   LINE      CODE     ---       #628
      01003D73H   LINE      CODE     ---       #629
      01003D7AH   LINE      CODE     ---       #630
      01003D8EH   LINE      CODE     ---       #634
      01003D9AH   LINE      CODE     ---       #635
      01003D9AH   LINE      CODE     ---       #637
      01003D9AH   LINE      CODE     ---       #639
      01003D9CH   LINE      CODE     ---       #640
      01003DA8H   LINE      CODE     ---       #641
      01003DA8H   LINE      CODE     ---       #643
LX51 LINKER/LOCATER V4.66.93.0                                                        04/24/2025  12:33:12  PAGE 124


      01003DB5H   LINE      CODE     ---       #644
      01003DB6H   LINE      CODE     ---       #646
      01003DB8H   LINE      CODE     ---       #647
      01003DC4H   LINE      CODE     ---       #648
      01003DC4H   LINE      CODE     ---       #650
      01003DC4H   LINE      CODE     ---       #651
      01003DC6H   LINE      CODE     ---       #652
      01003DD2H   LINE      CODE     ---       #653
      01003DD2H   LINE      CODE     ---       #654
      01003E03H   LINE      CODE     ---       #655
      01003E03H   LINE      CODE     ---       #658
      01003E1BH   LINE      CODE     ---       #659
      01003E1BH   LINE      CODE     ---       #660
      01003E4FH   LINE      CODE     ---       #661
      01003E51H   LINE      CODE     ---       #663
      01003E51H   LINE      CODE     ---       #664
      01003E81H   LINE      CODE     ---       #665
      01003E81H   LINE      CODE     ---       #667
      01003E90H   LINE      CODE     ---       #668
      01003E98H   LINE      CODE     ---       #669
      01003EAEH   LINE      CODE     ---       #670
      01003EC9H   LINE      CODE     ---       #672
      01003ED2H   LINE      CODE     ---       #673
      01003ED9H   LINE      CODE     ---       #674
      01003ED9H   LINE      CODE     ---       #676
      01003EF3H   LINE      CODE     ---       #677
      01003EF3H   LINE      CODE     ---       #678
      01003EF6H   LINE      CODE     ---       #679
      01003F0AH   LINE      CODE     ---       #680
      01003F0AH   LINE      CODE     ---       #682
      01003F0AH   LINE      CODE     ---       #683
      01003F0CH   LINE      CODE     ---       #685
      ---         BLOCKEND  ---      ---       LVL=0

      01008966H   BLOCK     CODE     ---       LVL=0
      01008966H   BLOCK     CODE     NEAR LAB  LVL=1
      02008489H   SYMBOL    XDATA    ---       Reset
      ---         BLOCKEND  ---      ---       LVL=1
      01008966H   LINE      CODE     ---       #688
      01008966H   LINE      CODE     ---       #689
      01008966H   LINE      CODE     ---       #691
      01008979H   LINE      CODE     ---       #693
      01008980H   LINE      CODE     ---       #694
      01008982H   LINE      CODE     ---       #695
      01008988H   LINE      CODE     ---       #697
      01008990H   LINE      CODE     ---       #699
      01008995H   LINE      CODE     ---       #700
      0100899BH   LINE      CODE     ---       #701
      010089B0H   LINE      CODE     ---       #702
      010089C6H   LINE      CODE     ---       #703
      010089DCH   LINE      CODE     ---       #704
      ---         BLOCKEND  ---      ---       LVL=0

      01009300H   BLOCK     CODE     ---       LVL=0
      01009300H   BLOCK     CODE     NEAR LAB  LVL=1
      020083BBH   SYMBOL    XDATA    ---       Reset
      ---         BLOCKEND  ---      ---       LVL=1
      01009300H   LINE      CODE     ---       #707
      01009300H   LINE      CODE     ---       #708
      01009313H   LINE      CODE     ---       #709
      01009329H   LINE      CODE     ---       #710
      ---         BLOCKEND  ---      ---       LVL=0

      01006318H   BLOCK     CODE     ---       LVL=0
      01006318H   LINE      CODE     ---       #727
LX51 LINKER/LOCATER V4.66.93.0                                                        04/24/2025  12:33:12  PAGE 125


      01006318H   LINE      CODE     ---       #728
      01006318H   LINE      CODE     ---       #730
      01006345H   LINE      CODE     ---       #731
      01006351H   LINE      CODE     ---       #732
      01006351H   LINE      CODE     ---       #733
      0100637EH   LINE      CODE     ---       #734
      01006381H   LINE      CODE     ---       #735
      01006383H   LINE      CODE     ---       #737
      01006383H   LINE      CODE     ---       #738
      010063B1H   LINE      CODE     ---       #739
      01006404H   LINE      CODE     ---       #740
      01006404H   LINE      CODE     ---       #741
      ---         BLOCKEND  ---      ---       LVL=0

      01005A4CH   BLOCK     CODE     ---       LVL=0
      01005A4CH   LINE      CODE     ---       #768
      01005A4CH   LINE      CODE     ---       #769
      01005A4CH   LINE      CODE     ---       #770
      01005A4EH   LINE      CODE     ---       #771
      01005A58H   LINE      CODE     ---       #772
      01005A5BH   LINE      CODE     ---       #775
      01005A67H   LINE      CODE     ---       #776
      01005A67H   LINE      CODE     ---       #777
      01005A73H   LINE      CODE     ---       #778
      01005A73H   LINE      CODE     ---       #779
      01005A83H   LINE      CODE     ---       #780
      01005A83H   LINE      CODE     ---       #781
      01005A85H   LINE      CODE     ---       #782
      01005A91H   LINE      CODE     ---       #783
      01005A91H   LINE      CODE     ---       #784
      01005AA1H   LINE      CODE     ---       #785
      01005AA1H   LINE      CODE     ---       #786
      01005AA3H   LINE      CODE     ---       #787
      01005AAFH   LINE      CODE     ---       #788
      01005AAFH   LINE      CODE     ---       #789
      01005AC4H   LINE      CODE     ---       #790
      01005AD2H   LINE      CODE     ---       #792
      01005AD2H   LINE      CODE     ---       #793
      01005AD2H   LINE      CODE     ---       #795
      01005AECH   LINE      CODE     ---       #796
      01005AF4H   LINE      CODE     ---       #797
      01005AF7H   LINE      CODE     ---       #798
      01005AFFH   LINE      CODE     ---       #799
      01005B0EH   LINE      CODE     ---       #801
      01005B28H   LINE      CODE     ---       #802
      01005B28H   LINE      CODE     ---       #803
      01005B28H   LINE      CODE     ---       #804
      01005B42H   LINE      CODE     ---       #805
      01005B4EH   LINE      CODE     ---       #806
      01005B4EH   LINE      CODE     ---       #807
      01005B4EH   LINE      CODE     ---       #809
      01005B54H   LINE      CODE     ---       #810
      01005B5CH   LINE      CODE     ---       #811
      01005B76H   LINE      CODE     ---       #812
      01005B76H   LINE      CODE     ---       #813
      01005B76H   LINE      CODE     ---       #814
      01005B90H   LINE      CODE     ---       #815
      01005B9CH   LINE      CODE     ---       #816
      01005B9CH   LINE      CODE     ---       #817
      01005B9CH   LINE      CODE     ---       #818
      01005BA4H   LINE      CODE     ---       #819
      01005BA6H   LINE      CODE     ---       #820
      ---         BLOCKEND  ---      ---       LVL=0

      01005634H   BLOCK     CODE     ---       LVL=0
LX51 LINKER/LOCATER V4.66.93.0                                                        04/24/2025  12:33:12  PAGE 126


      01005634H   BLOCK     CODE     NEAR LAB  LVL=1
      0200846DH   SYMBOL    XDATA    ---       page_status
      ---         BLOCKEND  ---      ---       LVL=1
      01005634H   LINE      CODE     ---       #822
      01005634H   LINE      CODE     ---       #823
      01005634H   LINE      CODE     ---       #825
      01005636H   LINE      CODE     ---       #826
      01005645H   LINE      CODE     ---       #827
      01005645H   LINE      CODE     ---       #829
      01005651H   LINE      CODE     ---       #830
      01005651H   LINE      CODE     ---       #831
      0100565DH   LINE      CODE     ---       #832
      0100565DH   LINE      CODE     ---       #833
      0100566DH   LINE      CODE     ---       #834
      0100566DH   LINE      CODE     ---       #835
      0100566FH   LINE      CODE     ---       #836
      0100567BH   LINE      CODE     ---       #837
      0100567BH   LINE      CODE     ---       #838
      0100568BH   LINE      CODE     ---       #839
      0100568BH   LINE      CODE     ---       #841
      0100568DH   LINE      CODE     ---       #842
      01005699H   LINE      CODE     ---       #843
      01005699H   LINE      CODE     ---       #844
      010056AEH   LINE      CODE     ---       #845
      010056BCH   LINE      CODE     ---       #846
      010056BCH   LINE      CODE     ---       #847
      010056BCH   LINE      CODE     ---       #849
      010056D6H   LINE      CODE     ---       #850
      010056DEH   LINE      CODE     ---       #851
      010056EDH   LINE      CODE     ---       #852
      010056F5H   LINE      CODE     ---       #853
      010056FBH   LINE      CODE     ---       #854
      01005715H   LINE      CODE     ---       #855
      01005715H   LINE      CODE     ---       #856
      01005715H   LINE      CODE     ---       #857
      0100572FH   LINE      CODE     ---       #858
      0100573BH   LINE      CODE     ---       #859
      0100573BH   LINE      CODE     ---       #860
      0100573BH   LINE      CODE     ---       #861
      01005743H   LINE      CODE     ---       #862
      01005748H   LINE      CODE     ---       #864
      01005762H   LINE      CODE     ---       #865
      01005762H   LINE      CODE     ---       #866
      01005762H   LINE      CODE     ---       #867
      0100577CH   LINE      CODE     ---       #868
      01005788H   LINE      CODE     ---       #869
      01005788H   LINE      CODE     ---       #870
      01005788H   LINE      CODE     ---       #871
      0100578FH   LINE      CODE     ---       #872
      0100578FH   LINE      CODE     ---       #873
      01005791H   LINE      CODE     ---       #874
      ---         BLOCKEND  ---      ---       LVL=0

      01006F5AH   BLOCK     CODE     ---       LVL=0
      020083C3H   SYMBOL    XDATA    BYTE      id_1
      020083C4H   SYMBOL    XDATA    BYTE      daima_1
      020083C5H   SYMBOL    XDATA    BYTE      id_2
      020083C6H   SYMBOL    XDATA    BYTE      daima_2
      01006F65H   BLOCK     CODE     NEAR LAB  LVL=1
      020083C7H   SYMBOL    XDATA    ---       Current_page
      ---         BLOCKEND  ---      ---       LVL=1
      01006F5AH   LINE      CODE     ---       #875
      01006F65H   LINE      CODE     ---       #876
      01006F65H   LINE      CODE     ---       #878
      01006F67H   LINE      CODE     ---       #879
LX51 LINKER/LOCATER V4.66.93.0                                                        04/24/2025  12:33:12  PAGE 127


      01006F71H   LINE      CODE     ---       #880
      01006F74H   LINE      CODE     ---       #882
      01006F8EH   LINE      CODE     ---       #883
      01006F96H   LINE      CODE     ---       #884
      01006F9EH   LINE      CODE     ---       #885
      01006FA6H   LINE      CODE     ---       #886
      01006FB5H   LINE      CODE     ---       #888
      01006FCFH   LINE      CODE     ---       #889
      01006FCFH   LINE      CODE     ---       #890
      01006FCFH   LINE      CODE     ---       #891
      01006FE9H   LINE      CODE     ---       #892
      01006FF5H   LINE      CODE     ---       #893
      01006FF5H   LINE      CODE     ---       #894
      01006FF5H   LINE      CODE     ---       #898
      01006FFDH   LINE      CODE     ---       #899
      01007005H   LINE      CODE     ---       #900
      0100701FH   LINE      CODE     ---       #901
      0100701FH   LINE      CODE     ---       #902
      0100701FH   LINE      CODE     ---       #903
      01007039H   LINE      CODE     ---       #904
      01007045H   LINE      CODE     ---       #905
      01007045H   LINE      CODE     ---       #906
      01007045H   LINE      CODE     ---       #907
      01007047H   LINE      CODE     ---       #909
      ---         BLOCKEND  ---      ---       LVL=0

      010074C2H   BLOCK     CODE     ---       LVL=0
      0200846FH   SYMBOL    XDATA    BYTE      id_1
      02008470H   SYMBOL    XDATA    BYTE      daima_1
      02008471H   SYMBOL    XDATA    BYTE      id_2
      02008472H   SYMBOL    XDATA    BYTE      daima_2
      010074CDH   BLOCK     CODE     NEAR LAB  LVL=1
      02008473H   SYMBOL    XDATA    ---       Current_page
      ---         BLOCKEND  ---      ---       LVL=1
      010074C2H   LINE      CODE     ---       #910
      010074CDH   LINE      CODE     ---       #911
      010074CDH   LINE      CODE     ---       #913
      010074CFH   LINE      CODE     ---       #914
      010074E9H   LINE      CODE     ---       #915
      010074F1H   LINE      CODE     ---       #916
      010074F9H   LINE      CODE     ---       #917
      01007501H   LINE      CODE     ---       #918
      01007510H   LINE      CODE     ---       #919
      0100752AH   LINE      CODE     ---       #920
      0100752AH   LINE      CODE     ---       #921
      0100752AH   LINE      CODE     ---       #922
      01007544H   LINE      CODE     ---       #923
      01007550H   LINE      CODE     ---       #924
      01007550H   LINE      CODE     ---       #925
      01007550H   LINE      CODE     ---       #926
      01007558H   LINE      CODE     ---       #927
      01007560H   LINE      CODE     ---       #929
      0100757AH   LINE      CODE     ---       #932
      0100757AH   LINE      CODE     ---       #933
      0100757AH   LINE      CODE     ---       #934
      01007594H   LINE      CODE     ---       #935
      010075A0H   LINE      CODE     ---       #936
      010075A0H   LINE      CODE     ---       #937
      010075A0H   LINE      CODE     ---       #938
      010075A2H   LINE      CODE     ---       #940
      ---         BLOCKEND  ---      ---       LVL=0

      ---         MODULE    ---      ---       MODE_3
      02008807H   PUBLIC    XDATA    BYTE      weekday
      02008806H   PUBLIC    XDATA    BYTE      chengxu_run_flag
LX51 LINKER/LOCATER V4.66.93.0                                                        04/24/2025  12:33:12  PAGE 128


      02008804H   PUBLIC    XDATA    ---       icon_exit_
      020087FFH   PUBLIC    XDATA    ---       today_date
      020087F7H   PUBLIC    XDATA    ---       rtc_chengxu
      020087F6H   PUBLIC    XDATA    BYTE      UE
      020087F1H   PUBLIC    XDATA    ---       week_check
      01009511H   PUBLIC    CODE     ---       mode_3_reset
      01009712H   PUBLIC    CODE     ---       mode_3_isr
      010046B2H   PUBLIC    CODE     ---       chengxu_Run
      0100698DH   PUBLIC    CODE     ---       chengxu_only_first
      01009463H   PUBLIC    CODE     ---       chengxu_Init
      01009436H   PUBLIC    CODE     ---       chengxu_Updae
      00000098H.3 SFRSYM    DATA     BIT       TB80
      000000F1H   SFRSYM    DATA     BYTE      ADR_H
      00000080H   SFRSYM    DATA     BYTE      P0
      00000090H   SFRSYM    DATA     BYTE      P1
      000000A0H   SFRSYM    DATA     BYTE      P2
      000000B0H   SFRSYM    DATA     BYTE      P3
      000000D0H.6 SFRSYM    DATA     BIT       AC
      000000F3H   SFRSYM    DATA     BYTE      ADR_L
      00000094H   SFRSYM    DATA     BYTE      PAGESEL
      000000F2H   SFRSYM    DATA     BYTE      ADR_M
      000000A8H.7 SFRSYM    DATA     BIT       EA
      000000A0H.5 SFRSYM    DATA     BIT       JIGUANG
      00000090H.7 SFRSYM    DATA     BIT       LED_R
      000000F8H   SFRSYM    DATA     BYTE      RAMMODE
      000000B7H   SFRSYM    DATA     BYTE      P0MDOUT
      000000A8H   SFRSYM    DATA     BYTE      IEN0
      000000BCH   SFRSYM    DATA     BYTE      P1MDOUT
      000000B8H   SFRSYM    DATA     BYTE      IEN1
      000000BDH   SFRSYM    DATA     BYTE      P2MDOUT
      000000F8H.0 SFRSYM    DATA     BIT       APP_DATA0
      0000009AH   SFRSYM    DATA     BYTE      IEN2
      000000BEH   SFRSYM    DATA     BYTE      P3MDOUT
      000000F8H.1 SFRSYM    DATA     BIT       APP_DATA1
      000000D1H   SFRSYM    DATA     BYTE      IEN3
      00000080H.0 SFRSYM    DATA     BIT       P0_0
      000000F8H.2 SFRSYM    DATA     BIT       APP_DATA2
      00000090H.0 SFRSYM    DATA     BIT       P1_0
      000000F8H.3 SFRSYM    DATA     BIT       APP_DATA3
      00000090H.1 SFRSYM    DATA     BIT       P1_1
      000000F8H.4 SFRSYM    DATA     BIT       APP_ACK
      000000F4H   SFRSYM    DATA     BYTE      ADR_INC
      000000B0H.1 SFRSYM    DATA     BIT       P3_1
      00000098H.4 SFRSYM    DATA     BIT       REN0
      000000B8H.1 SFRSYM    DATA     BIT       ECAN
      000000D0H.7 SFRSYM    DATA     BIT       CY
      000000B8H.3 SFRSYM    DATA     BIT       ES2R
      000000B8H.5 SFRSYM    DATA     BIT       ES3R
      000000B8H.2 SFRSYM    DATA     BIT       ES2T
      000000B8H.4 SFRSYM    DATA     BIT       ES3T
      000000C8H.7 SFRSYM    DATA     BIT       TSF2
      000000B0H.3 SFRSYM    DATA     BIT       RTC_SDA
      00000081H   SFRSYM    DATA     BYTE      SP
      000000D0H.2 SFRSYM    DATA     BIT       OV
      00000095H   SFRSYM    DATA     BYTE      D_PAGESEL
      00000090H.5 SFRSYM    DATA     BIT       UV
      000000F8H.7 SFRSYM    DATA     BIT       APP_REQ
      000000B0H.2 SFRSYM    DATA     BIT       RTC_SCL
      000000BFH   SFRSYM    DATA     BYTE      IRCON2
      000000BAH   SFRSYM    DATA     BYTE      SREL0H
      000000BBH   SFRSYM    DATA     BYTE      SREL1H
      00000087H   SFRSYM    DATA     BYTE      PCON
      000000AAH   SFRSYM    DATA     BYTE      SREL0L
      000000F9H   SFRSYM    DATA     BYTE      PORTDRV
      0000009DH   SFRSYM    DATA     BYTE      SREL1L
LX51 LINKER/LOCATER V4.66.93.0                                                        04/24/2025  12:33:12  PAGE 129


      00000089H   SFRSYM    DATA     BYTE      TMOD
      00000088H   SFRSYM    DATA     BYTE      TCON
      00000097H   SFRSYM    DATA     BYTE      SCON2R
      000000FFH   SFRSYM    DATA     BYTE      EXDATA
      000000ABH   SFRSYM    DATA     BYTE      SCON3R
      000000D9H   SFRSYM    DATA     BYTE      BODE2_DIV_H
      000000AEH   SFRSYM    DATA     BYTE      BODE3_DIV_H
      00000096H   SFRSYM    DATA     BYTE      SCON2T
      000000A7H   SFRSYM    DATA     BYTE      SCON3T
      000000E7H   SFRSYM    DATA     BYTE      BODE2_DIV_L
      00000088H.1 SFRSYM    DATA     BIT       IE0
      000000AFH   SFRSYM    DATA     BYTE      BODE3_DIV_L
      00000088H.3 SFRSYM    DATA     BIT       IE1
      000000C9H   SFRSYM    DATA     BYTE      MUX_SEL
      020086CBH   SFRSYM    XDATA    WORD      B
      000000E0H   SFRSYM    DATA     BYTE      ACC
      000000A8H.4 SFRSYM    DATA     BIT       ES0
      0000008FH   SFRSYM    DATA     BYTE      CAN_CR
      000000A8H.1 SFRSYM    DATA     BIT       ET0
      000000A9H   SFRSYM    DATA     BYTE      IP0
      000000A8H.3 SFRSYM    DATA     BIT       ET1
      00000088H.5 SFRSYM    DATA     BIT       TF0
      000000B9H   SFRSYM    DATA     BYTE      IP1
      000000A8H.5 SFRSYM    DATA     BIT       ET2
      00000098H.0 SFRSYM    DATA     BIT       RI0
      00000088H.7 SFRSYM    DATA     BIT       TF1
      000000FDH   SFRSYM    DATA     BYTE      DATA0
      000000C0H.6 SFRSYM    DATA     BIT       TF2
      000000E8H   SFRSYM    DATA     BYTE      CAN_ET
      000000FCH   SFRSYM    DATA     BYTE      DATA1
      0000008CH   SFRSYM    DATA     BYTE      TH0
      000000A8H.0 SFRSYM    DATA     BIT       EX0
      00000098H.1 SFRSYM    DATA     BIT       TI0
      00000088H.0 SFRSYM    DATA     BIT       IT0
      000000FBH   SFRSYM    DATA     BYTE      DATA2
      0000008DH   SFRSYM    DATA     BYTE      TH1
      000000A8H.2 SFRSYM    DATA     BIT       EX1
      00000091H   SFRSYM    DATA     BYTE      CAN_IR
      000000CDH   SFRSYM    DATA     BYTE      TH2
      00000088H.2 SFRSYM    DATA     BIT       IT1
      000000FAH   SFRSYM    DATA     BYTE      DATA3
      000000D0H.0 SFRSYM    DATA     BIT       P
      00000098H.7 SFRSYM    DATA     BIT       SM0
      0000008AH   SFRSYM    DATA     BYTE      TL0
      00000098H.6 SFRSYM    DATA     BIT       SM1
      0000008BH   SFRSYM    DATA     BYTE      TL1
      00000098H.5 SFRSYM    DATA     BIT       SM2
      000000CCH   SFRSYM    DATA     BYTE      TL2
      000000A0H.7 SFRSYM    DATA     BIT       UV_St
      000000D0H.3 SFRSYM    DATA     BIT       RS0
      000000F8H.6 SFRSYM    DATA     BIT       APP_EN
      000000D0H.4 SFRSYM    DATA     BIT       RS1
      00000088H.4 SFRSYM    DATA     BIT       TR0
      00000088H.6 SFRSYM    DATA     BIT       TR1
      00000093H   SFRSYM    DATA     BYTE      DPC
      000000C8H.0 SFRSYM    DATA     BIT       TR2
      000000E5H   SFRSYM    DATA     BYTE      MAC_MODE
      00000083H   SFRSYM    DATA     BYTE      DPH
      00000082H   SFRSYM    DATA     BYTE      DPL
      00000099H   SFRSYM    DATA     BYTE      SBUF0
      0000009CH   SFRSYM    DATA     BYTE      SBUF1
      00000098H   SFRSYM    DATA     BYTE      SCON0
      0000009BH   SFRSYM    DATA     BYTE      SCON1
      000000D8H   SFRSYM    DATA     BYTE      ADCON
      000000C8H   SFRSYM    DATA     BYTE      T2CON
LX51 LINKER/LOCATER V4.66.93.0                                                        04/24/2025  12:33:12  PAGE 130


      000000E6H   SFRSYM    DATA     BYTE      DIV_MODE
      000000F8H.5 SFRSYM    DATA     BIT       APP_RW
      000000CBH   SFRSYM    DATA     BYTE      TRL2H
      0000009FH   SFRSYM    DATA     BYTE      SBUF2_RX
      000000ADH   SFRSYM    DATA     BYTE      SBUF3_RX
      0000008EH   SFRSYM    DATA     BYTE      CKCON
      0000009EH   SFRSYM    DATA     BYTE      SBUF2_TX
      000000ACH   SFRSYM    DATA     BYTE      SBUF3_TX
      000000CAH   SFRSYM    DATA     BYTE      TRL2L
      000000D0H.5 SFRSYM    DATA     BIT       F0
      000000FEH   SFRSYM    DATA     BYTE      EXADR
      000000D0H.1 SFRSYM    DATA     BIT       F1
      000000A0H.3 SFRSYM    DATA     BIT       LED_B
      000000D0H   SFRSYM    DATA     BYTE      PSW
      000000A0H.1 SFRSYM    DATA     BIT       LED_G
      000000C0H   SFRSYM    DATA     BYTE      IRCON
      00000098H.2 SFRSYM    DATA     BIT       RB80

      01009436H   BLOCK     CODE     ---       LVL=0
      01009436H   LINE      CODE     ---       #15
      01009436H   LINE      CODE     ---       #16
      01009436H   LINE      CODE     ---       #17
      01009445H   LINE      CODE     ---       #18
      01009454H   LINE      CODE     ---       #19
      ---         BLOCKEND  ---      ---       LVL=0

      01009463H   BLOCK     CODE     ---       LVL=0
      01009463H   LINE      CODE     ---       #22
      01009463H   LINE      CODE     ---       #23
      01009463H   LINE      CODE     ---       #24
      01009472H   LINE      CODE     ---       #25
      01009481H   LINE      CODE     ---       #26
      ---         BLOCKEND  ---      ---       LVL=0

      0100698DH   BLOCK     CODE     ---       LVL=0
      0100698DH   BLOCK     CODE     NEAR LAB  LVL=1
      0200846EH   SYMBOL    XDATA    BYTE      hang
      0200846FH   SYMBOL    XDATA    BYTE      i_f
      02008470H   SYMBOL    XDATA    ---       week_read
      02008472H   SYMBOL    XDATA    WORD      run_date
      ---         BLOCKEND  ---      ---       LVL=1
      0100698DH   LINE      CODE     ---       #33
      0100698DH   LINE      CODE     ---       #34
      0100698DH   LINE      CODE     ---       #35
      01006992H   LINE      CODE     ---       #39
      01006994H   LINE      CODE     ---       #40
      01006997H   LINE      CODE     ---       #41
      010069ADH   LINE      CODE     ---       #42
      010069B5H   LINE      CODE     ---       #43
      010069B7H   LINE      CODE     ---       #44
      010069CDH   LINE      CODE     ---       #45
      010069E3H   LINE      CODE     ---       #46
      010069E3H   LINE      CODE     ---       #48
      01006A05H   LINE      CODE     ---       #49
      01006A05H   LINE      CODE     ---       #50
      01006A22H   LINE      CODE     ---       #51
      01006A4CH   LINE      CODE     ---       #52
      01006A4CH   LINE      CODE     ---       #53
      01006A58H   LINE      CODE     ---       #54
      01006A5AH   LINE      CODE     ---       #55
      01006A65H   LINE      CODE     ---       #56
      01006A67H   LINE      CODE     ---       #57
      01006A6DH   LINE      CODE     ---       #58
      01006A76H   LINE      CODE     ---       #59
      01006A89H   LINE      CODE     ---       #60
LX51 LINKER/LOCATER V4.66.93.0                                                        04/24/2025  12:33:12  PAGE 131


      01006A8BH   LINE      CODE     ---       #61
      ---         BLOCKEND  ---      ---       LVL=0

      010046B2H   BLOCK     CODE     ---       LVL=0
      010046B2H   BLOCK     CODE     NEAR LAB  LVL=1
      020087E5H   SYMBOL    XDATA    ---       run_t1
      020087E9H   SYMBOL    XDATA    ---       run_t2
      0200846DH   SYMBOL    XDATA    BYTE      i
      ---         BLOCKEND  ---      ---       LVL=1
      010046B2H   LINE      CODE     ---       #69
      010046B2H   LINE      CODE     ---       #70
      010046B2H   LINE      CODE     ---       #79
      010046BAH   LINE      CODE     ---       #80
      010046BAH   LINE      CODE     ---       #81
      010046BBH   LINE      CODE     ---       #82
      010046BEH   LINE      CODE     ---       #83
      010046BEH   LINE      CODE     ---       #84
      010046D4H   LINE      CODE     ---       #86
      010046D6H   LINE      CODE     ---       #88
      010046E1H   LINE      CODE     ---       #89
      010046E1H   LINE      CODE     ---       #90
      010046E8H   LINE      CODE     ---       #91
      010046E8H   LINE      CODE     ---       #92
      01004706H   LINE      CODE     ---       #93
      01004706H   LINE      CODE     ---       #94
      0100471AH   LINE      CODE     ---       #95
      01004730H   LINE      CODE     ---       #96
      01004730H   LINE      CODE     ---       #97
      01004744H   LINE      CODE     ---       #98
      01004744H   LINE      CODE     ---       #100
      01004746H   LINE      CODE     ---       #101
      0100474CH   LINE      CODE     ---       #102
      0100474CH   LINE      CODE     ---       #103
      0100474EH   LINE      CODE     ---       #104
      0100474EH   LINE      CODE     ---       #107
      0100476CH   LINE      CODE     ---       #108
      0100476CH   LINE      CODE     ---       #109
      01004770H   LINE      CODE     ---       #110
      01004776H   LINE      CODE     ---       #111
      01004779H   LINE      CODE     ---       #112
      01004779H   LINE      CODE     ---       #114
      0100477CH   LINE      CODE     ---       #115
      01004785H   LINE      CODE     ---       #116
      01004785H   LINE      CODE     ---       #118
      0100479AH   LINE      CODE     ---       #119
      0100479AH   LINE      CODE     ---       #120
      010047ACH   LINE      CODE     ---       #121
      010047ACH   LINE      CODE     ---       #123
      010047CEH   LINE      CODE     ---       #124
      010047DDH   LINE      CODE     ---       #125
      010047DDH   LINE      CODE     ---       #127
      010047ECH   LINE      CODE     ---       #128
      010047ECH   LINE      CODE     ---       #130
      0100480EH   LINE      CODE     ---       #132
      0100484EH   LINE      CODE     ---       #134
      01004854H   LINE      CODE     ---       #135
      01004856H   LINE      CODE     ---       #136
      0100485AH   LINE      CODE     ---       #137
      01004861H   LINE      CODE     ---       #138
      01004868H   LINE      CODE     ---       #139
      0100486FH   LINE      CODE     ---       #140
      0100486FH   LINE      CODE     ---       #141
      0100486FH   LINE      CODE     ---       #143
      0100486FH   LINE      CODE     ---       #144
      01004878H   LINE      CODE     ---       #148
LX51 LINKER/LOCATER V4.66.93.0                                                        04/24/2025  12:33:12  PAGE 132


      01004878H   LINE      CODE     ---       #149
      0100487AH   LINE      CODE     ---       #151
      ---         BLOCKEND  ---      ---       LVL=0

      01009712H   BLOCK     CODE     ---       LVL=0
      01009712H   LINE      CODE     ---       #155
      01009712H   LINE      CODE     ---       #156
      01009712H   LINE      CODE     ---       #157
      ---         BLOCKEND  ---      ---       LVL=0

      01009511H   BLOCK     CODE     ---       LVL=0
      01009511H   LINE      CODE     ---       #160
      01009511H   LINE      CODE     ---       #161
      01009511H   LINE      CODE     ---       #162
      01009516H   LINE      CODE     ---       #163
      0100951AH   LINE      CODE     ---       #164
      01009520H   LINE      CODE     ---       #165
      01009526H   LINE      CODE     ---       #166
      0100952CH   LINE      CODE     ---       #167
      01009531H   LINE      CODE     ---       #168
      01009539H   LINE      CODE     ---       #170
      ---         BLOCKEND  ---      ---       LVL=0

      ---         MODULE    ---      ---       I2C
      00000023H.2 PUBLIC    BIT      BIT       s
      02008815H   PUBLIC    XDATA    ---       flag_rtc_init
      02008814H   PUBLIC    XDATA    BYTE      Select_rtc
      0200880EH   PUBLIC    XDATA    ---       flag_rtc_in
      0100953AH   PUBLIC    CODE     ---       Clock
      010051FFH   PUBLIC    CODE     ---       RTC_Set_Time
      01008E6EH   PUBLIC    CODE     ---       Init_Rtc
      010058EFH   PUBLIC    CODE     ---       Read_Time
      01005792H   PUBLIC    CODE     ---       _RTC_Get_Week
      01009490H   PUBLIC    CODE     ---       Rx8130_Read_Byte
      01008D16H   PUBLIC    CODE     ---       _Rx8130_Writ_Byte
      0100002EH   PUBLIC    CODE     ---       Rx8130_Cack
      010096E7H   PUBLIC    CODE     ---       Rx8130_Mnak
      010096A9H   PUBLIC    CODE     ---       Rx8130_Mack
      01009598H   PUBLIC    CODE     ---       Rx8130_Stop
      01009657H   PUBLIC    CODE     ---       Rx8130_Start
      01002EC3H   PUBLIC    CODE     ---       RTC_SET_IN
      01000066H   PUBLIC    CODE     ---       SDA_OUT
      0100005EH   PUBLIC    CODE     ---       SDA_IN
      0100960AH   PUBLIC    CODE     ---       Delayus
      00000098H.3 SFRSYM    DATA     BIT       TB80
      000000F1H   SFRSYM    DATA     BYTE      ADR_H
      00000080H   SFRSYM    DATA     BYTE      P0
      00000090H   SFRSYM    DATA     BYTE      P1
      000000A0H   SFRSYM    DATA     BYTE      P2
      000000B0H   SFRSYM    DATA     BYTE      P3
      000000D0H.6 SFRSYM    DATA     BIT       AC
      000000F3H   SFRSYM    DATA     BYTE      ADR_L
      00000094H   SFRSYM    DATA     BYTE      PAGESEL
      000000F2H   SFRSYM    DATA     BYTE      ADR_M
      000000A8H.7 SFRSYM    DATA     BIT       EA
      000000A0H.5 SFRSYM    DATA     BIT       JIGUANG
      00000090H.7 SFRSYM    DATA     BIT       LED_R
      000000F8H   SFRSYM    DATA     BYTE      RAMMODE
      000000B7H   SFRSYM    DATA     BYTE      P0MDOUT
      000000A8H   SFRSYM    DATA     BYTE      IEN0
      000000BCH   SFRSYM    DATA     BYTE      P1MDOUT
      000000B8H   SFRSYM    DATA     BYTE      IEN1
      000000BDH   SFRSYM    DATA     BYTE      P2MDOUT
      000000F8H.0 SFRSYM    DATA     BIT       APP_DATA0
      0000009AH   SFRSYM    DATA     BYTE      IEN2
LX51 LINKER/LOCATER V4.66.93.0                                                        04/24/2025  12:33:12  PAGE 133


      000000BEH   SFRSYM    DATA     BYTE      P3MDOUT
      000000F8H.1 SFRSYM    DATA     BIT       APP_DATA1
      000000D1H   SFRSYM    DATA     BYTE      IEN3
      00000080H.0 SFRSYM    DATA     BIT       P0_0
      000000F8H.2 SFRSYM    DATA     BIT       APP_DATA2
      00000090H.0 SFRSYM    DATA     BIT       P1_0
      000000F8H.3 SFRSYM    DATA     BIT       APP_DATA3
      00000090H.1 SFRSYM    DATA     BIT       P1_1
      000000F8H.4 SFRSYM    DATA     BIT       APP_ACK
      000000F4H   SFRSYM    DATA     BYTE      ADR_INC
      000000B0H.1 SFRSYM    DATA     BIT       P3_1
      00000098H.4 SFRSYM    DATA     BIT       REN0
      000000B8H.1 SFRSYM    DATA     BIT       ECAN
      000000D0H.7 SFRSYM    DATA     BIT       CY
      000000B8H.3 SFRSYM    DATA     BIT       ES2R
      000000B8H.5 SFRSYM    DATA     BIT       ES3R
      000000B8H.2 SFRSYM    DATA     BIT       ES2T
      000000B8H.4 SFRSYM    DATA     BIT       ES3T
      000000C8H.7 SFRSYM    DATA     BIT       TSF2
      000000B0H.3 SFRSYM    DATA     BIT       RTC_SDA
      00000081H   SFRSYM    DATA     BYTE      SP
      000000D0H.2 SFRSYM    DATA     BIT       OV
      00000095H   SFRSYM    DATA     BYTE      D_PAGESEL
      00000090H.5 SFRSYM    DATA     BIT       UV
      000000F8H.7 SFRSYM    DATA     BIT       APP_REQ
      000000B0H.2 SFRSYM    DATA     BIT       RTC_SCL
      000000BFH   SFRSYM    DATA     BYTE      IRCON2
      000000BAH   SFRSYM    DATA     BYTE      SREL0H
      000000BBH   SFRSYM    DATA     BYTE      SREL1H
      00000087H   SFRSYM    DATA     BYTE      PCON
      000000AAH   SFRSYM    DATA     BYTE      SREL0L
      000000F9H   SFRSYM    DATA     BYTE      PORTDRV
      0000009DH   SFRSYM    DATA     BYTE      SREL1L
      00000089H   SFRSYM    DATA     BYTE      TMOD
      00000088H   SFRSYM    DATA     BYTE      TCON
      00000097H   SFRSYM    DATA     BYTE      SCON2R
      000000FFH   SFRSYM    DATA     BYTE      EXDATA
      000000ABH   SFRSYM    DATA     BYTE      SCON3R
      000000D9H   SFRSYM    DATA     BYTE      BODE2_DIV_H
      000000AEH   SFRSYM    DATA     BYTE      BODE3_DIV_H
      00000096H   SFRSYM    DATA     BYTE      SCON2T
      000000A7H   SFRSYM    DATA     BYTE      SCON3T
      000000E7H   SFRSYM    DATA     BYTE      BODE2_DIV_L
      00000088H.1 SFRSYM    DATA     BIT       IE0
      000000AFH   SFRSYM    DATA     BYTE      BODE3_DIV_L
      00000088H.3 SFRSYM    DATA     BIT       IE1
      000000C9H   SFRSYM    DATA     BYTE      MUX_SEL
      020086CBH   SFRSYM    XDATA    WORD      B
      000000E0H   SFRSYM    DATA     BYTE      ACC
      000000A8H.4 SFRSYM    DATA     BIT       ES0
      0000008FH   SFRSYM    DATA     BYTE      CAN_CR
      000000A8H.1 SFRSYM    DATA     BIT       ET0
      000000A9H   SFRSYM    DATA     BYTE      IP0
      000000A8H.3 SFRSYM    DATA     BIT       ET1
      00000088H.5 SFRSYM    DATA     BIT       TF0
      000000B9H   SFRSYM    DATA     BYTE      IP1
      000000A8H.5 SFRSYM    DATA     BIT       ET2
      00000098H.0 SFRSYM    DATA     BIT       RI0
      00000088H.7 SFRSYM    DATA     BIT       TF1
      000000FDH   SFRSYM    DATA     BYTE      DATA0
      000000C0H.6 SFRSYM    DATA     BIT       TF2
      000000E8H   SFRSYM    DATA     BYTE      CAN_ET
      000000FCH   SFRSYM    DATA     BYTE      DATA1
      0000008CH   SFRSYM    DATA     BYTE      TH0
      000000A8H.0 SFRSYM    DATA     BIT       EX0
LX51 LINKER/LOCATER V4.66.93.0                                                        04/24/2025  12:33:12  PAGE 134


      00000098H.1 SFRSYM    DATA     BIT       TI0
      00000088H.0 SFRSYM    DATA     BIT       IT0
      000000FBH   SFRSYM    DATA     BYTE      DATA2
      0000008DH   SFRSYM    DATA     BYTE      TH1
      000000A8H.2 SFRSYM    DATA     BIT       EX1
      00000091H   SFRSYM    DATA     BYTE      CAN_IR
      000000CDH   SFRSYM    DATA     BYTE      TH2
      00000088H.2 SFRSYM    DATA     BIT       IT1
      000000FAH   SFRSYM    DATA     BYTE      DATA3
      000000D0H.0 SFRSYM    DATA     BIT       P
      00000098H.7 SFRSYM    DATA     BIT       SM0
      0000008AH   SFRSYM    DATA     BYTE      TL0
      00000098H.6 SFRSYM    DATA     BIT       SM1
      0000008BH   SFRSYM    DATA     BYTE      TL1
      00000098H.5 SFRSYM    DATA     BIT       SM2
      000000CCH   SFRSYM    DATA     BYTE      TL2
      000000A0H.7 SFRSYM    DATA     BIT       UV_St
      000000D0H.3 SFRSYM    DATA     BIT       RS0
      000000F8H.6 SFRSYM    DATA     BIT       APP_EN
      000000D0H.4 SFRSYM    DATA     BIT       RS1
      00000088H.4 SFRSYM    DATA     BIT       TR0
      00000088H.6 SFRSYM    DATA     BIT       TR1
      00000093H   SFRSYM    DATA     BYTE      DPC
      000000C8H.0 SFRSYM    DATA     BIT       TR2
      000000E5H   SFRSYM    DATA     BYTE      MAC_MODE
      00000083H   SFRSYM    DATA     BYTE      DPH
      00000082H   SFRSYM    DATA     BYTE      DPL
      00000099H   SFRSYM    DATA     BYTE      SBUF0
      0000009CH   SFRSYM    DATA     BYTE      SBUF1
      00000098H   SFRSYM    DATA     BYTE      SCON0
      0000009BH   SFRSYM    DATA     BYTE      SCON1
      000000D8H   SFRSYM    DATA     BYTE      ADCON
      000000C8H   SFRSYM    DATA     BYTE      T2CON
      000000E6H   SFRSYM    DATA     BYTE      DIV_MODE
      000000F8H.5 SFRSYM    DATA     BIT       APP_RW
      000000CBH   SFRSYM    DATA     BYTE      TRL2H
      0000009FH   SFRSYM    DATA     BYTE      SBUF2_RX
      000000ADH   SFRSYM    DATA     BYTE      SBUF3_RX
      0000008EH   SFRSYM    DATA     BYTE      CKCON
      0000009EH   SFRSYM    DATA     BYTE      SBUF2_TX
      000000ACH   SFRSYM    DATA     BYTE      SBUF3_TX
      000000CAH   SFRSYM    DATA     BYTE      TRL2L
      000000D0H.5 SFRSYM    DATA     BIT       F0
      000000FEH   SFRSYM    DATA     BYTE      EXADR
      000000D0H.1 SFRSYM    DATA     BIT       F1
      000000A0H.3 SFRSYM    DATA     BIT       LED_B
      000000D0H   SFRSYM    DATA     BYTE      PSW
      000000A0H.1 SFRSYM    DATA     BIT       LED_G
      000000C0H   SFRSYM    DATA     BYTE      IRCON
      00000098H.2 SFRSYM    DATA     BIT       RB80
      01009E37H   SYMBOL    CONST    ---       _?ix1000
      01009E3DH   SYMBOL    CONST    ---       _?ix1001
      01009E45H   SYMBOL    CONST    ---       _?ix1002

      01009603H   BLOCK     CODE     ---       LVL=0
      ---         BLOCKEND  ---      ---       LVL=0

      0100960AH   BLOCK     CODE     ---       LVL=0
      00000007H   SYMBOL    DATA     BYTE      i
      0100960AH   BLOCK     CODE     NEAR LAB  LVL=1
      00000007H   SYMBOL    DATA     BYTE      i
      ---         BLOCKEND  ---      ---       LVL=1
      0100960AH   LINE      CODE     ---       #10
      ---         BLOCKEND  ---      ---       LVL=0

LX51 LINKER/LOCATER V4.66.93.0                                                        04/24/2025  12:33:12  PAGE 135


      0100005EH   BLOCK     CODE     ---       LVL=0
      0100005EH   LINE      CODE     ---       #12
      ---         BLOCKEND  ---      ---       LVL=0

      01000066H   BLOCK     CODE     ---       LVL=0
      01000066H   LINE      CODE     ---       #14
      ---         BLOCKEND  ---      ---       LVL=0

      01002EC3H   BLOCK     CODE     ---       LVL=0
      01002EC3H   BLOCK     CODE     NEAR LAB  LVL=1
      02008433H   SYMBOL    XDATA    ---       RTC_H
      02008437H   SYMBOL    XDATA    ---       RTC_L
      0200843BH   SYMBOL    XDATA    ---       RTC_6
      02008808H   SYMBOL    XDATA    ---       RTC_9C
      02008441H   SYMBOL    XDATA    DWORD     RTC_H_HEX
      0200880AH   SYMBOL    XDATA    DWORD     RTC_L_HEX
      ---         BLOCKEND  ---      ---       LVL=1
      01002EC3H   LINE      CODE     ---       #20
      01002EC3H   LINE      CODE     ---       #21
      01002EC3H   LINE      CODE     ---       #27
      01002ED6H   LINE      CODE     ---       #33
      01002EECH   LINE      CODE     ---       #34
      01002F02H   LINE      CODE     ---       #53
      01002F76H   LINE      CODE     ---       #54
      01002FEAH   LINE      CODE     ---       #58
      01003006H   LINE      CODE     ---       #59
      0100302BH   LINE      CODE     ---       #60
      01003051H   LINE      CODE     ---       #61
      0100306DH   LINE      CODE     ---       #62
      01003092H   LINE      CODE     ---       #63
      010030B8H   LINE      CODE     ---       #66
      010030CEH   LINE      CODE     ---       #67
      010030CEH   LINE      CODE     ---       #68
      010030E2H   LINE      CODE     ---       #69
      010030E2H   LINE      CODE     ---       #70
      010030F4H   LINE      CODE     ---       #71
      010030F4H   LINE      CODE     ---       #72
      01003106H   LINE      CODE     ---       #73
      01003106H   LINE      CODE     ---       #74
      01003118H   LINE      CODE     ---       #75
      01003118H   LINE      CODE     ---       #76
      0100311DH   LINE      CODE     ---       #77
      01003124H   LINE      CODE     ---       #78
      0100312BH   LINE      CODE     ---       #79
      0100312DH   LINE      CODE     ---       #80
      01003130H   LINE      CODE     ---       #81
      01003132H   LINE      CODE     ---       #82
      01003138H   LINE      CODE     ---       #84
      0100314EH   LINE      CODE     ---       #85
      ---         BLOCKEND  ---      ---       LVL=0

      01009657H   BLOCK     CODE     ---       LVL=0
      01009657H   LINE      CODE     ---       #88
      01009657H   LINE      CODE     ---       #89
      01009657H   LINE      CODE     ---       #90
      0100965AH   LINE      CODE     ---       #91
      0100965CH   LINE      CODE     ---       #92
      0100965EH   LINE      CODE     ---       #93
      01009661H   LINE      CODE     ---       #94
      01009663H   LINE      CODE     ---       #95
      01009666H   LINE      CODE     ---       #96
      01009668H   LINE      CODE     ---       #97
      ---         BLOCKEND  ---      ---       LVL=0

      01009589H   BLOCK     CODE     ---       LVL=0
LX51 LINKER/LOCATER V4.66.93.0                                                        04/24/2025  12:33:12  PAGE 136


      ---         BLOCKEND  ---      ---       LVL=0

      01009598H   BLOCK     CODE     ---       LVL=0
      01009598H   LINE      CODE     ---       #100
      01009598H   LINE      CODE     ---       #101
      01009598H   LINE      CODE     ---       #102
      0100959BH   LINE      CODE     ---       #103
      0100959DH   LINE      CODE     ---       #104
      0100959FH   LINE      CODE     ---       #105
      010095A2H   LINE      CODE     ---       #106
      010095A4H   LINE      CODE     ---       #107
      010095A7H   LINE      CODE     ---       #108
      ---         BLOCKEND  ---      ---       LVL=0

      010096A9H   BLOCK     CODE     ---       LVL=0
      010096A9H   LINE      CODE     ---       #111
      010096A9H   LINE      CODE     ---       #112
      010096A9H   LINE      CODE     ---       #113
      010096ACH   LINE      CODE     ---       #114
      010096AEH   LINE      CODE     ---       #115
      010096AEH   LINE      CODE     ---       #116
      010096AEH   LINE      CODE     ---       #117
      010096B1H   LINE      CODE     ---       #118
      010096B3H   LINE      CODE     ---       #119
      ---         BLOCKEND  ---      ---       LVL=0

      010096E7H   BLOCK     CODE     ---       LVL=0
      010096E7H   LINE      CODE     ---       #122
      010096E7H   LINE      CODE     ---       #123
      010096E7H   LINE      CODE     ---       #124
      010096EAH   LINE      CODE     ---       #125
      010096EAH   LINE      CODE     ---       #126
      010096EAH   LINE      CODE     ---       #127
      010096EAH   LINE      CODE     ---       #128
      010096EDH   LINE      CODE     ---       #129
      010096EFH   LINE      CODE     ---       #130
      ---         BLOCKEND  ---      ---       LVL=0

      0100002EH   BLOCK     CODE     ---       LVL=0
      0100002EH   BLOCK     CODE     NEAR LAB  LVL=1
      00000006H   SYMBOL    DATA     BYTE      i
      ---         BLOCKEND  ---      ---       LVL=1
      0100002EH   LINE      CODE     ---       #133
      0100002EH   LINE      CODE     ---       #134
      0100002EH   LINE      CODE     ---       #136
      01000031H   LINE      CODE     ---       #137
      01000031H   LINE      CODE     ---       #138
      01000031H   LINE      CODE     ---       #139
      01000031H   LINE      CODE     ---       #140
      01000034H   LINE      CODE     ---       #141
      01000040H   LINE      CODE     ---       #142
      01000040H   LINE      CODE     ---       #143
      01000043H   LINE      CODE     ---       #144
      01000046H   LINE      CODE     ---       #145
      01000049H   LINE      CODE     ---       #146
      0100004BH   LINE      CODE     ---       #147
      0100004EH   LINE      CODE     ---       #148
      ---         BLOCKEND  ---      ---       LVL=0

      01008CD8H   BLOCK     CODE     ---       LVL=0
      ---         BLOCKEND  ---      ---       LVL=0

      01008D16H   BLOCK     CODE     ---       LVL=0
      00000006H   SYMBOL    DATA     BYTE      dat
      00000005H   SYMBOL    DATA     BYTE      i
LX51 LINKER/LOCATER V4.66.93.0                                                        04/24/2025  12:33:12  PAGE 137


      01008D18H   BLOCK     CODE     NEAR LAB  LVL=1
      00000005H   SYMBOL    DATA     BYTE      i
      ---         BLOCKEND  ---      ---       LVL=1
      01008D16H   LINE      CODE     ---       #151
      01008D18H   LINE      CODE     ---       #152
      01008D18H   LINE      CODE     ---       #154
      01008D1BH   LINE      CODE     ---       #155
      01008D27H   LINE      CODE     ---       #156
      01008D27H   LINE      CODE     ---       #157
      01008D2FH   LINE      CODE     ---       #158
      01008D31H   LINE      CODE     ---       #159
      01008D35H   LINE      CODE     ---       #160
      01008D35H   LINE      CODE     ---       #161
      01008D35H   LINE      CODE     ---       #162
      01008D38H   LINE      CODE     ---       #163
      01008D3AH   LINE      CODE     ---       #164
      01008D3DH   LINE      CODE     ---       #165
      01008D40H   LINE      CODE     ---       #166
      ---         BLOCKEND  ---      ---       LVL=0

      01009490H   BLOCK     CODE     ---       LVL=0
      01009490H   BLOCK     CODE     NEAR LAB  LVL=1
      00000005H   SYMBOL    DATA     BYTE      i
      00000006H   SYMBOL    DATA     BYTE      Dat
      ---         BLOCKEND  ---      ---       LVL=1
      01009490H   LINE      CODE     ---       #169
      01009490H   LINE      CODE     ---       #170
      01009490H   LINE      CODE     ---       #173
      01009493H   LINE      CODE     ---       #174
      0100949FH   LINE      CODE     ---       #175
      0100949FH   LINE      CODE     ---       #176
      0100949FH   LINE      CODE     ---       #177
      0100949FH   LINE      CODE     ---       #178
      010094A2H   LINE      CODE     ---       #179
      010094A6H   LINE      CODE     ---       #180
      010094AEH   LINE      CODE     ---       #181
      010094B2H   LINE      CODE     ---       #182
      010094B4H   LINE      CODE     ---       #183
      010094B7H   LINE      CODE     ---       #184
      010094BAH   LINE      CODE     ---       #185
      010094BCH   LINE      CODE     ---       #186
      ---         BLOCKEND  ---      ---       LVL=0

      01005792H   BLOCK     CODE     ---       LVL=0
      00000007H   SYMBOL    DATA     BYTE      years
      020083C5H   SYMBOL    XDATA    BYTE      month
      020083C6H   SYMBOL    XDATA    BYTE      day
      0100579CH   BLOCK     CODE     NEAR LAB  LVL=1
      020083C7H   SYMBOL    XDATA    BYTE      weak
      020083C8H   SYMBOL    XDATA    WORD      year
      ---         BLOCKEND  ---      ---       LVL=1
      01005792H   LINE      CODE     ---       #188
      0100579CH   LINE      CODE     ---       #189
      0100579CH   LINE      CODE     ---       #192
      010057AAH   LINE      CODE     ---       #193
      010057B5H   LINE      CODE     ---       #194
      010057B5H   LINE      CODE     ---       #195
      010057CAH   LINE      CODE     ---       #196
      010057CAH   LINE      CODE     ---       #197
      0100580EH   LINE      CODE     ---       #198
      0100580EH   LINE      CODE     ---       #199
      0100585EH   LINE      CODE     ---       #200
      01005860H   LINE      CODE     ---       #202
      01005860H   LINE      CODE     ---       #203
      010058E9H   LINE      CODE     ---       #204
LX51 LINKER/LOCATER V4.66.93.0                                                        04/24/2025  12:33:12  PAGE 138


      010058E9H   LINE      CODE     ---       #205
      010058EEH   LINE      CODE     ---       #206
      ---         BLOCKEND  ---      ---       LVL=0

      010058EFH   BLOCK     CODE     ---       LVL=0
      010058EFH   BLOCK     CODE     NEAR LAB  LVL=1
      00000004H   SYMBOL    DATA     BYTE      i
      020083BBH   SYMBOL    XDATA    BYTE      N
      020083BCH   SYMBOL    XDATA    BYTE      M
      020083BDH   SYMBOL    XDATA    ---       Rtcdata
      ---         BLOCKEND  ---      ---       LVL=1
      010058EFH   LINE      CODE     ---       #208
      010058EFH   LINE      CODE     ---       #209
      010058EFH   LINE      CODE     ---       #212
      01005902H   LINE      CODE     ---       #213
      01005917H   LINE      CODE     ---       #214
      01005917H   LINE      CODE     ---       #215
      0100591AH   LINE      CODE     ---       #216
      0100591AH   LINE      CODE     ---       #217
      0100591DH   LINE      CODE     ---       #218
      01005920H   LINE      CODE     ---       #219
      01005925H   LINE      CODE     ---       #220
      01005931H   LINE      CODE     ---       #221
      01005931H   LINE      CODE     ---       #222
      01005940H   LINE      CODE     ---       #223
      01005943H   LINE      CODE     ---       #224
      01005946H   LINE      CODE     ---       #225
      01005951H   LINE      CODE     ---       #226
      01005954H   LINE      CODE     ---       #227
      01005960H   LINE      CODE     ---       #228
      01005960H   LINE      CODE     ---       #229
      01005974H   LINE      CODE     ---       #230
      0100597AH   LINE      CODE     ---       #231
      0100598DH   LINE      CODE     ---       #232
      01005990H   LINE      CODE     ---       #233
      0100599CH   LINE      CODE     ---       #234
      0100599CH   LINE      CODE     ---       #235
      010059B0H   LINE      CODE     ---       #236
      010059B6H   LINE      CODE     ---       #237
      010059C9H   LINE      CODE     ---       #238
      010059CCH   LINE      CODE     ---       #239
      010059DFH   LINE      CODE     ---       #240
      010059F5H   LINE      CODE     ---       #241
      01005A0BH   LINE      CODE     ---       #242
      01005A21H   LINE      CODE     ---       #243
      01005A37H   LINE      CODE     ---       #244
      ---         BLOCKEND  ---      ---       LVL=0

      01008E6EH   BLOCK     CODE     ---       LVL=0
      01008E6EH   BLOCK     CODE     NEAR LAB  LVL=1
      00000004H   SYMBOL    DATA     BYTE      i
      ---         BLOCKEND  ---      ---       LVL=1
      01008E6EH   LINE      CODE     ---       #247
      01008E6EH   LINE      CODE     ---       #248
      01008E6EH   LINE      CODE     ---       #250
      01008E6EH   LINE      CODE     ---       #251
      01008E71H   LINE      CODE     ---       #252
      01008E76H   LINE      CODE     ---       #253
      01008E79H   LINE      CODE     ---       #254
      01008E7CH   LINE      CODE     ---       #255
      01008E81H   LINE      CODE     ---       #256
      01008E86H   LINE      CODE     ---       #257
      01008E89H   LINE      CODE     ---       #258
      01008E8CH   LINE      CODE     ---       #259
      01008E8FH   LINE      CODE     ---       #260
LX51 LINKER/LOCATER V4.66.93.0                                                        04/24/2025  12:33:12  PAGE 139


      01008E92H   LINE      CODE     ---       #261
      01008E99H   LINE      CODE     ---       #262
      01008E99H   LINE      CODE     ---       #264
      01008E99H   LINE      CODE     ---       #265
      01008E99H   LINE      CODE     ---       #266
      01008E99H   LINE      CODE     ---       #267
      01008E99H   LINE      CODE     ---       #268
      01008E99H   LINE      CODE     ---       #269
      01008E99H   LINE      CODE     ---       #270
      01008E99H   LINE      CODE     ---       #271
      01008E99H   LINE      CODE     ---       #272
      01008E99H   LINE      CODE     ---       #273
      01008E99H   LINE      CODE     ---       #274
      01008E99H   LINE      CODE     ---       #275
      01008E99H   LINE      CODE     ---       #276
      01008E99H   LINE      CODE     ---       #277
      01008E99H   LINE      CODE     ---       #278
      01008E9CH   LINE      CODE     ---       #279
      01008EA1H   LINE      CODE     ---       #280
      01008EA6H   LINE      CODE     ---       #281
      01008EABH   LINE      CODE     ---       #282
      01008EB0H   LINE      CODE     ---       #283
      01008EB5H   LINE      CODE     ---       #284
      01008EBAH   LINE      CODE     ---       #285
      01008EBFH   LINE      CODE     ---       #286
      01008EC1H   LINE      CODE     ---       #287
      01008EC1H   LINE      CODE     ---       #288
      01008EC1H   LINE      CODE     ---       #289
      01008EC4H   LINE      CODE     ---       #290
      01008EC4H   LINE      CODE     ---       #291
      01008EC4H   LINE      CODE     ---       #292
      01008EC4H   LINE      CODE     ---       #293
      01008EC7H   LINE      CODE     ---       #294
      01008EC7H   LINE      CODE     ---       #295
      ---         BLOCKEND  ---      ---       LVL=0

      010051FFH   BLOCK     CODE     ---       LVL=0
      010051FFH   BLOCK     CODE     NEAR LAB  LVL=1
      00000006H   SYMBOL    DATA     WORD      Va
      01005213H   BLOCK     CODE     NEAR LAB  LVL=2
      020083BBH   SYMBOL    XDATA    BYTE      N
      020083BCH   SYMBOL    XDATA    BYTE      S
      00000020H.1 SYMBOL    BIT      BIT       Flog
      020083BDH   SYMBOL    XDATA    ---       TimeS
      020083C4H   SYMBOL    XDATA    WORD      V1
      ---         BLOCKEND  ---      ---       LVL=2
      ---         BLOCKEND  ---      ---       LVL=1
      010051FFH   LINE      CODE     ---       #297
      010051FFH   LINE      CODE     ---       #298
      010051FFH   LINE      CODE     ---       #299
      01005206H   LINE      CODE     ---       #300
      01005213H   LINE      CODE     ---       #301
      0100521BH   LINE      CODE     ---       #302
      0100522DH   LINE      CODE     ---       #303
      0100523CH   LINE      CODE     ---       #304
      0100525FH   LINE      CODE     ---       #305
      0100527AH   LINE      CODE     ---       #306
      01005289H   LINE      CODE     ---       #307
      010052ACH   LINE      CODE     ---       #308
      010052C7H   LINE      CODE     ---       #309
      010052D6H   LINE      CODE     ---       #310
      010052F9H   LINE      CODE     ---       #311
      01005314H   LINE      CODE     ---       #314
      0100531DH   LINE      CODE     ---       #315
      01005320H   LINE      CODE     ---       #316
LX51 LINKER/LOCATER V4.66.93.0                                                        04/24/2025  12:33:12  PAGE 140


      01005320H   LINE      CODE     ---       #317
      01005320H   LINE      CODE     ---       #318
      01005320H   LINE      CODE     ---       #319
      01005320H   LINE      CODE     ---       #320
      01005320H   LINE      CODE     ---       #321
      01005320H   LINE      CODE     ---       #322
      01005320H   LINE      CODE     ---       #323
      01005320H   LINE      CODE     ---       #324
      01005320H   LINE      CODE     ---       #325
      01005320H   LINE      CODE     ---       #326
      01005320H   LINE      CODE     ---       #327
      01005320H   LINE      CODE     ---       #328
      01005320H   LINE      CODE     ---       #329
      01005320H   LINE      CODE     ---       #330
      01005320H   LINE      CODE     ---       #331
      01005323H   LINE      CODE     ---       #332
      01005328H   LINE      CODE     ---       #333
      01005330H   LINE      CODE     ---       #334
      01005338H   LINE      CODE     ---       #335
      01005340H   LINE      CODE     ---       #336
      01005348H   LINE      CODE     ---       #337
      01005350H   LINE      CODE     ---       #338
      01005358H   LINE      CODE     ---       #339
      0100535DH   LINE      CODE     ---       #340
      0100535DH   LINE      CODE     ---       #341
      0100535DH   LINE      CODE     ---       #342
      01005360H   LINE      CODE     ---       #343
      01005360H   LINE      CODE     ---       #344
      01005360H   LINE      CODE     ---       #345
      01005360H   LINE      CODE     ---       #346
      01005363H   LINE      CODE     ---       #347
      01005365H   LINE      CODE     ---       #348
      01005367H   LINE      CODE     ---       #349
      01005367H   LINE      CODE     ---       #350
      ---         BLOCKEND  ---      ---       LVL=0

      0100953AH   BLOCK     CODE     ---       LVL=0
      0100953AH   BLOCK     CODE     NEAR LAB  LVL=1
      00000020H.0 SYMBOL    BIT      BIT       k
      ---         BLOCKEND  ---      ---       LVL=1
      0100953AH   LINE      CODE     ---       #368
      0100953AH   LINE      CODE     ---       #369
      0100953AH   LINE      CODE     ---       #371
      0100953CH   LINE      CODE     ---       #372
      0100953EH   LINE      CODE     ---       #374
      01009546H   LINE      CODE     ---       #375
      01009546H   LINE      CODE     ---       #377
      01009555H   LINE      CODE     ---       #378
      01009555H   LINE      CODE     ---       #380
      01009558H   LINE      CODE     ---       #381
      0100955FH   LINE      CODE     ---       #384
      0100955FH   LINE      CODE     ---       #385
      01009562H   LINE      CODE     ---       #388
      01009562H   LINE      CODE     ---       #390
      ---         BLOCKEND  ---      ---       LVL=0

      ---         MODULE    ---      ---       MODE_4
      00000023H.0 PUBLIC    BIT      BIT       start_mode4
      0200882CH   PUBLIC    XDATA    BYTE      mode4_first_flag
      00000022H.7 PUBLIC    BIT      BIT       reset_mode4
      0200882AH   PUBLIC    XDATA    ---       mode4_maichong_on
      02008828H   PUBLIC    XDATA    WORD      t_mode4
      02008826H   PUBLIC    XDATA    ---       mode4_maichong_off
      02008824H   PUBLIC    XDATA    WORD      T_4_ON_OFF
      02008820H   PUBLIC    XDATA    FLOAT     mj_mode4
LX51 LINKER/LOCATER V4.66.93.0                                                        04/24/2025  12:33:12  PAGE 141


      0200881EH   PUBLIC    XDATA    ---       mode4_min
      0200881DH   PUBLIC    XDATA    BYTE      MODE_4_Finish
      01008DA9H   PUBLIC    CODE     ---       set_shoudong_Init
      01008C6BH   PUBLIC    CODE     ---       shoudong_read_norflash
      01006D79H   PUBLIC    CODE     ---       mode4_isr
      0100869DH   PUBLIC    CODE     ---       Static_T_Current_mode4
      01009238H   PUBLIC    CODE     ---       mode_4_run
      01008FC8H   PUBLIC    CODE     ---       mode_4_reset
      0100915CH   PUBLIC    CODE     ---       mode_4_Init
      00000098H.3 SFRSYM    DATA     BIT       TB80
      000000F1H   SFRSYM    DATA     BYTE      ADR_H
      00000080H   SFRSYM    DATA     BYTE      P0
      00000090H   SFRSYM    DATA     BYTE      P1
      000000A0H   SFRSYM    DATA     BYTE      P2
      000000B0H   SFRSYM    DATA     BYTE      P3
      000000D0H.6 SFRSYM    DATA     BIT       AC
      000000F3H   SFRSYM    DATA     BYTE      ADR_L
      00000094H   SFRSYM    DATA     BYTE      PAGESEL
      000000F2H   SFRSYM    DATA     BYTE      ADR_M
      000000A8H.7 SFRSYM    DATA     BIT       EA
      000000A0H.5 SFRSYM    DATA     BIT       JIGUANG
      00000090H.7 SFRSYM    DATA     BIT       LED_R
      000000F8H   SFRSYM    DATA     BYTE      RAMMODE
      000000B7H   SFRSYM    DATA     BYTE      P0MDOUT
      000000A8H   SFRSYM    DATA     BYTE      IEN0
      000000BCH   SFRSYM    DATA     BYTE      P1MDOUT
      000000B8H   SFRSYM    DATA     BYTE      IEN1
      000000BDH   SFRSYM    DATA     BYTE      P2MDOUT
      000000F8H.0 SFRSYM    DATA     BIT       APP_DATA0
      0000009AH   SFRSYM    DATA     BYTE      IEN2
      000000BEH   SFRSYM    DATA     BYTE      P3MDOUT
      000000F8H.1 SFRSYM    DATA     BIT       APP_DATA1
      000000D1H   SFRSYM    DATA     BYTE      IEN3
      00000080H.0 SFRSYM    DATA     BIT       P0_0
      000000F8H.2 SFRSYM    DATA     BIT       APP_DATA2
      00000090H.0 SFRSYM    DATA     BIT       P1_0
      000000F8H.3 SFRSYM    DATA     BIT       APP_DATA3
      00000090H.1 SFRSYM    DATA     BIT       P1_1
      000000F8H.4 SFRSYM    DATA     BIT       APP_ACK
      000000F4H   SFRSYM    DATA     BYTE      ADR_INC
      000000B0H.1 SFRSYM    DATA     BIT       P3_1
      00000098H.4 SFRSYM    DATA     BIT       REN0
      000000B8H.1 SFRSYM    DATA     BIT       ECAN
      000000D0H.7 SFRSYM    DATA     BIT       CY
      000000B8H.3 SFRSYM    DATA     BIT       ES2R
      000000B8H.5 SFRSYM    DATA     BIT       ES3R
      000000B8H.2 SFRSYM    DATA     BIT       ES2T
      000000B8H.4 SFRSYM    DATA     BIT       ES3T
      000000C8H.7 SFRSYM    DATA     BIT       TSF2
      000000B0H.3 SFRSYM    DATA     BIT       RTC_SDA
      00000081H   SFRSYM    DATA     BYTE      SP
      000000D0H.2 SFRSYM    DATA     BIT       OV
      00000095H   SFRSYM    DATA     BYTE      D_PAGESEL
      00000090H.5 SFRSYM    DATA     BIT       UV
      000000F8H.7 SFRSYM    DATA     BIT       APP_REQ
      000000B0H.2 SFRSYM    DATA     BIT       RTC_SCL
      000000BFH   SFRSYM    DATA     BYTE      IRCON2
      000000BAH   SFRSYM    DATA     BYTE      SREL0H
      000000BBH   SFRSYM    DATA     BYTE      SREL1H
      00000087H   SFRSYM    DATA     BYTE      PCON
      000000AAH   SFRSYM    DATA     BYTE      SREL0L
      000000F9H   SFRSYM    DATA     BYTE      PORTDRV
      0000009DH   SFRSYM    DATA     BYTE      SREL1L
      00000089H   SFRSYM    DATA     BYTE      TMOD
      00000088H   SFRSYM    DATA     BYTE      TCON
LX51 LINKER/LOCATER V4.66.93.0                                                        04/24/2025  12:33:12  PAGE 142


      00000097H   SFRSYM    DATA     BYTE      SCON2R
      000000FFH   SFRSYM    DATA     BYTE      EXDATA
      000000ABH   SFRSYM    DATA     BYTE      SCON3R
      000000D9H   SFRSYM    DATA     BYTE      BODE2_DIV_H
      000000AEH   SFRSYM    DATA     BYTE      BODE3_DIV_H
      00000096H   SFRSYM    DATA     BYTE      SCON2T
      000000A7H   SFRSYM    DATA     BYTE      SCON3T
      000000E7H   SFRSYM    DATA     BYTE      BODE2_DIV_L
      00000088H.1 SFRSYM    DATA     BIT       IE0
      000000AFH   SFRSYM    DATA     BYTE      BODE3_DIV_L
      00000088H.3 SFRSYM    DATA     BIT       IE1
      000000C9H   SFRSYM    DATA     BYTE      MUX_SEL
      020086CBH   SFRSYM    XDATA    WORD      B
      000000E0H   SFRSYM    DATA     BYTE      ACC
      000000A8H.4 SFRSYM    DATA     BIT       ES0
      0000008FH   SFRSYM    DATA     BYTE      CAN_CR
      000000A8H.1 SFRSYM    DATA     BIT       ET0
      000000A9H   SFRSYM    DATA     BYTE      IP0
      000000A8H.3 SFRSYM    DATA     BIT       ET1
      00000088H.5 SFRSYM    DATA     BIT       TF0
      000000B9H   SFRSYM    DATA     BYTE      IP1
      000000A8H.5 SFRSYM    DATA     BIT       ET2
      00000098H.0 SFRSYM    DATA     BIT       RI0
      00000088H.7 SFRSYM    DATA     BIT       TF1
      000000FDH   SFRSYM    DATA     BYTE      DATA0
      000000C0H.6 SFRSYM    DATA     BIT       TF2
      000000E8H   SFRSYM    DATA     BYTE      CAN_ET
      000000FCH   SFRSYM    DATA     BYTE      DATA1
      0000008CH   SFRSYM    DATA     BYTE      TH0
      000000A8H.0 SFRSYM    DATA     BIT       EX0
      00000098H.1 SFRSYM    DATA     BIT       TI0
      00000088H.0 SFRSYM    DATA     BIT       IT0
      000000FBH   SFRSYM    DATA     BYTE      DATA2
      0000008DH   SFRSYM    DATA     BYTE      TH1
      000000A8H.2 SFRSYM    DATA     BIT       EX1
      00000091H   SFRSYM    DATA     BYTE      CAN_IR
      000000CDH   SFRSYM    DATA     BYTE      TH2
      00000088H.2 SFRSYM    DATA     BIT       IT1
      000000FAH   SFRSYM    DATA     BYTE      DATA3
      000000D0H.0 SFRSYM    DATA     BIT       P
      00000098H.7 SFRSYM    DATA     BIT       SM0
      0000008AH   SFRSYM    DATA     BYTE      TL0
      00000098H.6 SFRSYM    DATA     BIT       SM1
      0000008BH   SFRSYM    DATA     BYTE      TL1
      00000098H.5 SFRSYM    DATA     BIT       SM2
      000000CCH   SFRSYM    DATA     BYTE      TL2
      000000A0H.7 SFRSYM    DATA     BIT       UV_St
      000000D0H.3 SFRSYM    DATA     BIT       RS0
      000000F8H.6 SFRSYM    DATA     BIT       APP_EN
      000000D0H.4 SFRSYM    DATA     BIT       RS1
      00000088H.4 SFRSYM    DATA     BIT       TR0
      00000088H.6 SFRSYM    DATA     BIT       TR1
      00000093H   SFRSYM    DATA     BYTE      DPC
      000000C8H.0 SFRSYM    DATA     BIT       TR2
      000000E5H   SFRSYM    DATA     BYTE      MAC_MODE
      00000083H   SFRSYM    DATA     BYTE      DPH
      00000082H   SFRSYM    DATA     BYTE      DPL
      00000099H   SFRSYM    DATA     BYTE      SBUF0
      0000009CH   SFRSYM    DATA     BYTE      SBUF1
      00000098H   SFRSYM    DATA     BYTE      SCON0
      0000009BH   SFRSYM    DATA     BYTE      SCON1
      000000D8H   SFRSYM    DATA     BYTE      ADCON
      000000C8H   SFRSYM    DATA     BYTE      T2CON
      000000E6H   SFRSYM    DATA     BYTE      DIV_MODE
      000000F8H.5 SFRSYM    DATA     BIT       APP_RW
LX51 LINKER/LOCATER V4.66.93.0                                                        04/24/2025  12:33:12  PAGE 143


      000000CBH   SFRSYM    DATA     BYTE      TRL2H
      0000009FH   SFRSYM    DATA     BYTE      SBUF2_RX
      000000ADH   SFRSYM    DATA     BYTE      SBUF3_RX
      0000008EH   SFRSYM    DATA     BYTE      CKCON
      0000009EH   SFRSYM    DATA     BYTE      SBUF2_TX
      000000ACH   SFRSYM    DATA     BYTE      SBUF3_TX
      000000CAH   SFRSYM    DATA     BYTE      TRL2L
      000000D0H.5 SFRSYM    DATA     BIT       F0
      000000FEH   SFRSYM    DATA     BYTE      EXADR
      000000D0H.1 SFRSYM    DATA     BIT       F1
      000000A0H.3 SFRSYM    DATA     BIT       LED_B
      000000D0H   SFRSYM    DATA     BYTE      PSW
      000000A0H.1 SFRSYM    DATA     BIT       LED_G
      000000C0H   SFRSYM    DATA     BYTE      IRCON
      00000098H.2 SFRSYM    DATA     BIT       RB80
      01009E5AH   SYMBOL    CONST    ---       _?ix1000

      0100915CH   BLOCK     CODE     ---       LVL=0
      0100915CH   LINE      CODE     ---       #17
      0100915CH   LINE      CODE     ---       #18
      0100915CH   LINE      CODE     ---       #19
      0100915EH   LINE      CODE     ---       #20
      01009167H   LINE      CODE     ---       #21
      01009167H   LINE      CODE     ---       #22
      0100916DH   LINE      CODE     ---       #23
      01009172H   LINE      CODE     ---       #24
      0100917AH   LINE      CODE     ---       #25
      01009180H   LINE      CODE     ---       #27
      01009183H   LINE      CODE     ---       #28
      01009195H   LINE      CODE     ---       #29
      0100919DH   LINE      CODE     ---       #31
      010091A0H   LINE      CODE     ---       #32
      010091A6H   LINE      CODE     ---       #33
      010091A6H   LINE      CODE     ---       #35
      ---         BLOCKEND  ---      ---       LVL=0

      01008FC8H   BLOCK     CODE     ---       LVL=0
      01008FC8H   LINE      CODE     ---       #36
      01008FC8H   LINE      CODE     ---       #37
      01008FC8H   LINE      CODE     ---       #38
      01008FCFH   LINE      CODE     ---       #39
      01008FD1H   LINE      CODE     ---       #40
      01008FE7H   LINE      CODE     ---       #41
      01008FECH   LINE      CODE     ---       #42
      01008FEEH   LINE      CODE     ---       #43
      01008FF2H   LINE      CODE     ---       #44
      01008FF5H   LINE      CODE     ---       #45
      01008FFCH   LINE      CODE     ---       #46
      01009003H   LINE      CODE     ---       #47
      01009008H   LINE      CODE     ---       #48
      0100900EH   LINE      CODE     ---       #49
      01009010H   LINE      CODE     ---       #50
      01009016H   LINE      CODE     ---       #52
      0100901CH   LINE      CODE     ---       #55
      ---         BLOCKEND  ---      ---       LVL=0

      01009238H   BLOCK     CODE     ---       LVL=0
      01009238H   LINE      CODE     ---       #58
      01009238H   LINE      CODE     ---       #59
      01009238H   LINE      CODE     ---       #60
      0100923AH   LINE      CODE     ---       #61
      01009242H   LINE      CODE     ---       #62
      01009242H   LINE      CODE     ---       #92
      01009242H   LINE      CODE     ---       #94
      01009242H   LINE      CODE     ---       #95
LX51 LINKER/LOCATER V4.66.93.0                                                        04/24/2025  12:33:12  PAGE 144


      01009258H   LINE      CODE     ---       #96
      0100926EH   LINE      CODE     ---       #97
      01009278H   LINE      CODE     ---       #98
      01009278H   LINE      CODE     ---       #99
      0100927BH   LINE      CODE     ---       #100
      0100927BH   LINE      CODE     ---       #101
      0100927BH   LINE      CODE     ---       #103
      ---         BLOCKEND  ---      ---       LVL=0

      0100869DH   BLOCK     CODE     ---       LVL=0
      0100869DH   LINE      CODE     ---       #105
      0100869DH   LINE      CODE     ---       #106
      0100869DH   LINE      CODE     ---       #107
      0100869FH   LINE      CODE     ---       #108
      010086AEH   LINE      CODE     ---       #109
      010086AEH   LINE      CODE     ---       #111
      010086C3H   LINE      CODE     ---       #112
      010086D5H   LINE      CODE     ---       #114
      010086DFH   LINE      CODE     ---       #115
      010086DFH   LINE      CODE     ---       #116
      010086FAH   LINE      CODE     ---       #117
      010086FDH   LINE      CODE     ---       #118
      010086FFH   LINE      CODE     ---       #120
      010086FFH   LINE      CODE     ---       #121
      0100871FH   LINE      CODE     ---       #122
      0100871FH   LINE      CODE     ---       #123
      0100872EH   LINE      CODE     ---       #125
      0100872EH   LINE      CODE     ---       #126
      ---         BLOCKEND  ---      ---       LVL=0

      01006D79H   BLOCK     CODE     ---       LVL=0
      01006D79H   LINE      CODE     ---       #128
      01006D79H   LINE      CODE     ---       #129
      01006D79H   LINE      CODE     ---       #131
      01006D93H   LINE      CODE     ---       #132
      01006D93H   LINE      CODE     ---       #133
      01006DA1H   LINE      CODE     ---       #134
      01006DBCH   LINE      CODE     ---       #136
      01006DCAH   LINE      CODE     ---       #137
      01006DCAH   LINE      CODE     ---       #141
      01006DD1H   LINE      CODE     ---       #142
      01006DD1H   LINE      CODE     ---       #147
      01006DF9H   LINE      CODE     ---       #148
      01006DF9H   LINE      CODE     ---       #149
      01006E01H   LINE      CODE     ---       #150
      01006E08H   LINE      CODE     ---       #151
      01006E0AH   LINE      CODE     ---       #152
      01006E0CH   LINE      CODE     ---       #153
      01006E2CH   LINE      CODE     ---       #154
      01006E2CH   LINE      CODE     ---       #155
      01006E33H   LINE      CODE     ---       #156
      01006E35H   LINE      CODE     ---       #157
      01006E3BH   LINE      CODE     ---       #158
      01006E3BH   LINE      CODE     ---       #160
      01006E3DH   LINE      CODE     ---       #162
      01006E3DH   LINE      CODE     ---       #163
      01006E3FH   LINE      CODE     ---       #164
      01006E3FH   LINE      CODE     ---       #167
      01006E4EH   LINE      CODE     ---       #168
      01006E4EH   LINE      CODE     ---       #169
      01006E57H   LINE      CODE     ---       #170
      01006E57H   LINE      CODE     ---       #172
      01006E67H   LINE      CODE     ---       #173
      01006E67H   LINE      CODE     ---       #174
      01006E69H   LINE      CODE     ---       #175
LX51 LINKER/LOCATER V4.66.93.0                                                        04/24/2025  12:33:12  PAGE 145


      01006E69H   LINE      CODE     ---       #176
      ---         BLOCKEND  ---      ---       LVL=0

      01008C6BH   BLOCK     CODE     ---       LVL=0
      01008C6BH   BLOCK     CODE     NEAR LAB  LVL=1
      020083C3H   SYMBOL    XDATA    ---       buff_user
      ---         BLOCKEND  ---      ---       LVL=1
      01008C6BH   LINE      CODE     ---       #180
      01008C6BH   LINE      CODE     ---       #181
      01008C6BH   LINE      CODE     ---       #182
      01008C7EH   LINE      CODE     ---       #183
      01008C80H   LINE      CODE     ---       #185
      01008C96H   LINE      CODE     ---       #186
      01008CACH   LINE      CODE     ---       #187
      01008CC2H   LINE      CODE     ---       #189
      ---         BLOCKEND  ---      ---       LVL=0

      01008DA9H   BLOCK     CODE     ---       LVL=0
      01008DA9H   BLOCK     CODE     NEAR LAB  LVL=1
      020084DDH   SYMBOL    XDATA    ---       buff_user
      ---         BLOCKEND  ---      ---       LVL=1
      01008DA9H   LINE      CODE     ---       #194
      01008DA9H   LINE      CODE     ---       #195
      01008DA9H   LINE      CODE     ---       #198
      01008DBFH   LINE      CODE     ---       #199
      01008DCBH   LINE      CODE     ---       #200
      01008DCBH   LINE      CODE     ---       #201
      01008DE0H   LINE      CODE     ---       #202
      01008DF6H   LINE      CODE     ---       #203
      01008E0CH   LINE      CODE     ---       #204
      01008E0CH   LINE      CODE     ---       #205
      ---         BLOCKEND  ---      ---       LVL=0

      ---         MODULE    ---      ---       T5LUART4
      0200823BH   PUBLIC    XDATA    WORD      rec_ok
      00000024H   PUBLIC    DATA     ---       HmiSlvCmd
      02008141H   PUBLIC    XDATA    ---       HmiSlvSendBuff
      02008015H   PUBLIC    XDATA    ---       HmiSlvBuff
      02008001H   PUBLIC    XDATA    ---       uartRecStr
      02008000H   PUBLIC    XDATA    BYTE      uartRecCnt
      010087BEH   PUBLIC    CODE     ---       T5L_HMIslvSub
      01005BA7H   PUBLIC    CODE     ---       HMICommand
      010096F2H   PUBLIC    CODE     ---       T5L_HMIslvInit
      0100410FH   PUBLIC    CODE     ---       T5L_Uart4_RX
      0100927CH   PUBLIC    CODE     ---       T5L_Uart4_TX
      01000056H   PUBLIC    CODE     ---       _putchar
      010096DBH   PUBLIC    CODE     ---       _Uart4SendByte
      00000098H.3 SFRSYM    DATA     BIT       TB80
      000000F1H   SFRSYM    DATA     BYTE      ADR_H
      00000080H   SFRSYM    DATA     BYTE      P0
      00000090H   SFRSYM    DATA     BYTE      P1
      000000A0H   SFRSYM    DATA     BYTE      P2
      000000B0H   SFRSYM    DATA     BYTE      P3
      000000D0H.6 SFRSYM    DATA     BIT       AC
      000000F3H   SFRSYM    DATA     BYTE      ADR_L
      00000094H   SFRSYM    DATA     BYTE      PAGESEL
      000000F2H   SFRSYM    DATA     BYTE      ADR_M
      000000A8H.7 SFRSYM    DATA     BIT       EA
      000000A0H.5 SFRSYM    DATA     BIT       JIGUANG
      00000090H.7 SFRSYM    DATA     BIT       LED_R
      000000F8H   SFRSYM    DATA     BYTE      RAMMODE
      000000B7H   SFRSYM    DATA     BYTE      P0MDOUT
      000000A8H   SFRSYM    DATA     BYTE      IEN0
      000000BCH   SFRSYM    DATA     BYTE      P1MDOUT
      000000B8H   SFRSYM    DATA     BYTE      IEN1
LX51 LINKER/LOCATER V4.66.93.0                                                        04/24/2025  12:33:12  PAGE 146


      000000BDH   SFRSYM    DATA     BYTE      P2MDOUT
      000000F8H.0 SFRSYM    DATA     BIT       APP_DATA0
      0000009AH   SFRSYM    DATA     BYTE      IEN2
      000000BEH   SFRSYM    DATA     BYTE      P3MDOUT
      000000F8H.1 SFRSYM    DATA     BIT       APP_DATA1
      000000D1H   SFRSYM    DATA     BYTE      IEN3
      00000080H.0 SFRSYM    DATA     BIT       P0_0
      000000F8H.2 SFRSYM    DATA     BIT       APP_DATA2
      00000090H.0 SFRSYM    DATA     BIT       P1_0
      000000F8H.3 SFRSYM    DATA     BIT       APP_DATA3
      00000090H.1 SFRSYM    DATA     BIT       P1_1
      000000F8H.4 SFRSYM    DATA     BIT       APP_ACK
      000000F4H   SFRSYM    DATA     BYTE      ADR_INC
      000000B0H.1 SFRSYM    DATA     BIT       P3_1
      00000098H.4 SFRSYM    DATA     BIT       REN0
      000000B8H.1 SFRSYM    DATA     BIT       ECAN
      000000D0H.7 SFRSYM    DATA     BIT       CY
      000000B8H.3 SFRSYM    DATA     BIT       ES2R
      000000B8H.5 SFRSYM    DATA     BIT       ES3R
      000000B8H.2 SFRSYM    DATA     BIT       ES2T
      000000B8H.4 SFRSYM    DATA     BIT       ES3T
      000000C8H.7 SFRSYM    DATA     BIT       TSF2
      000000B0H.3 SFRSYM    DATA     BIT       RTC_SDA
      00000081H   SFRSYM    DATA     BYTE      SP
      000000D0H.2 SFRSYM    DATA     BIT       OV
      00000095H   SFRSYM    DATA     BYTE      D_PAGESEL
      00000090H.5 SFRSYM    DATA     BIT       UV
      000000F8H.7 SFRSYM    DATA     BIT       APP_REQ
      000000B0H.2 SFRSYM    DATA     BIT       RTC_SCL
      000000BFH   SFRSYM    DATA     BYTE      IRCON2
      000000BAH   SFRSYM    DATA     BYTE      SREL0H
      000000BBH   SFRSYM    DATA     BYTE      SREL1H
      00000087H   SFRSYM    DATA     BYTE      PCON
      000000AAH   SFRSYM    DATA     BYTE      SREL0L
      000000F9H   SFRSYM    DATA     BYTE      PORTDRV
      0000009DH   SFRSYM    DATA     BYTE      SREL1L
      00000089H   SFRSYM    DATA     BYTE      TMOD
      00000088H   SFRSYM    DATA     BYTE      TCON
      00000097H   SFRSYM    DATA     BYTE      SCON2R
      000000FFH   SFRSYM    DATA     BYTE      EXDATA
      000000ABH   SFRSYM    DATA     BYTE      SCON3R
      000000D9H   SFRSYM    DATA     BYTE      BODE2_DIV_H
      000000AEH   SFRSYM    DATA     BYTE      BODE3_DIV_H
      00000096H   SFRSYM    DATA     BYTE      SCON2T
      000000A7H   SFRSYM    DATA     BYTE      SCON3T
      000000E7H   SFRSYM    DATA     BYTE      BODE2_DIV_L
      00000088H.1 SFRSYM    DATA     BIT       IE0
      000000AFH   SFRSYM    DATA     BYTE      BODE3_DIV_L
      00000088H.3 SFRSYM    DATA     BIT       IE1
      000000C9H   SFRSYM    DATA     BYTE      MUX_SEL
      020086CBH   SFRSYM    XDATA    WORD      B
      000000E0H   SFRSYM    DATA     BYTE      ACC
      000000A8H.4 SFRSYM    DATA     BIT       ES0
      0000008FH   SFRSYM    DATA     BYTE      CAN_CR
      000000A8H.1 SFRSYM    DATA     BIT       ET0
      000000A9H   SFRSYM    DATA     BYTE      IP0
      000000A8H.3 SFRSYM    DATA     BIT       ET1
      00000088H.5 SFRSYM    DATA     BIT       TF0
      000000B9H   SFRSYM    DATA     BYTE      IP1
      000000A8H.5 SFRSYM    DATA     BIT       ET2
      00000098H.0 SFRSYM    DATA     BIT       RI0
      00000088H.7 SFRSYM    DATA     BIT       TF1
      000000FDH   SFRSYM    DATA     BYTE      DATA0
      000000C0H.6 SFRSYM    DATA     BIT       TF2
      000000E8H   SFRSYM    DATA     BYTE      CAN_ET
LX51 LINKER/LOCATER V4.66.93.0                                                        04/24/2025  12:33:12  PAGE 147


      000000FCH   SFRSYM    DATA     BYTE      DATA1
      0000008CH   SFRSYM    DATA     BYTE      TH0
      000000A8H.0 SFRSYM    DATA     BIT       EX0
      00000098H.1 SFRSYM    DATA     BIT       TI0
      00000088H.0 SFRSYM    DATA     BIT       IT0
      000000FBH   SFRSYM    DATA     BYTE      DATA2
      0000008DH   SFRSYM    DATA     BYTE      TH1
      000000A8H.2 SFRSYM    DATA     BIT       EX1
      00000091H   SFRSYM    DATA     BYTE      CAN_IR
      000000CDH   SFRSYM    DATA     BYTE      TH2
      00000088H.2 SFRSYM    DATA     BIT       IT1
      000000FAH   SFRSYM    DATA     BYTE      DATA3
      000000D0H.0 SFRSYM    DATA     BIT       P
      00000098H.7 SFRSYM    DATA     BIT       SM0
      0000008AH   SFRSYM    DATA     BYTE      TL0
      00000098H.6 SFRSYM    DATA     BIT       SM1
      0000008BH   SFRSYM    DATA     BYTE      TL1
      00000098H.5 SFRSYM    DATA     BIT       SM2
      000000CCH   SFRSYM    DATA     BYTE      TL2
      000000A0H.7 SFRSYM    DATA     BIT       UV_St
      000000D0H.3 SFRSYM    DATA     BIT       RS0
      000000F8H.6 SFRSYM    DATA     BIT       APP_EN
      000000D0H.4 SFRSYM    DATA     BIT       RS1
      00000088H.4 SFRSYM    DATA     BIT       TR0
      00000088H.6 SFRSYM    DATA     BIT       TR1
      00000093H   SFRSYM    DATA     BYTE      DPC
      000000C8H.0 SFRSYM    DATA     BIT       TR2
      000000E5H   SFRSYM    DATA     BYTE      MAC_MODE
      00000083H   SFRSYM    DATA     BYTE      DPH
      00000082H   SFRSYM    DATA     BYTE      DPL
      00000099H   SFRSYM    DATA     BYTE      SBUF0
      0000009CH   SFRSYM    DATA     BYTE      SBUF1
      00000098H   SFRSYM    DATA     BYTE      SCON0
      0000009BH   SFRSYM    DATA     BYTE      SCON1
      000000D8H   SFRSYM    DATA     BYTE      ADCON
      000000C8H   SFRSYM    DATA     BYTE      T2CON
      000000E6H   SFRSYM    DATA     BYTE      DIV_MODE
      000000F8H.5 SFRSYM    DATA     BIT       APP_RW
      000000CBH   SFRSYM    DATA     BYTE      TRL2H
      0000009FH   SFRSYM    DATA     BYTE      SBUF2_RX
      000000ADH   SFRSYM    DATA     BYTE      SBUF3_RX
      0000008EH   SFRSYM    DATA     BYTE      CKCON
      0000009EH   SFRSYM    DATA     BYTE      SBUF2_TX
      000000ACH   SFRSYM    DATA     BYTE      SBUF3_TX
      000000CAH   SFRSYM    DATA     BYTE      TRL2L
      000000D0H.5 SFRSYM    DATA     BIT       F0
      000000FEH   SFRSYM    DATA     BYTE      EXADR
      000000D0H.1 SFRSYM    DATA     BIT       F1
      000000A0H.3 SFRSYM    DATA     BIT       LED_B
      000000D0H   SFRSYM    DATA     BYTE      PSW
      000000A0H.1 SFRSYM    DATA     BIT       LED_G
      000000C0H   SFRSYM    DATA     BYTE      IRCON
      00000098H.2 SFRSYM    DATA     BIT       RB80
      01009995H   SYMBOL    CONST    ---       CRC16_TABLE

      010096DBH   BLOCK     CODE     ---       LVL=0
      00000007H   SYMBOL    DATA     BYTE      dat
      010096DBH   LINE      CODE     ---       #42
      010096DBH   LINE      CODE     ---       #43
      010096DBH   LINE      CODE     ---       #44
      010096DDH   LINE      CODE     ---       #45
      010096E3H   LINE      CODE     ---       #46
      010096E6H   LINE      CODE     ---       #47
      ---         BLOCKEND  ---      ---       LVL=0

LX51 LINKER/LOCATER V4.66.93.0                                                        04/24/2025  12:33:12  PAGE 148


      01000056H   BLOCK     CODE     ---       LVL=0
      00000006H   SYMBOL    DATA     CHAR      c
      01000056H   LINE      CODE     ---       #49
      01000058H   LINE      CODE     ---       #50
      01000058H   LINE      CODE     ---       #51
      ---         BLOCKEND  ---      ---       LVL=0

      0100927CH   BLOCK     CODE     ---       LVL=0
      0100927CH   LINE      CODE     ---       #58
      01009287H   LINE      CODE     ---       #60
      01009289H   LINE      CODE     ---       #61
      0100928CH   LINE      CODE     ---       #63
      01009292H   LINE      CODE     ---       #64
      01009292H   LINE      CODE     ---       #65
      01009294H   LINE      CODE     ---       #66
      0100929BH   LINE      CODE     ---       #67
      0100929BH   LINE      CODE     ---       #68
      0100929EH   LINE      CODE     ---       #69
      010092A1H   LINE      CODE     ---       #70
      010092A3H   LINE      CODE     ---       #71
      010092B4H   LINE      CODE     ---       #72
      010092B4H   LINE      CODE     ---       #73
      010092B6H   LINE      CODE     ---       #74
      ---         BLOCKEND  ---      ---       LVL=0

      0100410FH   BLOCK     CODE     ---       LVL=0
      0100411AH   BLOCK     CODE     NEAR LAB  LVL=1
      00000033H   SYMBOL    DATA     WORD      rData
      00000035H   SYMBOL    DATA     WORD      tmp
      00000017H   SYMBOL    DATA     BYTE      res
      ---         BLOCKEND  ---      ---       LVL=1
      0100410FH   LINE      CODE     ---       #76
      0100411AH   LINE      CODE     ---       #79
      0100411BH   LINE      CODE     ---       #80
      0100411DH   LINE      CODE     ---       #81
      01004123H   LINE      CODE     ---       #82
      01004125H   LINE      CODE     ---       #84
      01004128H   LINE      CODE     ---       #99
      0100412EH   LINE      CODE     ---       #100
      0100412EH   LINE      CODE     ---       #102
      01004138H   LINE      CODE     ---       #103
      01004138H   LINE      CODE     ---       #104
      0100414BH   LINE      CODE     ---       #105
      0100414EH   LINE      CODE     ---       #107
      0100414EH   LINE      CODE     ---       #108
      01004156H   LINE      CODE     ---       #109
      01004156H   LINE      CODE     ---       #110
      01004159H   LINE      CODE     ---       #112
      01004159H   LINE      CODE     ---       #113
      01004167H   LINE      CODE     ---       #115
      0100416AH   LINE      CODE     ---       #116
      0100417CH   LINE      CODE     ---       #117
      0100417CH   LINE      CODE     ---       #118
      01004189H   LINE      CODE     ---       #119
      01004189H   LINE      CODE     ---       #120
      0100418FH   LINE      CODE     ---       #121
      01004192H   LINE      CODE     ---       #122
      01004195H   LINE      CODE     ---       #123
      0100419BH   LINE      CODE     ---       #124
      010041B8H   LINE      CODE     ---       #125
      010041C4H   LINE      CODE     ---       #126
      010041C4H   LINE      CODE     ---       #133
      010041C7H   LINE      CODE     ---       #134
      010041C7H   LINE      CODE     ---       #135
      010041D8H   LINE      CODE     ---       #136
LX51 LINKER/LOCATER V4.66.93.0                                                        04/24/2025  12:33:12  PAGE 149


      010041E3H   LINE      CODE     ---       #137
      010041E3H   LINE      CODE     ---       #138
      01004200H   LINE      CODE     ---       #139
      0100420CH   LINE      CODE     ---       #140
      0100420CH   LINE      CODE     ---       #141
      0100421DH   LINE      CODE     ---       #142
      0100421DH   LINE      CODE     ---       #143
      0100423AH   LINE      CODE     ---       #144
      01004246H   LINE      CODE     ---       #145
      0100424EH   LINE      CODE     ---       #146
      01004257H   LINE      CODE     ---       #147
      01004257H   LINE      CODE     ---       #148
      01004257H   LINE      CODE     ---       #149
      0100425AH   LINE      CODE     ---       #150
      0100425AH   LINE      CODE     ---       #151
      0100425DH   LINE      CODE     ---       #152
      01004260H   LINE      CODE     ---       #153
      01004260H   LINE      CODE     ---       #154
      0100426EH   LINE      CODE     ---       #155
      0100427CH   LINE      CODE     ---       #156
      0100427CH   LINE      CODE     ---       #157
      0100427FH   LINE      CODE     ---       #158
      01004282H   LINE      CODE     ---       #159
      01004282H   LINE      CODE     ---       #160
      01004282H   LINE      CODE     ---       #161
      01004282H   LINE      CODE     ---       #162
      01004284H   LINE      CODE     ---       #163
      01004284H   LINE      CODE     ---       #164
      01004295H   LINE      CODE     ---       #165
      0100429FH   LINE      CODE     ---       #166
      0100429FH   LINE      CODE     ---       #167
      010042BCH   LINE      CODE     ---       #168
      010042C8H   LINE      CODE     ---       #169
      010042C8H   LINE      CODE     ---       #170
      010042CFH   LINE      CODE     ---       #171
      010042EDH   LINE      CODE     ---       #172
      010042EDH   LINE      CODE     ---       #174
      010042F0H   LINE      CODE     ---       #175
      010042F3H   LINE      CODE     ---       #176
      010042F3H   LINE      CODE     ---       #177
      010042F3H   LINE      CODE     ---       #178
      010042F3H   LINE      CODE     ---       #179
      010042F5H   LINE      CODE     ---       #200
      010042F5H   LINE      CODE     ---       #201
      010042F8H   LINE      CODE     ---       #202
      010042F8H   LINE      CODE     ---       #203
      010042F8H   LINE      CODE     ---       #204
      010042F8H   LINE      CODE     ---       #206
      010042FAH   LINE      CODE     ---       #207
      ---         BLOCKEND  ---      ---       LVL=0

      010096F2H   BLOCK     CODE     ---       LVL=0
      010096F2H   LINE      CODE     ---       #210
      010096F2H   LINE      CODE     ---       #211
      010096F2H   LINE      CODE     ---       #212
      010096F5H   LINE      CODE     ---       #213
      010096F8H   LINE      CODE     ---       #214
      010096FAH   LINE      CODE     ---       #215
      010096FCH   LINE      CODE     ---       #216
      ---         BLOCKEND  ---      ---       LVL=0

      01005BA7H   BLOCK     CODE     ---       LVL=0
      01005BA7H   BLOCK     CODE     NEAR LAB  LVL=1
      020083BBH   SYMBOL    XDATA    BYTE      i
      020083BCH   SYMBOL    XDATA    WORD      tmp
LX51 LINKER/LOCATER V4.66.93.0                                                        04/24/2025  12:33:12  PAGE 150


      020083BEH   SYMBOL    XDATA    BYTE      retVal
      ---         BLOCKEND  ---      ---       LVL=1
      01005BA7H   LINE      CODE     ---       #218
      01005BA7H   LINE      CODE     ---       #219
      01005BA7H   LINE      CODE     ---       #224
      01005BACH   LINE      CODE     ---       #225
      01005BC2H   LINE      CODE     ---       #226
      01005BC2H   LINE      CODE     ---       #227
      01005BC2H   LINE      CODE     ---       #228
      01005BDBH   LINE      CODE     ---       #229
      01005BDBH   LINE      CODE     ---       #230
      01005BDEH   LINE      CODE     ---       #231
      01005BDEH   LINE      CODE     ---       #232
      01005BE4H   LINE      CODE     ---       #233
      01005BE8H   LINE      CODE     ---       #234
      01005BF4H   LINE      CODE     ---       #235
      01005BFAH   LINE      CODE     ---       #236
      01005C0DH   LINE      CODE     ---       #237
      01005C26H   LINE      CODE     ---       #238
      01005C26H   LINE      CODE     ---       #239
      01005C29H   LINE      CODE     ---       #240
      01005C29H   LINE      CODE     ---       #241
      01005C43H   LINE      CODE     ---       #242
      01005C46H   LINE      CODE     ---       #243
      01005C58H   LINE      CODE     ---       #244
      01005C58H   LINE      CODE     ---       #245
      01005C71H   LINE      CODE     ---       #246
      01005C79H   LINE      CODE     ---       #247
      01005C79H   LINE      CODE     ---       #248
      01005C7BH   LINE      CODE     ---       #249
      01005C7BH   LINE      CODE     ---       #250
      01005C97H   LINE      CODE     ---       #251
      01005CB5H   LINE      CODE     ---       #252
      01005CB8H   LINE      CODE     ---       #253
      01005CCAH   LINE      CODE     ---       #254
      01005CCAH   LINE      CODE     ---       #255
      01005CE3H   LINE      CODE     ---       #256
      01005CEBH   LINE      CODE     ---       #257
      01005CF1H   LINE      CODE     ---       #258
      01005CF3H   LINE      CODE     ---       #259
      01005CF3H   LINE      CODE     ---       #260
      01005CF6H   LINE      CODE     ---       #261
      01005CF6H   LINE      CODE     ---       #262
      01005CFBH   LINE      CODE     ---       #263
      ---         BLOCKEND  ---      ---       LVL=0

      010087BEH   BLOCK     CODE     ---       LVL=0
      010087BEH   BLOCK     CODE     NEAR LAB  LVL=1
      00000004H   SYMBOL    DATA     BYTE      i
      00000002H   SYMBOL    DATA     WORD      tmp
      00000005H   SYMBOL    DATA     BYTE      retVal
      ---         BLOCKEND  ---      ---       LVL=1
      010087BEH   LINE      CODE     ---       #265
      010087BEH   LINE      CODE     ---       #266
      010087BEH   LINE      CODE     ---       #270
      010087C0H   LINE      CODE     ---       #271
      010087C9H   LINE      CODE     ---       #272
      010087CEH   LINE      CODE     ---       #273
      010087D1H   LINE      CODE     ---       #274
      010087D1H   LINE      CODE     ---       #275
      010087D3H   LINE      CODE     ---       #276
      010087D5H   LINE      CODE     ---       #277
      010087D7H   LINE      CODE     ---       #278
      010087D7H   LINE      CODE     ---       #280
      010087DDH   LINE      CODE     ---       #281
LX51 LINKER/LOCATER V4.66.93.0                                                        04/24/2025  12:33:12  PAGE 151


      010087E9H   LINE      CODE     ---       #282
      01008811H   LINE      CODE     ---       #283
      0100881BH   LINE      CODE     ---       #284
      0100881EH   LINE      CODE     ---       #285
      0100882CH   LINE      CODE     ---       #286
      0100883AH   LINE      CODE     ---       #289
      0100883DH   LINE      CODE     ---       #290
      01008840H   LINE      CODE     ---       #291
      01008843H   LINE      CODE     ---       #292
      01008849H   LINE      CODE     ---       #293
      0100884BH   LINE      CODE     ---       #294
      0100884BH   LINE      CODE     ---       #295
      ---         BLOCKEND  ---      ---       LVL=0

      ---         MODULE    ---      ---       ?C?FPADD
      01000107H   PUBLIC    CODE     ---       ?C?FPADD
      01000103H   PUBLIC    CODE     ---       ?C?FPSUB

      ---         MODULE    ---      ---       ?C?FPMUL
      010001F8H   PUBLIC    CODE     ---       ?C?FPMUL

      ---         MODULE    ---      ---       ?C?FPDIV
      01000301H   PUBLIC    CODE     ---       ?C?FPDIV

      ---         MODULE    ---      ---       ?C?FPCMP
      010003A0H   PUBLIC    CODE     ---       ?C?FPCMP
      0100039EH   PUBLIC    CODE     ---       ?C?FPCMP3

      ---         MODULE    ---      ---       ?C?FCAST
      01000421H   PUBLIC    CODE     ---       ?C?FCASTC
      0100041CH   PUBLIC    CODE     ---       ?C?FCASTI
      01000417H   PUBLIC    CODE     ---       ?C?FCASTL

      ---         MODULE    ---      ---       ?C?CASTF
      01000455H   PUBLIC    CODE     ---       ?C?CASTF

      ---         MODULE    ---      ---       PRINTF
      02008421H   PUBLIC    XDATA    ---       ?_PRINTF?BYTE
      02008421H   PUBLIC    XDATA    ---       ?_SPRINTF?BYTE
      01001DCDH   PUBLIC    CODE     ---       _PRINTF
      01001DC7H   PUBLIC    CODE     ---       _SPRINTF

      ---         MODULE    ---      ---       FABS
      010096B6H   PUBLIC    CODE     ---       _FABS

      ---         MODULE    ---      ---       LOG
      01006107H   PUBLIC    CODE     ---       _LOG
      01006103H   PUBLIC    CODE     ---       _LOG10

      ---         MODULE    ---      ---       POW
      020083C9H   PUBLIC    XDATA    ---       ?_POW?BYTE
      010054CEH   PUBLIC    CODE     ---       _POW

      ---         MODULE    ---      ---       ?C?FPGETOPN
      0100048CH   PUBLIC    CODE     ---       ?C?FPGETOPN2
      010004C1H   PUBLIC    CODE     ---       ?C?FPNANRESULT
      010004CBH   PUBLIC    CODE     ---       ?C?FPOVERFLOW
      010004A3H   PUBLIC    CODE     ---       ?C?FPRESULT
      010004B7H   PUBLIC    CODE     ---       ?C?FPRESULT2
      010004C8H   PUBLIC    CODE     ---       ?C?FPUNDERFLOW

      ---         MODULE    ---      ---       ?C?CHKFLOAT
      010004D6H   PUBLIC    CODE     ---       ?C?CHKFLOAT

      ---         MODULE    ---      ---       ?C?FPNEG
LX51 LINKER/LOCATER V4.66.93.0                                                        04/24/2025  12:33:12  PAGE 152


      010004F0H   PUBLIC    CODE     ---       ?C?FPNEG

      ---         MODULE    ---      ---       ?C?FPROUND
      01000501H   PUBLIC    CODE     ---       ?C?FPROUND

      ---         MODULE    ---      ---       ?C?FPCONVERT
      0100053EH   PUBLIC    CODE     ---       ?C?FPCONVERT

      ---         MODULE    ---      ---       ?C?FPSERIES
      01000643H   PUBLIC    CODE     ---       ?C?FP2SERIES
      01000652H   PUBLIC    CODE     ---       ?C?FPSERIES

      ---         MODULE    ---      ---       EXP
      0100863BH   PUBLIC    CODE     ---       _EXP

      ---         MODULE    ---      ---       ?C?FTNPWR
      010006C0H   PUBLIC    CODE     ---       ?C?FTNPWR

      ---         MODULE    ---      ---       ?C_INIT
      0100816BH   PUBLIC    CODE     ---       ?C_START

      ---         MODULE    ---      ---       ?C?COPY
      010007D0H   PUBLIC    CODE     ---       ?C?COPY

      ---         MODULE    ---      ---       ?C?CLDPTR
      010007F6H   PUBLIC    CODE     ---       ?C?CLDPTR

      ---         MODULE    ---      ---       ?C?CLDOPTR
      0100080FH   PUBLIC    CODE     ---       ?C?CLDOPTR

      ---         MODULE    ---      ---       ?C?CSTPTR
      0100083CH   PUBLIC    CODE     ---       ?C?CSTPTR

      ---         MODULE    ---      ---       ?C?IMUL
      0100084EH   PUBLIC    CODE     ---       ?C?IMUL

      ---         MODULE    ---      ---       ?C?UIDIV
      01000860H   PUBLIC    CODE     ---       ?C?UIDIV

      ---         MODULE    ---      ---       ?C?SIDIV
      010008B5H   PUBLIC    CODE     ---       ?C?SIDIV

      ---         MODULE    ---      ---       ?C?IILDX
      010008EBH   PUBLIC    CODE     ---       ?C?IILDX

      ---         MODULE    ---      ---       ?C?ILDIX
      01000901H   PUBLIC    CODE     ---       ?C?ILDIX

      ---         MODULE    ---      ---       ?C?ULDIV
      01000953H   PUBLIC    CODE     ---       ?C?ULDIV

      ---         MODULE    ---      ---       ?C?LNEG
      010009E5H   PUBLIC    CODE     ---       ?C?LNEG

      ---         MODULE    ---      ---       ?C?LSHL
      010009F3H   PUBLIC    CODE     ---       ?C?LSHL

      ---         MODULE    ---      ---       ?C?LLDCODE
      01000A06H   PUBLIC    CODE     ---       ?C?LLDCODE

      ---         MODULE    ---      ---       ?C?LLDXDATA0
      01000A16H   PUBLIC    CODE     ---       ?C?LLDXDATA0

      ---         MODULE    ---      ---       ?C?LLDCODE0
      01000A22H   PUBLIC    CODE     ---       ?C?LLDCODE0
LX51 LINKER/LOCATER V4.66.93.0                                                        04/24/2025  12:33:12  PAGE 153



      ---         MODULE    ---      ---       ?C?LSTXDATA
      01000A32H   PUBLIC    CODE     ---       ?C?LSTXDATA

      ---         MODULE    ---      ---       ?C?LSTKXDATA
      01000A3EH   PUBLIC    CODE     ---       ?C?LSTKXDATA

      ---         MODULE    ---      ---       ?C?OFFXADD
      01000A6FH   PUBLIC    CODE     ---       ?C?OFFXADD

      ---         MODULE    ---      ---       ?C?PLDIXDATA
      01000A7BH   PUBLIC    CODE     ---       ?C?PLDIXDATA

      ---         MODULE    ---      ---       ?C?PSTXDATA
      01000A92H   PUBLIC    CODE     ---       ?C?PSTXDATA

      ---         MODULE    ---      ---       ?C?PLDOPTR
      01000A9BH   PUBLIC    CODE     ---       ?C?PLDOPTR

      ---         MODULE    ---      ---       ?C?CCASE
      01000ACBH   PUBLIC    CODE     ---       ?C?CCASE

      ---         MODULE    ---      ---       ?C?ICALL
      01000AF1H   PUBLIC    CODE     ---       ?C?ICALL
      01000AF5H   PUBLIC    CODE     ---       ?C?ICALL2

      ---         MODULE    ---      ---       ?C?STRCMP
      01000C75H   PUBLIC    CODE     ---       ?C?STRCMP

      ---         MODULE    ---      ---       ?C?STRCPY
      01000D5EH   PUBLIC    CODE     ---       ?C?STRCPY

      ---         MODULE    ---      ---       STRLEN
      0100961AH   PUBLIC    CODE     ---       _STRLEN

      ---         MODULE    ---      ---       ?C?MEMSET
      01000D7BH   PUBLIC    CODE     ---       ?C?MEMSET

      ---         MODULE    ---      ---       ?C?PLDIDATA
      01000DA7H   PUBLIC    CODE     ---       ?C?PLDIDATA

      ---         MODULE    ---      ---       ?C?PLDXDATA
      01000DB0H   PUBLIC    CODE     ---       ?C?PLDXDATA

      ---         MODULE    ---      ---       ?C?PLDPDATA
      01000DB9H   PUBLIC    CODE     ---       ?C?PLDPDATA

      ---         MODULE    ---      ---       ?C?PLDCODE
      01000DC2H   PUBLIC    CODE     ---       ?C?PLDCODE



*** WARNING L46: SFR SYMBOL HAS DIFFERENT VALUES
    SYMBOL:  b
    MODULE:  .\Objects\main.obj (MAIN)
   DEFINED:  .\Objects\main.obj (MAIN)

*** WARNING L46: SFR SYMBOL HAS DIFFERENT VALUES
    SYMBOL:  b
    MODULE:  .\Objects\sys.obj (SYS)
   DEFINED:  .\Objects\main.obj (MAIN)

*** WARNING L46: SFR SYMBOL HAS DIFFERENT VALUES
    SYMBOL:  b
    MODULE:  .\Objects\dgus.obj (DGUS)
LX51 LINKER/LOCATER V4.66.93.0                                                        04/24/2025  12:33:12  PAGE 154


   DEFINED:  .\Objects\main.obj (MAIN)

*** WARNING L46: SFR SYMBOL HAS DIFFERENT VALUES
    SYMBOL:  b
    MODULE:  .\Objects\norflash.obj (NORFLASH)
   DEFINED:  .\Objects\main.obj (MAIN)

*** WARNING L46: SFR SYMBOL HAS DIFFERENT VALUES
    SYMBOL:  b
    MODULE:  .\Objects\timer.obj (TIMER)
   DEFINED:  .\Objects\main.obj (MAIN)

*** WARNING L46: SFR SYMBOL HAS DIFFERENT VALUES
    SYMBOL:  b
    MODULE:  .\Objects\uart.obj (UART)
   DEFINED:  .\Objects\main.obj (MAIN)

*** WARNING L46: SFR SYMBOL HAS DIFFERENT VALUES
    SYMBOL:  b
    MODULE:  .\Objects\handle.obj (HANDLE)
   DEFINED:  .\Objects\main.obj (MAIN)

*** WARNING L46: SFR SYMBOL HAS DIFFERENT VALUES
    SYMBOL:  b
    MODULE:  .\Objects\crc16.obj (CRC16)
   DEFINED:  .\Objects\main.obj (MAIN)

*** WARNING L46: SFR SYMBOL HAS DIFFERENT VALUES
    SYMBOL:  b
    MODULE:  .\Objects\uart4.obj (UART4)
   DEFINED:  .\Objects\main.obj (MAIN)

*** WARNING L46: SFR SYMBOL HAS DIFFERENT VALUES
    SYMBOL:  b
    MODULE:  .\Objects\mode_p.obj (MODE_P)
   DEFINED:  .\Objects\main.obj (MAIN)

*** WARNING L46: SFR SYMBOL HAS DIFFERENT VALUES
    SYMBOL:  b
    MODULE:  .\Objects\mode_s.obj (MODE_S)
   DEFINED:  .\Objects\main.obj (MAIN)

*** WARNING L46: SFR SYMBOL HAS DIFFERENT VALUES
    SYMBOL:  b
    MODULE:  .\Objects\suanfa.obj (SUANFA)
   DEFINED:  .\Objects\main.obj (MAIN)

*** WARNING L46: SFR SYMBOL HAS DIFFERENT VALUES
    SYMBOL:  b
    MODULE:  .\Objects\rtc_sys.obj (RTC_SYS)
   DEFINED:  .\Objects\main.obj (MAIN)

*** WARNING L46: SFR SYMBOL HAS DIFFERENT VALUES
    SYMBOL:  b
    MODULE:  .\Objects\adc.obj (ADC)
   DEFINED:  .\Objects\main.obj (MAIN)

*** WARNING L46: SFR SYMBOL HAS DIFFERENT VALUES
    SYMBOL:  b
    MODULE:  .\Objects\sys_params.obj (SYS_PARAMS)
   DEFINED:  .\Objects\main.obj (MAIN)

*** WARNING L46: SFR SYMBOL HAS DIFFERENT VALUES
    SYMBOL:  b
    MODULE:  .\Objects\cmd.obj (CMD)
LX51 LINKER/LOCATER V4.66.93.0                                                        04/24/2025  12:33:12  PAGE 155


   DEFINED:  .\Objects\main.obj (MAIN)

*** WARNING L46: SFR SYMBOL HAS DIFFERENT VALUES
    SYMBOL:  b
    MODULE:  .\Objects\start_win.obj (START_WIN)
   DEFINED:  .\Objects\main.obj (MAIN)

*** WARNING L46: SFR SYMBOL HAS DIFFERENT VALUES
    SYMBOL:  b
    MODULE:  .\Objects\mode_3.obj (MODE_3)
   DEFINED:  .\Objects\main.obj (MAIN)

*** WARNING L46: SFR SYMBOL HAS DIFFERENT VALUES
    SYMBOL:  b
    MODULE:  .\Objects\i2c.obj (I2C)
   DEFINED:  .\Objects\main.obj (MAIN)

*** WARNING L46: SFR SYMBOL HAS DIFFERENT VALUES
    SYMBOL:  b
    MODULE:  .\Objects\mode_4.obj (MODE_4)
   DEFINED:  .\Objects\main.obj (MAIN)

*** WARNING L46: SFR SYMBOL HAS DIFFERENT VALUES
    SYMBOL:  b
    MODULE:  .\Objects\T5LUart4.obj (T5LUART4)
   DEFINED:  .\Objects\main.obj (MAIN)

*** WARNING L48: IGNORED RECURSIVE CALL
    CALLED:  _RX8130_WRIT_BYTE/I2C
    CALLER:  RX8130_STOP/I2C

*** WARNING L13: RECURSIVE CALL TO FUNCTION
    CALLED:  ?CO?UART4
    CALLER:  LED1_OFF/UART4

*** WARNING L13: RECURSIVE CALL TO FUNCTION
    CALLED:  ?CO?UART4
    CALLER:  LED2_ON/UART4

*** WARNING L13: RECURSIVE CALL TO FUNCTION
    CALLED:  ?CO?UART4
    CALLER:  LED2_OFF/UART4

*** WARNING L57: UNCALLED FUNCTION, IGNORED FOR OVERLAY PROCESS
    NAME:    _UART5SENDSTR/UART

*** WARNING L57: UNCALLED FUNCTION, IGNORED FOR OVERLAY PROCESS
    NAME:    LED3_OFF/UART4

*** WARNING L57: UNCALLED FUNCTION, IGNORED FOR OVERLAY PROCESS
    NAME:    TIM0_SUANFA_ISR/SUANFA

*** WARNING L57: UNCALLED FUNCTION, IGNORED FOR OVERLAY PROCESS
    NAME:    SHUJU_BIANLIANG_CHONGZHI/SUANFA

*** WARNING L15: MULTIPLE CALL TO FUNCTION
    NAME:    _WRITEDGUS/DGUS
    CALLER1: ?C_C51STARTUP
    CALLER2: T0_ISR_PC/TIMER

*** WARNING L15: MULTIPLE CALL TO FUNCTION
    NAME:    _WRITENORFLASH_DGUS/NORFLASH
    CALLER1: ?C_C51STARTUP
    CALLER2: T0_ISR_PC/TIMER

LX51 LINKER/LOCATER V4.66.93.0                                                        04/24/2025  12:33:12  PAGE 156


*** WARNING L15: MULTIPLE CALL TO FUNCTION
    NAME:    _READDGUS/DGUS
    CALLER1: ?C_C51STARTUP
    CALLER2: T0_ISR_PC/TIMER

*** WARNING L15: MULTIPLE CALL TO FUNCTION
    NAME:    _JUMPPAGE/HANDLE
    CALLER1: ?C_C51STARTUP
    CALLER2: T0_ISR_PC/TIMER

*** WARNING L15: MULTIPLE CALL TO FUNCTION
    NAME:    UNLOCK_CURRENT_PAGE/START_WIN
    CALLER1: ?C_C51STARTUP
    CALLER2: T0_ISR_PC/TIMER

*** WARNING L15: MULTIPLE CALL TO FUNCTION
    NAME:    _UNLOCK_CURRENT_PAGE_ZENGLIANG/START_WIN
    CALLER1: ?C_C51STARTUP
    CALLER2: T0_ISR_PC/TIMER

*** WARNING L15: MULTIPLE CALL TO FUNCTION
    NAME:    _MAICHONG_SUANFA/SUANFA
    CALLER1: ?C_C51STARTUP
    CALLER2: T0_ISR_PC/TIMER

*** WARNING L15: MULTIPLE CALL TO FUNCTION
    NAME:    _TRANSFORM_S_L_T_AEROSOLS/MODE_S
    CALLER1: ?C_C51STARTUP
    CALLER2: T0_ISR_PC/TIMER

*** WARNING L15: MULTIPLE CALL TO FUNCTION
    NAME:    _TRANSFORM_S_L_T_SURFACES_CENTRE/MODE_S
    CALLER1: ?C_C51STARTUP
    CALLER2: T0_ISR_PC/TIMER

*** WARNING L15: MULTIPLE CALL TO FUNCTION
    NAME:    _TRANSFORM_S_L_T_SURFACES_ALL/MODE_S
    CALLER1: ?C_C51STARTUP
    CALLER2: T0_ISR_PC/TIMER

*** WARNING L15: MULTIPLE CALL TO FUNCTION
    NAME:    DRAW_RESET/START_WIN
    CALLER1: ?C_C51STARTUP
    CALLER2: T2_ISR_PC/TIMER

*** WARNING L15: MULTIPLE CALL TO FUNCTION
    NAME:    _WRITEDGUS/DGUS
    CALLER1: T0_ISR_PC/TIMER
    CALLER2: T2_ISR_PC/TIMER

*** WARNING L15: MULTIPLE CALL TO FUNCTION
    NAME:    _WRITENORFLASH_STR/NORFLASH
    CALLER1: ?C_C51STARTUP
    CALLER2: T2_ISR_PC/TIMER

*** WARNING L15: MULTIPLE CALL TO FUNCTION
    NAME:    _SYS_WRITE_VP_NOR/NORFLASH
    CALLER1: ?C_C51STARTUP
    CALLER2: T2_ISR_PC/TIMER

*** WARNING L15: MULTIPLE CALL TO FUNCTION
    NAME:    _SYS_READ_VP_NOR/NORFLASH
    CALLER1: ?C_C51STARTUP
    CALLER2: T2_ISR_PC/TIMER

LX51 LINKER/LOCATER V4.66.93.0                                                        04/24/2025  12:33:12  PAGE 157


*** WARNING L15: MULTIPLE CALL TO FUNCTION
    NAME:    _WRITENORFLASH_DGUS/NORFLASH
    CALLER1: T0_ISR_PC/TIMER
    CALLER2: T2_ISR_PC/TIMER

*** WARNING L15: MULTIPLE CALL TO FUNCTION
    NAME:    _READDGUS/DGUS
    CALLER1: T0_ISR_PC/TIMER
    CALLER2: T2_ISR_PC/TIMER

*** WARNING L15: MULTIPLE CALL TO FUNCTION
    NAME:    _READNORFLASH_STR/NORFLASH
    CALLER1: ?C_C51STARTUP
    CALLER2: T2_ISR_PC/TIMER

*** WARNING L15: MULTIPLE CALL TO FUNCTION
    NAME:    _READNORFLASH_DGUS/NORFLASH
    CALLER1: ?C_C51STARTUP
    CALLER2: T2_ISR_PC/TIMER

*** WARNING L15: MULTIPLE CALL TO FUNCTION
    NAME:    _JUMPPAGE/HANDLE
    CALLER1: T0_ISR_PC/TIMER
    CALLER2: T2_ISR_PC/TIMER

*** WARNING L15: MULTIPLE CALL TO FUNCTION
    NAME:    _WRITEDGUS/DGUS
    CALLER1: T2_ISR_PC/TIMER
    CALLER2: UART5_RX_ISR_PC/UART

Program Size: data=39.3 xdata=2127 const=1869 code=38676
LX51 RUN COMPLETE.  50 WARNING(S),  0 ERROR(S)
