LX51 LINKER/LOCATER V4.66.93.0                                                          04/22/2025  16:54:45  PAGE 1


LX51 LINKER/LOCATER V4.66.93.0, INVOKED BY:
D:\KEIL\KEIL_C51\C51\BIN\LX51.EXE .\Objects\STARTUP_M5.obj, .\Objects\main.obj, .\Objects\sys.obj, .\Objects\dgus.obj, .
>> \Objects\uart.obj, .\Objects\norflash.obj, .\Objects\timer.obj, .\Objects\handle.obj, .\Objects\crc16.obj, .\Objects\
>> i2c.obj, .\Objects\tof.obj, .\Objects\qrj.obj, .\Objects\home.obj TO .\Objects\T5L51 PRINT (.\Objects\T5L51.map) CLAS
>> SES (XDATA (X:0X8000-X:0XFFFF), HDATA (X:0X8000-X:0XFFFF))




PROGRAM RECURSIONS REMOVED FROM CALL TREE
=========================================
+--> _RX8130_WRIT_BYTE/I2C
<--+ RX8130_STOP/I2C



CPU MODE:     8051 MODE
MEMORY MODEL: LARGE


INPUT MODULES INCLUDED:
  .\Objects\STARTUP_M5.obj (?C_STARTUP)
         COMMENT TYPE 1: A51 / ASM51 Assembler
  .\Objects\main.obj (MAIN)
         COMMENT TYPE 0: C51 V9.59.0.0
  .\Objects\sys.obj (SYS)
         COMMENT TYPE 0: C51 V9.59.0.0
  .\Objects\dgus.obj (DGUS)
         COMMENT TYPE 0: C51 V9.59.0.0
  .\Objects\uart.obj (UART)
         COMMENT TYPE 0: C51 V9.59.0.0
  .\Objects\norflash.obj (NORFLASH)
         COMMENT TYPE 0: C51 V9.59.0.0
  .\Objects\timer.obj (TIMER)
         COMMENT TYPE 0: C51 V9.59.0.0
  .\Objects\handle.obj (HANDLE)
         COMMENT TYPE 0: C51 V9.59.0.0
  .\Objects\crc16.obj (CRC16)
         COMMENT TYPE 0: C51 V9.59.0.0
  .\Objects\i2c.obj (I2C)
         COMMENT TYPE 0: C51 V9.59.0.0
  .\Objects\tof.obj (TOF)
         COMMENT TYPE 0: C51 V9.59.0.0
  .\Objects\qrj.obj (QRJ)
         COMMENT TYPE 0: C51 V9.59.0.0
  .\Objects\home.obj (HOME)
         COMMENT TYPE 0: C51 V9.59.0.0
  D:\KEIL\KEIL_C51\C51\LIB\C51L.LIB (?C_INIT)
         COMMENT TYPE 1: A51 / ASM51 Assembler
  D:\KEIL\KEIL_C51\C51\LIB\C51L.LIB (?C?COPY)
         COMMENT TYPE 1: A51 / ASM51 Assembler
  D:\KEIL\KEIL_C51\C51\LIB\C51L.LIB (?C?CLDPTR)
         COMMENT TYPE 1: A51 / ASM51 Assembler
  D:\KEIL\KEIL_C51\C51\LIB\C51L.LIB (?C?CLDOPTR)
         COMMENT TYPE 1: A51 / ASM51 Assembler
  D:\KEIL\KEIL_C51\C51\LIB\C51L.LIB (?C?CSTPTR)
         COMMENT TYPE 1: A51 / ASM51 Assembler
  D:\KEIL\KEIL_C51\C51\LIB\C51L.LIB (?C?CSTOPTR)
         COMMENT TYPE 1: A51 / ASM51 Assembler
  D:\KEIL\KEIL_C51\C51\LIB\C51L.LIB (?C?IMUL)
         COMMENT TYPE 1: A51 / ASM51 Assembler
  D:\KEIL\KEIL_C51\C51\LIB\C51L.LIB (?C?UIDIV)
         COMMENT TYPE 1: A51 / ASM51 Assembler
  D:\KEIL\KEIL_C51\C51\LIB\C51L.LIB (?C?SIDIV)
         COMMENT TYPE 1: A51 / ASM51 Assembler
  D:\KEIL\KEIL_C51\C51\LIB\C51L.LIB (?C?IILDX)
LX51 LINKER/LOCATER V4.66.93.0                                                        04/22/2025  16:54:45  PAGE 2


         COMMENT TYPE 1: A51 / ASM51 Assembler
  D:\KEIL\KEIL_C51\C51\LIB\C51L.LIB (?C?ILDIX)
         COMMENT TYPE 1: A51 / ASM51 Assembler
  D:\KEIL\KEIL_C51\C51\LIB\C51L.LIB (?C?ISTPTR)
         COMMENT TYPE 1: A51 / ASM51 Assembler
  D:\KEIL\KEIL_C51\C51\LIB\C51L.LIB (?C?ULDIV)
         COMMENT TYPE 1: A51 / ASM51 Assembler
  D:\KEIL\KEIL_C51\C51\LIB\C51L.LIB (?C?LSHL)
         COMMENT TYPE 1: A51 / ASM51 Assembler
  D:\KEIL\KEIL_C51\C51\LIB\C51L.LIB (?C?LSTXDATA)
         COMMENT TYPE 1: A51 / ASM51 Assembler
  D:\KEIL\KEIL_C51\C51\LIB\C51L.LIB (?C?MEMSET)
         COMMENT TYPE 1: A51 / ASM51 Assembler


ACTIVE MEMORY CLASSES OF MODULE:  .\Objects\T5L51 (?C_STARTUP)

BASE        START       END         USED      MEMORY CLASS
==========================================================
X:000000H   X:008000H   X:00FFFFH   00249CH   XDATA
X:000000H   X:008000H   X:00FFFFH             HDATA
C:000000H   C:000000H   C:00FFFFH   001E9FH   CODE
I:000000H   I:000000H   I:0000FFH   000001H   IDATA
C:000000H   C:000000H   C:00FFFFH   00007CH   CONST
I:000020H.0 I:000020H.0 I:00002FH.7 000000H.1 BIT
I:000000H   I:000000H   I:00007FH   000008H   DATA


MEMORY MAP OF MODULE:  .\Objects\T5L51 (?C_STARTUP)


START     STOP      LENGTH    ALIGN  RELOC    MEMORY CLASS   SEGMENT NAME
=========================================================================

* * * * * * * * * * *   D A T A   M E M O R Y   * * * * * * * * * * * * *
000000H   000007H   000008H   ---    AT..     DATA           "REG BANK 0"
000008H.0 00001FH.7 000018H.0 ---    ---      **GAP**
000020H.0 000020H.0 000000H.1 BIT    UNIT     BIT            _BIT_GROUP_
000020H.1 000020H   000000H.7 ---    ---      **GAP**
000021H   000021H   000001H   BYTE   UNIT     IDATA          ?STACK

* * * * * * * * * * *   C O D E   M E M O R Y   * * * * * * * * * * * * *
000000H   000002H   000003H   ---    OFFS..   CODE           ?CO??C_STARTUP?0
000003H   000005H   000003H   BYTE   OFFS..   CODE           ?SYS?00003
000006H   00000AH   000005H   BYTE   UNIT     CODE           ?PR?EX0_ISR_PC?SYS
00000BH   00000DH   000003H   BYTE   OFFS..   CODE           ?TIMER?0000B
00000EH   000012H   000005H   BYTE   UNIT     CODE           ?PR?EX1_ISR_PC?SYS
000013H   000015H   000003H   BYTE   OFFS..   CODE           ?SYS?00013
000016H   000022H   00000DH   BYTE   UNIT     CODE           ?PR?RX8130_MACK?I2C
000023H   000025H   000003H   BYTE   OFFS..   CODE           ?UART?00023
000026H   000029H   000004H   BYTE   UNIT     CODE           ?PR?SDA_IN?I2C
00002AH   00002AH   000001H   BYTE   UNIT     CODE           ?PR?UART5_TX_ISR_PC?UART
00002BH   00002DH   000003H   BYTE   OFFS..   CODE           ?TIMER?0002B
00002EH   00005AH   00002DH   BYTE   UNIT     CODE           ?PR?RX8130_READ_BYTE?I2C
00005BH   000060H   000006H   BYTE   UNIT     CODE           ?PR?INITTIMER?TIMER
000061H   000061H   000001H   BYTE   UNIT     CODE           ?PR?QRJ_RUN?QRJ
000062H   000062H   000001H   BYTE   UNIT     CODE           ?PR?QRJ_INIT?QRJ
000063H   000065H   000003H   BYTE   OFFS..   CODE           ?UART?00063
000066H   000069H   000004H   BYTE   UNIT     CODE           ?PR?SDA_OUT?I2C
00006AH   00006AH   000001H   BYTE   UNIT     CODE           ?PR?QRJ_PREPARE?QRJ
00006BH   00006DH   000003H   BYTE   OFFS..   CODE           ?UART?0006B
00006EH   000082H   000015H   BYTE   UNIT     CODE           ?PR?UART5INIT?UART
000083H   000085H   000003H   BYTE   OFFS..   CODE           ?UART?00083
000086H   0000F0H   00006BH   BYTE   UNIT     CODE           ?PR?UART5_RX_ISR_PC?UART
0000F1H   0000F3H   000003H   BYTE   UNIT     CODE           ?PR?T2_ISR_PC?TIMER
LX51 LINKER/LOCATER V4.66.93.0                                                        04/22/2025  16:54:45  PAGE 3


0000F4H   0000F7H   000004H   ---    ---      **GAP**
0000F8H   0000FFH   000008H   ---    OFFS..   CODE           ?CO??C_STARTUP?1
000100H   0004A5H   0003A6H   BYTE   UNIT     CODE           ?PR?PARSEBUFFER?HANDLE
0004A6H   000816H   000371H   BYTE   UNIT     CODE           ?C?LIB_CODE
000817H   000ABAH   0002A4H   BYTE   UNIT     CODE           ?PR?RTC_SET_IN?I2C
000ABBH   000D0CH   000252H   BYTE   UNIT     CODE           ?C_INITSEG
000D0DH   000F59H   00024DH   BYTE   UNIT     CODE           ?PR?_WRITEDGUS?DGUS
000F5AH   0011A1H   000248H   BYTE   UNIT     CODE           ?PR?_READDGUS?DGUS
0011A2H   001351H   0001B0H   BYTE   UNIT     CODE           ?PR?RTC_SET_TIME?I2C
001352H   0014AEH   00015DH   BYTE   UNIT     CODE           ?PR?_RTC_GET_WEEK?I2C
0014AFH   0015E1H   000133H   BYTE   UNIT     CODE           ?PR?READ_TIME?I2C
0015E2H   0016C0H   0000DFH   BYTE   UNIT     CODE           ?PR?_FIND_DLT645_FRAME?HANDLE
0016C1H   00179EH   0000DEH   BYTE   UNIT     CODE           ?PR?UART5_ISR?TOF
00179FH   001842H   0000A4H   BYTE   UNIT     CODE           ?PR?DLT645_HANDLE?HANDLE
001843H   0018E3H   0000A1H   BYTE   UNIT     CODE           ?C_C51STARTUP
0018E4H   001967H   000084H   BYTE   UNIT     CODE           ?PR?TOUCHHANDLE?HANDLE
001968H   0019D2H   00006BH   BYTE   UNIT     CODE           ?PR?_RX8130_WRIT_BYTE?I2C
0019D3H   001A36H   000064H   BYTE   UNIT     CODE           ?PR?UART2_ISR_PC?UART
001A37H   001A9AH   000064H   BYTE   UNIT     CODE           ?PR?_JUMPPAGE?HANDLE
001A9BH   001AFAH   000060H   BYTE   UNIT     CODE           ?PR?UART3_ISR_PC?UART
001AFBH   001B54H   00005AH   BYTE   UNIT     CODE           ?PR?INIT_RTC?I2C
001B55H   001BA0H   00004CH   BYTE   UNIT     CODE           ?PR?GETVALUE0F00?HANDLE
001BA1H   001BE1H   000041H   BYTE   UNIT     CODE           ?PR?_UART2SENDSTR?UART
001BE2H   001C22H   000041H   BYTE   UNIT     CODE           ?PR?_UART3SENDSTR?UART
001C23H   001C63H   000041H   BYTE   UNIT     CODE           ?PR?_UART5SENDSTR?UART
001C64H   001C8FH   00002CH   BYTE   UNIT     CODE           ?PR?_PARSE_DLT645_FRAME?HANDLE
001C90H   001CB4H   000025H   BYTE   UNIT     CODE           ?PR?UART2INIT?UART
001CB5H   001CD9H   000025H   BYTE   UNIT     CODE           ?PR?T0_ISR_PC?TIMER
001CDAH   001CFDH   000024H   BYTE   UNIT     CODE           ?PR?MAIN?MAIN
001CFEH   001D20H   000023H   BYTE   UNIT     CODE           ?PR?RX8130_CACK?I2C
001D21H   001D41H   000021H   BYTE   UNIT     CODE           ?PR?RX8130_STOP?I2C
001D42H   001D61H   000020H   BYTE   UNIT     CODE           ?PR?_PAGE_SET?HANDLE
001D62H   001D81H   000020H   BYTE   UNIT     CODE           ?PR?READCURRENTPAGE_RUN?HOME
001D82H   001D9FH   00001EH   BYTE   UNIT     CODE           ?PR?UART3INIT?UART
001DA0H   001DB9H   00001AH   BYTE   UNIT     CODE           ?PR?CLOCK?I2C
001DBAH   001DD2H   000019H   BYTE   UNIT     CODE           ?PR?INITGPIO?SYS
001DD3H   001DE9H   000017H   BYTE   UNIT     CODE           ?PR?DELAYUS?I2C
001DEAH   001DFDH   000014H   BYTE   UNIT     CODE           ?PR?T2_INIT?TIMER
001DFEH   001E11H   000014H   BYTE   UNIT     CODE           ?PR?RX8130_START?I2C
001E12H   001E24H   000013H   BYTE   UNIT     CODE           ?PR?UART4INIT?UART
001E25H   001E35H   000011H   BYTE   UNIT     CODE           ?PR?INITCPU?SYS
001E36H   001E43H   00000EH   BYTE   UNIT     CODE           ?PR?_UART2SENDBYTE?UART
001E44H   001E51H   00000EH   BYTE   UNIT     CODE           ?PR?_UART3SENDBYTE?UART
001E52H   001E5FH   00000EH   BYTE   UNIT     CODE           ?PR?T0_INIT?TIMER
001E60H   001E6BH   00000CH   BYTE   UNIT     CODE           ?PR?INITINT?SYS
001E6CH   001E77H   00000CH   BYTE   UNIT     CODE           ?PR?_UART5SENDBYTE?UART
001E78H   001E83H   00000CH   BYTE   UNIT     CODE           ?PR?HANDLEPROC?HANDLE
001E84H   001E8EH   00000BH   BYTE   UNIT     CODE           ?PR?INITUARTSEND?HANDLE
001E8FH   001E99H   00000BH   BYTE   UNIT     CODE           ?PR?RX8130_MNAK?I2C
001E9AH   001EA2H   000009H   BYTE   UNIT     CODE           ?PR?INITUART?UART
001EA3H   001F07H   000065H   BYTE   UNIT     CONST          ?CO?HANDLE
001F08H   001F1EH   000017H   BYTE   UNIT     CONST          ?CO?I2C

* * * * * * * * * * *  X D A T A   M E M O R Y  * * * * * * * * * * * * *
008000H   00A129H   00212AH   BYTE   UNIT     XDATA          ?XD?UART
00A12AH   00A42CH   000303H   BYTE   UNIT     XDATA          ?XD?HANDLE
00A42DH   00A46AH   00003EH   BYTE   UNIT     XDATA          _XDATA_GROUP_
00A46BH   00A47EH   000014H   BYTE   UNIT     XDATA          ?XD?TOF
00A47FH   00A487H   000009H   BYTE   UNIT     XDATA          ?XD?I2C
00A488H   00A48DH   000006H   BYTE   UNIT     XDATA          ?XD?MAIN
00A48EH   00A493H   000006H   BYTE   UNIT     XDATA          ?XD?_JUMPPAGE?HANDLE
00A494H   00A496H   000003H   BYTE   UNIT     XDATA          ?XD?_UART3SENDSTR?UART
00A497H   00A499H   000003H   BYTE   UNIT     XDATA          ?XD?_UART5SENDSTR?UART
00A49AH   00A49BH   000002H   BYTE   UNIT     XDATA          ?XD?HOME

LX51 LINKER/LOCATER V4.66.93.0                                                        04/22/2025  16:54:45  PAGE 4




OVERLAY MAP OF MODULE:   .\Objects\T5L51 (?C_STARTUP)


FUNCTION/MODULE                  BIT_GROUP   XDATA_GROUP
--> CALLED FUNCTION/MODULE      START  STOP  START  STOP
========================================================
?C_C51STARTUP                   ----- -----  ----- -----
  +--> MAIN/MAIN
  +--> ?C_INITSEG

MAIN/MAIN                       ----- -----  ----- -----
  +--> INITCPU/SYS
  +--> INIT_RTC/I2C
  +--> _WRITEDGUS/DGUS
  +--> HANDLEPROC/HANDLE
  +--> CLOCK/I2C

INITCPU/SYS                     ----- -----  ----- -----
  +--> INITINT/SYS
  +--> INITGPIO/SYS
  +--> INITUART/UART
  +--> INITTIMER/TIMER

INITINT/SYS                     ----- -----  ----- -----

INITGPIO/SYS                    ----- -----  ----- -----

INITUART/UART                   ----- -----  ----- -----
  +--> UART2INIT/UART
  +--> UART4INIT/UART
  +--> UART5INIT/UART

UART2INIT/UART                  ----- -----  ----- -----

UART4INIT/UART                  ----- -----  ----- -----

UART5INIT/UART                  ----- -----  ----- -----

INITTIMER/TIMER                 ----- -----  ----- -----
  +--> T0_INIT/TIMER
  +--> T2_INIT/TIMER

T0_INIT/TIMER                   ----- -----  ----- -----

T2_INIT/TIMER                   ----- -----  ----- -----

INIT_RTC/I2C                    ----- -----  ----- -----
  +--> _RX8130_WRIT_BYTE/I2C
  +--> RX8130_STOP/I2C
  +--> RX8130_START/I2C
  +--> RX8130_READ_BYTE/I2C
  +--> RX8130_MACK/I2C
  +--> RX8130_MNAK/I2C

_RX8130_WRIT_BYTE/I2C           ----- -----  ----- -----
  +--> RX8130_START/I2C
  +--> RX8130_STOP/I2C
  +--> SDA_OUT/I2C
  +--> DELAYUS/I2C
  +--> RX8130_CACK/I2C

RX8130_START/I2C                ----- -----  ----- -----
  +--> SDA_OUT/I2C
LX51 LINKER/LOCATER V4.66.93.0                                                        04/22/2025  16:54:45  PAGE 5


  +--> DELAYUS/I2C

SDA_OUT/I2C                     ----- -----  ----- -----

DELAYUS/I2C                     ----- -----  ----- -----

RX8130_STOP/I2C                 ----- -----  ----- -----
  +--> _RX8130_WRIT_BYTE/I2C
  +--> SDA_OUT/I2C
  +--> DELAYUS/I2C
  +--> SDA_IN/I2C

SDA_IN/I2C                      ----- -----  ----- -----

RX8130_CACK/I2C                 ----- -----  ----- -----
  +--> SDA_IN/I2C
  +--> DELAYUS/I2C
  +--> SDA_OUT/I2C

RX8130_READ_BYTE/I2C            ----- -----  ----- -----
  +--> SDA_IN/I2C
  +--> DELAYUS/I2C

RX8130_MACK/I2C                 ----- -----  ----- -----
  +--> SDA_OUT/I2C
  +--> DELAYUS/I2C

RX8130_MNAK/I2C                 ----- -----  ----- -----
  +--> SDA_OUT/I2C
  +--> DELAYUS/I2C

_WRITEDGUS/DGUS                 ----- -----  A464H A46AH

HANDLEPROC/HANDLE               ----- -----  ----- -----
  +--> GETVALUE0F00/HANDLE
  +--> TOUCHHANDLE/HANDLE
  +--> PARSEBUFFER/HANDLE

GETVALUE0F00/HANDLE             ----- -----  A42DH A430H
  +--> _READDGUS/DGUS
  +--> _WRITEDGUS/DGUS

_READDGUS/DGUS                  ----- -----  A464H A46AH

TOUCHHANDLE/HANDLE              ----- -----  A42DH A442H
  +--> _READDGUS/DGUS
  +--> _PAGE_SET/HANDLE

_PAGE_SET/HANDLE                ----- -----  ----- -----
  +--> RTC_SET_IN/I2C

RTC_SET_IN/I2C                  ----- -----  A443H A454H
  +--> _READDGUS/DGUS
  +--> _WRITEDGUS/DGUS
  +--> RTC_SET_TIME/I2C

RTC_SET_TIME/I2C                20H.0 20H.0  A455H A463H
  +--> _READDGUS/DGUS
  +--> _WRITEDGUS/DGUS
  +--> _RX8130_WRIT_BYTE/I2C
  +--> RX8130_STOP/I2C

PARSEBUFFER/HANDLE              ----- -----  A42DH A43BH
  +--> _FIND_DLT645_FRAME/HANDLE
  +--> _PARSE_DLT645_FRAME/HANDLE
LX51 LINKER/LOCATER V4.66.93.0                                                        04/22/2025  16:54:45  PAGE 6


  +--> DLT645_HANDLE/HANDLE

_FIND_DLT645_FRAME/HANDLE       ----- -----  A43CH A44AH

_PARSE_DLT645_FRAME/HANDLE      ----- -----  A43CH A447H

DLT645_HANDLE/HANDLE            ----- -----  A43CH A43DH
  +--> _WRITEDGUS/DGUS
  +--> _READDGUS/DGUS
  +--> _UART2SENDSTR/UART

_UART2SENDSTR/UART              ----- -----  A43EH A440H
  +--> _UART2SENDBYTE/UART

_UART2SENDBYTE/UART             ----- -----  ----- -----

CLOCK/I2C                       ----- -----  ----- -----
  +--> READ_TIME/I2C

READ_TIME/I2C                   ----- -----  A42DH A436H
  +--> _RX8130_WRIT_BYTE/I2C
  +--> RX8130_STOP/I2C
  +--> RX8130_START/I2C
  +--> RX8130_READ_BYTE/I2C
  +--> RX8130_MACK/I2C
  +--> RX8130_MNAK/I2C
  +--> _RTC_GET_WEEK/I2C
  +--> _WRITEDGUS/DGUS

_RTC_GET_WEEK/I2C               ----- -----  A437H A43BH

?C_INITSEG                      ----- -----  ----- -----

*** NEW ROOT ******************

EX0_ISR_PC/SYS                  ----- -----  ----- -----

*** NEW ROOT ******************

EX1_ISR_PC/SYS                  ----- -----  ----- -----

*** NEW ROOT ******************

UART2_ISR_PC/UART               ----- -----  ----- -----

*** NEW ROOT ******************

UART3_ISR_PC/UART               ----- -----  ----- -----

*** NEW ROOT ******************

UART5_TX_ISR_PC/UART            ----- -----  ----- -----

*** NEW ROOT ******************

UART5_RX_ISR_PC/UART            ----- -----  ----- -----
  +--> UART5_ISR/TOF

UART5_ISR/TOF                   ----- -----  ----- -----

*** NEW ROOT ******************

T0_ISR_PC/TIMER                 ----- -----  ----- -----

*** NEW ROOT ******************
LX51 LINKER/LOCATER V4.66.93.0                                                        04/22/2025  16:54:45  PAGE 7



T2_ISR_PC/TIMER                 ----- -----  ----- -----



PUBLIC SYMBOLS OF MODULE:  .\Objects\T5L51 (?C_STARTUP)


      VALUE       CLASS    TYPE      PUBLIC SYMBOL NAME
      =================================================
      0200A43CH   XDATA    BYTE      ?_find_dlt645_frame?BYTE
      0200A43CH   XDATA    BYTE      ?_parse_dlt645_frame?BYTE
      0200A464H   XDATA    BYTE      ?_ReadDGUS?BYTE
      0200A464H   XDATA    BYTE      ?_WriteDGUS?BYTE
      010005B5H   CODE     ---       ?C?CLDOPTR
      0100059CH   CODE     ---       ?C?CLDPTR
      00000000H   NUMBER   ---       ?C?CODESEG
      01000576H   CODE     ---       ?C?COPY
      010005F4H   CODE     ---       ?C?CSTOPTR
      010005E2H   CODE     ---       ?C?CSTPTR
      010006B3H   CODE     ---       ?C?IILDX
      010006C9H   CODE     ---       ?C?ILDIX
      01000616H   CODE     ---       ?C?IMUL
      010006DFH   CODE     ---       ?C?ISTPTR
      010007CCH   CODE     ---       ?C?LSHL
      010007DFH   CODE     ---       ?C?LSTXDATA
      010007EBH   CODE     ---       ?C?MEMSET
      0100067DH   CODE     ---       ?C?SIDIV
      01000628H   CODE     ---       ?C?UIDIV
      0100073AH   CODE     ---       ?C?ULDIV
      00000000H   NUMBER   ---       ?C?XDATASEG
      0100189FH   CODE     ---       ?C_START
      01000000H   CODE     ---       ?C_STARTUP
      *EXTERN*    CODE     ---       _DelayMs
      010015E2H   CODE     ---       _find_dlt645_frame
      01001A37H   CODE     ---       _JumpPage
      01001D42H   CODE     ---       _page_set
      01001C64H   CODE     ---       _parse_dlt645_frame
      01000F5AH   CODE     ---       _ReadDGUS
      01001352H   CODE     ---       _RTC_Get_Week
      010019A6H   CODE     ---       _Rx8130_Writ_Byte
      01001E36H   CODE     ---       _Uart2SendByte
      01001BA1H   CODE     ---       _Uart2SendStr
      01001E44H   CODE     ---       _Uart3SendByte
      01001BE2H   CODE     ---       _Uart3SendStr
      01001E6CH   CODE     ---       _Uart5SendByte
      01001C23H   CODE     ---       _Uart5SendStr
      01000D0DH   CODE     ---       _WriteDGUS
      0200A488H   XDATA    ---       aa
*SFR* 000000D0H.6 DATA     BIT       AC
*SFR* 000000E0H   DATA     BYTE      ACC
*SFR* 000000D8H   DATA     BYTE      ADCON
*SFR* 000000F1H   DATA     BYTE      ADR_H
*SFR* 000000F4H   DATA     BYTE      ADR_INC
*SFR* 000000F3H   DATA     BYTE      ADR_L
*SFR* 000000F2H   DATA     BYTE      ADR_M
*SFR* 000000F8H.4 DATA     BIT       APP_ACK
*SFR* 000000F8H.0 DATA     BIT       APP_DATA0
*SFR* 000000F8H.1 DATA     BIT       APP_DATA1
*SFR* 000000F8H.2 DATA     BIT       APP_DATA2
*SFR* 000000F8H.3 DATA     BIT       APP_DATA3
*SFR* 000000F8H.6 DATA     BIT       APP_EN
*SFR* 000000F8H.7 DATA     BIT       APP_REQ
*SFR* 000000F8H.5 DATA     BIT       APP_RW
*SFR* 000000F0H   DATA     BYTE      B
LX51 LINKER/LOCATER V4.66.93.0                                                        04/22/2025  16:54:45  PAGE 8


      0200A48AH   XDATA    DWORD     bb
*SFR* 000000D9H   DATA     BYTE      BODE2_DIV_H
*SFR* 000000E7H   DATA     BYTE      BODE2_DIV_L
*SFR* 000000AEH   DATA     BYTE      BODE3_DIV_H
*SFR* 000000AFH   DATA     BYTE      BODE3_DIV_L
*SFR* 0000008FH   DATA     BYTE      CAN_CR
*SFR* 000000E8H   DATA     BYTE      CAN_ET
*SFR* 00000091H   DATA     BYTE      CAN_IR
*SFR* 0000008EH   DATA     BYTE      CKCON
      01001DA0H   CODE     ---       Clock
      01001EA3H   CONST    ---       CUart2
      01001EB8H   CONST    ---       CUart3
      01001ECAH   CONST    ---       CUart4
      01001EDCH   CONST    ---       CUart5
      0200A49AH   XDATA    ---       CurrentPageNum
*SFR* 000000D0H.7 DATA     BIT       CY
*SFR* 00000095H   DATA     BYTE      D_PAGESEL
*SFR* 000000FDH   DATA     BYTE      DATA0
*SFR* 000000FCH   DATA     BYTE      DATA1
*SFR* 000000FBH   DATA     BYTE      DATA2
*SFR* 000000FAH   DATA     BYTE      DATA3
      01001DDAH   CODE     ---       Delayus
*SFR* 000000E6H   DATA     BYTE      DIV_MODE
      0100179FH   CODE     ---       dlt645_handle
*SFR* 00000093H   DATA     BYTE      DPC
*SFR* 00000083H   DATA     BYTE      DPH
*SFR* 00000082H   DATA     BYTE      DPL
*SFR* 000000A8H.7 DATA     BIT       EA
*SFR* 000000B8H.1 DATA     BIT       ECAN
*SFR* 000000A8H.4 DATA     BIT       ES0
*SFR* 000000B8H.3 DATA     BIT       ES2R
*SFR* 000000B8H.2 DATA     BIT       ES2T
*SFR* 000000B8H.5 DATA     BIT       ES3R
*SFR* 000000B8H.4 DATA     BIT       ES3T
*SFR* 000000A8H.1 DATA     BIT       ET0
*SFR* 000000A8H.3 DATA     BIT       ET1
*SFR* 000000A8H.5 DATA     BIT       ET2
*SFR* 000000A8H.0 DATA     BIT       EX0
      01000006H   CODE     ---       EX0_ISR_PC
*SFR* 000000A8H.2 DATA     BIT       EX1
      0100000EH   CODE     ---       EX1_ISR_PC
*SFR* 000000FEH   DATA     BYTE      EXADR
*SFR* 000000FFH   DATA     BYTE      EXDATA
*SFR* 000000D0H.5 DATA     BIT       F0
*SFR* 000000D0H.1 DATA     BIT       F1
      0200A12AH   XDATA    ---       frame_buf
      0200A329H   XDATA    ---       frame_buf1
      01001B55H   CODE     ---       GetValue0F00
      0200A46DH   XDATA    ---       GY53_Data
      01001E78H   CODE     ---       HandleProc
*SFR* 00000088H.1 DATA     BIT       IE0
*SFR* 00000088H.3 DATA     BIT       IE1
*SFR* 000000A8H   DATA     BYTE      IEN0
*SFR* 000000B8H   DATA     BYTE      IEN1
*SFR* 0000009AH   DATA     BYTE      IEN2
*SFR* 000000D1H   DATA     BYTE      IEN3
      01001AFBH   CODE     ---       Init_Rtc
      01001E25H   CODE     ---       InitCPU
      01001DBAH   CODE     ---       InitGPIO
      01001E60H   CODE     ---       InitInt
      0100005BH   CODE     ---       InitTimer
      01001E9AH   CODE     ---       InitUart
      01001E84H   CODE     ---       InitUartSend
*SFR* 000000A9H   DATA     BYTE      IP0
*SFR* 000000B9H   DATA     BYTE      IP1
LX51 LINKER/LOCATER V4.66.93.0                                                        04/22/2025  16:54:45  PAGE 9


*SFR* 000000C0H   DATA     BYTE      IRCON
*SFR* 000000BFH   DATA     BYTE      IRCON2
*SFR* 00000088H.0 DATA     BIT       IT0
*SFR* 00000088H.2 DATA     BIT       IT1
*SFR* 000000A0H.5 DATA     BIT       JIGUANG
      0200A47DH   XDATA    WORD      L_int
*SFR* 000000A0H.3 DATA     BIT       LED_B
*SFR* 000000A0H.1 DATA     BIT       LED_G
*SFR* 00000090H.7 DATA     BIT       LED_R
*SFR* 000000E5H   DATA     BYTE      MAC_MODE
      01001CDAH   CODE     ---       main
      0200A46CH   XDATA    BYTE      MODE
*SFR* 000000C9H   DATA     BYTE      MUX_SEL
*SFR* 000000D0H.2 DATA     BIT       OV
*SFR* 000000D0H.0 DATA     BIT       P
*SFR* 00000080H   DATA     BYTE      P0
*SFR* 00000080H.0 DATA     BIT       P0_0
*SFR* 000000B7H   DATA     BYTE      P0MDOUT
*SFR* 00000090H   DATA     BYTE      P1
*SFR* 00000090H.0 DATA     BIT       P1_0
*SFR* 00000090H.1 DATA     BIT       P1_1
*SFR* 000000BCH   DATA     BYTE      P1MDOUT
*SFR* 000000A0H   DATA     BYTE      P2
*SFR* 000000BDH   DATA     BYTE      P2MDOUT
*SFR* 000000B0H   DATA     BYTE      P3
*SFR* 000000B0H.1 DATA     BIT       P3_1
*SFR* 000000BEH   DATA     BYTE      P3MDOUT
*SFR* 00000094H   DATA     BYTE      PAGESEL
      01000100H   CODE     ---       ParseBuffer
*SFR* 00000087H   DATA     BYTE      PCON
*SFR* 000000F9H   DATA     BYTE      PORTDRV
*SFR* 000000D0H   DATA     BYTE      PSW
      01000062H   CODE     ---       QRJ_Init
      0100006AH   CODE     ---       QRJ_prepare
      01000061H   CODE     ---       QRJ_run
*SFR* 000000F8H   DATA     BYTE      RAMMODE
*SFR* 00000098H.2 DATA     BIT       RB80
      010014AFH   CODE     ---       Read_Time
      01001D62H   CODE     ---       ReadCurrentPage_run
*SFR* 00000098H.4 DATA     BIT       REN0
*SFR* 00000098H.0 DATA     BIT       RI0
*SFR* 000000D0H.3 DATA     BIT       RS0
*SFR* 000000D0H.4 DATA     BIT       RS1
*SFR* 000000B0H.2 DATA     BIT       RTC_SCL
*SFR* 000000B0H.3 DATA     BIT       RTC_SDA
      01000817H   CODE     ---       RTC_SET_IN
      010011A2H   CODE     ---       RTC_Set_Time
      01001CFEH   CODE     ---       Rx8130_Cack
      01000016H   CODE     ---       Rx8130_Mack
      01001E8FH   CODE     ---       Rx8130_Mnak
      0100002EH   CODE     ---       Rx8130_Read_Byte
      01001DFEH   CODE     ---       Rx8130_Start
      01001D30H   CODE     ---       Rx8130_Stop
      0200A229H   XDATA    ---       s_dl_t_645_8283_body
*SFR* 00000099H   DATA     BYTE      SBUF0
*SFR* 0000009CH   DATA     BYTE      SBUF1
*SFR* 0000009FH   DATA     BYTE      SBUF2_RX
*SFR* 0000009EH   DATA     BYTE      SBUF2_TX
*SFR* 000000ADH   DATA     BYTE      SBUF3_RX
*SFR* 000000ACH   DATA     BYTE      SBUF3_TX
*SFR* 00000098H   DATA     BYTE      SCON0
*SFR* 0000009BH   DATA     BYTE      SCON1
*SFR* 00000097H   DATA     BYTE      SCON2R
*SFR* 00000096H   DATA     BYTE      SCON2T
*SFR* 000000ABH   DATA     BYTE      SCON3R
LX51 LINKER/LOCATER V4.66.93.0                                                        04/22/2025  16:54:45  PAGE 10


*SFR* 000000A7H   DATA     BYTE      SCON3T
      01000026H   CODE     ---       SDA_IN
      01000066H   CODE     ---       SDA_OUT
      0200A485H   XDATA    BYTE      Select_rtc
*SFR* 00000098H.7 DATA     BIT       SM0
*SFR* 00000098H.6 DATA     BIT       SM1
*SFR* 00000098H.5 DATA     BIT       SM2
*SFR* 00000081H   DATA     BYTE      SP
*SFR* 000000BAH   DATA     BYTE      SREL0H
*SFR* 000000AAH   DATA     BYTE      SREL0L
*SFR* 000000BBH   DATA     BYTE      SREL1H
*SFR* 0000009DH   DATA     BYTE      SREL1L
      0200A486H   XDATA    WORD      SysTick_RTC
      01001E52H   CODE     ---       T0_Init
      01001CB5H   CODE     ---       T0_ISR_PC
      01001DEAH   CODE     ---       T2_Init
      010000F1H   CODE     ---       T2_ISR_PC
*SFR* 000000C8H   DATA     BYTE      T2CON
*SFR* 00000098H.3 DATA     BIT       TB80
*SFR* 00000088H   DATA     BYTE      TCON
*SFR* 00000088H.5 DATA     BIT       TF0
*SFR* 00000088H.7 DATA     BIT       TF1
*SFR* 000000C0H.6 DATA     BIT       TF2
*SFR* 0000008CH   DATA     BYTE      TH0
*SFR* 0000008DH   DATA     BYTE      TH1
*SFR* 000000CDH   DATA     BYTE      TH2
*SFR* 00000098H.1 DATA     BIT       TI0
*SFR* 0000008AH   DATA     BYTE      TL0
*SFR* 0000008BH   DATA     BYTE      TL1
*SFR* 000000CCH   DATA     BYTE      TL2
*SFR* 00000089H   DATA     BYTE      TMOD
      010018E4H   CODE     ---       TouchHandle
*SFR* 00000088H.4 DATA     BIT       TR0
*SFR* 00000088H.6 DATA     BIT       TR1
*SFR* 000000C8H.0 DATA     BIT       TR2
*SFR* 000000CBH   DATA     BYTE      TRL2H
*SFR* 000000CAH   DATA     BYTE      TRL2L
*SFR* 000000C8H.7 DATA     BIT       TSF2
      02008080H   XDATA    BYTE      uart2_busy
      010019D3H   CODE     ---       UART2_ISR_PC
      0200808AH   XDATA    ---       Uart2_Rx
      02008082H   XDATA    WORD      uart2_rx_count
      01001C90H   CODE     ---       Uart2Init
      02008081H   XDATA    BYTE      uart3_busy
      01001A9BH   CODE     ---       UART3_ISR_PC
      0200A02AH   XDATA    ---       Uart3_Rx
      02008084H   XDATA    WORD      uart3_rx_count
      01001D82H   CODE     ---       Uart3Init
      0200A0AAH   XDATA    ---       Uart4_Rx
      02008086H   XDATA    WORD      uart4_rx_count
      01001E12H   CODE     ---       Uart4Init
      010016C1H   CODE     ---       UART5_isr
      02008000H   XDATA    ---       Uart5_Rx
      02008088H   XDATA    WORD      uart5_rx_count
      01000086H   CODE     ---       UART5_RX_ISR_PC
      0100002AH   CODE     ---       UART5_TX_ISR_PC
      0100006EH   CODE     ---       Uart5Init
*SFR* 00000090H.5 DATA     BIT       UV
*SFR* 000000A0H.7 DATA     BIT       UV_St
      0200A429H   XDATA    ---       value0F00
      0200A428H   XDATA    BYTE      xp_status



UNRESOLVED EXTERNAL SYMBOLS:
LX51 LINKER/LOCATER V4.66.93.0                                                        04/22/2025  16:54:45  PAGE 11


   _DelayMs



SYMBOL TABLE OF MODULE:  .\Objects\T5L51 (?C_STARTUP)

      VALUE       REP       CLASS    TYPE      SYMBOL NAME
      ====================================================
      ---         MODULE    ---      ---       ?C_STARTUP
      01000000H   PUBLIC    CODE     ---       ?C_STARTUP
      000000E0H   SYMBOL    DATA     ---       ACC
      000000F0H   SYMBOL    DATA     ---       B
      0000008EH   SYMBOL    DATA     ---       CKCON
      00000094H   SYMBOL    DATA     ---       DAGESEL
      00000093H   SYMBOL    DATA     ---       DPC
      00000083H   SYMBOL    DATA     ---       DPH
      00000082H   SYMBOL    DATA     ---       DPL
      00000095H   SYMBOL    DATA     ---       D_PAGESEL
      00000000H   SYMBOL    NUMBER   ---       IBPSTACK
      00000100H   SYMBOL    NUMBER   ---       IBPSTACKTOP
      00000080H   SYMBOL    NUMBER   ---       IDATALEN
      0100185BH   SYMBOL    CODE     ---       IDATALOOP
      000000C9H   SYMBOL    DATA     ---       MUX_SEL
      00000000H   SYMBOL    NUMBER   ---       PBPSTACK
      00000100H   SYMBOL    NUMBER   ---       PBPSTACKTOP
      00000000H   SYMBOL    NUMBER   ---       PDATALEN
      00000000H   SYMBOL    NUMBER   ---       PDATASTART
      00000000H   SYMBOL    NUMBER   ---       PPAGE
      00000000H   SYMBOL    NUMBER   ---       PPAGEENABLE
      000000A0H   SYMBOL    DATA     ---       PPAGE_SFR
      000000F8H   SYMBOL    DATA     ---       RAMMODE
      00000081H   SYMBOL    DATA     ---       SP
      01001843H   SYMBOL    CODE     ---       STARTUP1
      000000C8H   SYMBOL    DATA     ---       T2CON
      00000000H   SYMBOL    NUMBER   ---       XBPSTACK
      00000000H   SYMBOL    NUMBER   ---       XBPSTACKTOP
      00000000H   SYMBOL    NUMBER   ---       XDATALEN
      00000000H   SYMBOL    NUMBER   ---       XDATASTART
      01000000H   LINE      CODE     ---       #133
      01001843H   LINE      CODE     ---       #143
      01001846H   LINE      CODE     ---       #144
      01001849H   LINE      CODE     ---       #145
      0100184CH   LINE      CODE     ---       #146
      0100184FH   LINE      CODE     ---       #147
      01001852H   LINE      CODE     ---       #148
      01001855H   LINE      CODE     ---       #149
      01001858H   LINE      CODE     ---       #152
      0100185AH   LINE      CODE     ---       #153
      0100185BH   LINE      CODE     ---       #154
      0100185CH   LINE      CODE     ---       #155
      0100185EH   LINE      CODE     ---       #204
      01001861H   LINE      CODE     ---       #215

      ---         MODULE    ---      ---       MAIN
      0200A48AH   PUBLIC    XDATA    DWORD     bb
      0200A488H   PUBLIC    XDATA    ---       aa
      01001CDAH   PUBLIC    CODE     ---       main
      00000098H.3 SFRSYM    DATA     BIT       TB80
      000000F1H   SFRSYM    DATA     BYTE      ADR_H
      00000080H   SFRSYM    DATA     BYTE      P0
      00000090H   SFRSYM    DATA     BYTE      P1
      000000A0H   SFRSYM    DATA     BYTE      P2
      000000B0H   SFRSYM    DATA     BYTE      P3
      000000D0H.6 SFRSYM    DATA     BIT       AC
      000000F3H   SFRSYM    DATA     BYTE      ADR_L
LX51 LINKER/LOCATER V4.66.93.0                                                        04/22/2025  16:54:45  PAGE 12


      00000094H   SFRSYM    DATA     BYTE      PAGESEL
      000000F2H   SFRSYM    DATA     BYTE      ADR_M
      000000A8H.7 SFRSYM    DATA     BIT       EA
      000000A0H.5 SFRSYM    DATA     BIT       JIGUANG
      00000090H.7 SFRSYM    DATA     BIT       LED_R
      000000F8H   SFRSYM    DATA     BYTE      RAMMODE
      000000B7H   SFRSYM    DATA     BYTE      P0MDOUT
      000000A8H   SFRSYM    DATA     BYTE      IEN0
      000000BCH   SFRSYM    DATA     BYTE      P1MDOUT
      000000B8H   SFRSYM    DATA     BYTE      IEN1
      000000BDH   SFRSYM    DATA     BYTE      P2MDOUT
      000000F8H.0 SFRSYM    DATA     BIT       APP_DATA0
      0000009AH   SFRSYM    DATA     BYTE      IEN2
      000000BEH   SFRSYM    DATA     BYTE      P3MDOUT
      000000F8H.1 SFRSYM    DATA     BIT       APP_DATA1
      000000D1H   SFRSYM    DATA     BYTE      IEN3
      00000080H.0 SFRSYM    DATA     BIT       P0_0
      000000F8H.2 SFRSYM    DATA     BIT       APP_DATA2
      00000090H.0 SFRSYM    DATA     BIT       P1_0
      000000F8H.3 SFRSYM    DATA     BIT       APP_DATA3
      00000090H.1 SFRSYM    DATA     BIT       P1_1
      000000F8H.4 SFRSYM    DATA     BIT       APP_ACK
      000000F4H   SFRSYM    DATA     BYTE      ADR_INC
      000000B0H.1 SFRSYM    DATA     BIT       P3_1
      00000098H.4 SFRSYM    DATA     BIT       REN0
      000000B8H.1 SFRSYM    DATA     BIT       ECAN
      000000D0H.7 SFRSYM    DATA     BIT       CY
      000000B8H.3 SFRSYM    DATA     BIT       ES2R
      000000B8H.5 SFRSYM    DATA     BIT       ES3R
      000000B8H.2 SFRSYM    DATA     BIT       ES2T
      000000B8H.4 SFRSYM    DATA     BIT       ES3T
      000000C8H.7 SFRSYM    DATA     BIT       TSF2
      000000B0H.3 SFRSYM    DATA     BIT       RTC_SDA
      00000081H   SFRSYM    DATA     BYTE      SP
      000000D0H.2 SFRSYM    DATA     BIT       OV
      00000095H   SFRSYM    DATA     BYTE      D_PAGESEL
      00000090H.5 SFRSYM    DATA     BIT       UV
      000000F8H.7 SFRSYM    DATA     BIT       APP_REQ
      000000B0H.2 SFRSYM    DATA     BIT       RTC_SCL
      000000BFH   SFRSYM    DATA     BYTE      IRCON2
      000000BAH   SFRSYM    DATA     BYTE      SREL0H
      000000BBH   SFRSYM    DATA     BYTE      SREL1H
      00000087H   SFRSYM    DATA     BYTE      PCON
      000000AAH   SFRSYM    DATA     BYTE      SREL0L
      000000F9H   SFRSYM    DATA     BYTE      PORTDRV
      0000009DH   SFRSYM    DATA     BYTE      SREL1L
      00000089H   SFRSYM    DATA     BYTE      TMOD
      00000088H   SFRSYM    DATA     BYTE      TCON
      00000097H   SFRSYM    DATA     BYTE      SCON2R
      000000FFH   SFRSYM    DATA     BYTE      EXDATA
      000000ABH   SFRSYM    DATA     BYTE      SCON3R
      000000D9H   SFRSYM    DATA     BYTE      BODE2_DIV_H
      000000AEH   SFRSYM    DATA     BYTE      BODE3_DIV_H
      00000096H   SFRSYM    DATA     BYTE      SCON2T
      000000A7H   SFRSYM    DATA     BYTE      SCON3T
      000000E7H   SFRSYM    DATA     BYTE      BODE2_DIV_L
      00000088H.1 SFRSYM    DATA     BIT       IE0
      000000AFH   SFRSYM    DATA     BYTE      BODE3_DIV_L
      00000088H.3 SFRSYM    DATA     BIT       IE1
      000000C9H   SFRSYM    DATA     BYTE      MUX_SEL
      000000F0H   SFRSYM    DATA     BYTE      B
      000000E0H   SFRSYM    DATA     BYTE      ACC
      000000A8H.4 SFRSYM    DATA     BIT       ES0
      0000008FH   SFRSYM    DATA     BYTE      CAN_CR
      000000A8H.1 SFRSYM    DATA     BIT       ET0
LX51 LINKER/LOCATER V4.66.93.0                                                        04/22/2025  16:54:45  PAGE 13


      000000A9H   SFRSYM    DATA     BYTE      IP0
      000000A8H.3 SFRSYM    DATA     BIT       ET1
      00000088H.5 SFRSYM    DATA     BIT       TF0
      000000B9H   SFRSYM    DATA     BYTE      IP1
      000000A8H.5 SFRSYM    DATA     BIT       ET2
      00000098H.0 SFRSYM    DATA     BIT       RI0
      00000088H.7 SFRSYM    DATA     BIT       TF1
      000000FDH   SFRSYM    DATA     BYTE      DATA0
      000000C0H.6 SFRSYM    DATA     BIT       TF2
      000000E8H   SFRSYM    DATA     BYTE      CAN_ET
      000000FCH   SFRSYM    DATA     BYTE      DATA1
      0000008CH   SFRSYM    DATA     BYTE      TH0
      000000A8H.0 SFRSYM    DATA     BIT       EX0
      00000098H.1 SFRSYM    DATA     BIT       TI0
      00000088H.0 SFRSYM    DATA     BIT       IT0
      000000FBH   SFRSYM    DATA     BYTE      DATA2
      0000008DH   SFRSYM    DATA     BYTE      TH1
      000000A8H.2 SFRSYM    DATA     BIT       EX1
      00000091H   SFRSYM    DATA     BYTE      CAN_IR
      000000CDH   SFRSYM    DATA     BYTE      TH2
      00000088H.2 SFRSYM    DATA     BIT       IT1
      000000FAH   SFRSYM    DATA     BYTE      DATA3
      000000D0H.0 SFRSYM    DATA     BIT       P
      00000098H.7 SFRSYM    DATA     BIT       SM0
      0000008AH   SFRSYM    DATA     BYTE      TL0
      00000098H.6 SFRSYM    DATA     BIT       SM1
      0000008BH   SFRSYM    DATA     BYTE      TL1
      00000098H.5 SFRSYM    DATA     BIT       SM2
      000000CCH   SFRSYM    DATA     BYTE      TL2
      000000A0H.7 SFRSYM    DATA     BIT       UV_St
      000000D0H.3 SFRSYM    DATA     BIT       RS0
      000000F8H.6 SFRSYM    DATA     BIT       APP_EN
      000000D0H.4 SFRSYM    DATA     BIT       RS1
      00000088H.4 SFRSYM    DATA     BIT       TR0
      00000088H.6 SFRSYM    DATA     BIT       TR1
      00000093H   SFRSYM    DATA     BYTE      DPC
      000000C8H.0 SFRSYM    DATA     BIT       TR2
      000000E5H   SFRSYM    DATA     BYTE      MAC_MODE
      00000083H   SFRSYM    DATA     BYTE      DPH
      00000082H   SFRSYM    DATA     BYTE      DPL
      00000099H   SFRSYM    DATA     BYTE      SBUF0
      0000009CH   SFRSYM    DATA     BYTE      SBUF1
      00000098H   SFRSYM    DATA     BYTE      SCON0
      0000009BH   SFRSYM    DATA     BYTE      SCON1
      000000D8H   SFRSYM    DATA     BYTE      ADCON
      000000C8H   SFRSYM    DATA     BYTE      T2CON
      000000E6H   SFRSYM    DATA     BYTE      DIV_MODE
      000000F8H.5 SFRSYM    DATA     BIT       APP_RW
      000000CBH   SFRSYM    DATA     BYTE      TRL2H
      0000009FH   SFRSYM    DATA     BYTE      SBUF2_RX
      000000ADH   SFRSYM    DATA     BYTE      SBUF3_RX
      0000008EH   SFRSYM    DATA     BYTE      CKCON
      0000009EH   SFRSYM    DATA     BYTE      SBUF2_TX
      000000ACH   SFRSYM    DATA     BYTE      SBUF3_TX
      000000CAH   SFRSYM    DATA     BYTE      TRL2L
      000000D0H.5 SFRSYM    DATA     BIT       F0
      000000FEH   SFRSYM    DATA     BYTE      EXADR
      000000D0H.1 SFRSYM    DATA     BIT       F1
      000000A0H.3 SFRSYM    DATA     BIT       LED_B
      000000D0H   SFRSYM    DATA     BYTE      PSW
      000000A0H.1 SFRSYM    DATA     BIT       LED_G
      000000C0H   SFRSYM    DATA     BYTE      IRCON
      00000098H.2 SFRSYM    DATA     BIT       RB80

      01001CDAH   BLOCK     CODE     ---       LVL=0
LX51 LINKER/LOCATER V4.66.93.0                                                        04/22/2025  16:54:45  PAGE 14


      01001CDAH   LINE      CODE     ---       #44
      01001CDAH   LINE      CODE     ---       #45
      01001CDAH   LINE      CODE     ---       #46
      01001CDDH   LINE      CODE     ---       #50
      01001CE0H   LINE      CODE     ---       #54
      01001CE0H   LINE      CODE     ---       #55
      01001CE0H   LINE      CODE     ---       #57
      01001CF6H   LINE      CODE     ---       #60
      01001CF9H   LINE      CODE     ---       #61
      01001CFCH   LINE      CODE     ---       #63
      ---         BLOCKEND  ---      ---       LVL=0

      ---         MODULE    ---      ---       SYS
      01001E25H   PUBLIC    CODE     ---       InitCPU
      0100000EH   PUBLIC    CODE     ---       EX1_ISR_PC
      01000006H   PUBLIC    CODE     ---       EX0_ISR_PC
      01001DBAH   PUBLIC    CODE     ---       InitGPIO
      01001E60H   PUBLIC    CODE     ---       InitInt
      00000098H.3 SFRSYM    DATA     BIT       TB80
      000000F1H   SFRSYM    DATA     BYTE      ADR_H
      00000080H   SFRSYM    DATA     BYTE      P0
      00000090H   SFRSYM    DATA     BYTE      P1
      000000A0H   SFRSYM    DATA     BYTE      P2
      000000B0H   SFRSYM    DATA     BYTE      P3
      000000D0H.6 SFRSYM    DATA     BIT       AC
      000000F3H   SFRSYM    DATA     BYTE      ADR_L
      00000094H   SFRSYM    DATA     BYTE      PAGESEL
      000000F2H   SFRSYM    DATA     BYTE      ADR_M
      000000A8H.7 SFRSYM    DATA     BIT       EA
      000000A0H.5 SFRSYM    DATA     BIT       JIGUANG
      00000090H.7 SFRSYM    DATA     BIT       LED_R
      000000F8H   SFRSYM    DATA     BYTE      RAMMODE
      000000B7H   SFRSYM    DATA     BYTE      P0MDOUT
      000000A8H   SFRSYM    DATA     BYTE      IEN0
      000000BCH   SFRSYM    DATA     BYTE      P1MDOUT
      000000B8H   SFRSYM    DATA     BYTE      IEN1
      000000BDH   SFRSYM    DATA     BYTE      P2MDOUT
      000000F8H.0 SFRSYM    DATA     BIT       APP_DATA0
      0000009AH   SFRSYM    DATA     BYTE      IEN2
      000000BEH   SFRSYM    DATA     BYTE      P3MDOUT
      000000F8H.1 SFRSYM    DATA     BIT       APP_DATA1
      000000D1H   SFRSYM    DATA     BYTE      IEN3
      00000080H.0 SFRSYM    DATA     BIT       P0_0
      000000F8H.2 SFRSYM    DATA     BIT       APP_DATA2
      00000090H.0 SFRSYM    DATA     BIT       P1_0
      000000F8H.3 SFRSYM    DATA     BIT       APP_DATA3
      00000090H.1 SFRSYM    DATA     BIT       P1_1
      000000F8H.4 SFRSYM    DATA     BIT       APP_ACK
      000000F4H   SFRSYM    DATA     BYTE      ADR_INC
      000000B0H.1 SFRSYM    DATA     BIT       P3_1
      00000098H.4 SFRSYM    DATA     BIT       REN0
      000000B8H.1 SFRSYM    DATA     BIT       ECAN
      000000D0H.7 SFRSYM    DATA     BIT       CY
      000000B8H.3 SFRSYM    DATA     BIT       ES2R
      000000B8H.5 SFRSYM    DATA     BIT       ES3R
      000000B8H.2 SFRSYM    DATA     BIT       ES2T
      000000B8H.4 SFRSYM    DATA     BIT       ES3T
      000000C8H.7 SFRSYM    DATA     BIT       TSF2
      000000B0H.3 SFRSYM    DATA     BIT       RTC_SDA
      00000081H   SFRSYM    DATA     BYTE      SP
      000000D0H.2 SFRSYM    DATA     BIT       OV
      00000095H   SFRSYM    DATA     BYTE      D_PAGESEL
      00000090H.5 SFRSYM    DATA     BIT       UV
      000000F8H.7 SFRSYM    DATA     BIT       APP_REQ
      000000B0H.2 SFRSYM    DATA     BIT       RTC_SCL
LX51 LINKER/LOCATER V4.66.93.0                                                        04/22/2025  16:54:45  PAGE 15


      000000BFH   SFRSYM    DATA     BYTE      IRCON2
      000000BAH   SFRSYM    DATA     BYTE      SREL0H
      000000BBH   SFRSYM    DATA     BYTE      SREL1H
      00000087H   SFRSYM    DATA     BYTE      PCON
      000000AAH   SFRSYM    DATA     BYTE      SREL0L
      000000F9H   SFRSYM    DATA     BYTE      PORTDRV
      0000009DH   SFRSYM    DATA     BYTE      SREL1L
      00000089H   SFRSYM    DATA     BYTE      TMOD
      00000088H   SFRSYM    DATA     BYTE      TCON
      00000097H   SFRSYM    DATA     BYTE      SCON2R
      000000FFH   SFRSYM    DATA     BYTE      EXDATA
      000000ABH   SFRSYM    DATA     BYTE      SCON3R
      000000D9H   SFRSYM    DATA     BYTE      BODE2_DIV_H
      000000AEH   SFRSYM    DATA     BYTE      BODE3_DIV_H
      00000096H   SFRSYM    DATA     BYTE      SCON2T
      000000A7H   SFRSYM    DATA     BYTE      SCON3T
      000000E7H   SFRSYM    DATA     BYTE      BODE2_DIV_L
      00000088H.1 SFRSYM    DATA     BIT       IE0
      000000AFH   SFRSYM    DATA     BYTE      BODE3_DIV_L
      00000088H.3 SFRSYM    DATA     BIT       IE1
      000000C9H   SFRSYM    DATA     BYTE      MUX_SEL
      000000F0H   SFRSYM    DATA     BYTE      B
      000000E0H   SFRSYM    DATA     BYTE      ACC
      000000A8H.4 SFRSYM    DATA     BIT       ES0
      0000008FH   SFRSYM    DATA     BYTE      CAN_CR
      000000A8H.1 SFRSYM    DATA     BIT       ET0
      000000A9H   SFRSYM    DATA     BYTE      IP0
      000000A8H.3 SFRSYM    DATA     BIT       ET1
      00000088H.5 SFRSYM    DATA     BIT       TF0
      000000B9H   SFRSYM    DATA     BYTE      IP1
      000000A8H.5 SFRSYM    DATA     BIT       ET2
      00000098H.0 SFRSYM    DATA     BIT       RI0
      00000088H.7 SFRSYM    DATA     BIT       TF1
      000000FDH   SFRSYM    DATA     BYTE      DATA0
      000000C0H.6 SFRSYM    DATA     BIT       TF2
      000000E8H   SFRSYM    DATA     BYTE      CAN_ET
      000000FCH   SFRSYM    DATA     BYTE      DATA1
      0000008CH   SFRSYM    DATA     BYTE      TH0
      000000A8H.0 SFRSYM    DATA     BIT       EX0
      00000098H.1 SFRSYM    DATA     BIT       TI0
      00000088H.0 SFRSYM    DATA     BIT       IT0
      000000FBH   SFRSYM    DATA     BYTE      DATA2
      0000008DH   SFRSYM    DATA     BYTE      TH1
      000000A8H.2 SFRSYM    DATA     BIT       EX1
      00000091H   SFRSYM    DATA     BYTE      CAN_IR
      000000CDH   SFRSYM    DATA     BYTE      TH2
      00000088H.2 SFRSYM    DATA     BIT       IT1
      000000FAH   SFRSYM    DATA     BYTE      DATA3
      000000D0H.0 SFRSYM    DATA     BIT       P
      00000098H.7 SFRSYM    DATA     BIT       SM0
      0000008AH   SFRSYM    DATA     BYTE      TL0
      00000098H.6 SFRSYM    DATA     BIT       SM1
      0000008BH   SFRSYM    DATA     BYTE      TL1
      00000098H.5 SFRSYM    DATA     BIT       SM2
      000000CCH   SFRSYM    DATA     BYTE      TL2
      000000A0H.7 SFRSYM    DATA     BIT       UV_St
      000000D0H.3 SFRSYM    DATA     BIT       RS0
      000000F8H.6 SFRSYM    DATA     BIT       APP_EN
      000000D0H.4 SFRSYM    DATA     BIT       RS1
      00000088H.4 SFRSYM    DATA     BIT       TR0
      00000088H.6 SFRSYM    DATA     BIT       TR1
      00000093H   SFRSYM    DATA     BYTE      DPC
      000000C8H.0 SFRSYM    DATA     BIT       TR2
      000000E5H   SFRSYM    DATA     BYTE      MAC_MODE
      00000083H   SFRSYM    DATA     BYTE      DPH
LX51 LINKER/LOCATER V4.66.93.0                                                        04/22/2025  16:54:45  PAGE 16


      00000082H   SFRSYM    DATA     BYTE      DPL
      00000099H   SFRSYM    DATA     BYTE      SBUF0
      0000009CH   SFRSYM    DATA     BYTE      SBUF1
      00000098H   SFRSYM    DATA     BYTE      SCON0
      0000009BH   SFRSYM    DATA     BYTE      SCON1
      000000D8H   SFRSYM    DATA     BYTE      ADCON
      000000C8H   SFRSYM    DATA     BYTE      T2CON
      000000E6H   SFRSYM    DATA     BYTE      DIV_MODE
      000000F8H.5 SFRSYM    DATA     BIT       APP_RW
      000000CBH   SFRSYM    DATA     BYTE      TRL2H
      0000009FH   SFRSYM    DATA     BYTE      SBUF2_RX
      000000ADH   SFRSYM    DATA     BYTE      SBUF3_RX
      0000008EH   SFRSYM    DATA     BYTE      CKCON
      0000009EH   SFRSYM    DATA     BYTE      SBUF2_TX
      000000ACH   SFRSYM    DATA     BYTE      SBUF3_TX
      000000CAH   SFRSYM    DATA     BYTE      TRL2L
      000000D0H.5 SFRSYM    DATA     BIT       F0
      000000FEH   SFRSYM    DATA     BYTE      EXADR
      000000D0H.1 SFRSYM    DATA     BIT       F1
      000000A0H.3 SFRSYM    DATA     BIT       LED_B
      000000D0H   SFRSYM    DATA     BYTE      PSW
      000000A0H.1 SFRSYM    DATA     BIT       LED_G
      000000C0H   SFRSYM    DATA     BYTE      IRCON
      00000098H.2 SFRSYM    DATA     BIT       RB80

      01001E60H   BLOCK     CODE     ---       LVL=0
      01001E60H   LINE      CODE     ---       #60
      01001E60H   LINE      CODE     ---       #61
      01001E60H   LINE      CODE     ---       #62
      01001E63H   LINE      CODE     ---       #63
      01001E65H   LINE      CODE     ---       #64
      01001E67H   LINE      CODE     ---       #65
      01001E69H   LINE      CODE     ---       #66
      01001E6BH   LINE      CODE     ---       #67
      ---         BLOCKEND  ---      ---       LVL=0

      01001DBAH   BLOCK     CODE     ---       LVL=0
      01001DBAH   LINE      CODE     ---       #70
      01001DBAH   LINE      CODE     ---       #71
      01001DBAH   LINE      CODE     ---       #72
      01001DBDH   LINE      CODE     ---       #73
      01001DC0H   LINE      CODE     ---       #74
      01001DC3H   LINE      CODE     ---       #77
      01001DC6H   LINE      CODE     ---       #78
      01001DC9H   LINE      CODE     ---       #79
      01001DCCH   LINE      CODE     ---       #80
      01001DCEH   LINE      CODE     ---       #81
      01001DD0H   LINE      CODE     ---       #82
      01001DD2H   LINE      CODE     ---       #83
      ---         BLOCKEND  ---      ---       LVL=0

      01000006H   BLOCK     CODE     ---       LVL=0
      01000006H   LINE      CODE     ---       #84
      01000006H   LINE      CODE     ---       #86
      01000008H   LINE      CODE     ---       #88
      0100000AH   LINE      CODE     ---       #89
      ---         BLOCKEND  ---      ---       LVL=0

      0100000EH   BLOCK     CODE     ---       LVL=0
      0100000EH   LINE      CODE     ---       #90
      0100000EH   LINE      CODE     ---       #92
      01000010H   LINE      CODE     ---       #94
      01000012H   LINE      CODE     ---       #95
      ---         BLOCKEND  ---      ---       LVL=0

LX51 LINKER/LOCATER V4.66.93.0                                                        04/22/2025  16:54:45  PAGE 17


      01001E25H   BLOCK     CODE     ---       LVL=0
      01001E25H   LINE      CODE     ---       #98
      01001E25H   LINE      CODE     ---       #99
      01001E25H   LINE      CODE     ---       #100
      01001E27H   LINE      CODE     ---       #102
      01001E2AH   LINE      CODE     ---       #103
      01001E2DH   LINE      CODE     ---       #104
      01001E30H   LINE      CODE     ---       #105
      01001E33H   LINE      CODE     ---       #107
      01001E35H   LINE      CODE     ---       #108
      ---         BLOCKEND  ---      ---       LVL=0

      ---         MODULE    ---      ---       DGUS
      0200A464H   PUBLIC    XDATA    BYTE      ?_WriteDGUS?BYTE
      01000D0DH   PUBLIC    CODE     ---       _WriteDGUS
      0200A464H   PUBLIC    XDATA    BYTE      ?_ReadDGUS?BYTE
      01000F5AH   PUBLIC    CODE     ---       _ReadDGUS
      00000098H.3 SFRSYM    DATA     BIT       TB80
      000000F1H   SFRSYM    DATA     BYTE      ADR_H
      00000080H   SFRSYM    DATA     BYTE      P0
      00000090H   SFRSYM    DATA     BYTE      P1
      000000A0H   SFRSYM    DATA     BYTE      P2
      000000B0H   SFRSYM    DATA     BYTE      P3
      000000D0H.6 SFRSYM    DATA     BIT       AC
      000000F3H   SFRSYM    DATA     BYTE      ADR_L
      00000094H   SFRSYM    DATA     BYTE      PAGESEL
      000000F2H   SFRSYM    DATA     BYTE      ADR_M
      000000A8H.7 SFRSYM    DATA     BIT       EA
      000000A0H.5 SFRSYM    DATA     BIT       JIGUANG
      00000090H.7 SFRSYM    DATA     BIT       LED_R
      000000F8H   SFRSYM    DATA     BYTE      RAMMODE
      000000B7H   SFRSYM    DATA     BYTE      P0MDOUT
      000000A8H   SFRSYM    DATA     BYTE      IEN0
      000000BCH   SFRSYM    DATA     BYTE      P1MDOUT
      000000B8H   SFRSYM    DATA     BYTE      IEN1
      000000BDH   SFRSYM    DATA     BYTE      P2MDOUT
      000000F8H.0 SFRSYM    DATA     BIT       APP_DATA0
      0000009AH   SFRSYM    DATA     BYTE      IEN2
      000000BEH   SFRSYM    DATA     BYTE      P3MDOUT
      000000F8H.1 SFRSYM    DATA     BIT       APP_DATA1
      000000D1H   SFRSYM    DATA     BYTE      IEN3
      00000080H.0 SFRSYM    DATA     BIT       P0_0
      000000F8H.2 SFRSYM    DATA     BIT       APP_DATA2
      00000090H.0 SFRSYM    DATA     BIT       P1_0
      000000F8H.3 SFRSYM    DATA     BIT       APP_DATA3
      00000090H.1 SFRSYM    DATA     BIT       P1_1
      000000F8H.4 SFRSYM    DATA     BIT       APP_ACK
      000000F4H   SFRSYM    DATA     BYTE      ADR_INC
      000000B0H.1 SFRSYM    DATA     BIT       P3_1
      00000098H.4 SFRSYM    DATA     BIT       REN0
      000000B8H.1 SFRSYM    DATA     BIT       ECAN
      000000D0H.7 SFRSYM    DATA     BIT       CY
      000000B8H.3 SFRSYM    DATA     BIT       ES2R
      000000B8H.5 SFRSYM    DATA     BIT       ES3R
      000000B8H.2 SFRSYM    DATA     BIT       ES2T
      000000B8H.4 SFRSYM    DATA     BIT       ES3T
      000000C8H.7 SFRSYM    DATA     BIT       TSF2
      000000B0H.3 SFRSYM    DATA     BIT       RTC_SDA
      00000081H   SFRSYM    DATA     BYTE      SP
      000000D0H.2 SFRSYM    DATA     BIT       OV
      00000095H   SFRSYM    DATA     BYTE      D_PAGESEL
      00000090H.5 SFRSYM    DATA     BIT       UV
      000000F8H.7 SFRSYM    DATA     BIT       APP_REQ
      000000B0H.2 SFRSYM    DATA     BIT       RTC_SCL
      000000BFH   SFRSYM    DATA     BYTE      IRCON2
LX51 LINKER/LOCATER V4.66.93.0                                                        04/22/2025  16:54:45  PAGE 18


      000000BAH   SFRSYM    DATA     BYTE      SREL0H
      000000BBH   SFRSYM    DATA     BYTE      SREL1H
      00000087H   SFRSYM    DATA     BYTE      PCON
      000000AAH   SFRSYM    DATA     BYTE      SREL0L
      000000F9H   SFRSYM    DATA     BYTE      PORTDRV
      0000009DH   SFRSYM    DATA     BYTE      SREL1L
      00000089H   SFRSYM    DATA     BYTE      TMOD
      00000088H   SFRSYM    DATA     BYTE      TCON
      00000097H   SFRSYM    DATA     BYTE      SCON2R
      000000FFH   SFRSYM    DATA     BYTE      EXDATA
      000000ABH   SFRSYM    DATA     BYTE      SCON3R
      000000D9H   SFRSYM    DATA     BYTE      BODE2_DIV_H
      000000AEH   SFRSYM    DATA     BYTE      BODE3_DIV_H
      00000096H   SFRSYM    DATA     BYTE      SCON2T
      000000A7H   SFRSYM    DATA     BYTE      SCON3T
      000000E7H   SFRSYM    DATA     BYTE      BODE2_DIV_L
      00000088H.1 SFRSYM    DATA     BIT       IE0
      000000AFH   SFRSYM    DATA     BYTE      BODE3_DIV_L
      00000088H.3 SFRSYM    DATA     BIT       IE1
      000000C9H   SFRSYM    DATA     BYTE      MUX_SEL
      000000F0H   SFRSYM    DATA     BYTE      B
      000000E0H   SFRSYM    DATA     BYTE      ACC
      000000A8H.4 SFRSYM    DATA     BIT       ES0
      0000008FH   SFRSYM    DATA     BYTE      CAN_CR
      000000A8H.1 SFRSYM    DATA     BIT       ET0
      000000A9H   SFRSYM    DATA     BYTE      IP0
      000000A8H.3 SFRSYM    DATA     BIT       ET1
      00000088H.5 SFRSYM    DATA     BIT       TF0
      000000B9H   SFRSYM    DATA     BYTE      IP1
      000000A8H.5 SFRSYM    DATA     BIT       ET2
      00000098H.0 SFRSYM    DATA     BIT       RI0
      00000088H.7 SFRSYM    DATA     BIT       TF1
      000000FDH   SFRSYM    DATA     BYTE      DATA0
      000000C0H.6 SFRSYM    DATA     BIT       TF2
      000000E8H   SFRSYM    DATA     BYTE      CAN_ET
      000000FCH   SFRSYM    DATA     BYTE      DATA1
      0000008CH   SFRSYM    DATA     BYTE      TH0
      000000A8H.0 SFRSYM    DATA     BIT       EX0
      00000098H.1 SFRSYM    DATA     BIT       TI0
      00000088H.0 SFRSYM    DATA     BIT       IT0
      000000FBH   SFRSYM    DATA     BYTE      DATA2
      0000008DH   SFRSYM    DATA     BYTE      TH1
      000000A8H.2 SFRSYM    DATA     BIT       EX1
      00000091H   SFRSYM    DATA     BYTE      CAN_IR
      000000CDH   SFRSYM    DATA     BYTE      TH2
      00000088H.2 SFRSYM    DATA     BIT       IT1
      000000FAH   SFRSYM    DATA     BYTE      DATA3
      000000D0H.0 SFRSYM    DATA     BIT       P
      00000098H.7 SFRSYM    DATA     BIT       SM0
      0000008AH   SFRSYM    DATA     BYTE      TL0
      00000098H.6 SFRSYM    DATA     BIT       SM1
      0000008BH   SFRSYM    DATA     BYTE      TL1
      00000098H.5 SFRSYM    DATA     BIT       SM2
      000000CCH   SFRSYM    DATA     BYTE      TL2
      000000A0H.7 SFRSYM    DATA     BIT       UV_St
      000000D0H.3 SFRSYM    DATA     BIT       RS0
      000000F8H.6 SFRSYM    DATA     BIT       APP_EN
      000000D0H.4 SFRSYM    DATA     BIT       RS1
      00000088H.4 SFRSYM    DATA     BIT       TR0
      00000088H.6 SFRSYM    DATA     BIT       TR1
      00000093H   SFRSYM    DATA     BYTE      DPC
      000000C8H.0 SFRSYM    DATA     BIT       TR2
      000000E5H   SFRSYM    DATA     BYTE      MAC_MODE
      00000083H   SFRSYM    DATA     BYTE      DPH
      00000082H   SFRSYM    DATA     BYTE      DPL
LX51 LINKER/LOCATER V4.66.93.0                                                        04/22/2025  16:54:45  PAGE 19


      00000099H   SFRSYM    DATA     BYTE      SBUF0
      0000009CH   SFRSYM    DATA     BYTE      SBUF1
      00000098H   SFRSYM    DATA     BYTE      SCON0
      0000009BH   SFRSYM    DATA     BYTE      SCON1
      000000D8H   SFRSYM    DATA     BYTE      ADCON
      000000C8H   SFRSYM    DATA     BYTE      T2CON
      000000E6H   SFRSYM    DATA     BYTE      DIV_MODE
      000000F8H.5 SFRSYM    DATA     BIT       APP_RW
      000000CBH   SFRSYM    DATA     BYTE      TRL2H
      0000009FH   SFRSYM    DATA     BYTE      SBUF2_RX
      000000ADH   SFRSYM    DATA     BYTE      SBUF3_RX
      0000008EH   SFRSYM    DATA     BYTE      CKCON
      0000009EH   SFRSYM    DATA     BYTE      SBUF2_TX
      000000ACH   SFRSYM    DATA     BYTE      SBUF3_TX
      000000CAH   SFRSYM    DATA     BYTE      TRL2L
      000000D0H.5 SFRSYM    DATA     BIT       F0
      000000FEH   SFRSYM    DATA     BYTE      EXADR
      000000D0H.1 SFRSYM    DATA     BIT       F1
      000000A0H.3 SFRSYM    DATA     BIT       LED_B
      000000D0H   SFRSYM    DATA     BYTE      PSW
      000000A0H.1 SFRSYM    DATA     BIT       LED_G
      000000C0H   SFRSYM    DATA     BYTE      IRCON
      00000098H.2 SFRSYM    DATA     BIT       RB80

      01000F5AH   BLOCK     CODE     ---       LVL=0
      00000004H   SYMBOL    DATA     WORD      Addr
      0200A466H   SYMBOL    XDATA    ---       pBuf
      0200A469H   SYMBOL    XDATA    WORD      Len
      01000F69H   BLOCK     CODE     NEAR LAB  LVL=1
      00000003H   SYMBOL    DATA     BYTE      Aoffset
      ---         BLOCKEND  ---      ---       LVL=1
      01000F5AH   LINE      CODE     ---       #31
      01000F69H   LINE      CODE     ---       #32
      01000F69H   LINE      CODE     ---       #34
      01000F7AH   LINE      CODE     ---       #35
      01000F86H   LINE      CODE     ---       #36
      01000F9DH   LINE      CODE     ---       #37
      01000F9FH   LINE      CODE     ---       #38
      01000FA3H   LINE      CODE     ---       #39
      01000FAAH   LINE      CODE     ---       #40
      01000FB7H   LINE      CODE     ---       #41
      01000FBAH   LINE      CODE     ---       #42
      01000FBEH   LINE      CODE     ---       #43
      01000FC1H   LINE      CODE     ---       #44
      01000FC4H   LINE      CODE     ---       #45
      01000FC6H   LINE      CODE     ---       #46
      01000FC9H   LINE      CODE     ---       #47
      01000FCBH   LINE      CODE     ---       #49
      01000FD0H   LINE      CODE     ---       #50
      01000FD0H   LINE      CODE     ---       #51
      01000FE6H   LINE      CODE     ---       #52
      01000FEEH   LINE      CODE     ---       #53
      01000FF0H   LINE      CODE     ---       #54
      01000FF3H   LINE      CODE     ---       #55
      0100101DH   LINE      CODE     ---       #56
      0100104AH   LINE      CODE     ---       #57
      0100104DH   LINE      CODE     ---       #58
      0100104DH   LINE      CODE     ---       #59
      0100104DH   LINE      CODE     ---       #60
      0100105BH   LINE      CODE     ---       #61
      01001067H   LINE      CODE     ---       #62
      01001067H   LINE      CODE     ---       #63
      01001074H   LINE      CODE     ---       #64
      01001074H   LINE      CODE     ---       #65
      0100107EH   LINE      CODE     ---       #66
LX51 LINKER/LOCATER V4.66.93.0                                                        04/22/2025  16:54:45  PAGE 20


      01001084H   LINE      CODE     ---       #67
      0100108CH   LINE      CODE     ---       #68
      0100108CH   LINE      CODE     ---       #69
      0100108EH   LINE      CODE     ---       #70
      01001091H   LINE      CODE     ---       #71
      010010ACH   LINE      CODE     ---       #72
      010010ACH   LINE      CODE     ---       #73
      010010EAH   LINE      CODE     ---       #74
      01001113H   LINE      CODE     ---       #75
      0100112AH   LINE      CODE     ---       #76
      0100112AH   LINE      CODE     ---       #77
      0100112AH   LINE      CODE     ---       #78
      0100112AH   LINE      CODE     ---       #80
      0100112AH   LINE      CODE     ---       #81
      01001132H   LINE      CODE     ---       #82
      01001134H   LINE      CODE     ---       #83
      01001137H   LINE      CODE     ---       #84
      0100118BH   LINE      CODE     ---       #85
      01001199H   LINE      CODE     ---       #86
      01001199H   LINE      CODE     ---       #87
      0100119CH   LINE      CODE     ---       #89
      0100119FH   LINE      CODE     ---       #90
      010011A1H   LINE      CODE     ---       #91
      ---         BLOCKEND  ---      ---       LVL=0

      01000D0DH   BLOCK     CODE     ---       LVL=0
      00000004H   SYMBOL    DATA     WORD      Addr
      0200A466H   SYMBOL    XDATA    ---       pBuf
      0200A469H   SYMBOL    XDATA    WORD      Len
      01000D1CH   BLOCK     CODE     NEAR LAB  LVL=1
      00000003H   SYMBOL    DATA     BYTE      Aoffset
      ---         BLOCKEND  ---      ---       LVL=1
      01000D0DH   LINE      CODE     ---       #107
      01000D1CH   LINE      CODE     ---       #108
      01000D1CH   LINE      CODE     ---       #110
      01000D2DH   LINE      CODE     ---       #111
      01000D39H   LINE      CODE     ---       #112
      01000D50H   LINE      CODE     ---       #113
      01000D52H   LINE      CODE     ---       #114
      01000D56H   LINE      CODE     ---       #115
      01000D5DH   LINE      CODE     ---       #116
      01000D6AH   LINE      CODE     ---       #117
      01000D6DH   LINE      CODE     ---       #118
      01000D71H   LINE      CODE     ---       #119
      01000D74H   LINE      CODE     ---       #120
      01000D77H   LINE      CODE     ---       #121
      01000D79H   LINE      CODE     ---       #122
      01000D7CH   LINE      CODE     ---       #123
      01000D7EH   LINE      CODE     ---       #125
      01000D83H   LINE      CODE     ---       #126
      01000D83H   LINE      CODE     ---       #127
      01000D9AH   LINE      CODE     ---       #128
      01000DA2H   LINE      CODE     ---       #129
      01000DC5H   LINE      CODE     ---       #130
      01000DFAH   LINE      CODE     ---       #131
      01000DFCH   LINE      CODE     ---       #132
      01000DFFH   LINE      CODE     ---       #133
      01000DFFH   LINE      CODE     ---       #134
      01000DFFH   LINE      CODE     ---       #135
      01000DFFH   LINE      CODE     ---       #136
      01000E0DH   LINE      CODE     ---       #137
      01000E19H   LINE      CODE     ---       #138
      01000E19H   LINE      CODE     ---       #139
      01000E26H   LINE      CODE     ---       #140
      01000E26H   LINE      CODE     ---       #141
LX51 LINKER/LOCATER V4.66.93.0                                                        04/22/2025  16:54:45  PAGE 21


      01000E30H   LINE      CODE     ---       #142
      01000E36H   LINE      CODE     ---       #143
      01000E3EH   LINE      CODE     ---       #144
      01000E3EH   LINE      CODE     ---       #145
      01000E59H   LINE      CODE     ---       #146
      01000E59H   LINE      CODE     ---       #147
      01000E9AH   LINE      CODE     ---       #148
      01000EC6H   LINE      CODE     ---       #149
      01000EDBH   LINE      CODE     ---       #150
      01000EDBH   LINE      CODE     ---       #151
      01000EDDH   LINE      CODE     ---       #152
      01000EE2H   LINE      CODE     ---       #153
      01000EE2H   LINE      CODE     ---       #154
      01000EE2H   LINE      CODE     ---       #156
      01000EE2H   LINE      CODE     ---       #157
      01000EEAH   LINE      CODE     ---       #158
      01000F3EH   LINE      CODE     ---       #159
      01000F40H   LINE      CODE     ---       #160
      01000F43H   LINE      CODE     ---       #161
      01000F51H   LINE      CODE     ---       #162
      01000F51H   LINE      CODE     ---       #163
      01000F54H   LINE      CODE     ---       #165
      01000F57H   LINE      CODE     ---       #166
      01000F59H   LINE      CODE     ---       #167
      ---         BLOCKEND  ---      ---       LVL=0

      ---         MODULE    ---      ---       UART
      0200A0AAH   PUBLIC    XDATA    ---       Uart4_Rx
      0200A02AH   PUBLIC    XDATA    ---       Uart3_Rx
      0200808AH   PUBLIC    XDATA    ---       Uart2_Rx
      02008088H   PUBLIC    XDATA    WORD      uart5_rx_count
      02008086H   PUBLIC    XDATA    WORD      uart4_rx_count
      02008084H   PUBLIC    XDATA    WORD      uart3_rx_count
      02008082H   PUBLIC    XDATA    WORD      uart2_rx_count
      02008081H   PUBLIC    XDATA    BYTE      uart3_busy
      02008080H   PUBLIC    XDATA    BYTE      uart2_busy
      02008000H   PUBLIC    XDATA    ---       Uart5_Rx
      01001E9AH   PUBLIC    CODE     ---       InitUart
      01000086H   PUBLIC    CODE     ---       UART5_RX_ISR_PC
      0100002AH   PUBLIC    CODE     ---       UART5_TX_ISR_PC
      01001C23H   PUBLIC    CODE     ---       _Uart5SendStr
      01001E6CH   PUBLIC    CODE     ---       _Uart5SendByte
      0100006EH   PUBLIC    CODE     ---       Uart5Init
      01001E12H   PUBLIC    CODE     ---       Uart4Init
      01001A9BH   PUBLIC    CODE     ---       UART3_ISR_PC
      01001BE2H   PUBLIC    CODE     ---       _Uart3SendStr
      01001E44H   PUBLIC    CODE     ---       _Uart3SendByte
      01001D82H   PUBLIC    CODE     ---       Uart3Init
      010019D3H   PUBLIC    CODE     ---       UART2_ISR_PC
      01001BA1H   PUBLIC    CODE     ---       _Uart2SendStr
      01001E36H   PUBLIC    CODE     ---       _Uart2SendByte
      01001C90H   PUBLIC    CODE     ---       Uart2Init
      00000098H.3 SFRSYM    DATA     BIT       TB80
      000000F1H   SFRSYM    DATA     BYTE      ADR_H
      00000080H   SFRSYM    DATA     BYTE      P0
      00000090H   SFRSYM    DATA     BYTE      P1
      000000A0H   SFRSYM    DATA     BYTE      P2
      000000B0H   SFRSYM    DATA     BYTE      P3
      000000D0H.6 SFRSYM    DATA     BIT       AC
      000000F3H   SFRSYM    DATA     BYTE      ADR_L
      00000094H   SFRSYM    DATA     BYTE      PAGESEL
      000000F2H   SFRSYM    DATA     BYTE      ADR_M
      000000A8H.7 SFRSYM    DATA     BIT       EA
      000000A0H.5 SFRSYM    DATA     BIT       JIGUANG
      00000090H.7 SFRSYM    DATA     BIT       LED_R
LX51 LINKER/LOCATER V4.66.93.0                                                        04/22/2025  16:54:45  PAGE 22


      000000F8H   SFRSYM    DATA     BYTE      RAMMODE
      000000B7H   SFRSYM    DATA     BYTE      P0MDOUT
      000000A8H   SFRSYM    DATA     BYTE      IEN0
      000000BCH   SFRSYM    DATA     BYTE      P1MDOUT
      000000B8H   SFRSYM    DATA     BYTE      IEN1
      000000BDH   SFRSYM    DATA     BYTE      P2MDOUT
      000000F8H.0 SFRSYM    DATA     BIT       APP_DATA0
      0000009AH   SFRSYM    DATA     BYTE      IEN2
      000000BEH   SFRSYM    DATA     BYTE      P3MDOUT
      000000F8H.1 SFRSYM    DATA     BIT       APP_DATA1
      000000D1H   SFRSYM    DATA     BYTE      IEN3
      00000080H.0 SFRSYM    DATA     BIT       P0_0
      000000F8H.2 SFRSYM    DATA     BIT       APP_DATA2
      00000090H.0 SFRSYM    DATA     BIT       P1_0
      000000F8H.3 SFRSYM    DATA     BIT       APP_DATA3
      00000090H.1 SFRSYM    DATA     BIT       P1_1
      000000F8H.4 SFRSYM    DATA     BIT       APP_ACK
      000000F4H   SFRSYM    DATA     BYTE      ADR_INC
      000000B0H.1 SFRSYM    DATA     BIT       P3_1
      00000098H.4 SFRSYM    DATA     BIT       REN0
      000000B8H.1 SFRSYM    DATA     BIT       ECAN
      000000D0H.7 SFRSYM    DATA     BIT       CY
      000000B8H.3 SFRSYM    DATA     BIT       ES2R
      000000B8H.5 SFRSYM    DATA     BIT       ES3R
      000000B8H.2 SFRSYM    DATA     BIT       ES2T
      000000B8H.4 SFRSYM    DATA     BIT       ES3T
      000000C8H.7 SFRSYM    DATA     BIT       TSF2
      000000B0H.3 SFRSYM    DATA     BIT       RTC_SDA
      00000081H   SFRSYM    DATA     BYTE      SP
      000000D0H.2 SFRSYM    DATA     BIT       OV
      00000095H   SFRSYM    DATA     BYTE      D_PAGESEL
      00000090H.5 SFRSYM    DATA     BIT       UV
      000000F8H.7 SFRSYM    DATA     BIT       APP_REQ
      000000B0H.2 SFRSYM    DATA     BIT       RTC_SCL
      000000BFH   SFRSYM    DATA     BYTE      IRCON2
      000000BAH   SFRSYM    DATA     BYTE      SREL0H
      000000BBH   SFRSYM    DATA     BYTE      SREL1H
      00000087H   SFRSYM    DATA     BYTE      PCON
      000000AAH   SFRSYM    DATA     BYTE      SREL0L
      000000F9H   SFRSYM    DATA     BYTE      PORTDRV
      0000009DH   SFRSYM    DATA     BYTE      SREL1L
      00000089H   SFRSYM    DATA     BYTE      TMOD
      00000088H   SFRSYM    DATA     BYTE      TCON
      00000097H   SFRSYM    DATA     BYTE      SCON2R
      000000FFH   SFRSYM    DATA     BYTE      EXDATA
      000000ABH   SFRSYM    DATA     BYTE      SCON3R
      000000D9H   SFRSYM    DATA     BYTE      BODE2_DIV_H
      000000AEH   SFRSYM    DATA     BYTE      BODE3_DIV_H
      00000096H   SFRSYM    DATA     BYTE      SCON2T
      000000A7H   SFRSYM    DATA     BYTE      SCON3T
      000000E7H   SFRSYM    DATA     BYTE      BODE2_DIV_L
      00000088H.1 SFRSYM    DATA     BIT       IE0
      000000AFH   SFRSYM    DATA     BYTE      BODE3_DIV_L
      00000088H.3 SFRSYM    DATA     BIT       IE1
      000000C9H   SFRSYM    DATA     BYTE      MUX_SEL
      000000F0H   SFRSYM    DATA     BYTE      B
      000000E0H   SFRSYM    DATA     BYTE      ACC
      000000A8H.4 SFRSYM    DATA     BIT       ES0
      0000008FH   SFRSYM    DATA     BYTE      CAN_CR
      000000A8H.1 SFRSYM    DATA     BIT       ET0
      000000A9H   SFRSYM    DATA     BYTE      IP0
      000000A8H.3 SFRSYM    DATA     BIT       ET1
      00000088H.5 SFRSYM    DATA     BIT       TF0
      000000B9H   SFRSYM    DATA     BYTE      IP1
      000000A8H.5 SFRSYM    DATA     BIT       ET2
LX51 LINKER/LOCATER V4.66.93.0                                                        04/22/2025  16:54:45  PAGE 23


      00000098H.0 SFRSYM    DATA     BIT       RI0
      00000088H.7 SFRSYM    DATA     BIT       TF1
      000000FDH   SFRSYM    DATA     BYTE      DATA0
      000000C0H.6 SFRSYM    DATA     BIT       TF2
      000000E8H   SFRSYM    DATA     BYTE      CAN_ET
      000000FCH   SFRSYM    DATA     BYTE      DATA1
      0000008CH   SFRSYM    DATA     BYTE      TH0
      000000A8H.0 SFRSYM    DATA     BIT       EX0
      00000098H.1 SFRSYM    DATA     BIT       TI0
      00000088H.0 SFRSYM    DATA     BIT       IT0
      000000FBH   SFRSYM    DATA     BYTE      DATA2
      0000008DH   SFRSYM    DATA     BYTE      TH1
      000000A8H.2 SFRSYM    DATA     BIT       EX1
      00000091H   SFRSYM    DATA     BYTE      CAN_IR
      000000CDH   SFRSYM    DATA     BYTE      TH2
      00000088H.2 SFRSYM    DATA     BIT       IT1
      000000FAH   SFRSYM    DATA     BYTE      DATA3
      000000D0H.0 SFRSYM    DATA     BIT       P
      00000098H.7 SFRSYM    DATA     BIT       SM0
      0000008AH   SFRSYM    DATA     BYTE      TL0
      00000098H.6 SFRSYM    DATA     BIT       SM1
      0000008BH   SFRSYM    DATA     BYTE      TL1
      00000098H.5 SFRSYM    DATA     BIT       SM2
      000000CCH   SFRSYM    DATA     BYTE      TL2
      000000A0H.7 SFRSYM    DATA     BIT       UV_St
      000000D0H.3 SFRSYM    DATA     BIT       RS0
      000000F8H.6 SFRSYM    DATA     BIT       APP_EN
      000000D0H.4 SFRSYM    DATA     BIT       RS1
      00000088H.4 SFRSYM    DATA     BIT       TR0
      00000088H.6 SFRSYM    DATA     BIT       TR1
      00000093H   SFRSYM    DATA     BYTE      DPC
      000000C8H.0 SFRSYM    DATA     BIT       TR2
      000000E5H   SFRSYM    DATA     BYTE      MAC_MODE
      00000083H   SFRSYM    DATA     BYTE      DPH
      00000082H   SFRSYM    DATA     BYTE      DPL
      00000099H   SFRSYM    DATA     BYTE      SBUF0
      0000009CH   SFRSYM    DATA     BYTE      SBUF1
      00000098H   SFRSYM    DATA     BYTE      SCON0
      0000009BH   SFRSYM    DATA     BYTE      SCON1
      000000D8H   SFRSYM    DATA     BYTE      ADCON
      000000C8H   SFRSYM    DATA     BYTE      T2CON
      000000E6H   SFRSYM    DATA     BYTE      DIV_MODE
      000000F8H.5 SFRSYM    DATA     BIT       APP_RW
      000000CBH   SFRSYM    DATA     BYTE      TRL2H
      0000009FH   SFRSYM    DATA     BYTE      SBUF2_RX
      000000ADH   SFRSYM    DATA     BYTE      SBUF3_RX
      0000008EH   SFRSYM    DATA     BYTE      CKCON
      0000009EH   SFRSYM    DATA     BYTE      SBUF2_TX
      000000ACH   SFRSYM    DATA     BYTE      SBUF3_TX
      000000CAH   SFRSYM    DATA     BYTE      TRL2L
      000000D0H.5 SFRSYM    DATA     BIT       F0
      000000FEH   SFRSYM    DATA     BYTE      EXADR
      000000D0H.1 SFRSYM    DATA     BIT       F1
      000000A0H.3 SFRSYM    DATA     BIT       LED_B
      000000D0H   SFRSYM    DATA     BYTE      PSW
      000000A0H.1 SFRSYM    DATA     BIT       LED_G
      000000C0H   SFRSYM    DATA     BYTE      IRCON
      00000098H.2 SFRSYM    DATA     BIT       RB80

      01001C90H   BLOCK     CODE     ---       LVL=0
      01001C90H   LINE      CODE     ---       #40
      01001C90H   LINE      CODE     ---       #41
      01001C90H   LINE      CODE     ---       #42
      01001C93H   LINE      CODE     ---       #43
      01001C96H   LINE      CODE     ---       #44
LX51 LINKER/LOCATER V4.66.93.0                                                        04/22/2025  16:54:45  PAGE 24


      01001C9BH   LINE      CODE     ---       #45
      01001CA1H   LINE      CODE     ---       #46
      01001CA4H   LINE      CODE     ---       #47
      01001CA7H   LINE      CODE     ---       #48
      01001CAAH   LINE      CODE     ---       #49
      01001CADH   LINE      CODE     ---       #50
      01001CB0H   LINE      CODE     ---       #51
      01001CB2H   LINE      CODE     ---       #52
      01001CB4H   LINE      CODE     ---       #53
      ---         BLOCKEND  ---      ---       LVL=0

      01001E36H   BLOCK     CODE     ---       LVL=0
      00000007H   SYMBOL    DATA     BYTE      dat
      01001E36H   LINE      CODE     ---       #56
      01001E36H   LINE      CODE     ---       #57
      01001E36H   LINE      CODE     ---       #58
      01001E3EH   LINE      CODE     ---       #59
      01001E41H   LINE      CODE     ---       #60
      01001E43H   LINE      CODE     ---       #61
      ---         BLOCKEND  ---      ---       LVL=0

      01001BA1H   BLOCK     CODE     ---       LVL=0
      0200A43EH   SYMBOL    XDATA    ---       pstr
      00000005H   SYMBOL    DATA     BYTE      strlen
      01001BA1H   LINE      CODE     ---       #64
      01001BACH   LINE      CODE     ---       #65
      01001BACH   LINE      CODE     ---       #66
      01001BBDH   LINE      CODE     ---       #67
      01001BBDH   LINE      CODE     ---       #69
      01001BBDH   LINE      CODE     ---       #70
      01001BC3H   LINE      CODE     ---       #71
      01001BC3H   LINE      CODE     ---       #72
      01001BD5H   LINE      CODE     ---       #73
      01001BDFH   LINE      CODE     ---       #74
      01001BE1H   LINE      CODE     ---       #75
      ---         BLOCKEND  ---      ---       LVL=0

      010019D3H   BLOCK     CODE     ---       LVL=0
      010019E2H   BLOCK     CODE     NEAR LAB  LVL=1
      00000007H   SYMBOL    DATA     BYTE      res
      ---         BLOCKEND  ---      ---       LVL=1
      010019D3H   LINE      CODE     ---       #78
      010019E2H   LINE      CODE     ---       #80
      010019E2H   LINE      CODE     ---       #81
      010019E4H   LINE      CODE     ---       #84
      010019E7H   LINE      CODE     ---       #85
      010019E7H   LINE      CODE     ---       #86
      010019E9H   LINE      CODE     ---       #87
      010019FBH   LINE      CODE     ---       #88
      01001A09H   LINE      CODE     ---       #89
      01001A18H   LINE      CODE     ---       #91
      01001A1CH   LINE      CODE     ---       #92
      01001A1CH   LINE      CODE     ---       #93
      01001A1EH   LINE      CODE     ---       #94
      01001A1EH   LINE      CODE     ---       #95
      01001A21H   LINE      CODE     ---       #96
      01001A21H   LINE      CODE     ---       #97
      01001A23H   LINE      CODE     ---       #98
      01001A28H   LINE      CODE     ---       #99
      01001A28H   LINE      CODE     ---       #101
      01001A2AH   LINE      CODE     ---       #102
      ---         BLOCKEND  ---      ---       LVL=0

      01001D82H   BLOCK     CODE     ---       LVL=0
      01001D82H   LINE      CODE     ---       #108
LX51 LINKER/LOCATER V4.66.93.0                                                        04/22/2025  16:54:45  PAGE 25


      01001D82H   LINE      CODE     ---       #109
      01001D82H   LINE      CODE     ---       #110
      01001D85H   LINE      CODE     ---       #111
      01001D88H   LINE      CODE     ---       #112
      01001D8DH   LINE      CODE     ---       #113
      01001D93H   LINE      CODE     ---       #114
      01001D96H   LINE      CODE     ---       #115
      01001D99H   LINE      CODE     ---       #116
      01001D9CH   LINE      CODE     ---       #117
      01001D9FH   LINE      CODE     ---       #118
      ---         BLOCKEND  ---      ---       LVL=0

      01001E44H   BLOCK     CODE     ---       LVL=0
      00000007H   SYMBOL    DATA     BYTE      dat
      01001E44H   LINE      CODE     ---       #121
      01001E44H   LINE      CODE     ---       #122
      01001E44H   LINE      CODE     ---       #123
      01001E4CH   LINE      CODE     ---       #124
      01001E4FH   LINE      CODE     ---       #125
      01001E51H   LINE      CODE     ---       #126
      ---         BLOCKEND  ---      ---       LVL=0

      01001BE2H   BLOCK     CODE     ---       LVL=0
      0200A494H   SYMBOL    XDATA    ---       pstr
      00000005H   SYMBOL    DATA     BYTE      strlen
      01001BE2H   LINE      CODE     ---       #136
      01001BEDH   LINE      CODE     ---       #137
      01001BEDH   LINE      CODE     ---       #138
      01001BFEH   LINE      CODE     ---       #139
      01001BFEH   LINE      CODE     ---       #141
      01001BFEH   LINE      CODE     ---       #142
      01001C04H   LINE      CODE     ---       #143
      01001C04H   LINE      CODE     ---       #144
      01001C16H   LINE      CODE     ---       #145
      01001C20H   LINE      CODE     ---       #146
      01001C22H   LINE      CODE     ---       #147
      ---         BLOCKEND  ---      ---       LVL=0

      01001A9BH   BLOCK     CODE     ---       LVL=0
      01001AAAH   BLOCK     CODE     NEAR LAB  LVL=1
      00000007H   SYMBOL    DATA     BYTE      res
      ---         BLOCKEND  ---      ---       LVL=1
      01001A9BH   LINE      CODE     ---       #150
      01001AAAH   LINE      CODE     ---       #152
      01001AAAH   LINE      CODE     ---       #153
      01001AACH   LINE      CODE     ---       #154
      01001AB1H   LINE      CODE     ---       #155
      01001AB1H   LINE      CODE     ---       #156
      01001AB3H   LINE      CODE     ---       #157
      01001AC5H   LINE      CODE     ---       #158
      01001AD3H   LINE      CODE     ---       #159
      01001AD6H   LINE      CODE     ---       #160
      01001AD9H   LINE      CODE     ---       #161
      01001AD9H   LINE      CODE     ---       #162
      01001ADEH   LINE      CODE     ---       #163
      01001ADEH   LINE      CODE     ---       #164
      01001AE1H   LINE      CODE     ---       #165
      01001AE4H   LINE      CODE     ---       #166
      01001AE9H   LINE      CODE     ---       #167
      01001AE9H   LINE      CODE     ---       #168
      01001AECH   LINE      CODE     ---       #169
      01001AEEH   LINE      CODE     ---       #170
      ---         BLOCKEND  ---      ---       LVL=0

      01001E12H   BLOCK     CODE     ---       LVL=0
LX51 LINKER/LOCATER V4.66.93.0                                                        04/22/2025  16:54:45  PAGE 26


      01001E12H   LINE      CODE     ---       #174
      01001E12H   LINE      CODE     ---       #175
      01001E12H   LINE      CODE     ---       #176
      01001E19H   LINE      CODE     ---       #177
      01001E1CH   LINE      CODE     ---       #178
      01001E1FH   LINE      CODE     ---       #179
      01001E21H   LINE      CODE     ---       #180
      01001E24H   LINE      CODE     ---       #183
      ---         BLOCKEND  ---      ---       LVL=0

      0100006EH   BLOCK     CODE     ---       LVL=0
      0100006EH   LINE      CODE     ---       #238
      0100006EH   LINE      CODE     ---       #239
      0100006EH   LINE      CODE     ---       #240
      01000075H   LINE      CODE     ---       #241
      01000078H   LINE      CODE     ---       #242
      0100007BH   LINE      CODE     ---       #243
      0100007DH   LINE      CODE     ---       #244
      01000080H   LINE      CODE     ---       #246
      01000082H   LINE      CODE     ---       #247
      ---         BLOCKEND  ---      ---       LVL=0

      01001E6CH   BLOCK     CODE     ---       LVL=0
      00000007H   SYMBOL    DATA     BYTE      dat
      01001E6CH   LINE      CODE     ---       #252
      01001E6CH   LINE      CODE     ---       #253
      01001E6CH   LINE      CODE     ---       #254
      01001E6EH   LINE      CODE     ---       #255
      01001E74H   LINE      CODE     ---       #256
      01001E77H   LINE      CODE     ---       #257
      ---         BLOCKEND  ---      ---       LVL=0

      01001C23H   BLOCK     CODE     ---       LVL=0
      0200A497H   SYMBOL    XDATA    ---       pstr
      00000005H   SYMBOL    DATA     BYTE      strlen
      01001C23H   LINE      CODE     ---       #263
      01001C2EH   LINE      CODE     ---       #264
      01001C2EH   LINE      CODE     ---       #265
      01001C3FH   LINE      CODE     ---       #266
      01001C3FH   LINE      CODE     ---       #268
      01001C3FH   LINE      CODE     ---       #269
      01001C45H   LINE      CODE     ---       #270
      01001C45H   LINE      CODE     ---       #271
      01001C57H   LINE      CODE     ---       #272
      01001C61H   LINE      CODE     ---       #273
      01001C63H   LINE      CODE     ---       #274
      ---         BLOCKEND  ---      ---       LVL=0

      0100002AH   BLOCK     CODE     ---       LVL=0
      0100002AH   LINE      CODE     ---       #279
      0100002AH   LINE      CODE     ---       #281
      ---         BLOCKEND  ---      ---       LVL=0

      01000086H   BLOCK     CODE     ---       LVL=0
      01000086H   LINE      CODE     ---       #286
      010000A3H   LINE      CODE     ---       #289
      010000A5H   LINE      CODE     ---       #290
      010000ADH   LINE      CODE     ---       #291
      010000ADH   LINE      CODE     ---       #292
      010000B0H   LINE      CODE     ---       #295
      010000BEH   LINE      CODE     ---       #296
      010000C1H   LINE      CODE     ---       #297
      010000D0H   LINE      CODE     ---       #299
      010000D4H   LINE      CODE     ---       #300
      010000D4H   LINE      CODE     ---       #301
LX51 LINKER/LOCATER V4.66.93.0                                                        04/22/2025  16:54:45  PAGE 27


      010000D4H   LINE      CODE     ---       #305
      010000D6H   LINE      CODE     ---       #306
      ---         BLOCKEND  ---      ---       LVL=0

      01001E9AH   BLOCK     CODE     ---       LVL=0
      01001E9AH   LINE      CODE     ---       #310
      01001E9AH   LINE      CODE     ---       #311
      01001E9AH   LINE      CODE     ---       #312
      01001E9DH   LINE      CODE     ---       #314
      01001EA0H   LINE      CODE     ---       #315
      ---         BLOCKEND  ---      ---       LVL=0

      ---         MODULE    ---      ---       NORFLASH
      00000098H.3 SFRSYM    DATA     BIT       TB80
      000000F1H   SFRSYM    DATA     BYTE      ADR_H
      00000080H   SFRSYM    DATA     BYTE      P0
      00000090H   SFRSYM    DATA     BYTE      P1
      000000A0H   SFRSYM    DATA     BYTE      P2
      000000B0H   SFRSYM    DATA     BYTE      P3
      000000D0H.6 SFRSYM    DATA     BIT       AC
      000000F3H   SFRSYM    DATA     BYTE      ADR_L
      00000094H   SFRSYM    DATA     BYTE      PAGESEL
      000000F2H   SFRSYM    DATA     BYTE      ADR_M
      000000A8H.7 SFRSYM    DATA     BIT       EA
      000000A0H.5 SFRSYM    DATA     BIT       JIGUANG
      00000090H.7 SFRSYM    DATA     BIT       LED_R
      000000F8H   SFRSYM    DATA     BYTE      RAMMODE
      000000B7H   SFRSYM    DATA     BYTE      P0MDOUT
      000000A8H   SFRSYM    DATA     BYTE      IEN0
      000000BCH   SFRSYM    DATA     BYTE      P1MDOUT
      000000B8H   SFRSYM    DATA     BYTE      IEN1
      000000BDH   SFRSYM    DATA     BYTE      P2MDOUT
      000000F8H.0 SFRSYM    DATA     BIT       APP_DATA0
      0000009AH   SFRSYM    DATA     BYTE      IEN2
      000000BEH   SFRSYM    DATA     BYTE      P3MDOUT
      000000F8H.1 SFRSYM    DATA     BIT       APP_DATA1
      000000D1H   SFRSYM    DATA     BYTE      IEN3
      00000080H.0 SFRSYM    DATA     BIT       P0_0
      000000F8H.2 SFRSYM    DATA     BIT       APP_DATA2
      00000090H.0 SFRSYM    DATA     BIT       P1_0
      000000F8H.3 SFRSYM    DATA     BIT       APP_DATA3
      00000090H.1 SFRSYM    DATA     BIT       P1_1
      000000F8H.4 SFRSYM    DATA     BIT       APP_ACK
      000000F4H   SFRSYM    DATA     BYTE      ADR_INC
      000000B0H.1 SFRSYM    DATA     BIT       P3_1
      00000098H.4 SFRSYM    DATA     BIT       REN0
      000000B8H.1 SFRSYM    DATA     BIT       ECAN
      000000D0H.7 SFRSYM    DATA     BIT       CY
      000000B8H.3 SFRSYM    DATA     BIT       ES2R
      000000B8H.5 SFRSYM    DATA     BIT       ES3R
      000000B8H.2 SFRSYM    DATA     BIT       ES2T
      000000B8H.4 SFRSYM    DATA     BIT       ES3T
      000000C8H.7 SFRSYM    DATA     BIT       TSF2
      000000B0H.3 SFRSYM    DATA     BIT       RTC_SDA
      00000081H   SFRSYM    DATA     BYTE      SP
      000000D0H.2 SFRSYM    DATA     BIT       OV
      00000095H   SFRSYM    DATA     BYTE      D_PAGESEL
      00000090H.5 SFRSYM    DATA     BIT       UV
      000000F8H.7 SFRSYM    DATA     BIT       APP_REQ
      000000B0H.2 SFRSYM    DATA     BIT       RTC_SCL
      000000BFH   SFRSYM    DATA     BYTE      IRCON2
      000000BAH   SFRSYM    DATA     BYTE      SREL0H
      000000BBH   SFRSYM    DATA     BYTE      SREL1H
      00000087H   SFRSYM    DATA     BYTE      PCON
      000000AAH   SFRSYM    DATA     BYTE      SREL0L
LX51 LINKER/LOCATER V4.66.93.0                                                        04/22/2025  16:54:45  PAGE 28


      000000F9H   SFRSYM    DATA     BYTE      PORTDRV
      0000009DH   SFRSYM    DATA     BYTE      SREL1L
      00000089H   SFRSYM    DATA     BYTE      TMOD
      00000088H   SFRSYM    DATA     BYTE      TCON
      00000097H   SFRSYM    DATA     BYTE      SCON2R
      000000FFH   SFRSYM    DATA     BYTE      EXDATA
      000000ABH   SFRSYM    DATA     BYTE      SCON3R
      000000D9H   SFRSYM    DATA     BYTE      BODE2_DIV_H
      000000AEH   SFRSYM    DATA     BYTE      BODE3_DIV_H
      00000096H   SFRSYM    DATA     BYTE      SCON2T
      000000A7H   SFRSYM    DATA     BYTE      SCON3T
      000000E7H   SFRSYM    DATA     BYTE      BODE2_DIV_L
      00000088H.1 SFRSYM    DATA     BIT       IE0
      000000AFH   SFRSYM    DATA     BYTE      BODE3_DIV_L
      00000088H.3 SFRSYM    DATA     BIT       IE1
      000000C9H   SFRSYM    DATA     BYTE      MUX_SEL
      000000F0H   SFRSYM    DATA     BYTE      B
      000000E0H   SFRSYM    DATA     BYTE      ACC
      000000A8H.4 SFRSYM    DATA     BIT       ES0
      0000008FH   SFRSYM    DATA     BYTE      CAN_CR
      000000A8H.1 SFRSYM    DATA     BIT       ET0
      000000A9H   SFRSYM    DATA     BYTE      IP0
      000000A8H.3 SFRSYM    DATA     BIT       ET1
      00000088H.5 SFRSYM    DATA     BIT       TF0
      000000B9H   SFRSYM    DATA     BYTE      IP1
      000000A8H.5 SFRSYM    DATA     BIT       ET2
      00000098H.0 SFRSYM    DATA     BIT       RI0
      00000088H.7 SFRSYM    DATA     BIT       TF1
      000000FDH   SFRSYM    DATA     BYTE      DATA0
      000000C0H.6 SFRSYM    DATA     BIT       TF2
      000000E8H   SFRSYM    DATA     BYTE      CAN_ET
      000000FCH   SFRSYM    DATA     BYTE      DATA1
      0000008CH   SFRSYM    DATA     BYTE      TH0
      000000A8H.0 SFRSYM    DATA     BIT       EX0
      00000098H.1 SFRSYM    DATA     BIT       TI0
      00000088H.0 SFRSYM    DATA     BIT       IT0
      000000FBH   SFRSYM    DATA     BYTE      DATA2
      0000008DH   SFRSYM    DATA     BYTE      TH1
      000000A8H.2 SFRSYM    DATA     BIT       EX1
      00000091H   SFRSYM    DATA     BYTE      CAN_IR
      000000CDH   SFRSYM    DATA     BYTE      TH2
      00000088H.2 SFRSYM    DATA     BIT       IT1
      000000FAH   SFRSYM    DATA     BYTE      DATA3
      000000D0H.0 SFRSYM    DATA     BIT       P
      00000098H.7 SFRSYM    DATA     BIT       SM0
      0000008AH   SFRSYM    DATA     BYTE      TL0
      00000098H.6 SFRSYM    DATA     BIT       SM1
      0000008BH   SFRSYM    DATA     BYTE      TL1
      00000098H.5 SFRSYM    DATA     BIT       SM2
      000000CCH   SFRSYM    DATA     BYTE      TL2
      000000A0H.7 SFRSYM    DATA     BIT       UV_St
      000000D0H.3 SFRSYM    DATA     BIT       RS0
      000000F8H.6 SFRSYM    DATA     BIT       APP_EN
      000000D0H.4 SFRSYM    DATA     BIT       RS1
      00000088H.4 SFRSYM    DATA     BIT       TR0
      00000088H.6 SFRSYM    DATA     BIT       TR1
      00000093H   SFRSYM    DATA     BYTE      DPC
      000000C8H.0 SFRSYM    DATA     BIT       TR2
      000000E5H   SFRSYM    DATA     BYTE      MAC_MODE
      00000083H   SFRSYM    DATA     BYTE      DPH
      00000082H   SFRSYM    DATA     BYTE      DPL
      00000099H   SFRSYM    DATA     BYTE      SBUF0
      0000009CH   SFRSYM    DATA     BYTE      SBUF1
      00000098H   SFRSYM    DATA     BYTE      SCON0
      0000009BH   SFRSYM    DATA     BYTE      SCON1
LX51 LINKER/LOCATER V4.66.93.0                                                        04/22/2025  16:54:45  PAGE 29


      000000D8H   SFRSYM    DATA     BYTE      ADCON
      000000C8H   SFRSYM    DATA     BYTE      T2CON
      000000E6H   SFRSYM    DATA     BYTE      DIV_MODE
      000000F8H.5 SFRSYM    DATA     BIT       APP_RW
      000000CBH   SFRSYM    DATA     BYTE      TRL2H
      0000009FH   SFRSYM    DATA     BYTE      SBUF2_RX
      000000ADH   SFRSYM    DATA     BYTE      SBUF3_RX
      0000008EH   SFRSYM    DATA     BYTE      CKCON
      0000009EH   SFRSYM    DATA     BYTE      SBUF2_TX
      000000ACH   SFRSYM    DATA     BYTE      SBUF3_TX
      000000CAH   SFRSYM    DATA     BYTE      TRL2L
      000000D0H.5 SFRSYM    DATA     BIT       F0
      000000FEH   SFRSYM    DATA     BYTE      EXADR
      000000D0H.1 SFRSYM    DATA     BIT       F1
      000000A0H.3 SFRSYM    DATA     BIT       LED_B
      000000D0H   SFRSYM    DATA     BYTE      PSW
      000000A0H.1 SFRSYM    DATA     BIT       LED_G
      000000C0H   SFRSYM    DATA     BYTE      IRCON
      00000098H.2 SFRSYM    DATA     BIT       RB80

      ---         MODULE    ---      ---       TIMER
      0100005BH   PUBLIC    CODE     ---       InitTimer
      010000F1H   PUBLIC    CODE     ---       T2_ISR_PC
      01001DEAH   PUBLIC    CODE     ---       T2_Init
      01001CB5H   PUBLIC    CODE     ---       T0_ISR_PC
      01001E52H   PUBLIC    CODE     ---       T0_Init
      00000098H.3 SFRSYM    DATA     BIT       TB80
      000000F1H   SFRSYM    DATA     BYTE      ADR_H
      00000080H   SFRSYM    DATA     BYTE      P0
      00000090H   SFRSYM    DATA     BYTE      P1
      000000A0H   SFRSYM    DATA     BYTE      P2
      000000B0H   SFRSYM    DATA     BYTE      P3
      000000D0H.6 SFRSYM    DATA     BIT       AC
      000000F3H   SFRSYM    DATA     BYTE      ADR_L
      00000094H   SFRSYM    DATA     BYTE      PAGESEL
      000000F2H   SFRSYM    DATA     BYTE      ADR_M
      000000A8H.7 SFRSYM    DATA     BIT       EA
      000000A0H.5 SFRSYM    DATA     BIT       JIGUANG
      00000090H.7 SFRSYM    DATA     BIT       LED_R
      000000F8H   SFRSYM    DATA     BYTE      RAMMODE
      000000B7H   SFRSYM    DATA     BYTE      P0MDOUT
      000000A8H   SFRSYM    DATA     BYTE      IEN0
      000000BCH   SFRSYM    DATA     BYTE      P1MDOUT
      000000B8H   SFRSYM    DATA     BYTE      IEN1
      000000BDH   SFRSYM    DATA     BYTE      P2MDOUT
      000000F8H.0 SFRSYM    DATA     BIT       APP_DATA0
      0000009AH   SFRSYM    DATA     BYTE      IEN2
      000000BEH   SFRSYM    DATA     BYTE      P3MDOUT
      000000F8H.1 SFRSYM    DATA     BIT       APP_DATA1
      000000D1H   SFRSYM    DATA     BYTE      IEN3
      00000080H.0 SFRSYM    DATA     BIT       P0_0
      000000F8H.2 SFRSYM    DATA     BIT       APP_DATA2
      00000090H.0 SFRSYM    DATA     BIT       P1_0
      000000F8H.3 SFRSYM    DATA     BIT       APP_DATA3
      00000090H.1 SFRSYM    DATA     BIT       P1_1
      000000F8H.4 SFRSYM    DATA     BIT       APP_ACK
      000000F4H   SFRSYM    DATA     BYTE      ADR_INC
      000000B0H.1 SFRSYM    DATA     BIT       P3_1
      00000098H.4 SFRSYM    DATA     BIT       REN0
      000000B8H.1 SFRSYM    DATA     BIT       ECAN
      000000D0H.7 SFRSYM    DATA     BIT       CY
      000000B8H.3 SFRSYM    DATA     BIT       ES2R
      000000B8H.5 SFRSYM    DATA     BIT       ES3R
      000000B8H.2 SFRSYM    DATA     BIT       ES2T
      000000B8H.4 SFRSYM    DATA     BIT       ES3T
LX51 LINKER/LOCATER V4.66.93.0                                                        04/22/2025  16:54:45  PAGE 30


      000000C8H.7 SFRSYM    DATA     BIT       TSF2
      000000B0H.3 SFRSYM    DATA     BIT       RTC_SDA
      00000081H   SFRSYM    DATA     BYTE      SP
      000000D0H.2 SFRSYM    DATA     BIT       OV
      00000095H   SFRSYM    DATA     BYTE      D_PAGESEL
      00000090H.5 SFRSYM    DATA     BIT       UV
      000000F8H.7 SFRSYM    DATA     BIT       APP_REQ
      000000B0H.2 SFRSYM    DATA     BIT       RTC_SCL
      000000BFH   SFRSYM    DATA     BYTE      IRCON2
      000000BAH   SFRSYM    DATA     BYTE      SREL0H
      000000BBH   SFRSYM    DATA     BYTE      SREL1H
      00000087H   SFRSYM    DATA     BYTE      PCON
      000000AAH   SFRSYM    DATA     BYTE      SREL0L
      000000F9H   SFRSYM    DATA     BYTE      PORTDRV
      0000009DH   SFRSYM    DATA     BYTE      SREL1L
      00000089H   SFRSYM    DATA     BYTE      TMOD
      00000088H   SFRSYM    DATA     BYTE      TCON
      00000097H   SFRSYM    DATA     BYTE      SCON2R
      000000FFH   SFRSYM    DATA     BYTE      EXDATA
      000000ABH   SFRSYM    DATA     BYTE      SCON3R
      000000D9H   SFRSYM    DATA     BYTE      BODE2_DIV_H
      000000AEH   SFRSYM    DATA     BYTE      BODE3_DIV_H
      00000096H   SFRSYM    DATA     BYTE      SCON2T
      000000A7H   SFRSYM    DATA     BYTE      SCON3T
      000000E7H   SFRSYM    DATA     BYTE      BODE2_DIV_L
      00000088H.1 SFRSYM    DATA     BIT       IE0
      000000AFH   SFRSYM    DATA     BYTE      BODE3_DIV_L
      00000088H.3 SFRSYM    DATA     BIT       IE1
      000000C9H   SFRSYM    DATA     BYTE      MUX_SEL
      000000F0H   SFRSYM    DATA     BYTE      B
      000000E0H   SFRSYM    DATA     BYTE      ACC
      000000A8H.4 SFRSYM    DATA     BIT       ES0
      0000008FH   SFRSYM    DATA     BYTE      CAN_CR
      000000A8H.1 SFRSYM    DATA     BIT       ET0
      000000A9H   SFRSYM    DATA     BYTE      IP0
      000000A8H.3 SFRSYM    DATA     BIT       ET1
      00000088H.5 SFRSYM    DATA     BIT       TF0
      000000B9H   SFRSYM    DATA     BYTE      IP1
      000000A8H.5 SFRSYM    DATA     BIT       ET2
      00000098H.0 SFRSYM    DATA     BIT       RI0
      00000088H.7 SFRSYM    DATA     BIT       TF1
      000000FDH   SFRSYM    DATA     BYTE      DATA0
      000000C0H.6 SFRSYM    DATA     BIT       TF2
      000000E8H   SFRSYM    DATA     BYTE      CAN_ET
      000000FCH   SFRSYM    DATA     BYTE      DATA1
      0000008CH   SFRSYM    DATA     BYTE      TH0
      000000A8H.0 SFRSYM    DATA     BIT       EX0
      00000098H.1 SFRSYM    DATA     BIT       TI0
      00000088H.0 SFRSYM    DATA     BIT       IT0
      000000FBH   SFRSYM    DATA     BYTE      DATA2
      0000008DH   SFRSYM    DATA     BYTE      TH1
      000000A8H.2 SFRSYM    DATA     BIT       EX1
      00000091H   SFRSYM    DATA     BYTE      CAN_IR
      000000CDH   SFRSYM    DATA     BYTE      TH2
      00000088H.2 SFRSYM    DATA     BIT       IT1
      000000FAH   SFRSYM    DATA     BYTE      DATA3
      000000D0H.0 SFRSYM    DATA     BIT       P
      00000098H.7 SFRSYM    DATA     BIT       SM0
      0000008AH   SFRSYM    DATA     BYTE      TL0
      00000098H.6 SFRSYM    DATA     BIT       SM1
      0000008BH   SFRSYM    DATA     BYTE      TL1
      00000098H.5 SFRSYM    DATA     BIT       SM2
      000000CCH   SFRSYM    DATA     BYTE      TL2
      000000A0H.7 SFRSYM    DATA     BIT       UV_St
      000000D0H.3 SFRSYM    DATA     BIT       RS0
LX51 LINKER/LOCATER V4.66.93.0                                                        04/22/2025  16:54:45  PAGE 31


      000000F8H.6 SFRSYM    DATA     BIT       APP_EN
      000000D0H.4 SFRSYM    DATA     BIT       RS1
      00000088H.4 SFRSYM    DATA     BIT       TR0
      00000088H.6 SFRSYM    DATA     BIT       TR1
      00000093H   SFRSYM    DATA     BYTE      DPC
      000000C8H.0 SFRSYM    DATA     BIT       TR2
      000000E5H   SFRSYM    DATA     BYTE      MAC_MODE
      00000083H   SFRSYM    DATA     BYTE      DPH
      00000082H   SFRSYM    DATA     BYTE      DPL
      00000099H   SFRSYM    DATA     BYTE      SBUF0
      0000009CH   SFRSYM    DATA     BYTE      SBUF1
      00000098H   SFRSYM    DATA     BYTE      SCON0
      0000009BH   SFRSYM    DATA     BYTE      SCON1
      000000D8H   SFRSYM    DATA     BYTE      ADCON
      000000C8H   SFRSYM    DATA     BYTE      T2CON
      000000E6H   SFRSYM    DATA     BYTE      DIV_MODE
      000000F8H.5 SFRSYM    DATA     BIT       APP_RW
      000000CBH   SFRSYM    DATA     BYTE      TRL2H
      0000009FH   SFRSYM    DATA     BYTE      SBUF2_RX
      000000ADH   SFRSYM    DATA     BYTE      SBUF3_RX
      0000008EH   SFRSYM    DATA     BYTE      CKCON
      0000009EH   SFRSYM    DATA     BYTE      SBUF2_TX
      000000ACH   SFRSYM    DATA     BYTE      SBUF3_TX
      000000CAH   SFRSYM    DATA     BYTE      TRL2L
      000000D0H.5 SFRSYM    DATA     BIT       F0
      000000FEH   SFRSYM    DATA     BYTE      EXADR
      000000D0H.1 SFRSYM    DATA     BIT       F1
      000000A0H.3 SFRSYM    DATA     BIT       LED_B
      000000D0H   SFRSYM    DATA     BYTE      PSW
      000000A0H.1 SFRSYM    DATA     BIT       LED_G
      000000C0H   SFRSYM    DATA     BYTE      IRCON
      00000098H.2 SFRSYM    DATA     BIT       RB80

      01001E52H   BLOCK     CODE     ---       LVL=0
      01001E52H   LINE      CODE     ---       #22
      01001E52H   LINE      CODE     ---       #23
      01001E52H   LINE      CODE     ---       #24
      01001E55H   LINE      CODE     ---       #25
      01001E58H   LINE      CODE     ---       #26
      01001E5BH   LINE      CODE     ---       #27
      01001E5DH   LINE      CODE     ---       #28
      01001E5FH   LINE      CODE     ---       #29
      ---         BLOCKEND  ---      ---       LVL=0

      01001CB5H   BLOCK     CODE     ---       LVL=0
      01001CB5H   LINE      CODE     ---       #30
      01001CBBH   LINE      CODE     ---       #32
      01001CBDH   LINE      CODE     ---       #33
      01001CC0H   LINE      CODE     ---       #34
      01001CC3H   LINE      CODE     ---       #37
      01001CD1H   LINE      CODE     ---       #41
      01001CD3H   LINE      CODE     ---       #42
      ---         BLOCKEND  ---      ---       LVL=0

      01001DEAH   BLOCK     CODE     ---       LVL=0
      01001DEAH   LINE      CODE     ---       #47
      01001DEAH   LINE      CODE     ---       #48
      01001DEAH   LINE      CODE     ---       #49
      01001DEDH   LINE      CODE     ---       #50
      01001DF0H   LINE      CODE     ---       #51
      01001DF2H   LINE      CODE     ---       #52
      01001DF5H   LINE      CODE     ---       #53
      01001DF8H   LINE      CODE     ---       #54
      01001DFBH   LINE      CODE     ---       #55
      01001DFDH   LINE      CODE     ---       #56
LX51 LINKER/LOCATER V4.66.93.0                                                        04/22/2025  16:54:45  PAGE 32


      ---         BLOCKEND  ---      ---       LVL=0

      010000F1H   BLOCK     CODE     ---       LVL=0
      010000F1H   LINE      CODE     ---       #57
      010000F1H   LINE      CODE     ---       #59
      010000F3H   LINE      CODE     ---       #61
      ---         BLOCKEND  ---      ---       LVL=0

      0100005BH   BLOCK     CODE     ---       LVL=0
      0100005BH   LINE      CODE     ---       #66
      0100005BH   LINE      CODE     ---       #67
      0100005BH   LINE      CODE     ---       #68
      0100005EH   LINE      CODE     ---       #69
      ---         BLOCKEND  ---      ---       LVL=0

      ---         MODULE    ---      ---       HANDLE
      0200A429H   PUBLIC    XDATA    ---       value0F00
      0200A428H   PUBLIC    XDATA    BYTE      xp_status
      0200A329H   PUBLIC    XDATA    ---       frame_buf1
      0200A229H   PUBLIC    XDATA    ---       s_dl_t_645_8283_body
      0200A12AH   PUBLIC    XDATA    ---       frame_buf
      01001EDCH   PUBLIC    CONST    ---       CUart5
      01001ECAH   PUBLIC    CONST    ---       CUart4
      01001EB8H   PUBLIC    CONST    ---       CUart3
      01001EA3H   PUBLIC    CONST    ---       CUart2
      01001E78H   PUBLIC    CODE     ---       HandleProc
      01000100H   PUBLIC    CODE     ---       ParseBuffer
      0200A43CH   PUBLIC    XDATA    BYTE      ?_find_dlt645_frame?BYTE
      010015E2H   PUBLIC    CODE     ---       _find_dlt645_frame
      0200A43CH   PUBLIC    XDATA    BYTE      ?_parse_dlt645_frame?BYTE
      01001C64H   PUBLIC    CODE     ---       _parse_dlt645_frame
      0100179FH   PUBLIC    CODE     ---       dlt645_handle
      010018E4H   PUBLIC    CODE     ---       TouchHandle
      01001D42H   PUBLIC    CODE     ---       _page_set
      01001A37H   PUBLIC    CODE     ---       _JumpPage
      01001E84H   PUBLIC    CODE     ---       InitUartSend
      01001B55H   PUBLIC    CODE     ---       GetValue0F00
      00000098H.3 SFRSYM    DATA     BIT       TB80
      000000F1H   SFRSYM    DATA     BYTE      ADR_H
      00000080H   SFRSYM    DATA     BYTE      P0
      00000090H   SFRSYM    DATA     BYTE      P1
      000000A0H   SFRSYM    DATA     BYTE      P2
      000000B0H   SFRSYM    DATA     BYTE      P3
      000000D0H.6 SFRSYM    DATA     BIT       AC
      000000F3H   SFRSYM    DATA     BYTE      ADR_L
      00000094H   SFRSYM    DATA     BYTE      PAGESEL
      000000F2H   SFRSYM    DATA     BYTE      ADR_M
      000000A8H.7 SFRSYM    DATA     BIT       EA
      000000A0H.5 SFRSYM    DATA     BIT       JIGUANG
      00000090H.7 SFRSYM    DATA     BIT       LED_R
      000000F8H   SFRSYM    DATA     BYTE      RAMMODE
      000000B7H   SFRSYM    DATA     BYTE      P0MDOUT
      000000A8H   SFRSYM    DATA     BYTE      IEN0
      000000BCH   SFRSYM    DATA     BYTE      P1MDOUT
      000000B8H   SFRSYM    DATA     BYTE      IEN1
      000000BDH   SFRSYM    DATA     BYTE      P2MDOUT
      000000F8H.0 SFRSYM    DATA     BIT       APP_DATA0
      0000009AH   SFRSYM    DATA     BYTE      IEN2
      000000BEH   SFRSYM    DATA     BYTE      P3MDOUT
      000000F8H.1 SFRSYM    DATA     BIT       APP_DATA1
      000000D1H   SFRSYM    DATA     BYTE      IEN3
      00000080H.0 SFRSYM    DATA     BIT       P0_0
      000000F8H.2 SFRSYM    DATA     BIT       APP_DATA2
      00000090H.0 SFRSYM    DATA     BIT       P1_0
      000000F8H.3 SFRSYM    DATA     BIT       APP_DATA3
LX51 LINKER/LOCATER V4.66.93.0                                                        04/22/2025  16:54:45  PAGE 33


      00000090H.1 SFRSYM    DATA     BIT       P1_1
      000000F8H.4 SFRSYM    DATA     BIT       APP_ACK
      000000F4H   SFRSYM    DATA     BYTE      ADR_INC
      000000B0H.1 SFRSYM    DATA     BIT       P3_1
      00000098H.4 SFRSYM    DATA     BIT       REN0
      000000B8H.1 SFRSYM    DATA     BIT       ECAN
      000000D0H.7 SFRSYM    DATA     BIT       CY
      000000B8H.3 SFRSYM    DATA     BIT       ES2R
      000000B8H.5 SFRSYM    DATA     BIT       ES3R
      000000B8H.2 SFRSYM    DATA     BIT       ES2T
      000000B8H.4 SFRSYM    DATA     BIT       ES3T
      000000C8H.7 SFRSYM    DATA     BIT       TSF2
      000000B0H.3 SFRSYM    DATA     BIT       RTC_SDA
      00000081H   SFRSYM    DATA     BYTE      SP
      000000D0H.2 SFRSYM    DATA     BIT       OV
      00000095H   SFRSYM    DATA     BYTE      D_PAGESEL
      00000090H.5 SFRSYM    DATA     BIT       UV
      000000F8H.7 SFRSYM    DATA     BIT       APP_REQ
      000000B0H.2 SFRSYM    DATA     BIT       RTC_SCL
      000000BFH   SFRSYM    DATA     BYTE      IRCON2
      000000BAH   SFRSYM    DATA     BYTE      SREL0H
      000000BBH   SFRSYM    DATA     BYTE      SREL1H
      00000087H   SFRSYM    DATA     BYTE      PCON
      000000AAH   SFRSYM    DATA     BYTE      SREL0L
      000000F9H   SFRSYM    DATA     BYTE      PORTDRV
      0000009DH   SFRSYM    DATA     BYTE      SREL1L
      00000089H   SFRSYM    DATA     BYTE      TMOD
      00000088H   SFRSYM    DATA     BYTE      TCON
      00000097H   SFRSYM    DATA     BYTE      SCON2R
      000000FFH   SFRSYM    DATA     BYTE      EXDATA
      000000ABH   SFRSYM    DATA     BYTE      SCON3R
      000000D9H   SFRSYM    DATA     BYTE      BODE2_DIV_H
      000000AEH   SFRSYM    DATA     BYTE      BODE3_DIV_H
      00000096H   SFRSYM    DATA     BYTE      SCON2T
      000000A7H   SFRSYM    DATA     BYTE      SCON3T
      000000E7H   SFRSYM    DATA     BYTE      BODE2_DIV_L
      00000088H.1 SFRSYM    DATA     BIT       IE0
      000000AFH   SFRSYM    DATA     BYTE      BODE3_DIV_L
      00000088H.3 SFRSYM    DATA     BIT       IE1
      000000C9H   SFRSYM    DATA     BYTE      MUX_SEL
      000000F0H   SFRSYM    DATA     BYTE      B
      000000E0H   SFRSYM    DATA     BYTE      ACC
      000000A8H.4 SFRSYM    DATA     BIT       ES0
      0000008FH   SFRSYM    DATA     BYTE      CAN_CR
      000000A8H.1 SFRSYM    DATA     BIT       ET0
      000000A9H   SFRSYM    DATA     BYTE      IP0
      000000A8H.3 SFRSYM    DATA     BIT       ET1
      00000088H.5 SFRSYM    DATA     BIT       TF0
      000000B9H   SFRSYM    DATA     BYTE      IP1
      000000A8H.5 SFRSYM    DATA     BIT       ET2
      00000098H.0 SFRSYM    DATA     BIT       RI0
      00000088H.7 SFRSYM    DATA     BIT       TF1
      000000FDH   SFRSYM    DATA     BYTE      DATA0
      000000C0H.6 SFRSYM    DATA     BIT       TF2
      000000E8H   SFRSYM    DATA     BYTE      CAN_ET
      000000FCH   SFRSYM    DATA     BYTE      DATA1
      0000008CH   SFRSYM    DATA     BYTE      TH0
      000000A8H.0 SFRSYM    DATA     BIT       EX0
      00000098H.1 SFRSYM    DATA     BIT       TI0
      00000088H.0 SFRSYM    DATA     BIT       IT0
      000000FBH   SFRSYM    DATA     BYTE      DATA2
      0000008DH   SFRSYM    DATA     BYTE      TH1
      000000A8H.2 SFRSYM    DATA     BIT       EX1
      00000091H   SFRSYM    DATA     BYTE      CAN_IR
      000000CDH   SFRSYM    DATA     BYTE      TH2
LX51 LINKER/LOCATER V4.66.93.0                                                        04/22/2025  16:54:45  PAGE 34


      00000088H.2 SFRSYM    DATA     BIT       IT1
      000000FAH   SFRSYM    DATA     BYTE      DATA3
      000000D0H.0 SFRSYM    DATA     BIT       P
      00000098H.7 SFRSYM    DATA     BIT       SM0
      0000008AH   SFRSYM    DATA     BYTE      TL0
      00000098H.6 SFRSYM    DATA     BIT       SM1
      0000008BH   SFRSYM    DATA     BYTE      TL1
      00000098H.5 SFRSYM    DATA     BIT       SM2
      000000CCH   SFRSYM    DATA     BYTE      TL2
      000000A0H.7 SFRSYM    DATA     BIT       UV_St
      000000D0H.3 SFRSYM    DATA     BIT       RS0
      000000F8H.6 SFRSYM    DATA     BIT       APP_EN
      000000D0H.4 SFRSYM    DATA     BIT       RS1
      00000088H.4 SFRSYM    DATA     BIT       TR0
      00000088H.6 SFRSYM    DATA     BIT       TR1
      00000093H   SFRSYM    DATA     BYTE      DPC
      000000C8H.0 SFRSYM    DATA     BIT       TR2
      000000E5H   SFRSYM    DATA     BYTE      MAC_MODE
      00000083H   SFRSYM    DATA     BYTE      DPH
      00000082H   SFRSYM    DATA     BYTE      DPL
      00000099H   SFRSYM    DATA     BYTE      SBUF0
      0000009CH   SFRSYM    DATA     BYTE      SBUF1
      00000098H   SFRSYM    DATA     BYTE      SCON0
      0000009BH   SFRSYM    DATA     BYTE      SCON1
      000000D8H   SFRSYM    DATA     BYTE      ADCON
      000000C8H   SFRSYM    DATA     BYTE      T2CON
      000000E6H   SFRSYM    DATA     BYTE      DIV_MODE
      000000F8H.5 SFRSYM    DATA     BIT       APP_RW
      000000CBH   SFRSYM    DATA     BYTE      TRL2H
      0000009FH   SFRSYM    DATA     BYTE      SBUF2_RX
      000000ADH   SFRSYM    DATA     BYTE      SBUF3_RX
      0000008EH   SFRSYM    DATA     BYTE      CKCON
      0000009EH   SFRSYM    DATA     BYTE      SBUF2_TX
      000000ACH   SFRSYM    DATA     BYTE      SBUF3_TX
      000000CAH   SFRSYM    DATA     BYTE      TRL2L
      000000D0H.5 SFRSYM    DATA     BIT       F0
      000000FEH   SFRSYM    DATA     BYTE      EXADR
      000000D0H.1 SFRSYM    DATA     BIT       F1
      000000A0H.3 SFRSYM    DATA     BIT       LED_B
      000000D0H   SFRSYM    DATA     BYTE      PSW
      000000A0H.1 SFRSYM    DATA     BIT       LED_G
      000000C0H   SFRSYM    DATA     BYTE      IRCON
      00000098H.2 SFRSYM    DATA     BIT       RB80
      01001EEEH   SYMBOL    CONST    ---       _?ix1000
      01001EF2H   SYMBOL    CONST    ---       _?ix1001
      01001EF6H   SYMBOL    CONST    ---       _?ix1002
      01001F06H   SYMBOL    CONST    ---       _?ix1003

      01001B55H   BLOCK     CODE     ---       LVL=0
      01001B55H   BLOCK     CODE     NEAR LAB  LVL=1
      0200A42DH   SYMBOL    XDATA    ---       cleanData
      ---         BLOCKEND  ---      ---       LVL=1
      01001B55H   LINE      CODE     ---       #104
      01001B55H   LINE      CODE     ---       #105
      01001B55H   LINE      CODE     ---       #106
      01001B68H   LINE      CODE     ---       #107
      01001B7EH   LINE      CODE     ---       #108
      01001B86H   LINE      CODE     ---       #109
      01001B86H   LINE      CODE     ---       #110
      01001B9BH   LINE      CODE     ---       #111
      01001B9EH   LINE      CODE     ---       #112
      01001B9EH   LINE      CODE     ---       #113
      01001BA0H   LINE      CODE     ---       #114
      ---         BLOCKEND  ---      ---       LVL=0

LX51 LINKER/LOCATER V4.66.93.0                                                        04/22/2025  16:54:45  PAGE 35


      01001E84H   BLOCK     CODE     ---       LVL=0
      01001E84H   LINE      CODE     ---       #117
      01001E84H   LINE      CODE     ---       #118
      01001E84H   LINE      CODE     ---       #119
      ---         BLOCKEND  ---      ---       LVL=0

      01001A37H   BLOCK     CODE     ---       LVL=0
      0200A48EH   SYMBOL    XDATA    WORD      pageId
      01001A3FH   BLOCK     CODE     NEAR LAB  LVL=1
      0200A490H   SYMBOL    XDATA    ---       temp
      ---         BLOCKEND  ---      ---       LVL=1
      01001A37H   LINE      CODE     ---       #128
      01001A3FH   LINE      CODE     ---       #129
      01001A3FH   LINE      CODE     ---       #130
      01001A52H   LINE      CODE     ---       #131
      01001A5FH   LINE      CODE     ---       #132
      01001A62H   LINE      CODE     ---       #133
      01001A78H   LINE      CODE     ---       #135
      01001A78H   LINE      CODE     ---       #136
      01001A7FH   LINE      CODE     ---       #137
      01001A94H   LINE      CODE     ---       #138
      01001A9AH   LINE      CODE     ---       #139
      ---         BLOCKEND  ---      ---       LVL=0

      01001D42H   BLOCK     CODE     ---       LVL=0
      00000006H   SYMBOL    DATA     WORD      getDar
      01001D42H   LINE      CODE     ---       #145
      01001D42H   LINE      CODE     ---       #146
      01001D42H   LINE      CODE     ---       #150
      01001D56H   LINE      CODE     ---       #151
      01001D56H   LINE      CODE     ---       #153
      01001D56H   LINE      CODE     ---       #154
      01001D5EH   LINE      CODE     ---       #155
      01001D5EH   LINE      CODE     ---       #156
      01001D61H   LINE      CODE     ---       #157
      01001D61H   LINE      CODE     ---       #158
      01001D61H   LINE      CODE     ---       #159
      01001D61H   LINE      CODE     ---       #161
      01001D61H   LINE      CODE     ---       #162
      01001D61H   LINE      CODE     ---       #163
      01001D61H   LINE      CODE     ---       #165
      01001D61H   LINE      CODE     ---       #166
      01001D61H   LINE      CODE     ---       #167
      01001D61H   LINE      CODE     ---       #169
      01001D61H   LINE      CODE     ---       #171
      ---         BLOCKEND  ---      ---       LVL=0

      010018E4H   BLOCK     CODE     ---       LVL=0
      010018E4H   BLOCK     CODE     NEAR LAB  LVL=1
      0200A42DH   SYMBOL    XDATA    ---       temp
      0200A43DH   SYMBOL    XDATA    WORD      flag
      0200A43FH   SYMBOL    XDATA    WORD      iconid
      0200A441H   SYMBOL    XDATA    WORD      getDar
      ---         BLOCKEND  ---      ---       LVL=1
      010018E4H   LINE      CODE     ---       #176
      010018E4H   LINE      CODE     ---       #177
      010018E4H   LINE      CODE     ---       #178
      010018F7H   LINE      CODE     ---       #179
      010018FEH   LINE      CODE     ---       #180
      01001902H   LINE      CODE     ---       #181
      01001906H   LINE      CODE     ---       #182
      0100191CH   LINE      CODE     ---       #183
      0100191CH   LINE      CODE     ---       #185
      01001922H   LINE      CODE     ---       #186
      01001926H   LINE      CODE     ---       #187
LX51 LINKER/LOCATER V4.66.93.0                                                        04/22/2025  16:54:45  PAGE 36


      01001933H   LINE      CODE     ---       #188
      01001937H   LINE      CODE     ---       #189
      0100193AH   LINE      CODE     ---       #190
      0100193DH   LINE      CODE     ---       #191
      0100195DH   LINE      CODE     ---       #194
      ---         BLOCKEND  ---      ---       LVL=0

      0100179FH   BLOCK     CODE     ---       LVL=0
      0100179FH   BLOCK     CODE     NEAR LAB  LVL=1
      0200A43CH   SYMBOL    XDATA    WORD      ADDR
      ---         BLOCKEND  ---      ---       LVL=1
      0100179FH   LINE      CODE     ---       #207
      0100179FH   LINE      CODE     ---       #208
      0100179FH   LINE      CODE     ---       #209
      010017A6H   LINE      CODE     ---       #211
      010017B8H   LINE      CODE     ---       #213
      010017C0H   LINE      CODE     ---       #214
      010017C0H   LINE      CODE     ---       #215
      010017E2H   LINE      CODE     ---       #216
      010017E8H   LINE      CODE     ---       #217
      010017EEH   LINE      CODE     ---       #218
      010017F2H   LINE      CODE     ---       #219
      010017FBH   LINE      CODE     ---       #220
      010017FDH   LINE      CODE     ---       #221
      01001805H   LINE      CODE     ---       #222
      01001805H   LINE      CODE     ---       #223
      01001828H   LINE      CODE     ---       #224
      01001835H   LINE      CODE     ---       #225
      01001842H   LINE      CODE     ---       #226
      01001842H   LINE      CODE     ---       #228
      ---         BLOCKEND  ---      ---       LVL=0

      01001C64H   BLOCK     CODE     ---       LVL=0
      00000001H   SYMBOL    DATA     ---       p_frame
      00000004H   SYMBOL    DATA     WORD      frame_len
      0200A441H   SYMBOL    XDATA    ---       sframe_body
      01001C64H   BLOCK     CODE     NEAR LAB  LVL=1
      0200A444H   SYMBOL    XDATA    WORD      temp16_t
      0200A446H   SYMBOL    XDATA    WORD      i
      ---         BLOCKEND  ---      ---       LVL=1
      01001C64H   LINE      CODE     ---       #231
      01001C64H   LINE      CODE     ---       #232
      01001C64H   LINE      CODE     ---       #233
      01001C6BH   LINE      CODE     ---       #234
      01001C6FH   LINE      CODE     ---       #236
      01001C6FH   LINE      CODE     ---       #237
      01001C8DH   LINE      CODE     ---       #238
      01001C8FH   LINE      CODE     ---       #239
      01001C8FH   LINE      CODE     ---       #241
      ---         BLOCKEND  ---      ---       LVL=0

      010015E2H   BLOCK     CODE     ---       LVL=0
      0200A43CH   SYMBOL    XDATA    ---       line
      0200A43FH   SYMBOL    XDATA    ---       out
      0200A442H   SYMBOL    XDATA    ---       frame_len
      0200A445H   SYMBOL    XDATA    WORD      line_len
      010015EDH   BLOCK     CODE     NEAR LAB  LVL=1
      0200A447H   SYMBOL    XDATA    WORD      frame_length
      0200A449H   SYMBOL    XDATA    WORD      temp_len
      ---         BLOCKEND  ---      ---       LVL=1
      010015E2H   LINE      CODE     ---       #251
      010015EDH   LINE      CODE     ---       #252
      010015F4H   LINE      CODE     ---       #253
      010015F8H   LINE      CODE     ---       #255
      01001607H   LINE      CODE     ---       #256
LX51 LINKER/LOCATER V4.66.93.0                                                        04/22/2025  16:54:45  PAGE 37


      0100160AH   LINE      CODE     ---       #257
      0100160AH   LINE      CODE     ---       #259
      0100161CH   LINE      CODE     ---       #260
      0100161FH   LINE      CODE     ---       #261
      0100161FH   LINE      CODE     ---       #262
      01001629H   LINE      CODE     ---       #263
      0100162CH   LINE      CODE     ---       #264
      0100162CH   LINE      CODE     ---       #265
      0100163FH   LINE      CODE     ---       #267
      0100164CH   LINE      CODE     ---       #269
      01001667H   LINE      CODE     ---       #270
      01001689H   LINE      CODE     ---       #271
      01001693H   LINE      CODE     ---       #272
      010016A3H   LINE      CODE     ---       #273
      010016BBH   LINE      CODE     ---       #274
      010016BEH   LINE      CODE     ---       #275
      010016BEH   LINE      CODE     ---       #277
      010016C0H   LINE      CODE     ---       #278
      010016C0H   LINE      CODE     ---       #279
      ---         BLOCKEND  ---      ---       LVL=0

      01000100H   BLOCK     CODE     ---       LVL=0
      01000100H   BLOCK     CODE     NEAR LAB  LVL=1
      0200A42DH   SYMBOL    XDATA    WORD      frame_length
      0200A42FH   SYMBOL    XDATA    WORD      i
      0200A431H   SYMBOL    XDATA    WORD      temp_len
      0200A433H   SYMBOL    XDATA    BYTE      has_content
      0200A434H   SYMBOL    XDATA    BYTE      frame_error
      0200A435H   SYMBOL    XDATA    ---       p_buf
      0200A438H   SYMBOL    XDATA    BYTE      protl_type
      0200A439H   SYMBOL    XDATA    BYTE      find_frame_re
      0200A43AH   SYMBOL    XDATA    ---       frame_results
      ---         BLOCKEND  ---      ---       LVL=1
      01000100H   LINE      CODE     ---       #283
      01000100H   LINE      CODE     ---       #284
      01000100H   LINE      CODE     ---       #285
      01000107H   LINE      CODE     ---       #286
      0100010FH   LINE      CODE     ---       #287
      01000111H   LINE      CODE     ---       #288
      01000113H   LINE      CODE     ---       #289
      0100011EH   LINE      CODE     ---       #290
      01000121H   LINE      CODE     ---       #291
      01000123H   LINE      CODE     ---       #296
      01000135H   LINE      CODE     ---       #298
      0100014DH   LINE      CODE     ---       #299
      01000156H   LINE      CODE     ---       #300
      01000164H   LINE      CODE     ---       #302
      010001A4H   LINE      CODE     ---       #303
      010001AEH   LINE      CODE     ---       #304
      010001B0H   LINE      CODE     ---       #305
      010001E4H   LINE      CODE     ---       #307
      010001EAH   LINE      CODE     ---       #308
      010001EBH   LINE      CODE     ---       #309
      010001EBH   LINE      CODE     ---       #311
      0100020EH   LINE      CODE     ---       #314
      0100021DH   LINE      CODE     ---       #315
      0100021DH   LINE      CODE     ---       #316
      0100022CH   LINE      CODE     ---       #317
      01000231H   LINE      CODE     ---       #318
      01000235H   LINE      CODE     ---       #319
      0100023BH   LINE      CODE     ---       #320
      0100024FH   LINE      CODE     ---       #321
      0100025BH   LINE      CODE     ---       #322
      0100026BH   LINE      CODE     ---       #324
      0100026BH   LINE      CODE     ---       #325
LX51 LINKER/LOCATER V4.66.93.0                                                        04/22/2025  16:54:45  PAGE 38


      010002A7H   LINE      CODE     ---       #327
      010002A9H   LINE      CODE     ---       #328
      010002ADH   LINE      CODE     ---       #329
      010002D2H   LINE      CODE     ---       #331
      010002D5H   LINE      CODE     ---       #332
      010002E4H   LINE      CODE     ---       #333
      010002E4H   LINE      CODE     ---       #334
      010002E7H   LINE      CODE     ---       #335
      010002E7H   LINE      CODE     ---       #337
      010002E7H   LINE      CODE     ---       #341
      010002E7H   LINE      CODE     ---       #342
      010002F2H   LINE      CODE     ---       #345
      010002F7H   LINE      CODE     ---       #347
      01000337H   LINE      CODE     ---       #348
      01000341H   LINE      CODE     ---       #349
      01000343H   LINE      CODE     ---       #351
      01000377H   LINE      CODE     ---       #353
      0100037DH   LINE      CODE     ---       #354
      0100037FH   LINE      CODE     ---       #355
      0100037FH   LINE      CODE     ---       #358
      01000385H   LINE      CODE     ---       #359
      01000385H   LINE      CODE     ---       #360
      01000385H   LINE      CODE     ---       #361
      01000385H   LINE      CODE     ---       #365
      01000396H   LINE      CODE     ---       #367
      010003C9H   LINE      CODE     ---       #368
      010003D1H   LINE      CODE     ---       #370
      010003EEH   LINE      CODE     ---       #371
      0100041DH   LINE      CODE     ---       #372
      01000421H   LINE      CODE     ---       #373
      01000431H   LINE      CODE     ---       #374
      01000437H   LINE      CODE     ---       #375
      01000439H   LINE      CODE     ---       #377
      0100046AH   LINE      CODE     ---       #378
      01000476H   LINE      CODE     ---       #379
      01000486H   LINE      CODE     ---       #380
      0100048BH   LINE      CODE     ---       #381
      0100048BH   LINE      CODE     ---       #382
      0100049AH   LINE      CODE     ---       #383
      0100049DH   LINE      CODE     ---       #384
      010004A2H   LINE      CODE     ---       #385
      010004A2H   LINE      CODE     ---       #386
      010004A5H   LINE      CODE     ---       #387
      ---         BLOCKEND  ---      ---       LVL=0

      01001E78H   BLOCK     CODE     ---       LVL=0
      01001E78H   LINE      CODE     ---       #392
      01001E78H   LINE      CODE     ---       #393
      01001E78H   LINE      CODE     ---       #394
      01001E7EH   LINE      CODE     ---       #395
      01001E7EH   LINE      CODE     ---       #396
      01001E81H   LINE      CODE     ---       #397
      01001E81H   LINE      CODE     ---       #398
      ---         BLOCKEND  ---      ---       LVL=0

      ---         MODULE    ---      ---       CRC16
      00000098H.3 SFRSYM    DATA     BIT       TB80
      000000F1H   SFRSYM    DATA     BYTE      ADR_H
      00000080H   SFRSYM    DATA     BYTE      P0
      00000090H   SFRSYM    DATA     BYTE      P1
      000000A0H   SFRSYM    DATA     BYTE      P2
      000000B0H   SFRSYM    DATA     BYTE      P3
      000000D0H.6 SFRSYM    DATA     BIT       AC
      000000F3H   SFRSYM    DATA     BYTE      ADR_L
      00000094H   SFRSYM    DATA     BYTE      PAGESEL
LX51 LINKER/LOCATER V4.66.93.0                                                        04/22/2025  16:54:45  PAGE 39


      000000F2H   SFRSYM    DATA     BYTE      ADR_M
      000000A8H.7 SFRSYM    DATA     BIT       EA
      000000A0H.5 SFRSYM    DATA     BIT       JIGUANG
      00000090H.7 SFRSYM    DATA     BIT       LED_R
      000000F8H   SFRSYM    DATA     BYTE      RAMMODE
      000000B7H   SFRSYM    DATA     BYTE      P0MDOUT
      000000A8H   SFRSYM    DATA     BYTE      IEN0
      000000BCH   SFRSYM    DATA     BYTE      P1MDOUT
      000000B8H   SFRSYM    DATA     BYTE      IEN1
      000000BDH   SFRSYM    DATA     BYTE      P2MDOUT
      000000F8H.0 SFRSYM    DATA     BIT       APP_DATA0
      0000009AH   SFRSYM    DATA     BYTE      IEN2
      000000BEH   SFRSYM    DATA     BYTE      P3MDOUT
      000000F8H.1 SFRSYM    DATA     BIT       APP_DATA1
      000000D1H   SFRSYM    DATA     BYTE      IEN3
      00000080H.0 SFRSYM    DATA     BIT       P0_0
      000000F8H.2 SFRSYM    DATA     BIT       APP_DATA2
      00000090H.0 SFRSYM    DATA     BIT       P1_0
      000000F8H.3 SFRSYM    DATA     BIT       APP_DATA3
      00000090H.1 SFRSYM    DATA     BIT       P1_1
      000000F8H.4 SFRSYM    DATA     BIT       APP_ACK
      000000F4H   SFRSYM    DATA     BYTE      ADR_INC
      000000B0H.1 SFRSYM    DATA     BIT       P3_1
      00000098H.4 SFRSYM    DATA     BIT       REN0
      000000B8H.1 SFRSYM    DATA     BIT       ECAN
      000000D0H.7 SFRSYM    DATA     BIT       CY
      000000B8H.3 SFRSYM    DATA     BIT       ES2R
      000000B8H.5 SFRSYM    DATA     BIT       ES3R
      000000B8H.2 SFRSYM    DATA     BIT       ES2T
      000000B8H.4 SFRSYM    DATA     BIT       ES3T
      000000C8H.7 SFRSYM    DATA     BIT       TSF2
      000000B0H.3 SFRSYM    DATA     BIT       RTC_SDA
      00000081H   SFRSYM    DATA     BYTE      SP
      000000D0H.2 SFRSYM    DATA     BIT       OV
      00000095H   SFRSYM    DATA     BYTE      D_PAGESEL
      00000090H.5 SFRSYM    DATA     BIT       UV
      000000F8H.7 SFRSYM    DATA     BIT       APP_REQ
      000000B0H.2 SFRSYM    DATA     BIT       RTC_SCL
      000000BFH   SFRSYM    DATA     BYTE      IRCON2
      000000BAH   SFRSYM    DATA     BYTE      SREL0H
      000000BBH   SFRSYM    DATA     BYTE      SREL1H
      00000087H   SFRSYM    DATA     BYTE      PCON
      000000AAH   SFRSYM    DATA     BYTE      SREL0L
      000000F9H   SFRSYM    DATA     BYTE      PORTDRV
      0000009DH   SFRSYM    DATA     BYTE      SREL1L
      00000089H   SFRSYM    DATA     BYTE      TMOD
      00000088H   SFRSYM    DATA     BYTE      TCON
      00000097H   SFRSYM    DATA     BYTE      SCON2R
      000000FFH   SFRSYM    DATA     BYTE      EXDATA
      000000ABH   SFRSYM    DATA     BYTE      SCON3R
      000000D9H   SFRSYM    DATA     BYTE      BODE2_DIV_H
      000000AEH   SFRSYM    DATA     BYTE      BODE3_DIV_H
      00000096H   SFRSYM    DATA     BYTE      SCON2T
      000000A7H   SFRSYM    DATA     BYTE      SCON3T
      000000E7H   SFRSYM    DATA     BYTE      BODE2_DIV_L
      00000088H.1 SFRSYM    DATA     BIT       IE0
      000000AFH   SFRSYM    DATA     BYTE      BODE3_DIV_L
      00000088H.3 SFRSYM    DATA     BIT       IE1
      000000C9H   SFRSYM    DATA     BYTE      MUX_SEL
      000000F0H   SFRSYM    DATA     BYTE      B
      000000E0H   SFRSYM    DATA     BYTE      ACC
      000000A8H.4 SFRSYM    DATA     BIT       ES0
      0000008FH   SFRSYM    DATA     BYTE      CAN_CR
      000000A8H.1 SFRSYM    DATA     BIT       ET0
      000000A9H   SFRSYM    DATA     BYTE      IP0
LX51 LINKER/LOCATER V4.66.93.0                                                        04/22/2025  16:54:45  PAGE 40


      000000A8H.3 SFRSYM    DATA     BIT       ET1
      00000088H.5 SFRSYM    DATA     BIT       TF0
      000000B9H   SFRSYM    DATA     BYTE      IP1
      000000A8H.5 SFRSYM    DATA     BIT       ET2
      00000098H.0 SFRSYM    DATA     BIT       RI0
      00000088H.7 SFRSYM    DATA     BIT       TF1
      000000FDH   SFRSYM    DATA     BYTE      DATA0
      000000C0H.6 SFRSYM    DATA     BIT       TF2
      000000E8H   SFRSYM    DATA     BYTE      CAN_ET
      000000FCH   SFRSYM    DATA     BYTE      DATA1
      0000008CH   SFRSYM    DATA     BYTE      TH0
      000000A8H.0 SFRSYM    DATA     BIT       EX0
      00000098H.1 SFRSYM    DATA     BIT       TI0
      00000088H.0 SFRSYM    DATA     BIT       IT0
      000000FBH   SFRSYM    DATA     BYTE      DATA2
      0000008DH   SFRSYM    DATA     BYTE      TH1
      000000A8H.2 SFRSYM    DATA     BIT       EX1
      00000091H   SFRSYM    DATA     BYTE      CAN_IR
      000000CDH   SFRSYM    DATA     BYTE      TH2
      00000088H.2 SFRSYM    DATA     BIT       IT1
      000000FAH   SFRSYM    DATA     BYTE      DATA3
      000000D0H.0 SFRSYM    DATA     BIT       P
      00000098H.7 SFRSYM    DATA     BIT       SM0
      0000008AH   SFRSYM    DATA     BYTE      TL0
      00000098H.6 SFRSYM    DATA     BIT       SM1
      0000008BH   SFRSYM    DATA     BYTE      TL1
      00000098H.5 SFRSYM    DATA     BIT       SM2
      000000CCH   SFRSYM    DATA     BYTE      TL2
      000000A0H.7 SFRSYM    DATA     BIT       UV_St
      000000D0H.3 SFRSYM    DATA     BIT       RS0
      000000F8H.6 SFRSYM    DATA     BIT       APP_EN
      000000D0H.4 SFRSYM    DATA     BIT       RS1
      00000088H.4 SFRSYM    DATA     BIT       TR0
      00000088H.6 SFRSYM    DATA     BIT       TR1
      00000093H   SFRSYM    DATA     BYTE      DPC
      000000C8H.0 SFRSYM    DATA     BIT       TR2
      000000E5H   SFRSYM    DATA     BYTE      MAC_MODE
      00000083H   SFRSYM    DATA     BYTE      DPH
      00000082H   SFRSYM    DATA     BYTE      DPL
      00000099H   SFRSYM    DATA     BYTE      SBUF0
      0000009CH   SFRSYM    DATA     BYTE      SBUF1
      00000098H   SFRSYM    DATA     BYTE      SCON0
      0000009BH   SFRSYM    DATA     BYTE      SCON1
      000000D8H   SFRSYM    DATA     BYTE      ADCON
      000000C8H   SFRSYM    DATA     BYTE      T2CON
      000000E6H   SFRSYM    DATA     BYTE      DIV_MODE
      000000F8H.5 SFRSYM    DATA     BIT       APP_RW
      000000CBH   SFRSYM    DATA     BYTE      TRL2H
      0000009FH   SFRSYM    DATA     BYTE      SBUF2_RX
      000000ADH   SFRSYM    DATA     BYTE      SBUF3_RX
      0000008EH   SFRSYM    DATA     BYTE      CKCON
      0000009EH   SFRSYM    DATA     BYTE      SBUF2_TX
      000000ACH   SFRSYM    DATA     BYTE      SBUF3_TX
      000000CAH   SFRSYM    DATA     BYTE      TRL2L
      000000D0H.5 SFRSYM    DATA     BIT       F0
      000000FEH   SFRSYM    DATA     BYTE      EXADR
      000000D0H.1 SFRSYM    DATA     BIT       F1
      000000A0H.3 SFRSYM    DATA     BIT       LED_B
      000000D0H   SFRSYM    DATA     BYTE      PSW
      000000A0H.1 SFRSYM    DATA     BIT       LED_G
      000000C0H   SFRSYM    DATA     BYTE      IRCON
      00000098H.2 SFRSYM    DATA     BIT       RB80

      ---         MODULE    ---      ---       I2C
      0200A486H   PUBLIC    XDATA    WORD      SysTick_RTC
LX51 LINKER/LOCATER V4.66.93.0                                                        04/22/2025  16:54:45  PAGE 41


      0200A485H   PUBLIC    XDATA    BYTE      Select_rtc
      01001DA0H   PUBLIC    CODE     ---       Clock
      010011A2H   PUBLIC    CODE     ---       RTC_Set_Time
      01001AFBH   PUBLIC    CODE     ---       Init_Rtc
      010014AFH   PUBLIC    CODE     ---       Read_Time
      01001352H   PUBLIC    CODE     ---       _RTC_Get_Week
      0100002EH   PUBLIC    CODE     ---       Rx8130_Read_Byte
      010019A6H   PUBLIC    CODE     ---       _Rx8130_Writ_Byte
      01001CFEH   PUBLIC    CODE     ---       Rx8130_Cack
      01001E8FH   PUBLIC    CODE     ---       Rx8130_Mnak
      01000016H   PUBLIC    CODE     ---       Rx8130_Mack
      01001D30H   PUBLIC    CODE     ---       Rx8130_Stop
      01001DFEH   PUBLIC    CODE     ---       Rx8130_Start
      01000817H   PUBLIC    CODE     ---       RTC_SET_IN
      01000066H   PUBLIC    CODE     ---       SDA_OUT
      01000026H   PUBLIC    CODE     ---       SDA_IN
      01001DDAH   PUBLIC    CODE     ---       Delayus
      00000098H.3 SFRSYM    DATA     BIT       TB80
      000000F1H   SFRSYM    DATA     BYTE      ADR_H
      00000080H   SFRSYM    DATA     BYTE      P0
      00000090H   SFRSYM    DATA     BYTE      P1
      000000A0H   SFRSYM    DATA     BYTE      P2
      000000B0H   SFRSYM    DATA     BYTE      P3
      000000D0H.6 SFRSYM    DATA     BIT       AC
      000000F3H   SFRSYM    DATA     BYTE      ADR_L
      00000094H   SFRSYM    DATA     BYTE      PAGESEL
      000000F2H   SFRSYM    DATA     BYTE      ADR_M
      000000A8H.7 SFRSYM    DATA     BIT       EA
      000000A0H.5 SFRSYM    DATA     BIT       JIGUANG
      00000090H.7 SFRSYM    DATA     BIT       LED_R
      000000F8H   SFRSYM    DATA     BYTE      RAMMODE
      000000B7H   SFRSYM    DATA     BYTE      P0MDOUT
      000000A8H   SFRSYM    DATA     BYTE      IEN0
      000000BCH   SFRSYM    DATA     BYTE      P1MDOUT
      000000B8H   SFRSYM    DATA     BYTE      IEN1
      000000BDH   SFRSYM    DATA     BYTE      P2MDOUT
      000000F8H.0 SFRSYM    DATA     BIT       APP_DATA0
      0000009AH   SFRSYM    DATA     BYTE      IEN2
      000000BEH   SFRSYM    DATA     BYTE      P3MDOUT
      000000F8H.1 SFRSYM    DATA     BIT       APP_DATA1
      000000D1H   SFRSYM    DATA     BYTE      IEN3
      00000080H.0 SFRSYM    DATA     BIT       P0_0
      000000F8H.2 SFRSYM    DATA     BIT       APP_DATA2
      00000090H.0 SFRSYM    DATA     BIT       P1_0
      000000F8H.3 SFRSYM    DATA     BIT       APP_DATA3
      00000090H.1 SFRSYM    DATA     BIT       P1_1
      000000F8H.4 SFRSYM    DATA     BIT       APP_ACK
      000000F4H   SFRSYM    DATA     BYTE      ADR_INC
      000000B0H.1 SFRSYM    DATA     BIT       P3_1
      00000098H.4 SFRSYM    DATA     BIT       REN0
      000000B8H.1 SFRSYM    DATA     BIT       ECAN
      000000D0H.7 SFRSYM    DATA     BIT       CY
      000000B8H.3 SFRSYM    DATA     BIT       ES2R
      000000B8H.5 SFRSYM    DATA     BIT       ES3R
      000000B8H.2 SFRSYM    DATA     BIT       ES2T
      000000B8H.4 SFRSYM    DATA     BIT       ES3T
      000000C8H.7 SFRSYM    DATA     BIT       TSF2
      000000B0H.3 SFRSYM    DATA     BIT       RTC_SDA
      00000081H   SFRSYM    DATA     BYTE      SP
      000000D0H.2 SFRSYM    DATA     BIT       OV
      00000095H   SFRSYM    DATA     BYTE      D_PAGESEL
      00000090H.5 SFRSYM    DATA     BIT       UV
      000000F8H.7 SFRSYM    DATA     BIT       APP_REQ
      000000B0H.2 SFRSYM    DATA     BIT       RTC_SCL
      000000BFH   SFRSYM    DATA     BYTE      IRCON2
LX51 LINKER/LOCATER V4.66.93.0                                                        04/22/2025  16:54:45  PAGE 42


      000000BAH   SFRSYM    DATA     BYTE      SREL0H
      000000BBH   SFRSYM    DATA     BYTE      SREL1H
      00000087H   SFRSYM    DATA     BYTE      PCON
      000000AAH   SFRSYM    DATA     BYTE      SREL0L
      000000F9H   SFRSYM    DATA     BYTE      PORTDRV
      0000009DH   SFRSYM    DATA     BYTE      SREL1L
      00000089H   SFRSYM    DATA     BYTE      TMOD
      00000088H   SFRSYM    DATA     BYTE      TCON
      00000097H   SFRSYM    DATA     BYTE      SCON2R
      000000FFH   SFRSYM    DATA     BYTE      EXDATA
      000000ABH   SFRSYM    DATA     BYTE      SCON3R
      000000D9H   SFRSYM    DATA     BYTE      BODE2_DIV_H
      000000AEH   SFRSYM    DATA     BYTE      BODE3_DIV_H
      00000096H   SFRSYM    DATA     BYTE      SCON2T
      000000A7H   SFRSYM    DATA     BYTE      SCON3T
      000000E7H   SFRSYM    DATA     BYTE      BODE2_DIV_L
      00000088H.1 SFRSYM    DATA     BIT       IE0
      000000AFH   SFRSYM    DATA     BYTE      BODE3_DIV_L
      00000088H.3 SFRSYM    DATA     BIT       IE1
      000000C9H   SFRSYM    DATA     BYTE      MUX_SEL
      000000F0H   SFRSYM    DATA     BYTE      B
      000000E0H   SFRSYM    DATA     BYTE      ACC
      000000A8H.4 SFRSYM    DATA     BIT       ES0
      0000008FH   SFRSYM    DATA     BYTE      CAN_CR
      000000A8H.1 SFRSYM    DATA     BIT       ET0
      000000A9H   SFRSYM    DATA     BYTE      IP0
      000000A8H.3 SFRSYM    DATA     BIT       ET1
      00000088H.5 SFRSYM    DATA     BIT       TF0
      000000B9H   SFRSYM    DATA     BYTE      IP1
      000000A8H.5 SFRSYM    DATA     BIT       ET2
      00000098H.0 SFRSYM    DATA     BIT       RI0
      00000088H.7 SFRSYM    DATA     BIT       TF1
      000000FDH   SFRSYM    DATA     BYTE      DATA0
      000000C0H.6 SFRSYM    DATA     BIT       TF2
      000000E8H   SFRSYM    DATA     BYTE      CAN_ET
      000000FCH   SFRSYM    DATA     BYTE      DATA1
      0000008CH   SFRSYM    DATA     BYTE      TH0
      000000A8H.0 SFRSYM    DATA     BIT       EX0
      00000098H.1 SFRSYM    DATA     BIT       TI0
      00000088H.0 SFRSYM    DATA     BIT       IT0
      000000FBH   SFRSYM    DATA     BYTE      DATA2
      0000008DH   SFRSYM    DATA     BYTE      TH1
      000000A8H.2 SFRSYM    DATA     BIT       EX1
      00000091H   SFRSYM    DATA     BYTE      CAN_IR
      000000CDH   SFRSYM    DATA     BYTE      TH2
      00000088H.2 SFRSYM    DATA     BIT       IT1
      000000FAH   SFRSYM    DATA     BYTE      DATA3
      000000D0H.0 SFRSYM    DATA     BIT       P
      00000098H.7 SFRSYM    DATA     BIT       SM0
      0000008AH   SFRSYM    DATA     BYTE      TL0
      00000098H.6 SFRSYM    DATA     BIT       SM1
      0000008BH   SFRSYM    DATA     BYTE      TL1
      00000098H.5 SFRSYM    DATA     BIT       SM2
      000000CCH   SFRSYM    DATA     BYTE      TL2
      000000A0H.7 SFRSYM    DATA     BIT       UV_St
      000000D0H.3 SFRSYM    DATA     BIT       RS0
      000000F8H.6 SFRSYM    DATA     BIT       APP_EN
      000000D0H.4 SFRSYM    DATA     BIT       RS1
      00000088H.4 SFRSYM    DATA     BIT       TR0
      00000088H.6 SFRSYM    DATA     BIT       TR1
      00000093H   SFRSYM    DATA     BYTE      DPC
      000000C8H.0 SFRSYM    DATA     BIT       TR2
      000000E5H   SFRSYM    DATA     BYTE      MAC_MODE
      00000083H   SFRSYM    DATA     BYTE      DPH
      00000082H   SFRSYM    DATA     BYTE      DPL
LX51 LINKER/LOCATER V4.66.93.0                                                        04/22/2025  16:54:45  PAGE 43


      00000099H   SFRSYM    DATA     BYTE      SBUF0
      0000009CH   SFRSYM    DATA     BYTE      SBUF1
      00000098H   SFRSYM    DATA     BYTE      SCON0
      0000009BH   SFRSYM    DATA     BYTE      SCON1
      000000D8H   SFRSYM    DATA     BYTE      ADCON
      000000C8H   SFRSYM    DATA     BYTE      T2CON
      000000E6H   SFRSYM    DATA     BYTE      DIV_MODE
      000000F8H.5 SFRSYM    DATA     BIT       APP_RW
      000000CBH   SFRSYM    DATA     BYTE      TRL2H
      0000009FH   SFRSYM    DATA     BYTE      SBUF2_RX
      000000ADH   SFRSYM    DATA     BYTE      SBUF3_RX
      0000008EH   SFRSYM    DATA     BYTE      CKCON
      0000009EH   SFRSYM    DATA     BYTE      SBUF2_TX
      000000ACH   SFRSYM    DATA     BYTE      SBUF3_TX
      000000CAH   SFRSYM    DATA     BYTE      TRL2L
      000000D0H.5 SFRSYM    DATA     BIT       F0
      000000FEH   SFRSYM    DATA     BYTE      EXADR
      000000D0H.1 SFRSYM    DATA     BIT       F1
      000000A0H.3 SFRSYM    DATA     BIT       LED_B
      000000D0H   SFRSYM    DATA     BYTE      PSW
      000000A0H.1 SFRSYM    DATA     BIT       LED_G
      000000C0H   SFRSYM    DATA     BYTE      IRCON
      00000098H.2 SFRSYM    DATA     BIT       RB80
      01001F08H   SYMBOL    CONST    ---       _?ix1000
      01001F0EH   SYMBOL    CONST    ---       _?ix1001
      01001F16H   SYMBOL    CONST    ---       _?ix1002
      01001F18H   SYMBOL    CONST    ---       _?ix1003

      01001DD3H   BLOCK     CODE     ---       LVL=0
      ---         BLOCKEND  ---      ---       LVL=0

      01001DDAH   BLOCK     CODE     ---       LVL=0
      00000007H   SYMBOL    DATA     BYTE      i
      01001DDAH   BLOCK     CODE     NEAR LAB  LVL=1
      00000007H   SYMBOL    DATA     BYTE      i
      ---         BLOCKEND  ---      ---       LVL=1
      01001DDAH   LINE      CODE     ---       #24
      ---         BLOCKEND  ---      ---       LVL=0

      01000026H   BLOCK     CODE     ---       LVL=0
      01000026H   LINE      CODE     ---       #26
      ---         BLOCKEND  ---      ---       LVL=0

      01000066H   BLOCK     CODE     ---       LVL=0
      01000066H   LINE      CODE     ---       #28
      ---         BLOCKEND  ---      ---       LVL=0

      01000817H   BLOCK     CODE     ---       LVL=0
      01000817H   BLOCK     CODE     NEAR LAB  LVL=1
      0200A443H   SYMBOL    XDATA    ---       RTC_H
      0200A447H   SYMBOL    XDATA    ---       RTC_L
      0200A44BH   SYMBOL    XDATA    ---       RTC_6
      0200A47FH   SYMBOL    XDATA    ---       RTC_9C
      0200A451H   SYMBOL    XDATA    DWORD     RTC_H_HEX
      0200A481H   SYMBOL    XDATA    DWORD     RTC_L_HEX
      ---         BLOCKEND  ---      ---       LVL=1
      01000817H   LINE      CODE     ---       #36
      01000817H   LINE      CODE     ---       #37
      01000817H   LINE      CODE     ---       #43
      0100082AH   LINE      CODE     ---       #49
      01000840H   LINE      CODE     ---       #50
      01000856H   LINE      CODE     ---       #69
      010008CAH   LINE      CODE     ---       #70
      0100093EH   LINE      CODE     ---       #74
      0100095AH   LINE      CODE     ---       #75
LX51 LINKER/LOCATER V4.66.93.0                                                        04/22/2025  16:54:45  PAGE 44


      0100097FH   LINE      CODE     ---       #76
      010009A5H   LINE      CODE     ---       #77
      010009C1H   LINE      CODE     ---       #78
      010009E6H   LINE      CODE     ---       #79
      01000A0CH   LINE      CODE     ---       #82
      01000A22H   LINE      CODE     ---       #83
      01000A22H   LINE      CODE     ---       #84
      01000A36H   LINE      CODE     ---       #85
      01000A36H   LINE      CODE     ---       #86
      01000A48H   LINE      CODE     ---       #87
      01000A48H   LINE      CODE     ---       #88
      01000A5AH   LINE      CODE     ---       #89
      01000A5AH   LINE      CODE     ---       #90
      01000A6CH   LINE      CODE     ---       #91
      01000A6CH   LINE      CODE     ---       #92
      01000A71H   LINE      CODE     ---       #93
      01000A78H   LINE      CODE     ---       #94
      01000A7FH   LINE      CODE     ---       #95
      01000A81H   LINE      CODE     ---       #96
      01000A84H   LINE      CODE     ---       #97
      01000A86H   LINE      CODE     ---       #98
      01000A8CH   LINE      CODE     ---       #100
      01000AA2H   LINE      CODE     ---       #101
      01000AB8H   LINE      CODE     ---       #105
      ---         BLOCKEND  ---      ---       LVL=0

      01001DFEH   BLOCK     CODE     ---       LVL=0
      01001DFEH   LINE      CODE     ---       #109
      01001DFEH   LINE      CODE     ---       #110
      01001DFEH   LINE      CODE     ---       #111
      01001E01H   LINE      CODE     ---       #112
      01001E03H   LINE      CODE     ---       #113
      01001E05H   LINE      CODE     ---       #114
      01001E08H   LINE      CODE     ---       #115
      01001E0AH   LINE      CODE     ---       #116
      01001E0DH   LINE      CODE     ---       #117
      01001E0FH   LINE      CODE     ---       #118
      ---         BLOCKEND  ---      ---       LVL=0

      01001D21H   BLOCK     CODE     ---       LVL=0
      ---         BLOCKEND  ---      ---       LVL=0

      01001D30H   BLOCK     CODE     ---       LVL=0
      01001D30H   LINE      CODE     ---       #121
      01001D30H   LINE      CODE     ---       #122
      01001D30H   LINE      CODE     ---       #123
      01001D33H   LINE      CODE     ---       #124
      01001D35H   LINE      CODE     ---       #125
      01001D37H   LINE      CODE     ---       #126
      01001D3AH   LINE      CODE     ---       #127
      01001D3CH   LINE      CODE     ---       #128
      01001D3FH   LINE      CODE     ---       #129
      ---         BLOCKEND  ---      ---       LVL=0

      01000016H   BLOCK     CODE     ---       LVL=0
      01000016H   LINE      CODE     ---       #132
      01000016H   LINE      CODE     ---       #133
      01000016H   LINE      CODE     ---       #134
      01000019H   LINE      CODE     ---       #135
      0100001BH   LINE      CODE     ---       #136
      0100001BH   LINE      CODE     ---       #137
      0100001BH   LINE      CODE     ---       #138
      0100001EH   LINE      CODE     ---       #139
      01000020H   LINE      CODE     ---       #140
      ---         BLOCKEND  ---      ---       LVL=0
LX51 LINKER/LOCATER V4.66.93.0                                                        04/22/2025  16:54:45  PAGE 45



      01001E8FH   BLOCK     CODE     ---       LVL=0
      01001E8FH   LINE      CODE     ---       #143
      01001E8FH   LINE      CODE     ---       #144
      01001E8FH   LINE      CODE     ---       #145
      01001E92H   LINE      CODE     ---       #146
      01001E92H   LINE      CODE     ---       #147
      01001E92H   LINE      CODE     ---       #148
      01001E92H   LINE      CODE     ---       #149
      01001E95H   LINE      CODE     ---       #150
      01001E97H   LINE      CODE     ---       #151
      ---         BLOCKEND  ---      ---       LVL=0

      01001CFEH   BLOCK     CODE     ---       LVL=0
      01001CFEH   BLOCK     CODE     NEAR LAB  LVL=1
      00000006H   SYMBOL    DATA     BYTE      i
      ---         BLOCKEND  ---      ---       LVL=1
      01001CFEH   LINE      CODE     ---       #154
      01001CFEH   LINE      CODE     ---       #155
      01001CFEH   LINE      CODE     ---       #157
      01001D01H   LINE      CODE     ---       #158
      01001D01H   LINE      CODE     ---       #159
      01001D01H   LINE      CODE     ---       #160
      01001D01H   LINE      CODE     ---       #161
      01001D04H   LINE      CODE     ---       #162
      01001D10H   LINE      CODE     ---       #163
      01001D10H   LINE      CODE     ---       #164
      01001D13H   LINE      CODE     ---       #165
      01001D16H   LINE      CODE     ---       #166
      01001D19H   LINE      CODE     ---       #167
      01001D1BH   LINE      CODE     ---       #168
      01001D1EH   LINE      CODE     ---       #169
      ---         BLOCKEND  ---      ---       LVL=0

      01001968H   BLOCK     CODE     ---       LVL=0
      ---         BLOCKEND  ---      ---       LVL=0

      010019A6H   BLOCK     CODE     ---       LVL=0
      00000006H   SYMBOL    DATA     BYTE      dat
      00000005H   SYMBOL    DATA     BYTE      i
      010019A8H   BLOCK     CODE     NEAR LAB  LVL=1
      00000005H   SYMBOL    DATA     BYTE      i
      ---         BLOCKEND  ---      ---       LVL=1
      010019A6H   LINE      CODE     ---       #172
      010019A8H   LINE      CODE     ---       #173
      010019A8H   LINE      CODE     ---       #175
      010019ABH   LINE      CODE     ---       #176
      010019B7H   LINE      CODE     ---       #177
      010019B7H   LINE      CODE     ---       #178
      010019BFH   LINE      CODE     ---       #179
      010019C1H   LINE      CODE     ---       #180
      010019C5H   LINE      CODE     ---       #181
      010019C5H   LINE      CODE     ---       #182
      010019C5H   LINE      CODE     ---       #183
      010019C8H   LINE      CODE     ---       #184
      010019CAH   LINE      CODE     ---       #185
      010019CDH   LINE      CODE     ---       #186
      010019D0H   LINE      CODE     ---       #187
      ---         BLOCKEND  ---      ---       LVL=0

      0100002EH   BLOCK     CODE     ---       LVL=0
      0100002EH   BLOCK     CODE     NEAR LAB  LVL=1
      00000005H   SYMBOL    DATA     BYTE      i
      00000006H   SYMBOL    DATA     BYTE      Dat
      ---         BLOCKEND  ---      ---       LVL=1
LX51 LINKER/LOCATER V4.66.93.0                                                        04/22/2025  16:54:45  PAGE 46


      0100002EH   LINE      CODE     ---       #190
      0100002EH   LINE      CODE     ---       #191
      0100002EH   LINE      CODE     ---       #194
      01000031H   LINE      CODE     ---       #195
      0100003DH   LINE      CODE     ---       #196
      0100003DH   LINE      CODE     ---       #197
      0100003DH   LINE      CODE     ---       #198
      0100003DH   LINE      CODE     ---       #199
      01000040H   LINE      CODE     ---       #200
      01000044H   LINE      CODE     ---       #201
      0100004CH   LINE      CODE     ---       #202
      01000050H   LINE      CODE     ---       #203
      01000052H   LINE      CODE     ---       #204
      01000055H   LINE      CODE     ---       #205
      01000058H   LINE      CODE     ---       #206
      0100005AH   LINE      CODE     ---       #207
      ---         BLOCKEND  ---      ---       LVL=0

      01001352H   BLOCK     CODE     ---       LVL=0
      00000007H   SYMBOL    DATA     BYTE      years
      0200A437H   SYMBOL    XDATA    BYTE      month
      0200A438H   SYMBOL    XDATA    BYTE      day
      0100135CH   BLOCK     CODE     NEAR LAB  LVL=1
      0200A439H   SYMBOL    XDATA    BYTE      weak
      0200A43AH   SYMBOL    XDATA    WORD      year
      ---         BLOCKEND  ---      ---       LVL=1
      01001352H   LINE      CODE     ---       #209
      0100135CH   LINE      CODE     ---       #210
      0100135CH   LINE      CODE     ---       #213
      0100136AH   LINE      CODE     ---       #214
      01001375H   LINE      CODE     ---       #215
      01001375H   LINE      CODE     ---       #216
      0100138AH   LINE      CODE     ---       #217
      0100138AH   LINE      CODE     ---       #218
      010013CEH   LINE      CODE     ---       #219
      010013CEH   LINE      CODE     ---       #220
      0100141EH   LINE      CODE     ---       #221
      01001420H   LINE      CODE     ---       #223
      01001420H   LINE      CODE     ---       #224
      010014A9H   LINE      CODE     ---       #225
      010014A9H   LINE      CODE     ---       #226
      010014AEH   LINE      CODE     ---       #227
      ---         BLOCKEND  ---      ---       LVL=0

      010014AFH   BLOCK     CODE     ---       LVL=0
      010014AFH   BLOCK     CODE     NEAR LAB  LVL=1
      00000004H   SYMBOL    DATA     BYTE      i
      0200A42DH   SYMBOL    XDATA    BYTE      N
      0200A42EH   SYMBOL    XDATA    BYTE      M
      0200A42FH   SYMBOL    XDATA    ---       Rtcdata
      ---         BLOCKEND  ---      ---       LVL=1
      010014AFH   LINE      CODE     ---       #229
      010014AFH   LINE      CODE     ---       #230
      010014AFH   LINE      CODE     ---       #232
      010014C2H   LINE      CODE     ---       #233
      010014C2H   LINE      CODE     ---       #234
      010014C5H   LINE      CODE     ---       #235
      010014C5H   LINE      CODE     ---       #236
      010014C8H   LINE      CODE     ---       #237
      010014CBH   LINE      CODE     ---       #238
      010014D0H   LINE      CODE     ---       #239
      010014DCH   LINE      CODE     ---       #240
      010014DCH   LINE      CODE     ---       #241
      010014EBH   LINE      CODE     ---       #242
      010014EEH   LINE      CODE     ---       #243
LX51 LINKER/LOCATER V4.66.93.0                                                        04/22/2025  16:54:45  PAGE 47


      010014F1H   LINE      CODE     ---       #244
      010014FCH   LINE      CODE     ---       #245
      010014FFH   LINE      CODE     ---       #246
      0100150BH   LINE      CODE     ---       #247
      0100150BH   LINE      CODE     ---       #248
      0100151FH   LINE      CODE     ---       #249
      01001525H   LINE      CODE     ---       #250
      01001538H   LINE      CODE     ---       #251
      0100153BH   LINE      CODE     ---       #252
      01001547H   LINE      CODE     ---       #253
      01001547H   LINE      CODE     ---       #254
      0100155BH   LINE      CODE     ---       #255
      01001561H   LINE      CODE     ---       #256
      01001574H   LINE      CODE     ---       #257
      01001577H   LINE      CODE     ---       #258
      0100158AH   LINE      CODE     ---       #259
      010015A0H   LINE      CODE     ---       #260
      010015B6H   LINE      CODE     ---       #261
      010015CCH   LINE      CODE     ---       #262
      ---         BLOCKEND  ---      ---       LVL=0

      01001AFBH   BLOCK     CODE     ---       LVL=0
      01001AFBH   BLOCK     CODE     NEAR LAB  LVL=1
      00000004H   SYMBOL    DATA     BYTE      i
      ---         BLOCKEND  ---      ---       LVL=1
      01001AFBH   LINE      CODE     ---       #265
      01001AFBH   LINE      CODE     ---       #266
      01001AFBH   LINE      CODE     ---       #268
      01001AFBH   LINE      CODE     ---       #269
      01001AFEH   LINE      CODE     ---       #270
      01001B03H   LINE      CODE     ---       #271
      01001B06H   LINE      CODE     ---       #272
      01001B09H   LINE      CODE     ---       #273
      01001B0EH   LINE      CODE     ---       #274
      01001B13H   LINE      CODE     ---       #275
      01001B16H   LINE      CODE     ---       #276
      01001B19H   LINE      CODE     ---       #277
      01001B1CH   LINE      CODE     ---       #278
      01001B1FH   LINE      CODE     ---       #279
      01001B26H   LINE      CODE     ---       #280
      01001B26H   LINE      CODE     ---       #282
      01001B26H   LINE      CODE     ---       #283
      01001B26H   LINE      CODE     ---       #284
      01001B26H   LINE      CODE     ---       #285
      01001B26H   LINE      CODE     ---       #286
      01001B26H   LINE      CODE     ---       #287
      01001B26H   LINE      CODE     ---       #288
      01001B26H   LINE      CODE     ---       #289
      01001B26H   LINE      CODE     ---       #290
      01001B26H   LINE      CODE     ---       #291
      01001B26H   LINE      CODE     ---       #292
      01001B26H   LINE      CODE     ---       #293
      01001B26H   LINE      CODE     ---       #294
      01001B26H   LINE      CODE     ---       #295
      01001B26H   LINE      CODE     ---       #296
      01001B29H   LINE      CODE     ---       #297
      01001B2EH   LINE      CODE     ---       #298
      01001B33H   LINE      CODE     ---       #299
      01001B38H   LINE      CODE     ---       #300
      01001B3DH   LINE      CODE     ---       #301
      01001B42H   LINE      CODE     ---       #302
      01001B47H   LINE      CODE     ---       #303
      01001B4CH   LINE      CODE     ---       #304
      01001B4EH   LINE      CODE     ---       #305
      01001B4EH   LINE      CODE     ---       #306
LX51 LINKER/LOCATER V4.66.93.0                                                        04/22/2025  16:54:45  PAGE 48


      01001B4EH   LINE      CODE     ---       #307
      01001B51H   LINE      CODE     ---       #308
      01001B51H   LINE      CODE     ---       #309
      01001B51H   LINE      CODE     ---       #310
      01001B51H   LINE      CODE     ---       #311
      01001B54H   LINE      CODE     ---       #312
      01001B54H   LINE      CODE     ---       #313
      ---         BLOCKEND  ---      ---       LVL=0

      010011A2H   BLOCK     CODE     ---       LVL=0
      010011A2H   BLOCK     CODE     NEAR LAB  LVL=1
      0200A455H   SYMBOL    XDATA    WORD      Va
      0200A457H   SYMBOL    XDATA    ---       zero
      010011DCH   BLOCK     CODE     NEAR LAB  LVL=2
      0200A459H   SYMBOL    XDATA    BYTE      N
      0200A45AH   SYMBOL    XDATA    BYTE      S
      00000020H.0 SYMBOL    BIT      BIT       Flog
      0200A45BH   SYMBOL    XDATA    ---       TimeS
      0200A462H   SYMBOL    XDATA    WORD      V1
      ---         BLOCKEND  ---      ---       LVL=2
      ---         BLOCKEND  ---      ---       LVL=1
      010011A2H   LINE      CODE     ---       #315
      010011A2H   LINE      CODE     ---       #316
      010011A2H   LINE      CODE     ---       #320
      010011B5H   LINE      CODE     ---       #321
      010011CBH   LINE      CODE     ---       #322
      010011DCH   LINE      CODE     ---       #323
      010011DCH   LINE      CODE     ---       #324
      010011E2H   LINE      CODE     ---       #325
      010011E4H   LINE      CODE     ---       #326
      010011F6H   LINE      CODE     ---       #328
      0100120CH   LINE      CODE     ---       #329
      0100122FH   LINE      CODE     ---       #330
      0100124AH   LINE      CODE     ---       #331
      01001260H   LINE      CODE     ---       #332
      01001283H   LINE      CODE     ---       #333
      0100129EH   LINE      CODE     ---       #334
      010012B4H   LINE      CODE     ---       #335
      010012D7H   LINE      CODE     ---       #336
      010012F2H   LINE      CODE     ---       #339
      01001307H   LINE      CODE     ---       #340
      0100130AH   LINE      CODE     ---       #341
      0100130AH   LINE      CODE     ---       #342
      0100130AH   LINE      CODE     ---       #343
      0100130AH   LINE      CODE     ---       #344
      0100130AH   LINE      CODE     ---       #345
      0100130AH   LINE      CODE     ---       #346
      0100130AH   LINE      CODE     ---       #347
      0100130AH   LINE      CODE     ---       #348
      0100130AH   LINE      CODE     ---       #349
      0100130AH   LINE      CODE     ---       #350
      0100130AH   LINE      CODE     ---       #351
      0100130AH   LINE      CODE     ---       #352
      0100130AH   LINE      CODE     ---       #353
      0100130AH   LINE      CODE     ---       #354
      0100130AH   LINE      CODE     ---       #355
      0100130AH   LINE      CODE     ---       #356
      0100130DH   LINE      CODE     ---       #357
      01001312H   LINE      CODE     ---       #358
      0100131AH   LINE      CODE     ---       #359
      01001322H   LINE      CODE     ---       #360
      0100132AH   LINE      CODE     ---       #361
      01001332H   LINE      CODE     ---       #362
      0100133AH   LINE      CODE     ---       #363
      01001342H   LINE      CODE     ---       #364
LX51 LINKER/LOCATER V4.66.93.0                                                        04/22/2025  16:54:45  PAGE 49


      01001347H   LINE      CODE     ---       #365
      01001347H   LINE      CODE     ---       #366
      01001347H   LINE      CODE     ---       #367
      0100134AH   LINE      CODE     ---       #368
      0100134AH   LINE      CODE     ---       #369
      0100134AH   LINE      CODE     ---       #370
      0100134AH   LINE      CODE     ---       #371
      0100134DH   LINE      CODE     ---       #372
      0100134FH   LINE      CODE     ---       #373
      01001351H   LINE      CODE     ---       #374
      01001351H   LINE      CODE     ---       #375
      ---         BLOCKEND  ---      ---       LVL=0

      01001DA0H   BLOCK     CODE     ---       LVL=0
      01001DA0H   LINE      CODE     ---       #393
      01001DA0H   LINE      CODE     ---       #394
      01001DA0H   LINE      CODE     ---       #396
      01001DAFH   LINE      CODE     ---       #397
      01001DAFH   LINE      CODE     ---       #398
      01001DB2H   LINE      CODE     ---       #399
      01001DB9H   LINE      CODE     ---       #400
      01001DB9H   LINE      CODE     ---       #402
      ---         BLOCKEND  ---      ---       LVL=0

      ---         MODULE    ---      ---       TOF
      0200A47DH   PUBLIC    XDATA    WORD      L_int
      0200A46DH   PUBLIC    XDATA    ---       GY53_Data
      0200A46CH   PUBLIC    XDATA    BYTE      MODE
      010016C1H   PUBLIC    CODE     ---       UART5_isr
      00000098H.3 SFRSYM    DATA     BIT       TB80
      000000F1H   SFRSYM    DATA     BYTE      ADR_H
      00000080H   SFRSYM    DATA     BYTE      P0
      00000090H   SFRSYM    DATA     BYTE      P1
      000000A0H   SFRSYM    DATA     BYTE      P2
      000000B0H   SFRSYM    DATA     BYTE      P3
      000000D0H.6 SFRSYM    DATA     BIT       AC
      000000F3H   SFRSYM    DATA     BYTE      ADR_L
      00000094H   SFRSYM    DATA     BYTE      PAGESEL
      000000F2H   SFRSYM    DATA     BYTE      ADR_M
      000000A8H.7 SFRSYM    DATA     BIT       EA
      000000A0H.5 SFRSYM    DATA     BIT       JIGUANG
      00000090H.7 SFRSYM    DATA     BIT       LED_R
      000000F8H   SFRSYM    DATA     BYTE      RAMMODE
      000000B7H   SFRSYM    DATA     BYTE      P0MDOUT
      000000A8H   SFRSYM    DATA     BYTE      IEN0
      000000BCH   SFRSYM    DATA     BYTE      P1MDOUT
      000000B8H   SFRSYM    DATA     BYTE      IEN1
      000000BDH   SFRSYM    DATA     BYTE      P2MDOUT
      000000F8H.0 SFRSYM    DATA     BIT       APP_DATA0
      0000009AH   SFRSYM    DATA     BYTE      IEN2
      000000BEH   SFRSYM    DATA     BYTE      P3MDOUT
      000000F8H.1 SFRSYM    DATA     BIT       APP_DATA1
      000000D1H   SFRSYM    DATA     BYTE      IEN3
      00000080H.0 SFRSYM    DATA     BIT       P0_0
      000000F8H.2 SFRSYM    DATA     BIT       APP_DATA2
      00000090H.0 SFRSYM    DATA     BIT       P1_0
      000000F8H.3 SFRSYM    DATA     BIT       APP_DATA3
      00000090H.1 SFRSYM    DATA     BIT       P1_1
      000000F8H.4 SFRSYM    DATA     BIT       APP_ACK
      000000F4H   SFRSYM    DATA     BYTE      ADR_INC
      000000B0H.1 SFRSYM    DATA     BIT       P3_1
      00000098H.4 SFRSYM    DATA     BIT       REN0
      000000B8H.1 SFRSYM    DATA     BIT       ECAN
      000000D0H.7 SFRSYM    DATA     BIT       CY
      000000B8H.3 SFRSYM    DATA     BIT       ES2R
LX51 LINKER/LOCATER V4.66.93.0                                                        04/22/2025  16:54:45  PAGE 50


      000000B8H.5 SFRSYM    DATA     BIT       ES3R
      000000B8H.2 SFRSYM    DATA     BIT       ES2T
      000000B8H.4 SFRSYM    DATA     BIT       ES3T
      000000C8H.7 SFRSYM    DATA     BIT       TSF2
      000000B0H.3 SFRSYM    DATA     BIT       RTC_SDA
      00000081H   SFRSYM    DATA     BYTE      SP
      000000D0H.2 SFRSYM    DATA     BIT       OV
      00000095H   SFRSYM    DATA     BYTE      D_PAGESEL
      00000090H.5 SFRSYM    DATA     BIT       UV
      000000F8H.7 SFRSYM    DATA     BIT       APP_REQ
      000000B0H.2 SFRSYM    DATA     BIT       RTC_SCL
      000000BFH   SFRSYM    DATA     BYTE      IRCON2
      000000BAH   SFRSYM    DATA     BYTE      SREL0H
      000000BBH   SFRSYM    DATA     BYTE      SREL1H
      00000087H   SFRSYM    DATA     BYTE      PCON
      000000AAH   SFRSYM    DATA     BYTE      SREL0L
      000000F9H   SFRSYM    DATA     BYTE      PORTDRV
      0000009DH   SFRSYM    DATA     BYTE      SREL1L
      00000089H   SFRSYM    DATA     BYTE      TMOD
      00000088H   SFRSYM    DATA     BYTE      TCON
      00000097H   SFRSYM    DATA     BYTE      SCON2R
      000000FFH   SFRSYM    DATA     BYTE      EXDATA
      000000ABH   SFRSYM    DATA     BYTE      SCON3R
      000000D9H   SFRSYM    DATA     BYTE      BODE2_DIV_H
      000000AEH   SFRSYM    DATA     BYTE      BODE3_DIV_H
      00000096H   SFRSYM    DATA     BYTE      SCON2T
      000000A7H   SFRSYM    DATA     BYTE      SCON3T
      000000E7H   SFRSYM    DATA     BYTE      BODE2_DIV_L
      00000088H.1 SFRSYM    DATA     BIT       IE0
      000000AFH   SFRSYM    DATA     BYTE      BODE3_DIV_L
      00000088H.3 SFRSYM    DATA     BIT       IE1
      000000C9H   SFRSYM    DATA     BYTE      MUX_SEL
      000000F0H   SFRSYM    DATA     BYTE      B
      000000E0H   SFRSYM    DATA     BYTE      ACC
      000000A8H.4 SFRSYM    DATA     BIT       ES0
      0000008FH   SFRSYM    DATA     BYTE      CAN_CR
      000000A8H.1 SFRSYM    DATA     BIT       ET0
      000000A9H   SFRSYM    DATA     BYTE      IP0
      000000A8H.3 SFRSYM    DATA     BIT       ET1
      00000088H.5 SFRSYM    DATA     BIT       TF0
      000000B9H   SFRSYM    DATA     BYTE      IP1
      000000A8H.5 SFRSYM    DATA     BIT       ET2
      00000098H.0 SFRSYM    DATA     BIT       RI0
      00000088H.7 SFRSYM    DATA     BIT       TF1
      000000FDH   SFRSYM    DATA     BYTE      DATA0
      000000C0H.6 SFRSYM    DATA     BIT       TF2
      000000E8H   SFRSYM    DATA     BYTE      CAN_ET
      000000FCH   SFRSYM    DATA     BYTE      DATA1
      0000008CH   SFRSYM    DATA     BYTE      TH0
      000000A8H.0 SFRSYM    DATA     BIT       EX0
      00000098H.1 SFRSYM    DATA     BIT       TI0
      00000088H.0 SFRSYM    DATA     BIT       IT0
      000000FBH   SFRSYM    DATA     BYTE      DATA2
      0000008DH   SFRSYM    DATA     BYTE      TH1
      000000A8H.2 SFRSYM    DATA     BIT       EX1
      00000091H   SFRSYM    DATA     BYTE      CAN_IR
      000000CDH   SFRSYM    DATA     BYTE      TH2
      00000088H.2 SFRSYM    DATA     BIT       IT1
      000000FAH   SFRSYM    DATA     BYTE      DATA3
      000000D0H.0 SFRSYM    DATA     BIT       P
      00000098H.7 SFRSYM    DATA     BIT       SM0
      0000008AH   SFRSYM    DATA     BYTE      TL0
      00000098H.6 SFRSYM    DATA     BIT       SM1
      0000008BH   SFRSYM    DATA     BYTE      TL1
      00000098H.5 SFRSYM    DATA     BIT       SM2
LX51 LINKER/LOCATER V4.66.93.0                                                        04/22/2025  16:54:45  PAGE 51


      000000CCH   SFRSYM    DATA     BYTE      TL2
      000000A0H.7 SFRSYM    DATA     BIT       UV_St
      000000D0H.3 SFRSYM    DATA     BIT       RS0
      000000F8H.6 SFRSYM    DATA     BIT       APP_EN
      000000D0H.4 SFRSYM    DATA     BIT       RS1
      00000088H.4 SFRSYM    DATA     BIT       TR0
      00000088H.6 SFRSYM    DATA     BIT       TR1
      00000093H   SFRSYM    DATA     BYTE      DPC
      000000C8H.0 SFRSYM    DATA     BIT       TR2
      000000E5H   SFRSYM    DATA     BYTE      MAC_MODE
      00000083H   SFRSYM    DATA     BYTE      DPH
      00000082H   SFRSYM    DATA     BYTE      DPL
      00000099H   SFRSYM    DATA     BYTE      SBUF0
      0000009CH   SFRSYM    DATA     BYTE      SBUF1
      00000098H   SFRSYM    DATA     BYTE      SCON0
      0000009BH   SFRSYM    DATA     BYTE      SCON1
      000000D8H   SFRSYM    DATA     BYTE      ADCON
      000000C8H   SFRSYM    DATA     BYTE      T2CON
      000000E6H   SFRSYM    DATA     BYTE      DIV_MODE
      000000F8H.5 SFRSYM    DATA     BIT       APP_RW
      000000CBH   SFRSYM    DATA     BYTE      TRL2H
      0000009FH   SFRSYM    DATA     BYTE      SBUF2_RX
      000000ADH   SFRSYM    DATA     BYTE      SBUF3_RX
      0000008EH   SFRSYM    DATA     BYTE      CKCON
      0000009EH   SFRSYM    DATA     BYTE      SBUF2_TX
      000000ACH   SFRSYM    DATA     BYTE      SBUF3_TX
      000000CAH   SFRSYM    DATA     BYTE      TRL2L
      000000D0H.5 SFRSYM    DATA     BIT       F0
      000000FEH   SFRSYM    DATA     BYTE      EXADR
      000000D0H.1 SFRSYM    DATA     BIT       F1
      000000A0H.3 SFRSYM    DATA     BIT       LED_B
      000000D0H   SFRSYM    DATA     BYTE      PSW
      000000A0H.1 SFRSYM    DATA     BIT       LED_G
      000000C0H   SFRSYM    DATA     BYTE      IRCON
      00000098H.2 SFRSYM    DATA     BIT       RB80

      010016C1H   BLOCK     CODE     ---       LVL=0
      010016C1H   BLOCK     CODE     NEAR LAB  LVL=1
      00000007H   SYMBOL    DATA     BYTE      DATA15
      0200A46BH   SYMBOL    XDATA    BYTE      UART5_FLAG
      00000006H   SYMBOL    DATA     BYTE      Dat
      ---         BLOCKEND  ---      ---       LVL=1
      010016C1H   LINE      CODE     ---       #15
      010016C1H   LINE      CODE     ---       #16
      010016C1H   LINE      CODE     ---       #17
      010016C1H   LINE      CODE     ---       #20
      010016C3H   LINE      CODE     ---       #24
      010016CEH   LINE      CODE     ---       #25
      010016CEH   LINE      CODE     ---       #26
      010016CEH   LINE      CODE     ---       #27
      010016CEH   LINE      CODE     ---       #28
      010016D6H   LINE      CODE     ---       #29
      010016D6H   LINE      CODE     ---       #30
      010016E2H   LINE      CODE     ---       #31
      010016E8H   LINE      CODE     ---       #32
      010016E8H   LINE      CODE     ---       #33
      010016E9H   LINE      CODE     ---       #34
      010016E9H   LINE      CODE     ---       #35
      010016E9H   LINE      CODE     ---       #36
      010016E9H   LINE      CODE     ---       #37
      010016ECH   LINE      CODE     ---       #38
      010016ECH   LINE      CODE     ---       #39
      010016FBH   LINE      CODE     ---       #40
      01001701H   LINE      CODE     ---       #41
      01001702H   LINE      CODE     ---       #43
LX51 LINKER/LOCATER V4.66.93.0                                                        04/22/2025  16:54:45  PAGE 52


      01001702H   LINE      CODE     ---       #44
      01001707H   LINE      CODE     ---       #45
      01001707H   LINE      CODE     ---       #46
      01001708H   LINE      CODE     ---       #47
      01001708H   LINE      CODE     ---       #48
      01001708H   LINE      CODE     ---       #49
      01001708H   LINE      CODE     ---       #50
      01001717H   LINE      CODE     ---       #51
      0100171DH   LINE      CODE     ---       #52
      01001727H   LINE      CODE     ---       #53
      01001727H   LINE      CODE     ---       #55
      01001729H   LINE      CODE     ---       #56
      0100176CH   LINE      CODE     ---       #59
      01001771H   LINE      CODE     ---       #60
      01001771H   LINE      CODE     ---       #64
      01001774H   LINE      CODE     ---       #65
      01001774H   LINE      CODE     ---       #67
      0100179EH   LINE      CODE     ---       #77
      0100179EH   LINE      CODE     ---       #85
      0100179EH   LINE      CODE     ---       #86
      0100179EH   LINE      CODE     ---       #87
      0100179EH   LINE      CODE     ---       #88
      0100179EH   LINE      CODE     ---       #89
      0100179EH   LINE      CODE     ---       #90
      ---         BLOCKEND  ---      ---       LVL=0

      ---         MODULE    ---      ---       QRJ
      0100006AH   PUBLIC    CODE     ---       QRJ_prepare
      01000062H   PUBLIC    CODE     ---       QRJ_Init
      01000061H   PUBLIC    CODE     ---       QRJ_run
      00000098H.3 SFRSYM    DATA     BIT       TB80
      000000F1H   SFRSYM    DATA     BYTE      ADR_H
      00000080H   SFRSYM    DATA     BYTE      P0
      00000090H   SFRSYM    DATA     BYTE      P1
      000000A0H   SFRSYM    DATA     BYTE      P2
      000000B0H   SFRSYM    DATA     BYTE      P3
      000000D0H.6 SFRSYM    DATA     BIT       AC
      000000F3H   SFRSYM    DATA     BYTE      ADR_L
      00000094H   SFRSYM    DATA     BYTE      PAGESEL
      000000F2H   SFRSYM    DATA     BYTE      ADR_M
      000000A8H.7 SFRSYM    DATA     BIT       EA
      000000A0H.5 SFRSYM    DATA     BIT       JIGUANG
      00000090H.7 SFRSYM    DATA     BIT       LED_R
      000000F8H   SFRSYM    DATA     BYTE      RAMMODE
      000000B7H   SFRSYM    DATA     BYTE      P0MDOUT
      000000A8H   SFRSYM    DATA     BYTE      IEN0
      000000BCH   SFRSYM    DATA     BYTE      P1MDOUT
      000000B8H   SFRSYM    DATA     BYTE      IEN1
      000000BDH   SFRSYM    DATA     BYTE      P2MDOUT
      000000F8H.0 SFRSYM    DATA     BIT       APP_DATA0
      0000009AH   SFRSYM    DATA     BYTE      IEN2
      000000BEH   SFRSYM    DATA     BYTE      P3MDOUT
      000000F8H.1 SFRSYM    DATA     BIT       APP_DATA1
      000000D1H   SFRSYM    DATA     BYTE      IEN3
      00000080H.0 SFRSYM    DATA     BIT       P0_0
      000000F8H.2 SFRSYM    DATA     BIT       APP_DATA2
      00000090H.0 SFRSYM    DATA     BIT       P1_0
      000000F8H.3 SFRSYM    DATA     BIT       APP_DATA3
      00000090H.1 SFRSYM    DATA     BIT       P1_1
      000000F8H.4 SFRSYM    DATA     BIT       APP_ACK
      000000F4H   SFRSYM    DATA     BYTE      ADR_INC
      000000B0H.1 SFRSYM    DATA     BIT       P3_1
      00000098H.4 SFRSYM    DATA     BIT       REN0
      000000B8H.1 SFRSYM    DATA     BIT       ECAN
      000000D0H.7 SFRSYM    DATA     BIT       CY
LX51 LINKER/LOCATER V4.66.93.0                                                        04/22/2025  16:54:45  PAGE 53


      000000B8H.3 SFRSYM    DATA     BIT       ES2R
      000000B8H.5 SFRSYM    DATA     BIT       ES3R
      000000B8H.2 SFRSYM    DATA     BIT       ES2T
      000000B8H.4 SFRSYM    DATA     BIT       ES3T
      000000C8H.7 SFRSYM    DATA     BIT       TSF2
      000000B0H.3 SFRSYM    DATA     BIT       RTC_SDA
      00000081H   SFRSYM    DATA     BYTE      SP
      000000D0H.2 SFRSYM    DATA     BIT       OV
      00000095H   SFRSYM    DATA     BYTE      D_PAGESEL
      00000090H.5 SFRSYM    DATA     BIT       UV
      000000F8H.7 SFRSYM    DATA     BIT       APP_REQ
      000000B0H.2 SFRSYM    DATA     BIT       RTC_SCL
      000000BFH   SFRSYM    DATA     BYTE      IRCON2
      000000BAH   SFRSYM    DATA     BYTE      SREL0H
      000000BBH   SFRSYM    DATA     BYTE      SREL1H
      00000087H   SFRSYM    DATA     BYTE      PCON
      000000AAH   SFRSYM    DATA     BYTE      SREL0L
      000000F9H   SFRSYM    DATA     BYTE      PORTDRV
      0000009DH   SFRSYM    DATA     BYTE      SREL1L
      00000089H   SFRSYM    DATA     BYTE      TMOD
      00000088H   SFRSYM    DATA     BYTE      TCON
      00000097H   SFRSYM    DATA     BYTE      SCON2R
      000000FFH   SFRSYM    DATA     BYTE      EXDATA
      000000ABH   SFRSYM    DATA     BYTE      SCON3R
      000000D9H   SFRSYM    DATA     BYTE      BODE2_DIV_H
      000000AEH   SFRSYM    DATA     BYTE      BODE3_DIV_H
      00000096H   SFRSYM    DATA     BYTE      SCON2T
      000000A7H   SFRSYM    DATA     BYTE      SCON3T
      000000E7H   SFRSYM    DATA     BYTE      BODE2_DIV_L
      00000088H.1 SFRSYM    DATA     BIT       IE0
      000000AFH   SFRSYM    DATA     BYTE      BODE3_DIV_L
      00000088H.3 SFRSYM    DATA     BIT       IE1
      000000C9H   SFRSYM    DATA     BYTE      MUX_SEL
      000000F0H   SFRSYM    DATA     BYTE      B
      000000E0H   SFRSYM    DATA     BYTE      ACC
      000000A8H.4 SFRSYM    DATA     BIT       ES0
      0000008FH   SFRSYM    DATA     BYTE      CAN_CR
      000000A8H.1 SFRSYM    DATA     BIT       ET0
      000000A9H   SFRSYM    DATA     BYTE      IP0
      000000A8H.3 SFRSYM    DATA     BIT       ET1
      00000088H.5 SFRSYM    DATA     BIT       TF0
      000000B9H   SFRSYM    DATA     BYTE      IP1
      000000A8H.5 SFRSYM    DATA     BIT       ET2
      00000098H.0 SFRSYM    DATA     BIT       RI0
      00000088H.7 SFRSYM    DATA     BIT       TF1
      000000FDH   SFRSYM    DATA     BYTE      DATA0
      000000C0H.6 SFRSYM    DATA     BIT       TF2
      000000E8H   SFRSYM    DATA     BYTE      CAN_ET
      000000FCH   SFRSYM    DATA     BYTE      DATA1
      0000008CH   SFRSYM    DATA     BYTE      TH0
      000000A8H.0 SFRSYM    DATA     BIT       EX0
      00000098H.1 SFRSYM    DATA     BIT       TI0
      00000088H.0 SFRSYM    DATA     BIT       IT0
      000000FBH   SFRSYM    DATA     BYTE      DATA2
      0000008DH   SFRSYM    DATA     BYTE      TH1
      000000A8H.2 SFRSYM    DATA     BIT       EX1
      00000091H   SFRSYM    DATA     BYTE      CAN_IR
      000000CDH   SFRSYM    DATA     BYTE      TH2
      00000088H.2 SFRSYM    DATA     BIT       IT1
      000000FAH   SFRSYM    DATA     BYTE      DATA3
      000000D0H.0 SFRSYM    DATA     BIT       P
      00000098H.7 SFRSYM    DATA     BIT       SM0
      0000008AH   SFRSYM    DATA     BYTE      TL0
      00000098H.6 SFRSYM    DATA     BIT       SM1
      0000008BH   SFRSYM    DATA     BYTE      TL1
LX51 LINKER/LOCATER V4.66.93.0                                                        04/22/2025  16:54:45  PAGE 54


      00000098H.5 SFRSYM    DATA     BIT       SM2
      000000CCH   SFRSYM    DATA     BYTE      TL2
      000000A0H.7 SFRSYM    DATA     BIT       UV_St
      000000D0H.3 SFRSYM    DATA     BIT       RS0
      000000F8H.6 SFRSYM    DATA     BIT       APP_EN
      000000D0H.4 SFRSYM    DATA     BIT       RS1
      00000088H.4 SFRSYM    DATA     BIT       TR0
      00000088H.6 SFRSYM    DATA     BIT       TR1
      00000093H   SFRSYM    DATA     BYTE      DPC
      000000C8H.0 SFRSYM    DATA     BIT       TR2
      000000E5H   SFRSYM    DATA     BYTE      MAC_MODE
      00000083H   SFRSYM    DATA     BYTE      DPH
      00000082H   SFRSYM    DATA     BYTE      DPL
      00000099H   SFRSYM    DATA     BYTE      SBUF0
      0000009CH   SFRSYM    DATA     BYTE      SBUF1
      00000098H   SFRSYM    DATA     BYTE      SCON0
      0000009BH   SFRSYM    DATA     BYTE      SCON1
      000000D8H   SFRSYM    DATA     BYTE      ADCON
      000000C8H   SFRSYM    DATA     BYTE      T2CON
      000000E6H   SFRSYM    DATA     BYTE      DIV_MODE
      000000F8H.5 SFRSYM    DATA     BIT       APP_RW
      000000CBH   SFRSYM    DATA     BYTE      TRL2H
      0000009FH   SFRSYM    DATA     BYTE      SBUF2_RX
      000000ADH   SFRSYM    DATA     BYTE      SBUF3_RX
      0000008EH   SFRSYM    DATA     BYTE      CKCON
      0000009EH   SFRSYM    DATA     BYTE      SBUF2_TX
      000000ACH   SFRSYM    DATA     BYTE      SBUF3_TX
      000000CAH   SFRSYM    DATA     BYTE      TRL2L
      000000D0H.5 SFRSYM    DATA     BIT       F0
      000000FEH   SFRSYM    DATA     BYTE      EXADR
      000000D0H.1 SFRSYM    DATA     BIT       F1
      000000A0H.3 SFRSYM    DATA     BIT       LED_B
      000000D0H   SFRSYM    DATA     BYTE      PSW
      000000A0H.1 SFRSYM    DATA     BIT       LED_G
      000000C0H   SFRSYM    DATA     BYTE      IRCON
      00000098H.2 SFRSYM    DATA     BIT       RB80

      01000061H   BLOCK     CODE     ---       LVL=0
      01000061H   LINE      CODE     ---       #6
      01000061H   LINE      CODE     ---       #7
      01000061H   LINE      CODE     ---       #11
      ---         BLOCKEND  ---      ---       LVL=0

      01000062H   BLOCK     CODE     ---       LVL=0
      01000062H   LINE      CODE     ---       #14
      01000062H   LINE      CODE     ---       #15
      ---         BLOCKEND  ---      ---       LVL=0

      0100006AH   BLOCK     CODE     ---       LVL=0
      0100006AH   LINE      CODE     ---       #20
      0100006AH   LINE      CODE     ---       #21
      ---         BLOCKEND  ---      ---       LVL=0

      ---         MODULE    ---      ---       HOME
      0200A49AH   PUBLIC    XDATA    ---       CurrentPageNum
      01001D62H   PUBLIC    CODE     ---       ReadCurrentPage_run
      00000098H.3 SFRSYM    DATA     BIT       TB80
      000000F1H   SFRSYM    DATA     BYTE      ADR_H
      00000080H   SFRSYM    DATA     BYTE      P0
      00000090H   SFRSYM    DATA     BYTE      P1
      000000A0H   SFRSYM    DATA     BYTE      P2
      000000B0H   SFRSYM    DATA     BYTE      P3
      000000D0H.6 SFRSYM    DATA     BIT       AC
      000000F3H   SFRSYM    DATA     BYTE      ADR_L
      00000094H   SFRSYM    DATA     BYTE      PAGESEL
LX51 LINKER/LOCATER V4.66.93.0                                                        04/22/2025  16:54:45  PAGE 55


      000000F2H   SFRSYM    DATA     BYTE      ADR_M
      000000A8H.7 SFRSYM    DATA     BIT       EA
      000000A0H.5 SFRSYM    DATA     BIT       JIGUANG
      00000090H.7 SFRSYM    DATA     BIT       LED_R
      000000F8H   SFRSYM    DATA     BYTE      RAMMODE
      000000B7H   SFRSYM    DATA     BYTE      P0MDOUT
      000000A8H   SFRSYM    DATA     BYTE      IEN0
      000000BCH   SFRSYM    DATA     BYTE      P1MDOUT
      000000B8H   SFRSYM    DATA     BYTE      IEN1
      000000BDH   SFRSYM    DATA     BYTE      P2MDOUT
      000000F8H.0 SFRSYM    DATA     BIT       APP_DATA0
      0000009AH   SFRSYM    DATA     BYTE      IEN2
      000000BEH   SFRSYM    DATA     BYTE      P3MDOUT
      000000F8H.1 SFRSYM    DATA     BIT       APP_DATA1
      000000D1H   SFRSYM    DATA     BYTE      IEN3
      00000080H.0 SFRSYM    DATA     BIT       P0_0
      000000F8H.2 SFRSYM    DATA     BIT       APP_DATA2
      00000090H.0 SFRSYM    DATA     BIT       P1_0
      000000F8H.3 SFRSYM    DATA     BIT       APP_DATA3
      00000090H.1 SFRSYM    DATA     BIT       P1_1
      000000F8H.4 SFRSYM    DATA     BIT       APP_ACK
      000000F4H   SFRSYM    DATA     BYTE      ADR_INC
      000000B0H.1 SFRSYM    DATA     BIT       P3_1
      00000098H.4 SFRSYM    DATA     BIT       REN0
      000000B8H.1 SFRSYM    DATA     BIT       ECAN
      000000D0H.7 SFRSYM    DATA     BIT       CY
      000000B8H.3 SFRSYM    DATA     BIT       ES2R
      000000B8H.5 SFRSYM    DATA     BIT       ES3R
      000000B8H.2 SFRSYM    DATA     BIT       ES2T
      000000B8H.4 SFRSYM    DATA     BIT       ES3T
      000000C8H.7 SFRSYM    DATA     BIT       TSF2
      000000B0H.3 SFRSYM    DATA     BIT       RTC_SDA
      00000081H   SFRSYM    DATA     BYTE      SP
      000000D0H.2 SFRSYM    DATA     BIT       OV
      00000095H   SFRSYM    DATA     BYTE      D_PAGESEL
      00000090H.5 SFRSYM    DATA     BIT       UV
      000000F8H.7 SFRSYM    DATA     BIT       APP_REQ
      000000B0H.2 SFRSYM    DATA     BIT       RTC_SCL
      000000BFH   SFRSYM    DATA     BYTE      IRCON2
      000000BAH   SFRSYM    DATA     BYTE      SREL0H
      000000BBH   SFRSYM    DATA     BYTE      SREL1H
      00000087H   SFRSYM    DATA     BYTE      PCON
      000000AAH   SFRSYM    DATA     BYTE      SREL0L
      000000F9H   SFRSYM    DATA     BYTE      PORTDRV
      0000009DH   SFRSYM    DATA     BYTE      SREL1L
      00000089H   SFRSYM    DATA     BYTE      TMOD
      00000088H   SFRSYM    DATA     BYTE      TCON
      00000097H   SFRSYM    DATA     BYTE      SCON2R
      000000FFH   SFRSYM    DATA     BYTE      EXDATA
      000000ABH   SFRSYM    DATA     BYTE      SCON3R
      000000D9H   SFRSYM    DATA     BYTE      BODE2_DIV_H
      000000AEH   SFRSYM    DATA     BYTE      BODE3_DIV_H
      00000096H   SFRSYM    DATA     BYTE      SCON2T
      000000A7H   SFRSYM    DATA     BYTE      SCON3T
      000000E7H   SFRSYM    DATA     BYTE      BODE2_DIV_L
      00000088H.1 SFRSYM    DATA     BIT       IE0
      000000AFH   SFRSYM    DATA     BYTE      BODE3_DIV_L
      00000088H.3 SFRSYM    DATA     BIT       IE1
      000000C9H   SFRSYM    DATA     BYTE      MUX_SEL
      000000F0H   SFRSYM    DATA     BYTE      B
      000000E0H   SFRSYM    DATA     BYTE      ACC
      000000A8H.4 SFRSYM    DATA     BIT       ES0
      0000008FH   SFRSYM    DATA     BYTE      CAN_CR
      000000A8H.1 SFRSYM    DATA     BIT       ET0
      000000A9H   SFRSYM    DATA     BYTE      IP0
LX51 LINKER/LOCATER V4.66.93.0                                                        04/22/2025  16:54:45  PAGE 56


      000000A8H.3 SFRSYM    DATA     BIT       ET1
      00000088H.5 SFRSYM    DATA     BIT       TF0
      000000B9H   SFRSYM    DATA     BYTE      IP1
      000000A8H.5 SFRSYM    DATA     BIT       ET2
      00000098H.0 SFRSYM    DATA     BIT       RI0
      00000088H.7 SFRSYM    DATA     BIT       TF1
      000000FDH   SFRSYM    DATA     BYTE      DATA0
      000000C0H.6 SFRSYM    DATA     BIT       TF2
      000000E8H   SFRSYM    DATA     BYTE      CAN_ET
      000000FCH   SFRSYM    DATA     BYTE      DATA1
      0000008CH   SFRSYM    DATA     BYTE      TH0
      000000A8H.0 SFRSYM    DATA     BIT       EX0
      00000098H.1 SFRSYM    DATA     BIT       TI0
      00000088H.0 SFRSYM    DATA     BIT       IT0
      000000FBH   SFRSYM    DATA     BYTE      DATA2
      0000008DH   SFRSYM    DATA     BYTE      TH1
      000000A8H.2 SFRSYM    DATA     BIT       EX1
      00000091H   SFRSYM    DATA     BYTE      CAN_IR
      000000CDH   SFRSYM    DATA     BYTE      TH2
      00000088H.2 SFRSYM    DATA     BIT       IT1
      000000FAH   SFRSYM    DATA     BYTE      DATA3
      000000D0H.0 SFRSYM    DATA     BIT       P
      00000098H.7 SFRSYM    DATA     BIT       SM0
      0000008AH   SFRSYM    DATA     BYTE      TL0
      00000098H.6 SFRSYM    DATA     BIT       SM1
      0000008BH   SFRSYM    DATA     BYTE      TL1
      00000098H.5 SFRSYM    DATA     BIT       SM2
      000000CCH   SFRSYM    DATA     BYTE      TL2
      000000A0H.7 SFRSYM    DATA     BIT       UV_St
      000000D0H.3 SFRSYM    DATA     BIT       RS0
      000000F8H.6 SFRSYM    DATA     BIT       APP_EN
      000000D0H.4 SFRSYM    DATA     BIT       RS1
      00000088H.4 SFRSYM    DATA     BIT       TR0
      00000088H.6 SFRSYM    DATA     BIT       TR1
      00000093H   SFRSYM    DATA     BYTE      DPC
      000000C8H.0 SFRSYM    DATA     BIT       TR2
      000000E5H   SFRSYM    DATA     BYTE      MAC_MODE
      00000083H   SFRSYM    DATA     BYTE      DPH
      00000082H   SFRSYM    DATA     BYTE      DPL
      00000099H   SFRSYM    DATA     BYTE      SBUF0
      0000009CH   SFRSYM    DATA     BYTE      SBUF1
      00000098H   SFRSYM    DATA     BYTE      SCON0
      0000009BH   SFRSYM    DATA     BYTE      SCON1
      000000D8H   SFRSYM    DATA     BYTE      ADCON
      000000C8H   SFRSYM    DATA     BYTE      T2CON
      000000E6H   SFRSYM    DATA     BYTE      DIV_MODE
      000000F8H.5 SFRSYM    DATA     BIT       APP_RW
      000000CBH   SFRSYM    DATA     BYTE      TRL2H
      0000009FH   SFRSYM    DATA     BYTE      SBUF2_RX
      000000ADH   SFRSYM    DATA     BYTE      SBUF3_RX
      0000008EH   SFRSYM    DATA     BYTE      CKCON
      0000009EH   SFRSYM    DATA     BYTE      SBUF2_TX
      000000ACH   SFRSYM    DATA     BYTE      SBUF3_TX
      000000CAH   SFRSYM    DATA     BYTE      TRL2L
      000000D0H.5 SFRSYM    DATA     BIT       F0
      000000FEH   SFRSYM    DATA     BYTE      EXADR
      000000D0H.1 SFRSYM    DATA     BIT       F1
      000000A0H.3 SFRSYM    DATA     BIT       LED_B
      000000D0H   SFRSYM    DATA     BYTE      PSW
      000000A0H.1 SFRSYM    DATA     BIT       LED_G
      000000C0H   SFRSYM    DATA     BYTE      IRCON
      00000098H.2 SFRSYM    DATA     BIT       RB80

      01001D62H   BLOCK     CODE     ---       LVL=0
      01001D62H   LINE      CODE     ---       #7
LX51 LINKER/LOCATER V4.66.93.0                                                        04/22/2025  16:54:45  PAGE 57


      01001D62H   LINE      CODE     ---       #8
      01001D62H   LINE      CODE     ---       #10
      01001D78H   LINE      CODE     ---       #11
      01001D7EH   LINE      CODE     ---       #12
      01001D7EH   LINE      CODE     ---       #13
      01001D7EH   LINE      CODE     ---       #14
      01001D7EH   LINE      CODE     ---       #15
      01001D81H   LINE      CODE     ---       #16
      01001D81H   LINE      CODE     ---       #17
      01001D81H   LINE      CODE     ---       #19
      01001D81H   LINE      CODE     ---       #20
      01001D81H   LINE      CODE     ---       #22
      01001D81H   LINE      CODE     ---       #23
      01001D81H   LINE      CODE     ---       #25
      01001D81H   LINE      CODE     ---       #26
      01001D81H   LINE      CODE     ---       #28
      01001D81H   LINE      CODE     ---       #29
      01001D81H   LINE      CODE     ---       #31
      01001D81H   LINE      CODE     ---       #32
      01001D81H   LINE      CODE     ---       #33
      01001D81H   LINE      CODE     ---       #34
      01001D81H   LINE      CODE     ---       #37
      01001D81H   LINE      CODE     ---       #38
      01001D81H   LINE      CODE     ---       #40
      01001D81H   LINE      CODE     ---       #41
      01001D81H   LINE      CODE     ---       #44
      01001D81H   LINE      CODE     ---       #45
      01001D81H   LINE      CODE     ---       #46
      01001D81H   LINE      CODE     ---       #47
      01001D81H   LINE      CODE     ---       #50
      01001D81H   LINE      CODE     ---       #51
      01001D81H   LINE      CODE     ---       #53
      01001D81H   LINE      CODE     ---       #54
      01001D81H   LINE      CODE     ---       #56
      01001D81H   LINE      CODE     ---       #57
      01001D81H   LINE      CODE     ---       #59
      01001D81H   LINE      CODE     ---       #60
      01001D81H   LINE      CODE     ---       #63
      01001D81H   LINE      CODE     ---       #64
      01001D81H   LINE      CODE     ---       #66
      01001D81H   LINE      CODE     ---       #67
      01001D81H   LINE      CODE     ---       #69
      01001D81H   LINE      CODE     ---       #70
      01001D81H   LINE      CODE     ---       #72
      01001D81H   LINE      CODE     ---       #73
      01001D81H   LINE      CODE     ---       #75
      01001D81H   LINE      CODE     ---       #76
      01001D81H   LINE      CODE     ---       #77
      01001D81H   LINE      CODE     ---       #78
      01001D81H   LINE      CODE     ---       #79
      01001D81H   LINE      CODE     ---       #80
      01001D81H   LINE      CODE     ---       #82
      01001D81H   LINE      CODE     ---       #83
      01001D81H   LINE      CODE     ---       #85
      01001D81H   LINE      CODE     ---       #87
      ---         BLOCKEND  ---      ---       LVL=0

      ---         MODULE    ---      ---       ?C_INIT
      0100189FH   PUBLIC    CODE     ---       ?C_START

      ---         MODULE    ---      ---       ?C?COPY
      01000576H   PUBLIC    CODE     ---       ?C?COPY

      ---         MODULE    ---      ---       ?C?CLDPTR
      0100059CH   PUBLIC    CODE     ---       ?C?CLDPTR
LX51 LINKER/LOCATER V4.66.93.0                                                        04/22/2025  16:54:45  PAGE 58



      ---         MODULE    ---      ---       ?C?CLDOPTR
      010005B5H   PUBLIC    CODE     ---       ?C?CLDOPTR

      ---         MODULE    ---      ---       ?C?CSTPTR
      010005E2H   PUBLIC    CODE     ---       ?C?CSTPTR

      ---         MODULE    ---      ---       ?C?CSTOPTR
      010005F4H   PUBLIC    CODE     ---       ?C?CSTOPTR

      ---         MODULE    ---      ---       ?C?IMUL
      01000616H   PUBLIC    CODE     ---       ?C?IMUL

      ---         MODULE    ---      ---       ?C?UIDIV
      01000628H   PUBLIC    CODE     ---       ?C?UIDIV

      ---         MODULE    ---      ---       ?C?SIDIV
      0100067DH   PUBLIC    CODE     ---       ?C?SIDIV

      ---         MODULE    ---      ---       ?C?IILDX
      010006B3H   PUBLIC    CODE     ---       ?C?IILDX

      ---         MODULE    ---      ---       ?C?ILDIX
      010006C9H   PUBLIC    CODE     ---       ?C?ILDIX

      ---         MODULE    ---      ---       ?C?ISTPTR
      010006DFH   PUBLIC    CODE     ---       ?C?ISTPTR

      ---         MODULE    ---      ---       ?C?ULDIV
      0100073AH   PUBLIC    CODE     ---       ?C?ULDIV

      ---         MODULE    ---      ---       ?C?LSHL
      010007CCH   PUBLIC    CODE     ---       ?C?LSHL

      ---         MODULE    ---      ---       ?C?LSTXDATA
      010007DFH   PUBLIC    CODE     ---       ?C?LSTXDATA

      ---         MODULE    ---      ---       ?C?MEMSET
      010007EBH   PUBLIC    CODE     ---       ?C?MEMSET



*** WARNING L48: IGNORED RECURSIVE CALL
    CALLED:  _RX8130_WRIT_BYTE/I2C
    CALLER:  RX8130_STOP/I2C

*** WARNING L57: UNCALLED FUNCTION, IGNORED FOR OVERLAY PROCESS
    NAME:    UART3INIT/UART

*** WARNING L57: UNCALLED FUNCTION, IGNORED FOR OVERLAY PROCESS
    NAME:    _UART3SENDSTR/UART

*** WARNING L57: UNCALLED FUNCTION, IGNORED FOR OVERLAY PROCESS
    NAME:    _UART5SENDSTR/UART

*** WARNING L57: UNCALLED FUNCTION, IGNORED FOR OVERLAY PROCESS
    NAME:    INITUARTSEND/HANDLE

*** WARNING L57: UNCALLED FUNCTION, IGNORED FOR OVERLAY PROCESS
    NAME:    _JUMPPAGE/HANDLE

*** WARNING L57: UNCALLED FUNCTION, IGNORED FOR OVERLAY PROCESS
    NAME:    QRJ_INIT/QRJ

*** WARNING L57: UNCALLED FUNCTION, IGNORED FOR OVERLAY PROCESS
LX51 LINKER/LOCATER V4.66.93.0                                                        04/22/2025  16:54:45  PAGE 59


    NAME:    QRJ_PREPARE/QRJ

*** WARNING L57: UNCALLED FUNCTION, IGNORED FOR OVERLAY PROCESS
    NAME:    READCURRENTPAGE_RUN/HOME

*** ERROR L127: UNRESOLVED EXTERNAL SYMBOL
    SYMBOL:  _DelayMs
    MODULE:  .\Objects\handle.obj (HANDLE)

*** ERROR L128: REFERENCE MADE TO UNRESOLVED EXTERNAL
    SYMBOL:  _DelayMs
    MODULE:  .\Objects\handle.obj (HANDLE)
    ADDRESS: 1001A7DH

Program Size: data=9.1 xdata=9372 const=124 code=7839
LX51 RUN COMPLETE.  9 WARNING(S),  2 ERROR(S)
