LX51 LINKER/LOCATER V4.66.93.0                                                          05/08/2025  10:05:08  PAGE 1


LX51 LINKER/LOCATER V4.66.93.0, INVOKED BY:
D:\KEIL\KEIL_C51\C51\BIN\LX51.EXE .\Objects\STARTUP_M5.obj, .\Objects\main.obj, .\Objects\sys.obj, .\Objects\dgus.obj, .
>> \Objects\uart.obj, .\Objects\norflash.obj, .\Objects\timer.obj, .\Objects\handle.obj, .\Objects\crc16.obj, .\Objects\
>> i2c.obj, .\Objects\tof.obj, .\Objects\start_win.obj, .\Objects\interactive.obj, .\Objects\adc.obj, .\Objects\home.obj
>> , .\Objects\qrj.obj, .\Objects\zx.obj, .\Objects\qy.obj, .\Objects\cxh.obj, .\Objects\zl.obj, .\Objects\sd.obj, .\Obj
>> ects\lj.obj, .\Objects\sz.obj TO .\Objects\T5L51 PRINT (.\Listings\T5L51.map) CLASSES (XDATA (X:0X8000-X:0XFFFF), HDA
>> TA (X:0X8000-X:0XFFFF))




PROGRAM RECURSIONS REMOVED FROM CALL TREE
=========================================
+--> _RX8130_WRIT_BYTE/I2C
<--+ RX8130_STOP/I2C



CPU MODE:     8051 MODE
MEMORY MODEL: LARGE WITH FLOATING POINT ARITHMETIC


INPUT MODULES INCLUDED:
  .\Objects\STARTUP_M5.obj (?C_STARTUP)
         COMMENT TYPE 1: A51 / ASM51 Assembler
  .\Objects\main.obj (MAIN)
         COMMENT TYPE 0: C51 V9.59.0.0
  .\Objects\sys.obj (SYS)
         COMMENT TYPE 0: C51 V9.59.0.0
  .\Objects\dgus.obj (DGUS)
         COMMENT TYPE 0: C51 V9.59.0.0
  .\Objects\uart.obj (UART)
         COMMENT TYPE 0: C51 V9.59.0.0
  .\Objects\norflash.obj (NORFLASH)
         COMMENT TYPE 0: C51 V9.59.0.0
  .\Objects\timer.obj (TIMER)
         COMMENT TYPE 0: C51 V9.59.0.0
  .\Objects\handle.obj (HANDLE)
         COMMENT TYPE 0: C51 V9.59.0.0
  .\Objects\crc16.obj (CRC16)
         COMMENT TYPE 0: C51 V9.59.0.0
  .\Objects\i2c.obj (I2C)
         COMMENT TYPE 0: C51 V9.59.0.0
  .\Objects\tof.obj (TOF)
         COMMENT TYPE 0: C51 V9.59.0.0
  .\Objects\start_win.obj (START_WIN)
         COMMENT TYPE 0: C51 V9.59.0.0
  .\Objects\interactive.obj (INTERACTIVE)
         COMMENT TYPE 0: C51 V9.59.0.0
  .\Objects\adc.obj (ADC)
         COMMENT TYPE 0: C51 V9.59.0.0
  .\Objects\home.obj (HOME)
         COMMENT TYPE 0: C51 V9.59.0.0
  .\Objects\qrj.obj (QRJ)
         COMMENT TYPE 0: C51 V9.59.0.0
  .\Objects\zx.obj (ZX)
         COMMENT TYPE 0: C51 V9.59.0.0
  .\Objects\qy.obj (QY)
         COMMENT TYPE 0: C51 V9.59.0.0
  .\Objects\cxh.obj (CXH)
         COMMENT TYPE 0: C51 V9.59.0.0
  .\Objects\zl.obj (ZL)
         COMMENT TYPE 0: C51 V9.59.0.0
  .\Objects\sd.obj (SD)
         COMMENT TYPE 0: C51 V9.59.0.0
  .\Objects\lj.obj (LJ)
LX51 LINKER/LOCATER V4.66.93.0                                                        05/08/2025  10:05:08  PAGE 2


         COMMENT TYPE 0: C51 V9.59.0.0
  .\Objects\sz.obj (SZ)
         COMMENT TYPE 0: C51 V9.59.0.0
  D:\KEIL\KEIL_C51\C51\LIB\C51FPL.LIB (?C?FPADD)
         COMMENT TYPE 1: A51 / ASM51 Assembler
  D:\KEIL\KEIL_C51\C51\LIB\C51FPL.LIB (?C?FPMUL)
         COMMENT TYPE 1: A51 / ASM51 Assembler
  D:\KEIL\KEIL_C51\C51\LIB\C51FPL.LIB (?C?FPDIV)
         COMMENT TYPE 1: A51 / ASM51 Assembler
  D:\KEIL\KEIL_C51\C51\LIB\C51FPL.LIB (?C?FPCMP)
         COMMENT TYPE 1: A51 / ASM51 Assembler
  D:\KEIL\KEIL_C51\C51\LIB\C51FPL.LIB (?C?FCAST)
         COMMENT TYPE 1: A51 / ASM51 Assembler
  D:\KEIL\KEIL_C51\C51\LIB\C51FPL.LIB (?C?CASTF)
         COMMENT TYPE 1: A51 / ASM51 Assembler
  D:\KEIL\KEIL_C51\C51\LIB\C51FPL.LIB (PRINTF)
         COMMENT TYPE 1: A51 / ASM51 Assembler
  D:\KEIL\KEIL_C51\C51\LIB\C51FPL.LIB (LOG)
         COMMENT TYPE 1: A51 / ASM51 Assembler
  D:\KEIL\KEIL_C51\C51\LIB\C51FPL.LIB (POW)
         COMMENT TYPE 1: C51 Compiler
  D:\KEIL\KEIL_C51\C51\LIB\C51FPL.LIB (?C?FPGETOPN)
         COMMENT TYPE 1: A51 / ASM51 Assembler
  D:\KEIL\KEIL_C51\C51\LIB\C51FPL.LIB (?C?CHKFLOAT)
         COMMENT TYPE 1: A51 / ASM51 Assembler
  D:\KEIL\KEIL_C51\C51\LIB\C51FPL.LIB (?C?FPNEG)
         COMMENT TYPE 1: A51 / ASM51 Assembler
  D:\KEIL\KEIL_C51\C51\LIB\C51FPL.LIB (?C?FPROUND)
         COMMENT TYPE 1: A51 / ASM51 Assembler
  D:\KEIL\KEIL_C51\C51\LIB\C51FPL.LIB (?C?FPCONVERT)
         COMMENT TYPE 1: A51 / ASM51 Assembler
  D:\KEIL\KEIL_C51\C51\LIB\C51FPL.LIB (?C?FPSERIES)
         COMMENT TYPE 1: A51 / ASM51 Assembler
  D:\KEIL\KEIL_C51\C51\LIB\C51FPL.LIB (EXP)
         COMMENT TYPE 1: A51 / ASM51 Assembler
  D:\KEIL\KEIL_C51\C51\LIB\C51FPL.LIB (?C?FTNPWR)
         COMMENT TYPE 1: A51 / ASM51 Assembler
  D:\KEIL\KEIL_C51\C51\LIB\C51L.LIB (?C_INIT)
         COMMENT TYPE 1: A51 / ASM51 Assembler
  D:\KEIL\KEIL_C51\C51\LIB\C51L.LIB (?C?COPY)
         COMMENT TYPE 1: A51 / ASM51 Assembler
  D:\KEIL\KEIL_C51\C51\LIB\C51L.LIB (?C?CLDPTR)
         COMMENT TYPE 1: A51 / ASM51 Assembler
  D:\KEIL\KEIL_C51\C51\LIB\C51L.LIB (?C?CLDOPTR)
         COMMENT TYPE 1: A51 / ASM51 Assembler
  D:\KEIL\KEIL_C51\C51\LIB\C51L.LIB (?C?CSTPTR)
         COMMENT TYPE 1: A51 / ASM51 Assembler
  D:\KEIL\KEIL_C51\C51\LIB\C51L.LIB (?C?CSTOPTR)
         COMMENT TYPE 1: A51 / ASM51 Assembler
  D:\KEIL\KEIL_C51\C51\LIB\C51L.LIB (?C?IMUL)
         COMMENT TYPE 1: A51 / ASM51 Assembler
  D:\KEIL\KEIL_C51\C51\LIB\C51L.LIB (?C?UIDIV)
         COMMENT TYPE 1: A51 / ASM51 Assembler
  D:\KEIL\KEIL_C51\C51\LIB\C51L.LIB (?C?SIDIV)
         COMMENT TYPE 1: A51 / ASM51 Assembler
  D:\KEIL\KEIL_C51\C51\LIB\C51L.LIB (?C?IILDX)
         COMMENT TYPE 1: A51 / ASM51 Assembler
  D:\KEIL\KEIL_C51\C51\LIB\C51L.LIB (?C?ILDIX)
         COMMENT TYPE 1: A51 / ASM51 Assembler
  D:\KEIL\KEIL_C51\C51\LIB\C51L.LIB (?C?ILDPTR)
         COMMENT TYPE 1: A51 / ASM51 Assembler
  D:\KEIL\KEIL_C51\C51\LIB\C51L.LIB (?C?ILDOPTR)
         COMMENT TYPE 1: A51 / ASM51 Assembler
  D:\KEIL\KEIL_C51\C51\LIB\C51L.LIB (?C?ISTPTR)
         COMMENT TYPE 1: A51 / ASM51 Assembler
LX51 LINKER/LOCATER V4.66.93.0                                                        05/08/2025  10:05:08  PAGE 3


  D:\KEIL\KEIL_C51\C51\LIB\C51L.LIB (?C?ISTOPTR)
         COMMENT TYPE 1: A51 / ASM51 Assembler
  D:\KEIL\KEIL_C51\C51\LIB\C51L.LIB (?C?ULDIV)
         COMMENT TYPE 1: A51 / ASM51 Assembler
  D:\KEIL\KEIL_C51\C51\LIB\C51L.LIB (?C?LNEG)
         COMMENT TYPE 1: A51 / ASM51 Assembler
  D:\KEIL\KEIL_C51\C51\LIB\C51L.LIB (?C?ULCMP)
         COMMENT TYPE 1: A51 / ASM51 Assembler
  D:\KEIL\KEIL_C51\C51\LIB\C51L.LIB (?C?LSHL)
         COMMENT TYPE 1: A51 / ASM51 Assembler
  D:\KEIL\KEIL_C51\C51\LIB\C51L.LIB (?C?LLDCODE)
         COMMENT TYPE 1: A51 / ASM51 Assembler
  D:\KEIL\KEIL_C51\C51\LIB\C51L.LIB (?C?LLDXDATA0)
         COMMENT TYPE 1: A51 / ASM51 Assembler
  D:\KEIL\KEIL_C51\C51\LIB\C51L.LIB (?C?LLDCODE0)
         COMMENT TYPE 1: A51 / ASM51 Assembler
  D:\KEIL\KEIL_C51\C51\LIB\C51L.LIB (?C?LSTXDATA)
         COMMENT TYPE 1: A51 / ASM51 Assembler
  D:\KEIL\KEIL_C51\C51\LIB\C51L.LIB (?C?LSTKXDATA)
         COMMENT TYPE 1: A51 / ASM51 Assembler
  D:\KEIL\KEIL_C51\C51\LIB\C51L.LIB (?C?PLDIXDATA)
         COMMENT TYPE 1: A51 / ASM51 Assembler
  D:\KEIL\KEIL_C51\C51\LIB\C51L.LIB (?C?PSTXDATA)
         COMMENT TYPE 1: A51 / ASM51 Assembler
  D:\KEIL\KEIL_C51\C51\LIB\C51L.LIB (?C?CCASE)
         COMMENT TYPE 1: A51 / ASM51 Assembler
  D:\KEIL\KEIL_C51\C51\LIB\C51L.LIB (?C?ICALL)
         COMMENT TYPE 1: A51 / ASM51 Assembler
  D:\KEIL\KEIL_C51\C51\LIB\C51L.LIB (?C?MEMSET)
         COMMENT TYPE 1: A51 / ASM51 Assembler


ACTIVE MEMORY CLASSES OF MODULE:  .\Objects\T5L51 (?C_STARTUP)

BASE        START       END         USED      MEMORY CLASS
==========================================================
X:000000H   X:008000H   X:00FFFFH   002557H   XDATA
X:000000H   X:008000H   X:00FFFFH             HDATA
C:000000H   C:000000H   C:00FFFFH   00468EH   CODE
I:000000H   I:000000H   I:0000FFH   000001H   IDATA
C:000000H   C:000000H   C:00FFFFH   0000A0H   CONST
I:000020H.0 I:000020H.0 I:00002FH.7 000001H.1 BIT
I:000000H   I:000000H   I:00007FH   00000DH   DATA


MEMORY MAP OF MODULE:  .\Objects\T5L51 (?C_STARTUP)


START     STOP      LENGTH    ALIGN  RELOC    MEMORY CLASS   SEGMENT NAME
=========================================================================

* * * * * * * * * * *   D A T A   M E M O R Y   * * * * * * * * * * * * *
000000H   000007H   000008H   ---    AT..     DATA           "REG BANK 0"
000008H   00000CH   000005H   BYTE   UNIT     DATA           _DATA_GROUP_
00000DH.0 00001FH.7 000013H.0 ---    ---      **GAP**
000020H.0 000021H.0 000001H.1 BIT    UNIT     BIT            _BIT_GROUP_
000021H.1 000021H   000000H.7 ---    ---      **GAP**
000022H   000022H   000001H   BYTE   UNIT     IDATA          ?STACK

* * * * * * * * * * *   C O D E   M E M O R Y   * * * * * * * * * * * * *
000000H   000002H   000003H   ---    OFFS..   CODE           ?CO??C_STARTUP?0
000003H   000005H   000003H   BYTE   OFFS..   CODE           ?SYS?00003
000006H   00000AH   000005H   BYTE   UNIT     CODE           ?PR?EX0_ISR_PC?SYS
00000BH   00000DH   000003H   BYTE   OFFS..   CODE           ?TIMER?0000B
00000EH   000012H   000005H   BYTE   UNIT     CODE           ?PR?EX1_ISR_PC?SYS
LX51 LINKER/LOCATER V4.66.93.0                                                        05/08/2025  10:05:08  PAGE 4


000013H   000015H   000003H   BYTE   OFFS..   CODE           ?SYS?00013
000016H   000022H   00000DH   BYTE   UNIT     CODE           ?PR?RX8130_MACK?I2C
000023H   000025H   000003H   BYTE   OFFS..   CODE           ?UART?00023
000026H   00002AH   000005H   BYTE   UNIT     CODE           ?PR?_PUTCHAR?UART
00002BH   00002DH   000003H   BYTE   OFFS..   CODE           ?TIMER?0002B
00002EH   000052H   000025H   BYTE   UNIT     CODE           ?PR?UART2INIT?UART
000053H   000055H   000003H   BYTE   OFFS..   CODE           ?UART?00053
000056H   000059H   000004H   BYTE   UNIT     CODE           ?PR?SDA_IN?I2C
00005AH   00005AH   000001H   BYTE   UNIT     CODE           ?PR?INTERACTIVE_INIT?INTERACTIVE
00005BH   00005DH   000003H   BYTE   OFFS..   CODE           ?UART?0005B
00005EH   000069H   00000CH   BYTE   UNIT     CODE           ?PR?INITINT?SYS
00006AH   00006AH   000001H   BYTE   UNIT     CODE           ?PR?INTERACTIVE_RUNNING?INTERACTIVE
00006BH   00006DH   000003H   BYTE   OFFS..   CODE           ?UART?0006B
00006EH   000082H   000015H   BYTE   UNIT     CODE           ?PR?UART5INIT?UART
000083H   000085H   000003H   BYTE   OFFS..   CODE           ?UART?00083
000086H   0000F5H   000070H   BYTE   UNIT     CODE           ?PR?_GET_X_Y?START_WIN
0000F6H   0000F6H   000001H   BYTE   UNIT     CODE           ?PR?QRJ_SET?QRJ
0000F7H   0000F7H   000001H   BYTE   UNIT     CODE           ?PR?QRJ_STOP?QRJ
0000F8H   0000FFH   000008H   ---    OFFS..   CODE           ?CO??C_STARTUP?1
000100H   000BC8H   000AC9H   BYTE   UNIT     CODE           ?C?LIB_CODE
000BC9H   00104BH   000483H   BYTE   UNIT     CODE           ?PR?PRINTF?PRINTF
00104CH   0013F1H   0003A6H   BYTE   UNIT     CODE           ?PR?PARSEBUFFER?HANDLE
0013F2H   001713H   000322H   BYTE   UNIT     CODE           ?C_INITSEG
001714H   001A03H   0002F0H   BYTE   UNIT     CODE           ?PR?PREPARE_QRJ_ZX_QY?HOME
001A04H   001CA7H   0002A4H   BYTE   UNIT     CODE           ?PR?RTC_SET_IN?I2C
001CA8H   001F12H   00026BH   BYTE   UNIT     CODE           ?PR?_QRJ_ZX__QY_RUN?HOME
001F13H   00216EH   00025CH   BYTE   UNIT     CODE           ?PR?_L_MM_TO_P_UW?HOME
00216FH   0023BBH   00024DH   BYTE   UNIT     CODE           ?PR?_WRITEDGUS?DGUS
0023BCH   002603H   000248H   BYTE   UNIT     CODE           ?PR?_READDGUS?DGUS
002604H   002810H   00020DH   BYTE   UNIT     CODE           ?PR?X_CALCULATE?START_WIN
002811H   0029C0H   0001B0H   BYTE   UNIT     CODE           ?PR?RTC_SET_TIME?I2C
0029C1H   002B26H   000166H   BYTE   UNIT     CODE           ?PR?_POW?POW
002B27H   002C83H   00015DH   BYTE   UNIT     CODE           ?PR?_RTC_GET_WEEK?I2C
002C84H   002DCFH   00014CH   BYTE   UNIT     CODE           ?PR?T_100MS_ADC_ISR?ADC
002DD0H   002F02H   000133H   BYTE   UNIT     CODE           ?PR?READ_TIME?I2C
002F03H   00302BH   000129H   BYTE   UNIT     CODE           ?PR?LOG?LOG
00302CH   003132H   000107H   BYTE   UNIT     CODE           ?PR?QRJ_PREPARE?QRJ
003133H   003233H   000101H   BYTE   UNIT     CODE           ?PR?UART5_ISR?TOF
003234H   003312H   0000DFH   BYTE   UNIT     CODE           ?PR?T0_ISR_PC?TIMER
003313H   0033F1H   0000DFH   BYTE   UNIT     CODE           ?PR?_FIND_DLT645_FRAME?HANDLE
0033F2H   0034D0H   0000DFH   BYTE   UNIT     CODE           ?PR?_QRJ_MM_TO_S?QRJ
0034D1H   0035A8H   0000D8H   BYTE   UNIT     CODE           ?PR?UNLOCK_CURRENT_PAGE?HOME
0035A9H   003670H   0000C8H   BYTE   UNIT     CODE           ?PR?LOCK_CURRENT_PAGE?HOME
003671H   00372FH   0000BFH   BYTE   UNIT     CODE           ?PR?_PAGE_SET?HANDLE
003730H   0037E2H   0000B3H   BYTE   UNIT     CODE           ?PR?_CHART_FIRST__RUNNING_CANKAO?START_WIN
0037E3H   003892H   0000B0H   BYTE   UNIT     CODE           ?PR?_UPDATE_POINT?START_WIN
003893H   003936H   0000A4H   BYTE   UNIT     CODE           ?PR?DLT645_HANDLE?HANDLE
003937H   0039D7H   0000A1H   BYTE   UNIT     CODE           ?C_C51STARTUP
0039D8H   003A71H   00009AH   BYTE   UNIT     CODE           ?PR?EXP?EXP
003A72H   003B03H   000092H   BYTE   UNIT     CODE           ?PR?_SETVOICE?HANDLE
003B04H   003B87H   000084H   BYTE   UNIT     CODE           ?PR?TOUCHHANDLE?HANDLE
003B88H   003C08H   000081H   BYTE   UNIT     CODE           ?PR?UART5_RX_ISR_PC?UART
003C09H   003C88H   000080H   BYTE   UNIT     CODE           ?PR?_CHART_FIRST_RUNNING?START_WIN
003C89H   003CFFH   000077H   BYTE   UNIT     CODE           ?PR?_Y_LOG_CALCULATE?START_WIN
003D00H   003D6AH   00006BH   BYTE   UNIT     CODE           ?PR?_RX8130_WRIT_BYTE?I2C
003D6BH   003DD4H   00006AH   BYTE   UNIT     CODE           ?PR?_CHART_RESET?START_WIN
003DD5H   003E3DH   000069H   BYTE   UNIT     CODE           ?PR?QRJ_HOME?QRJ
003E3EH   003EA3H   000066H   BYTE   UNIT     CODE           ?PR?QRJ_RUN?QRJ
003EA4H   003F07H   000064H   BYTE   UNIT     CODE           ?PR?UART2_ISR_PC?UART
003F08H   003F6BH   000064H   BYTE   UNIT     CODE           ?PR?_JUMPPAGE?HANDLE
003F6CH   003FCBH   000060H   BYTE   UNIT     CODE           ?PR?UART3_ISR_PC?UART
003FCCH   00402BH   000060H   BYTE   UNIT     CODE           ?PR?UART4_RX_ISR_PC?UART
00402CH   004089H   00005EH   BYTE   UNIT     CODE           ?PR?_LOCK_CURRENT_PAGE_ZENGLIANG?HOME
00408AH   0040E7H   00005EH   BYTE   UNIT     CODE           ?PR?_UNLOCK_CURRENT_PAGE_ZENGLIANG?HOME
0040E8H   004143H   00005CH   BYTE   UNIT     CODE           ?PR?QRJ_RESET?QRJ
LX51 LINKER/LOCATER V4.66.93.0                                                        05/08/2025  10:05:08  PAGE 5


004144H   00419EH   00005BH   BYTE   UNIT     CODE           ?PR?DRAW_CHART?START_WIN
00419FH   0041F8H   00005AH   BYTE   UNIT     CODE           ?PR?INIT_RTC?I2C
0041F9H   004244H   00004CH   BYTE   UNIT     CODE           ?PR?GETVALUE0F00?HANDLE
004245H   00428DH   000049H   BYTE   UNIT     CODE           ?PR?READCURRENTPAGE_RUN?HOME
00428EH   0042CEH   000041H   BYTE   UNIT     CODE           ?PR?_UART2SENDSTR?UART
0042CFH   00430FH   000041H   BYTE   UNIT     CODE           ?PR?_UART3SENDSTR?UART
004310H   00434CH   00003DH   BYTE   UNIT     CODE           ?PR?SWITCH_STATE?START_WIN
00434DH   004388H   00003CH   BYTE   UNIT     CODE           ?PR?START_WIN_INIT?START_WIN
004389H   0043C0H   000038H   BYTE   UNIT     CODE           ?PR?SZ_HOME?SZ
0043C1H   0043EEH   00002EH   BYTE   UNIT     CODE           ?PR?_ADC_READ?ADC
0043EFH   00441BH   00002DH   BYTE   UNIT     CODE           ?PR?RX8130_READ_BYTE?I2C
00441CH   004447H   00002CH   BYTE   UNIT     CODE           ?PR?_PARSE_DLT645_FRAME?HANDLE
004448H   00446FH   000028H   BYTE   UNIT     CODE           ?PR?SZ_PREPARE?SZ
004470H   004492H   000023H   BYTE   UNIT     CODE           ?PR?RX8130_CACK?I2C
004493H   0044B5H   000023H   BYTE   UNIT     CODE           ?PR?CLOCK?I2C
0044B6H   0044D6H   000021H   BYTE   UNIT     CODE           ?PR?RX8130_STOP?I2C
0044D7H   0044F6H   000020H   BYTE   UNIT     CODE           ?PR?_DELAYMS?SYS
0044F7H   004514H   00001EH   BYTE   UNIT     CODE           ?PR?UART3INIT?UART
004515H   00452EH   00001AH   BYTE   UNIT     CODE           ?PR?_SETBLIGHT?HANDLE
00452FH   004548H   00001AH   BYTE   UNIT     CODE           ?PR?QRJ_INIT?QRJ
004549H   004561H   000019H   BYTE   UNIT     CODE           ?PR?MAIN?MAIN
004562H   00457AH   000019H   BYTE   UNIT     CODE           ?PR?INITGPIO?SYS
00457BH   004591H   000017H   BYTE   UNIT     CODE           ?PR?UART4INIT?UART
004592H   0045A8H   000017H   BYTE   UNIT     CODE           ?PR?DELAYUS?I2C
0045A9H   0045BEH   000016H   BYTE   UNIT     CODE           ?PR?QRJ_DONE?QRJ
0045BFH   0045D2H   000014H   BYTE   UNIT     CODE           ?PR?T2_INIT?TIMER
0045D3H   0045E6H   000014H   BYTE   UNIT     CODE           ?PR?RX8130_START?I2C
0045E7H   0045F7H   000011H   BYTE   UNIT     CODE           ?PR?INITCPU?SYS
0045F8H   004607H   000010H   BYTE   UNIT     CODE           ?PR?_UART4SENDBYTE?UART
004608H   004615H   00000EH   BYTE   UNIT     CODE           ?PR?_UART2SENDBYTE?UART
004616H   004623H   00000EH   BYTE   UNIT     CODE           ?PR?_UART3SENDBYTE?UART
004624H   004631H   00000EH   BYTE   UNIT     CODE           ?PR?T0_INIT?TIMER
004632H   00463FH   00000EH   BYTE   UNIT     CODE           ?PR?PAGELOCK_INIT?HOME
004640H   00464BH   00000CH   BYTE   UNIT     CODE           ?PR?HANDLEPROC?HANDLE
00464CH   004656H   00000BH   BYTE   UNIT     CODE           ?PR?INITUARTSEND?HANDLE
004657H   004661H   00000BH   BYTE   UNIT     CODE           ?PR?RX8130_MNAK?I2C
004662H   00466CH   00000BH   BYTE   UNIT     CODE           ?PR?CHART_RUNNING?START_WIN
00466DH   004674H   000008H   BYTE   UNIT     CODE           ?PR?UART4_TX_ISR_PC?UART
004675H   00467AH   000006H   BYTE   UNIT     CODE           ?PR?INITUART?UART
00467BH   004680H   000006H   BYTE   UNIT     CODE           ?PR?INITTIMER?TIMER
004681H   004686H   000006H   BYTE   UNIT     CODE           ?PR?GET_DATA1?HANDLE
004687H   00468AH   000004H   BYTE   UNIT     CODE           ?PR?SDA_OUT?I2C
00468BH   00468DH   000003H   BYTE   UNIT     CODE           ?PR?T2_ISR_PC?TIMER
00468EH   0046F6H   000069H   BYTE   UNIT     CONST          ?CO?HANDLE
0046F7H   004713H   00001DH   BYTE   UNIT     CONST          ?CO?I2C
004714H   00472DH   00001AH   BYTE   UNIT     CONST          ?CO?START_WIN

* * * * * * * * * * *  X D A T A   M E M O R Y  * * * * * * * * * * * * *
008000H   00A129H   00212AH   BYTE   UNIT     XDATA          ?XD?UART
00A12AH   00A42CH   000303H   BYTE   UNIT     XDATA          ?XD?HANDLE
00A42DH   00A47DH   000051H   BYTE   UNIT     XDATA          ?XD?HOME
00A47EH   00A4BDH   000040H   BYTE   UNIT     XDATA          _XDATA_GROUP_
00A4BEH   00A4F8H   00003BH   BYTE   UNIT     XDATA          ?XD?START_WIN
00A4F9H   00A50DH   000015H   BYTE   UNIT     XDATA          ?XD?TOF
00A50EH   00A522H   000015H   BYTE   UNIT     XDATA          ?XD?ADC
00A523H   00A534H   000012H   BYTE   UNIT     XDATA          ?XD?QRJ
00A535H   00A53DH   000009H   BYTE   UNIT     XDATA          ?XD?I2C
00A53EH   00A543H   000006H   BYTE   UNIT     XDATA          ?XD?_JUMPPAGE?HANDLE
00A544H   00A549H   000006H   BYTE   UNIT     XDATA          ?XD?_UPDATE_POINT?START_WIN
00A54AH   00A54EH   000005H   BYTE   UNIT     XDATA          ?XD?_SETVOICE?HANDLE
00A54FH   00A552H   000004H   BYTE   UNIT     XDATA          ?XD?TIMER
00A553H   00A555H   000003H   BYTE   UNIT     XDATA          ?XD?_UART3SENDSTR?UART
00A556H   00A556H   000001H   BYTE   UNIT     XDATA          ?XD?_SETBLIGHT?HANDLE


LX51 LINKER/LOCATER V4.66.93.0                                                        05/08/2025  10:05:08  PAGE 6



OVERLAY MAP OF MODULE:   .\Objects\T5L51 (?C_STARTUP)


FUNCTION/MODULE                              BIT_GROUP   DATA_GROUP   XDATA_GROUP
--> CALLED FUNCTION/MODULE                  START  STOP  START  STOP  START  STOP
=================================================================================
?C_C51STARTUP                               ----- -----  ----- -----  ----- -----
  +--> MAIN/MAIN
  +--> ?C_INITSEG

MAIN/MAIN                                   ----- -----  ----- -----  ----- -----
  +--> INITCPU/SYS
  +--> INIT_RTC/I2C
  +--> PAGELOCK_INIT/HOME
  +--> START_WIN_INIT/START_WIN
  +--> HANDLEPROC/HANDLE
  +--> READCURRENTPAGE_RUN/HOME
  +--> CLOCK/I2C

INITCPU/SYS                                 ----- -----  ----- -----  ----- -----
  +--> INITINT/SYS
  +--> INITGPIO/SYS
  +--> INITUART/UART
  +--> INITTIMER/TIMER

INITINT/SYS                                 ----- -----  ----- -----  ----- -----

INITGPIO/SYS                                ----- -----  ----- -----  ----- -----

INITUART/UART                               ----- -----  ----- -----  ----- -----
  +--> UART4INIT/UART
  +--> UART5INIT/UART

UART4INIT/UART                              ----- -----  ----- -----  ----- -----

UART5INIT/UART                              ----- -----  ----- -----  ----- -----

INITTIMER/TIMER                             ----- -----  ----- -----  ----- -----
  +--> T0_INIT/TIMER
  +--> T2_INIT/TIMER

T0_INIT/TIMER                               ----- -----  ----- -----  ----- -----

T2_INIT/TIMER                               ----- -----  ----- -----  ----- -----

INIT_RTC/I2C                                ----- -----  ----- -----  ----- -----
  +--> _RX8130_WRIT_BYTE/I2C
  +--> RX8130_STOP/I2C
  +--> RX8130_START/I2C
  +--> RX8130_READ_BYTE/I2C
  +--> RX8130_MACK/I2C
  +--> RX8130_MNAK/I2C

_RX8130_WRIT_BYTE/I2C                       ----- -----  ----- -----  ----- -----
  +--> RX8130_START/I2C
  +--> RX8130_STOP/I2C
  +--> SDA_OUT/I2C
  +--> DELAYUS/I2C
  +--> RX8130_CACK/I2C

RX8130_START/I2C                            ----- -----  ----- -----  ----- -----
  +--> SDA_OUT/I2C
  +--> DELAYUS/I2C

LX51 LINKER/LOCATER V4.66.93.0                                                        05/08/2025  10:05:08  PAGE 7


SDA_OUT/I2C                                 ----- -----  ----- -----  ----- -----

DELAYUS/I2C                                 ----- -----  ----- -----  ----- -----

RX8130_STOP/I2C                             ----- -----  ----- -----  ----- -----
  +--> _RX8130_WRIT_BYTE/I2C
  +--> SDA_OUT/I2C
  +--> DELAYUS/I2C
  +--> SDA_IN/I2C

SDA_IN/I2C                                  ----- -----  ----- -----  ----- -----

RX8130_CACK/I2C                             ----- -----  ----- -----  ----- -----
  +--> SDA_IN/I2C
  +--> DELAYUS/I2C
  +--> SDA_OUT/I2C

RX8130_READ_BYTE/I2C                        ----- -----  ----- -----  ----- -----
  +--> SDA_IN/I2C
  +--> DELAYUS/I2C

RX8130_MACK/I2C                             ----- -----  ----- -----  ----- -----
  +--> SDA_OUT/I2C
  +--> DELAYUS/I2C

RX8130_MNAK/I2C                             ----- -----  ----- -----  ----- -----
  +--> SDA_OUT/I2C
  +--> DELAYUS/I2C

PAGELOCK_INIT/HOME                          ----- -----  ----- -----  ----- -----

START_WIN_INIT/START_WIN                    ----- -----  ----- -----  ----- -----

HANDLEPROC/HANDLE                           ----- -----  ----- -----  ----- -----
  +--> GETVALUE0F00/HANDLE
  +--> TOUCHHANDLE/HANDLE
  +--> PARSEBUFFER/HANDLE

GETVALUE0F00/HANDLE                         ----- -----  ----- -----  A47EH A481H
  +--> _READDGUS/DGUS
  +--> _WRITEDGUS/DGUS

_READDGUS/DGUS                              ----- -----  ----- -----  A4B7H A4BDH

_WRITEDGUS/DGUS                             ----- -----  ----- -----  A4B7H A4BDH

TOUCHHANDLE/HANDLE                          ----- -----  ----- -----  A47EH A493H
  +--> _READDGUS/DGUS
  +--> _PAGE_SET/HANDLE

_PAGE_SET/HANDLE                            ----- -----  ----- -----  A494H A495H
  +--> GET_DATA1/HANDLE
  +--> QRJ_RESET/QRJ
  +--> LOCK_CURRENT_PAGE/HOME
  +--> _WRITEDGUS/DGUS
  +--> RTC_SET_IN/I2C

GET_DATA1/HANDLE                            ----- -----  ----- -----  ----- -----

QRJ_RESET/QRJ                               ----- -----  ----- -----  ----- -----
  +--> _WRITEDGUS/DGUS

LOCK_CURRENT_PAGE/HOME                      ----- -----  ----- -----  ----- -----
  +--> _LOCK_CURRENT_PAGE_ZENGLIANG/HOME
  +--> _WRITEDGUS/DGUS
LX51 LINKER/LOCATER V4.66.93.0                                                        05/08/2025  10:05:08  PAGE 8


  +--> _READDGUS/DGUS

_LOCK_CURRENT_PAGE_ZENGLIANG/HOME           ----- -----  ----- -----  ----- -----
  +--> _WRITEDGUS/DGUS
  +--> _READDGUS/DGUS

RTC_SET_IN/I2C                              ----- -----  ----- -----  A496H A4A7H
  +--> _READDGUS/DGUS
  +--> _WRITEDGUS/DGUS
  +--> RTC_SET_TIME/I2C

RTC_SET_TIME/I2C                            20H.0 20H.0  ----- -----  A4A8H A4B6H
  +--> _READDGUS/DGUS
  +--> _WRITEDGUS/DGUS
  +--> _RX8130_WRIT_BYTE/I2C
  +--> RX8130_STOP/I2C

PARSEBUFFER/HANDLE                          ----- -----  ----- -----  A47EH A48CH
  +--> _FIND_DLT645_FRAME/HANDLE
  +--> _PARSE_DLT645_FRAME/HANDLE
  +--> DLT645_HANDLE/HANDLE

_FIND_DLT645_FRAME/HANDLE                   ----- -----  ----- -----  A48DH A49BH

_PARSE_DLT645_FRAME/HANDLE                  ----- -----  ----- -----  A48DH A498H

DLT645_HANDLE/HANDLE                        ----- -----  ----- -----  A48DH A48EH
  +--> _WRITEDGUS/DGUS
  +--> _READDGUS/DGUS
  +--> _UART2SENDSTR/UART

_UART2SENDSTR/UART                          ----- -----  ----- -----  A48FH A491H
  +--> _UART2SENDBYTE/UART

_UART2SENDBYTE/UART                         ----- -----  ----- -----  ----- -----

READCURRENTPAGE_RUN/HOME                    ----- -----  ----- -----  ----- -----
  +--> _READDGUS/DGUS
  +--> DRAW_CHART/START_WIN
  +--> QRJ_HOME/QRJ
  +--> PREPARE_QRJ_ZX_QY/HOME
  +--> SZ_HOME/SZ

DRAW_CHART/START_WIN                        ----- -----  ----- -----  ----- -----
  +--> SWITCH_STATE/START_WIN
  +--> _CHART_FIRST_RUNNING/START_WIN
  +--> _CHART_RESET/START_WIN

SWITCH_STATE/START_WIN                      ----- -----  ----- -----  ----- -----

_CHART_FIRST_RUNNING/START_WIN              ----- -----  ----- -----  A47EH A481H
  +--> _GET_X_Y/START_WIN
  +--> _CHART_FIRST__RUNNING_CANKAO/START_WIN
  +--> PRINTF/PRINTF
  +--> _WRITEDGUS/DGUS

_GET_X_Y/START_WIN                          ----- -----  ----- -----  A482H A484H
  +--> X_CALCULATE/START_WIN
  +--> _Y_LOG_CALCULATE/START_WIN

X_CALCULATE/START_WIN                       ----- -----  ----- -----  ----- -----

_Y_LOG_CALCULATE/START_WIN                  ----- -----  ----- -----  ----- -----
  +--> LOG/LOG

LX51 LINKER/LOCATER V4.66.93.0                                                        05/08/2025  10:05:08  PAGE 9


LOG/LOG                                     20H.0 20H.0  ----- -----  A496H A499H

_CHART_FIRST__RUNNING_CANKAO/START_WIN      ----- -----  ----- -----  A482H A482H
  +--> _Y_LOG_CALCULATE/START_WIN
  +--> _WRITEDGUS/DGUS

PRINTF/PRINTF                               20H.0 21H.0  0008H 000CH  A482H A4B1H
  +--> _PUTCHAR/UART

_PUTCHAR/UART                               ----- -----  ----- -----  ----- -----
  +--> _UART4SENDBYTE/UART

_UART4SENDBYTE/UART                         ----- -----  ----- -----  ----- -----

_CHART_RESET/START_WIN                      ----- -----  ----- -----  A47EH A48EH
  +--> _WRITEDGUS/DGUS

QRJ_HOME/QRJ                                ----- -----  ----- -----  ----- -----
  +--> QRJ_SET/QRJ
  +--> QRJ_PREPARE/QRJ
  +--> QRJ_RUN/QRJ
  +--> QRJ_STOP/QRJ
  +--> QRJ_DONE/QRJ
  +--> QRJ_RESET/QRJ
  +--> UNLOCK_CURRENT_PAGE/HOME

QRJ_SET/QRJ                                 ----- -----  ----- -----  ----- -----

QRJ_PREPARE/QRJ                             ----- -----  ----- -----  A47EH A483H
  +--> _READDGUS/DGUS
  +--> _QRJ_MM_TO_S/QRJ
  +--> _WRITEDGUS/DGUS

_QRJ_MM_TO_S/QRJ                            ----- -----  ----- -----  A484H A487H

QRJ_RUN/QRJ                                 ----- -----  ----- -----  ----- -----
  +--> _QRJ_MM_TO_S/QRJ
  +--> _QRJ_ZX__QY_RUN/HOME

_QRJ_ZX__QY_RUN/HOME                        ----- -----  ----- -----  A47EH A484H
  +--> _WRITEDGUS/DGUS

QRJ_STOP/QRJ                                ----- -----  ----- -----  ----- -----

QRJ_DONE/QRJ                                ----- -----  ----- -----  ----- -----
  +--> _WRITEDGUS/DGUS

UNLOCK_CURRENT_PAGE/HOME                    ----- -----  ----- -----  ----- -----
  +--> _UNLOCK_CURRENT_PAGE_ZENGLIANG/HOME
  +--> _WRITEDGUS/DGUS
  +--> _READDGUS/DGUS

_UNLOCK_CURRENT_PAGE_ZENGLIANG/HOME         ----- -----  ----- -----  ----- -----
  +--> _WRITEDGUS/DGUS
  +--> _READDGUS/DGUS

PREPARE_QRJ_ZX_QY/HOME                      ----- -----  ----- -----  ----- -----
  +--> _L_MM_TO_P_UW/HOME
  +--> _WRITEDGUS/DGUS
  +--> _POW/POW

_L_MM_TO_P_UW/HOME                          ----- -----  ----- -----  A47EH A48BH
  +--> _POW/POW

_POW/POW                                    ----- -----  ----- -----  A48CH A495H
LX51 LINKER/LOCATER V4.66.93.0                                                        05/08/2025  10:05:08  PAGE 10


  +--> LOG/LOG
  +--> EXP/EXP

EXP/EXP                                     ----- -----  ----- -----  ----- -----

SZ_HOME/SZ                                  ----- -----  ----- -----  ----- -----
  +--> SZ_PREPARE/SZ

SZ_PREPARE/SZ                               ----- -----  ----- -----  ----- -----
  +--> T_100MS_ADC_ISR/ADC

T_100MS_ADC_ISR/ADC                         ----- -----  ----- -----  A47EH A47FH
  +--> _ADC_READ/ADC
  +--> _WRITEDGUS/DGUS

_ADC_READ/ADC                               ----- -----  ----- -----  A480H A481H
  +--> _READDGUS/DGUS

CLOCK/I2C                                   ----- -----  ----- -----  ----- -----
  +--> PRINTF/PRINTF
  +--> READ_TIME/I2C

READ_TIME/I2C                               ----- -----  ----- -----  A47EH A487H
  +--> _RX8130_WRIT_BYTE/I2C
  +--> RX8130_STOP/I2C
  +--> RX8130_START/I2C
  +--> RX8130_READ_BYTE/I2C
  +--> RX8130_MACK/I2C
  +--> RX8130_MNAK/I2C
  +--> _RTC_GET_WEEK/I2C
  +--> _WRITEDGUS/DGUS

_RTC_GET_WEEK/I2C                           ----- -----  ----- -----  A488H A48CH

?C_INITSEG                                  ----- -----  ----- -----  ----- -----

*** NEW ROOT ******************************

EX0_ISR_PC/SYS                              ----- -----  ----- -----  ----- -----

*** NEW ROOT ******************************

EX1_ISR_PC/SYS                              ----- -----  ----- -----  ----- -----

*** NEW ROOT ******************************

UART2_ISR_PC/UART                           ----- -----  ----- -----  ----- -----

*** NEW ROOT ******************************

UART3_ISR_PC/UART                           ----- -----  ----- -----  ----- -----

*** NEW ROOT ******************************

UART4_TX_ISR_PC/UART                        ----- -----  ----- -----  ----- -----

*** NEW ROOT ******************************

UART4_RX_ISR_PC/UART                        ----- -----  ----- -----  ----- -----

*** NEW ROOT ******************************

UART5_RX_ISR_PC/UART                        ----- -----  ----- -----  ----- -----
  +--> UART5_ISR/TOF

LX51 LINKER/LOCATER V4.66.93.0                                                        05/08/2025  10:05:08  PAGE 11


UART5_ISR/TOF                               ----- -----  ----- -----  ----- -----

*** NEW ROOT ******************************

T0_ISR_PC/TIMER                             ----- -----  ----- -----  ----- -----

*** NEW ROOT ******************************

T2_ISR_PC/TIMER                             ----- -----  ----- -----  ----- -----



PUBLIC SYMBOLS OF MODULE:  .\Objects\T5L51 (?C_STARTUP)


      VALUE       CLASS    TYPE      PUBLIC SYMBOL NAME
      =================================================
      0200A48DH   XDATA    BYTE      ?_find_dlt645_frame?BYTE
      0200A48DH   XDATA    BYTE      ?_parse_dlt645_frame?BYTE
      0200A48CH   XDATA    ---       ?_pow?BYTE
      0200A482H   XDATA    ---       ?_PRINTF?BYTE
      0200A4B7H   XDATA    BYTE      ?_ReadDGUS?BYTE
      0200A482H   XDATA    ---       ?_SPRINTF?BYTE
      0200A4B7H   XDATA    BYTE      ?_WriteDGUS?BYTE
      01000455H   CODE     ---       ?C?CASTF
      01000B71H   CODE     ---       ?C?CCASE
      010004D6H   CODE     ---       ?C?CHKFLOAT
      0100080FH   CODE     ---       ?C?CLDOPTR
      010007F6H   CODE     ---       ?C?CLDPTR
      00000000H   NUMBER   ---       ?C?CODESEG
      010007D0H   CODE     ---       ?C?COPY
      0100084EH   CODE     ---       ?C?CSTOPTR
      0100083CH   CODE     ---       ?C?CSTPTR
      01000421H   CODE     ---       ?C?FCASTC
      0100041CH   CODE     ---       ?C?FCASTI
      01000417H   CODE     ---       ?C?FCASTL
      01000643H   CODE     ---       ?C?FP2SERIES
      01000107H   CODE     ---       ?C?FPADD
      010003A0H   CODE     ---       ?C?FPCMP
      0100039EH   CODE     ---       ?C?FPCMP3
      0100053EH   CODE     ---       ?C?FPCONVERT
      01000301H   CODE     ---       ?C?FPDIV
      0100048CH   CODE     ---       ?C?FPGETOPN2
      010001F8H   CODE     ---       ?C?FPMUL
      010004C1H   CODE     ---       ?C?FPNANRESULT
      010004F0H   CODE     ---       ?C?FPNEG
      010004CBH   CODE     ---       ?C?FPOVERFLOW
      010004A3H   CODE     ---       ?C?FPRESULT
      010004B7H   CODE     ---       ?C?FPRESULT2
      01000501H   CODE     ---       ?C?FPROUND
      01000652H   CODE     ---       ?C?FPSERIES
      01000103H   CODE     ---       ?C?FPSUB
      010004C8H   CODE     ---       ?C?FPUNDERFLOW
      010006C0H   CODE     ---       ?C?FTNPWR
      01000B97H   CODE     ---       ?C?ICALL
      01000B9BH   CODE     ---       ?C?ICALL2
      0100090DH   CODE     ---       ?C?IILDX
      01000923H   CODE     ---       ?C?ILDIX
      01000964H   CODE     ---       ?C?ILDOPTR
      01000939H   CODE     ---       ?C?ILDPTR
      01000870H   CODE     ---       ?C?IMUL
      010009BBH   CODE     ---       ?C?ISTOPTR
      0100099CH   CODE     ---       ?C?ISTPTR
      01000AE8H   CODE     ---       ?C?LLDCODE
      01000B04H   CODE     ---       ?C?LLDCODE0
LX51 LINKER/LOCATER V4.66.93.0                                                        05/08/2025  10:05:08  PAGE 12


      01000AF8H   CODE     ---       ?C?LLDXDATA0
      01000AB6H   CODE     ---       ?C?LNEG
      01000AD5H   CODE     ---       ?C?LSHL
      01000B20H   CODE     ---       ?C?LSTKXDATA
      01000B14H   CODE     ---       ?C?LSTXDATA
      01000B9DH   CODE     ---       ?C?MEMSET
      01000B51H   CODE     ---       ?C?PLDIXDATA
      01000B68H   CODE     ---       ?C?PSTXDATA
      010008D7H   CODE     ---       ?C?SIDIV
      01000882H   CODE     ---       ?C?UIDIV
      01000AC4H   CODE     ---       ?C?ULCMP
      01000A24H   CODE     ---       ?C?ULDIV
      00000000H   NUMBER   ---       ?C?XDATASEG
      01003993H   CODE     ---       ?C_START
      01000000H   CODE     ---       ?C_STARTUP
      010043C1H   CODE     ---       _adc_read
      01003730H   CODE     ---       _CHART_FIRST__RUNNING_CANKAO
      01003C09H   CODE     ---       _CHART_FIRST_RUNNING
      01003D6BH   CODE     ---       _CHART_RESET
      010044D7H   CODE     ---       _DelayMs
      01003A10H   CODE     ---       _EXP
      01003313H   CODE     ---       _find_dlt645_frame
      01000086H   CODE     ---       _get_X_Y
      01003F08H   CODE     ---       _JumpPage
      01001F13H   CODE     ---       _L_mm_TO_P_uw
      0100402CH   CODE     ---       _Lock_current_page_zengliang
      01002F37H   CODE     ---       _LOG
      01002F33H   CODE     ---       _LOG10
      01003671H   CODE     ---       _page_set
      0100441CH   CODE     ---       _parse_dlt645_frame
      010029C1H   CODE     ---       _pow
      01000C34H   CODE     ---       _PRINTF
      01000026H   CODE     ---       _putchar
      010033F2H   CODE     ---       _QRJ_mm_to_s
      01001CA8H   CODE     ---       _QRJ_ZX__QY_RUN
      010023BCH   CODE     ---       _ReadDGUS
      01002B27H   CODE     ---       _RTC_Get_Week
      01003D3EH   CODE     ---       _Rx8130_Writ_Byte
      01004515H   CODE     ---       _SetBlight
      01003A72H   CODE     ---       _SetVoice
      01000C2EH   CODE     ---       _SPRINTF
      01004608H   CODE     ---       _Uart2SendByte
      0100428EH   CODE     ---       _Uart2SendStr
      01004616H   CODE     ---       _Uart3SendByte
      010042CFH   CODE     ---       _Uart3SendStr
      010045F8H   CODE     ---       _Uart4SendByte
      0100408AH   CODE     ---       _Unlock_current_page_zengliang
      010037E3H   CODE     ---       _update_point
      0100216FH   CODE     ---       _WriteDGUS
      01003C97H   CODE     ---       _Y_log_calculate
*SFR* 000000D0H.6 DATA     BIT       AC
*SFR* 000000E0H   DATA     BYTE      ACC
      0200A51EH   XDATA    DWORD     ADC_100ms
      0200A522H   XDATA    BYTE      adc_channel
*SFR* 000000D8H   DATA     BYTE      ADCON
*SFR* 000000F1H   DATA     BYTE      ADR_H
*SFR* 000000F4H   DATA     BYTE      ADR_INC
*SFR* 000000F3H   DATA     BYTE      ADR_L
*SFR* 000000F2H   DATA     BYTE      ADR_M
      0200A4C6H   XDATA    WORD      Adress_line_1
      0200A4C8H   XDATA    WORD      Adress_line_2
*SFR* 000000F8H.4 DATA     BIT       APP_ACK
*SFR* 000000F8H.0 DATA     BIT       APP_DATA0
*SFR* 000000F8H.1 DATA     BIT       APP_DATA1
*SFR* 000000F8H.2 DATA     BIT       APP_DATA2
LX51 LINKER/LOCATER V4.66.93.0                                                        05/08/2025  10:05:08  PAGE 13


*SFR* 000000F8H.3 DATA     BIT       APP_DATA3
*SFR* 000000F8H.6 DATA     BIT       APP_EN
*SFR* 000000F8H.7 DATA     BIT       APP_REQ
*SFR* 000000F8H.5 DATA     BIT       APP_RW
*SFR* 000000F0H   DATA     BYTE      B
      0200A470H   XDATA    WORD      baifenbi_T
*SFR* 000000D9H   DATA     BYTE      BODE2_DIV_H
*SFR* 000000E7H   DATA     BYTE      BODE2_DIV_L
*SFR* 000000AEH   DATA     BYTE      BODE3_DIV_H
*SFR* 000000AFH   DATA     BYTE      BODE3_DIV_L
*SFR* 0000008FH   DATA     BYTE      CAN_CR
*SFR* 000000E8H   DATA     BYTE      CAN_ET
*SFR* 00000091H   DATA     BYTE      CAN_IR
      0200A462H   XDATA    FLOAT     change_P_uW_doing
      01004662H   CODE     ---       CHART_RUNNING
*SFR* 0000008EH   DATA     BYTE      CKCON
      01004493H   CODE     ---       Clock
      0200A45AH   XDATA    WORD      ControlPageLock_Adress
      0100468EH   CONST    ---       CUart2
      010046A3H   CONST    ---       CUart3
      010046B5H   CONST    ---       CUart4
      010046C7H   CONST    ---       CUart5
      0200A46EH   XDATA    WORD      Current_Lock
      0200A534H   XDATA    BYTE      current_st
      0200A4EAH   XDATA    BYTE      current_state
      0200A441H   XDATA    ---       CurrentPageNum
*SFR* 000000D0H.7 DATA     BIT       CY
      0200A466H   XDATA    FLOAT     D
*SFR* 00000095H   DATA     BYTE      D_PAGESEL
*SFR* 000000FDH   DATA     BYTE      DATA0
*SFR* 000000FCH   DATA     BYTE      DATA1
*SFR* 000000FBH   DATA     BYTE      DATA2
*SFR* 000000FAH   DATA     BYTE      DATA3
      01004599H   CODE     ---       Delayus
*SFR* 000000E6H   DATA     BYTE      DIV_MODE
      01003893H   CODE     ---       dlt645_handle
*SFR* 00000093H   DATA     BYTE      DPC
*SFR* 00000083H   DATA     BYTE      DPH
*SFR* 00000082H   DATA     BYTE      DPL
      01004144H   CODE     ---       Draw_chart
*SFR* 000000A8H.7 DATA     BIT       EA
*SFR* 000000B8H.1 DATA     BIT       ECAN
*SFR* 000000A8H.4 DATA     BIT       ES0
*SFR* 000000B8H.3 DATA     BIT       ES2R
*SFR* 000000B8H.2 DATA     BIT       ES2T
*SFR* 000000B8H.5 DATA     BIT       ES3R
*SFR* 000000B8H.4 DATA     BIT       ES3T
*SFR* 000000A8H.1 DATA     BIT       ET0
*SFR* 000000A8H.3 DATA     BIT       ET1
*SFR* 000000A8H.5 DATA     BIT       ET2
*SFR* 000000A8H.0 DATA     BIT       EX0
      01000006H   CODE     ---       EX0_ISR_PC
*SFR* 000000A8H.2 DATA     BIT       EX1
      0100000EH   CODE     ---       EX1_ISR_PC
*SFR* 000000FEH   DATA     BYTE      EXADR
*SFR* 000000FFH   DATA     BYTE      EXDATA
*SFR* 000000D0H.5 DATA     BIT       F0
*SFR* 000000D0H.1 DATA     BIT       F1
      0200A12AH   XDATA    ---       frame_buf
      0200A329H   XDATA    ---       frame_buf1
      01004681H   CODE     ---       get_data1
      010041F9H   CODE     ---       GetValue0F00
      0200A4FCH   XDATA    ---       GY53_Data
      01004640H   CODE     ---       HandleProc
      0200A54FH   XDATA    DWORD     i
LX51 LINKER/LOCATER V4.66.93.0                                                        05/08/2025  10:05:08  PAGE 14


      0200A52BH   XDATA    ---       icon
*SFR* 00000088H.1 DATA     BIT       IE0
*SFR* 00000088H.3 DATA     BIT       IE1
*SFR* 000000A8H   DATA     BYTE      IEN0
*SFR* 000000B8H   DATA     BYTE      IEN1
*SFR* 0000009AH   DATA     BYTE      IEN2
*SFR* 000000D1H   DATA     BYTE      IEN3
      0100419FH   CODE     ---       Init_Rtc
      010045E7H   CODE     ---       InitCPU
      01004562H   CODE     ---       InitGPIO
      0100005EH   CODE     ---       InitInt
      0100467BH   CODE     ---       InitTimer
      01004675H   CODE     ---       InitUart
      0100464CH   CODE     ---       InitUartSend
      0100005AH   CODE     ---       Interactive_INIT
      0100006AH   CODE     ---       Interactive_RUNNING
*SFR* 000000A9H   DATA     BYTE      IP0
*SFR* 000000B9H   DATA     BYTE      IP1
*SFR* 000000C0H   DATA     BYTE      IRCON
*SFR* 000000BFH   DATA     BYTE      IRCON2
*SFR* 00000088H.0 DATA     BIT       IT0
*SFR* 00000088H.2 DATA     BIT       IT1
*SFR* 000000A0H.5 DATA     BIT       JIGUANG
      0200A50CH   XDATA    WORD      L_int
      0200A476H   XDATA    FLOAT     L_M
      0200A451H   XDATA    FLOAT     L_m_D_V_S
      0200A533H   XDATA    BYTE      L_T_S_FLAG
      0200A459H   XDATA    BYTE      last_page
*SFR* 000000A0H.3 DATA     BIT       LED_B
*SFR* 000000A0H.1 DATA     BIT       LED_G
*SFR* 00000090H.7 DATA     BIT       LED_R
      010035A9H   CODE     ---       Lock_current_page
*SFR* 000000E5H   DATA     BYTE      MAC_MODE
      01004549H   CODE     ---       main
      0200A455H   XDATA    FLOAT     mJ_doing
      0200A4FBH   XDATA    BYTE      MODE
      0200A44BH   XDATA    WORD      mode_close
      0200A460H   XDATA    WORD      mode_open
*SFR* 000000C9H   DATA     BYTE      MUX_SEL
*SFR* 000000D0H.2 DATA     BIT       OV
*SFR* 000000D0H.0 DATA     BIT       P
*SFR* 00000080H   DATA     BYTE      P0
*SFR* 00000080H.0 DATA     BIT       P0_0
*SFR* 000000B7H   DATA     BYTE      P0MDOUT
*SFR* 00000090H   DATA     BYTE      P1
*SFR* 00000090H.0 DATA     BIT       P1_0
*SFR* 00000090H.1 DATA     BIT       P1_1
*SFR* 000000BCH   DATA     BYTE      P1MDOUT
*SFR* 000000A0H   DATA     BYTE      P2
*SFR* 000000BDH   DATA     BYTE      P2MDOUT
*SFR* 000000B0H   DATA     BYTE      P3
*SFR* 000000B0H.1 DATA     BIT       P3_1
*SFR* 000000BEH   DATA     BYTE      P3MDOUT
      01004632H   CODE     ---       PageLock_Init
*SFR* 00000094H   DATA     BYTE      PAGESEL
      0200A46AH   XDATA    BYTE      PageSliding
      0200A45CH   XDATA    FLOAT     pai
      0100104CH   CODE     ---       ParseBuffer
*SFR* 00000087H   DATA     BYTE      PCON
      0200A4F1H   XDATA    ---       point_get
      0200A4EBH   XDATA    ---       point_update
*SFR* 000000F9H   DATA     BYTE      PORTDRV
      01001714H   CODE     ---       Prepare_qrj_zx_qy
*SFR* 000000D0H   DATA     BYTE      PSW
      0200A523H   XDATA    FLOAT     qirongjiao_j
LX51 LINKER/LOCATER V4.66.93.0                                                        05/08/2025  10:05:08  PAGE 15


      010045A9H   CODE     ---       QRJ_done
      01003DD5H   CODE     ---       QRJ_Home
      0100452FH   CODE     ---       QRJ_Init
      0100302CH   CODE     ---       QRJ_prepare
      010040E8H   CODE     ---       QRJ_Reset
      01003E3EH   CODE     ---       QRJ_run
      010000F6H   CODE     ---       QRJ_Set
      010000F7H   CODE     ---       QRJ_stop
*SFR* 000000F8H   DATA     BYTE      RAMMODE
*SFR* 00000098H.2 DATA     BIT       RB80
      01002DD0H   CODE     ---       Read_Time
      01004245H   CODE     ---       ReadCurrentPage_run
*SFR* 00000098H.4 DATA     BIT       REN0
      0200A46BH   XDATA    BYTE      Returnkey
*SFR* 00000098H.0 DATA     BIT       RI0
*SFR* 000000D0H.3 DATA     BIT       RS0
*SFR* 000000D0H.4 DATA     BIT       RS1
*SFR* 000000B0H.2 DATA     BIT       RTC_SCL
*SFR* 000000B0H.3 DATA     BIT       RTC_SDA
      01001A04H   CODE     ---       RTC_SET_IN
      01002811H   CODE     ---       RTC_Set_Time
      01004470H   CODE     ---       Rx8130_Cack
      01000016H   CODE     ---       Rx8130_Mack
      01004657H   CODE     ---       Rx8130_Mnak
      010043EFH   CODE     ---       Rx8130_Read_Byte
      010045D3H   CODE     ---       Rx8130_Start
      010044C5H   CODE     ---       Rx8130_Stop
      0200A229H   XDATA    ---       s_dl_t_645_8283_body
*SFR* 00000099H   DATA     BYTE      SBUF0
*SFR* 0000009CH   DATA     BYTE      SBUF1
*SFR* 0000009FH   DATA     BYTE      SBUF2_RX
*SFR* 0000009EH   DATA     BYTE      SBUF2_TX
*SFR* 000000ADH   DATA     BYTE      SBUF3_RX
*SFR* 000000ACH   DATA     BYTE      SBUF3_TX
*SFR* 00000098H   DATA     BYTE      SCON0
*SFR* 0000009BH   DATA     BYTE      SCON1
*SFR* 00000097H   DATA     BYTE      SCON2R
*SFR* 00000096H   DATA     BYTE      SCON2T
*SFR* 000000ABH   DATA     BYTE      SCON3R
*SFR* 000000A7H   DATA     BYTE      SCON3T
      01000056H   CODE     ---       SDA_IN
      01004687H   CODE     ---       SDA_OUT
      0200A53BH   XDATA    BYTE      Select_rtc
*SFR* 00000098H.7 DATA     BIT       SM0
*SFR* 00000098H.6 DATA     BIT       SM1
*SFR* 00000098H.5 DATA     BIT       SM2
*SFR* 00000081H   DATA     BYTE      SP
      0200A472H   XDATA    FLOAT     Square
*SFR* 000000BAH   DATA     BYTE      SREL0H
*SFR* 000000AAH   DATA     BYTE      SREL0L
*SFR* 000000BBH   DATA     BYTE      SREL1H
*SFR* 0000009DH   DATA     BYTE      SREL1L
      0200A46CH   XDATA    ---       st_current
      0100434DH   CODE     ---       start_win_Init
      0200A4F6H   XDATA    BYTE      STATE_FIRST_FLAG
      01004310H   CODE     ---       switch_state
      0200A53CH   XDATA    WORD      SysTick_RTC
      01004389H   CODE     ---       SZ_Home
      01004448H   CODE     ---       SZ_prepare
      01004624H   CODE     ---       T0_Init
      01003234H   CODE     ---       T0_ISR_PC
      010045BFH   CODE     ---       T2_Init
      0100468BH   CODE     ---       T2_ISR_PC
*SFR* 000000C8H   DATA     BYTE      T2CON
      01002C84H   CODE     ---       T_100MS_ADC_isr
LX51 LINKER/LOCATER V4.66.93.0                                                        05/08/2025  10:05:08  PAGE 16


      0200A431H   XDATA    FLOAT     Tan_zhongxin
      0200A443H   XDATA    FLOAT     Tanx
*SFR* 00000098H.3 DATA     BIT       TB80
*SFR* 00000088H   DATA     BYTE      TCON
*SFR* 00000088H.5 DATA     BIT       TF0
*SFR* 00000088H.7 DATA     BIT       TF1
*SFR* 000000C0H.6 DATA     BIT       TF2
*SFR* 0000008CH   DATA     BYTE      TH0
*SFR* 0000008DH   DATA     BYTE      TH1
*SFR* 000000CDH   DATA     BYTE      TH2
*SFR* 00000098H.1 DATA     BIT       TI0
      0200A435H   XDATA    DWORD     time_100ms
      0200A44DH   XDATA    DWORD     time_doing
      0200A527H   XDATA    FLOAT     TIME_static
*SFR* 0000008AH   DATA     BYTE      TL0
*SFR* 0000008BH   DATA     BYTE      TL1
*SFR* 000000CCH   DATA     BYTE      TL2
*SFR* 00000089H   DATA     BYTE      TMOD
      01003B04H   CODE     ---       TouchHandle
*SFR* 00000088H.4 DATA     BIT       TR0
*SFR* 00000088H.6 DATA     BIT       TR1
*SFR* 000000C8H.0 DATA     BIT       TR2
*SFR* 000000CBH   DATA     BYTE      TRL2H
*SFR* 000000CAH   DATA     BYTE      TRL2L
*SFR* 000000C8H.7 DATA     BIT       TSF2
      02008080H   XDATA    BYTE      uart2_busy
      01003EA4H   CODE     ---       UART2_ISR_PC
      0200808AH   XDATA    ---       Uart2_Rx
      02008082H   XDATA    WORD      uart2_rx_count
      0100002EH   CODE     ---       Uart2Init
      02008081H   XDATA    BYTE      uart3_busy
      01003F6CH   CODE     ---       UART3_ISR_PC
      0200A02AH   XDATA    ---       Uart3_Rx
      02008084H   XDATA    WORD      uart3_rx_count
      010044F7H   CODE     ---       Uart3Init
      0200A0AAH   XDATA    ---       Uart4_Rx
      02008086H   XDATA    WORD      uart4_rx_count
      01003FCCH   CODE     ---       UART4_RX_ISR_PC
      0100466DH   CODE     ---       UART4_TX_ISR_PC
      0100457BH   CODE     ---       Uart4Init
      01003133H   CODE     ---       UART5_isr
      02008000H   XDATA    ---       Uart5_Rx
      02008088H   XDATA    WORD      uart5_rx_count
      01003B88H   CODE     ---       UART5_RX_ISR_PC
      0100006EH   CODE     ---       Uart5Init
      010034D1H   CODE     ---       Unlock_current_page
*SFR* 00000090H.5 DATA     BIT       UV
*SFR* 000000A0H.7 DATA     BIT       UV_St
      0200A429H   XDATA    ---       value0F00
      0200A47AH   XDATA    FLOAT     Volume
      01002604H   CODE     ---       X_calculate
      0200A4F7H   XDATA    WORD      X_calculate_1s
      0200A428H   XDATA    BYTE      xp_status
      0200A447H   XDATA    FLOAT     zhongxin_35mm



SYMBOL TABLE OF MODULE:  .\Objects\T5L51 (?C_STARTUP)

      VALUE       REP       CLASS    TYPE      SYMBOL NAME
      ====================================================
      ---         MODULE    ---      ---       ?C_STARTUP
      01000000H   PUBLIC    CODE     ---       ?C_STARTUP
      000000E0H   SYMBOL    DATA     ---       ACC
      000000F0H   SYMBOL    DATA     ---       B
LX51 LINKER/LOCATER V4.66.93.0                                                        05/08/2025  10:05:08  PAGE 17


      0000008EH   SYMBOL    DATA     ---       CKCON
      00000094H   SYMBOL    DATA     ---       DAGESEL
      00000093H   SYMBOL    DATA     ---       DPC
      00000083H   SYMBOL    DATA     ---       DPH
      00000082H   SYMBOL    DATA     ---       DPL
      00000095H   SYMBOL    DATA     ---       D_PAGESEL
      00000000H   SYMBOL    NUMBER   ---       IBPSTACK
      00000100H   SYMBOL    NUMBER   ---       IBPSTACKTOP
      00000080H   SYMBOL    NUMBER   ---       IDATALEN
      0100394FH   SYMBOL    CODE     ---       IDATALOOP
      000000C9H   SYMBOL    DATA     ---       MUX_SEL
      00000000H   SYMBOL    NUMBER   ---       PBPSTACK
      00000100H   SYMBOL    NUMBER   ---       PBPSTACKTOP
      00000000H   SYMBOL    NUMBER   ---       PDATALEN
      00000000H   SYMBOL    NUMBER   ---       PDATASTART
      00000000H   SYMBOL    NUMBER   ---       PPAGE
      00000000H   SYMBOL    NUMBER   ---       PPAGEENABLE
      000000A0H   SYMBOL    DATA     ---       PPAGE_SFR
      000000F8H   SYMBOL    DATA     ---       RAMMODE
      00000081H   SYMBOL    DATA     ---       SP
      01003937H   SYMBOL    CODE     ---       STARTUP1
      000000C8H   SYMBOL    DATA     ---       T2CON
      00000000H   SYMBOL    NUMBER   ---       XBPSTACK
      00000000H   SYMBOL    NUMBER   ---       XBPSTACKTOP
      00000000H   SYMBOL    NUMBER   ---       XDATALEN
      00000000H   SYMBOL    NUMBER   ---       XDATASTART
      01000000H   LINE      CODE     ---       #133
      01003937H   LINE      CODE     ---       #143
      0100393AH   LINE      CODE     ---       #144
      0100393DH   LINE      CODE     ---       #145
      01003940H   LINE      CODE     ---       #146
      01003943H   LINE      CODE     ---       #147
      01003946H   LINE      CODE     ---       #148
      01003949H   LINE      CODE     ---       #149
      0100394CH   LINE      CODE     ---       #152
      0100394EH   LINE      CODE     ---       #153
      0100394FH   LINE      CODE     ---       #154
      01003950H   LINE      CODE     ---       #155
      01003952H   LINE      CODE     ---       #204
      01003955H   LINE      CODE     ---       #215

      ---         MODULE    ---      ---       MAIN
      01004549H   PUBLIC    CODE     ---       main
      00000098H.3 SFRSYM    DATA     BIT       TB80
      000000F1H   SFRSYM    DATA     BYTE      ADR_H
      00000080H   SFRSYM    DATA     BYTE      P0
      00000090H   SFRSYM    DATA     BYTE      P1
      000000A0H   SFRSYM    DATA     BYTE      P2
      000000B0H   SFRSYM    DATA     BYTE      P3
      000000D0H.6 SFRSYM    DATA     BIT       AC
      000000F3H   SFRSYM    DATA     BYTE      ADR_L
      00000094H   SFRSYM    DATA     BYTE      PAGESEL
      000000F2H   SFRSYM    DATA     BYTE      ADR_M
      000000A8H.7 SFRSYM    DATA     BIT       EA
      000000A0H.5 SFRSYM    DATA     BIT       JIGUANG
      00000090H.7 SFRSYM    DATA     BIT       LED_R
      000000F8H   SFRSYM    DATA     BYTE      RAMMODE
      000000B7H   SFRSYM    DATA     BYTE      P0MDOUT
      000000A8H   SFRSYM    DATA     BYTE      IEN0
      000000BCH   SFRSYM    DATA     BYTE      P1MDOUT
      000000B8H   SFRSYM    DATA     BYTE      IEN1
      000000BDH   SFRSYM    DATA     BYTE      P2MDOUT
      000000F8H.0 SFRSYM    DATA     BIT       APP_DATA0
      0000009AH   SFRSYM    DATA     BYTE      IEN2
      000000BEH   SFRSYM    DATA     BYTE      P3MDOUT
LX51 LINKER/LOCATER V4.66.93.0                                                        05/08/2025  10:05:08  PAGE 18


      000000F8H.1 SFRSYM    DATA     BIT       APP_DATA1
      000000D1H   SFRSYM    DATA     BYTE      IEN3
      00000080H.0 SFRSYM    DATA     BIT       P0_0
      000000F8H.2 SFRSYM    DATA     BIT       APP_DATA2
      00000090H.0 SFRSYM    DATA     BIT       P1_0
      000000F8H.3 SFRSYM    DATA     BIT       APP_DATA3
      00000090H.1 SFRSYM    DATA     BIT       P1_1
      000000F8H.4 SFRSYM    DATA     BIT       APP_ACK
      000000F4H   SFRSYM    DATA     BYTE      ADR_INC
      000000B0H.1 SFRSYM    DATA     BIT       P3_1
      00000098H.4 SFRSYM    DATA     BIT       REN0
      000000B8H.1 SFRSYM    DATA     BIT       ECAN
      000000D0H.7 SFRSYM    DATA     BIT       CY
      000000B8H.3 SFRSYM    DATA     BIT       ES2R
      000000B8H.5 SFRSYM    DATA     BIT       ES3R
      000000B8H.2 SFRSYM    DATA     BIT       ES2T
      000000B8H.4 SFRSYM    DATA     BIT       ES3T
      000000C8H.7 SFRSYM    DATA     BIT       TSF2
      000000B0H.3 SFRSYM    DATA     BIT       RTC_SDA
      00000081H   SFRSYM    DATA     BYTE      SP
      000000D0H.2 SFRSYM    DATA     BIT       OV
      00000095H   SFRSYM    DATA     BYTE      D_PAGESEL
      00000090H.5 SFRSYM    DATA     BIT       UV
      000000F8H.7 SFRSYM    DATA     BIT       APP_REQ
      000000B0H.2 SFRSYM    DATA     BIT       RTC_SCL
      000000BFH   SFRSYM    DATA     BYTE      IRCON2
      000000BAH   SFRSYM    DATA     BYTE      SREL0H
      000000BBH   SFRSYM    DATA     BYTE      SREL1H
      00000087H   SFRSYM    DATA     BYTE      PCON
      000000AAH   SFRSYM    DATA     BYTE      SREL0L
      000000F9H   SFRSYM    DATA     BYTE      PORTDRV
      0000009DH   SFRSYM    DATA     BYTE      SREL1L
      00000089H   SFRSYM    DATA     BYTE      TMOD
      00000088H   SFRSYM    DATA     BYTE      TCON
      00000097H   SFRSYM    DATA     BYTE      SCON2R
      000000FFH   SFRSYM    DATA     BYTE      EXDATA
      000000ABH   SFRSYM    DATA     BYTE      SCON3R
      000000D9H   SFRSYM    DATA     BYTE      BODE2_DIV_H
      000000AEH   SFRSYM    DATA     BYTE      BODE3_DIV_H
      00000096H   SFRSYM    DATA     BYTE      SCON2T
      000000A7H   SFRSYM    DATA     BYTE      SCON3T
      000000E7H   SFRSYM    DATA     BYTE      BODE2_DIV_L
      00000088H.1 SFRSYM    DATA     BIT       IE0
      000000AFH   SFRSYM    DATA     BYTE      BODE3_DIV_L
      00000088H.3 SFRSYM    DATA     BIT       IE1
      000000C9H   SFRSYM    DATA     BYTE      MUX_SEL
      000000F0H   SFRSYM    DATA     BYTE      B
      000000E0H   SFRSYM    DATA     BYTE      ACC
      000000A8H.4 SFRSYM    DATA     BIT       ES0
      0000008FH   SFRSYM    DATA     BYTE      CAN_CR
      000000A8H.1 SFRSYM    DATA     BIT       ET0
      000000A9H   SFRSYM    DATA     BYTE      IP0
      000000A8H.3 SFRSYM    DATA     BIT       ET1
      00000088H.5 SFRSYM    DATA     BIT       TF0
      000000B9H   SFRSYM    DATA     BYTE      IP1
      000000A8H.5 SFRSYM    DATA     BIT       ET2
      00000098H.0 SFRSYM    DATA     BIT       RI0
      00000088H.7 SFRSYM    DATA     BIT       TF1
      000000FDH   SFRSYM    DATA     BYTE      DATA0
      000000C0H.6 SFRSYM    DATA     BIT       TF2
      000000E8H   SFRSYM    DATA     BYTE      CAN_ET
      000000FCH   SFRSYM    DATA     BYTE      DATA1
      0000008CH   SFRSYM    DATA     BYTE      TH0
      000000A8H.0 SFRSYM    DATA     BIT       EX0
      00000098H.1 SFRSYM    DATA     BIT       TI0
LX51 LINKER/LOCATER V4.66.93.0                                                        05/08/2025  10:05:08  PAGE 19


      00000088H.0 SFRSYM    DATA     BIT       IT0
      000000FBH   SFRSYM    DATA     BYTE      DATA2
      0000008DH   SFRSYM    DATA     BYTE      TH1
      000000A8H.2 SFRSYM    DATA     BIT       EX1
      00000091H   SFRSYM    DATA     BYTE      CAN_IR
      000000CDH   SFRSYM    DATA     BYTE      TH2
      00000088H.2 SFRSYM    DATA     BIT       IT1
      000000FAH   SFRSYM    DATA     BYTE      DATA3
      000000D0H.0 SFRSYM    DATA     BIT       P
      00000098H.7 SFRSYM    DATA     BIT       SM0
      0000008AH   SFRSYM    DATA     BYTE      TL0
      00000098H.6 SFRSYM    DATA     BIT       SM1
      0000008BH   SFRSYM    DATA     BYTE      TL1
      00000098H.5 SFRSYM    DATA     BIT       SM2
      000000CCH   SFRSYM    DATA     BYTE      TL2
      000000A0H.7 SFRSYM    DATA     BIT       UV_St
      000000D0H.3 SFRSYM    DATA     BIT       RS0
      000000F8H.6 SFRSYM    DATA     BIT       APP_EN
      000000D0H.4 SFRSYM    DATA     BIT       RS1
      00000088H.4 SFRSYM    DATA     BIT       TR0
      00000088H.6 SFRSYM    DATA     BIT       TR1
      00000093H   SFRSYM    DATA     BYTE      DPC
      000000C8H.0 SFRSYM    DATA     BIT       TR2
      000000E5H   SFRSYM    DATA     BYTE      MAC_MODE
      00000083H   SFRSYM    DATA     BYTE      DPH
      00000082H   SFRSYM    DATA     BYTE      DPL
      00000099H   SFRSYM    DATA     BYTE      SBUF0
      0000009CH   SFRSYM    DATA     BYTE      SBUF1
      00000098H   SFRSYM    DATA     BYTE      SCON0
      0000009BH   SFRSYM    DATA     BYTE      SCON1
      000000D8H   SFRSYM    DATA     BYTE      ADCON
      000000C8H   SFRSYM    DATA     BYTE      T2CON
      000000E6H   SFRSYM    DATA     BYTE      DIV_MODE
      000000F8H.5 SFRSYM    DATA     BIT       APP_RW
      000000CBH   SFRSYM    DATA     BYTE      TRL2H
      0000009FH   SFRSYM    DATA     BYTE      SBUF2_RX
      000000ADH   SFRSYM    DATA     BYTE      SBUF3_RX
      0000008EH   SFRSYM    DATA     BYTE      CKCON
      0000009EH   SFRSYM    DATA     BYTE      SBUF2_TX
      000000ACH   SFRSYM    DATA     BYTE      SBUF3_TX
      000000CAH   SFRSYM    DATA     BYTE      TRL2L
      000000D0H.5 SFRSYM    DATA     BIT       F0
      000000FEH   SFRSYM    DATA     BYTE      EXADR
      000000D0H.1 SFRSYM    DATA     BIT       F1
      000000A0H.3 SFRSYM    DATA     BIT       LED_B
      000000D0H   SFRSYM    DATA     BYTE      PSW
      000000A0H.1 SFRSYM    DATA     BIT       LED_G
      000000C0H   SFRSYM    DATA     BYTE      IRCON
      00000098H.2 SFRSYM    DATA     BIT       RB80

      01004549H   BLOCK     CODE     ---       LVL=0
      01004549H   LINE      CODE     ---       #50
      01004549H   LINE      CODE     ---       #51
      01004549H   LINE      CODE     ---       #52
      0100454CH   LINE      CODE     ---       #56
      0100454FH   LINE      CODE     ---       #57
      01004551H   LINE      CODE     ---       #58
      01004554H   LINE      CODE     ---       #59
      01004557H   LINE      CODE     ---       #61
      01004557H   LINE      CODE     ---       #62
      01004557H   LINE      CODE     ---       #67
      0100455AH   LINE      CODE     ---       #68
      0100455DH   LINE      CODE     ---       #70
      01004560H   LINE      CODE     ---       #75
      ---         BLOCKEND  ---      ---       LVL=0
LX51 LINKER/LOCATER V4.66.93.0                                                        05/08/2025  10:05:08  PAGE 20



      ---         MODULE    ---      ---       SYS
      010045E7H   PUBLIC    CODE     ---       InitCPU
      0100000EH   PUBLIC    CODE     ---       EX1_ISR_PC
      01000006H   PUBLIC    CODE     ---       EX0_ISR_PC
      01004562H   PUBLIC    CODE     ---       InitGPIO
      0100005EH   PUBLIC    CODE     ---       InitInt
      010044D7H   PUBLIC    CODE     ---       _DelayMs
      00000098H.3 SFRSYM    DATA     BIT       TB80
      000000F1H   SFRSYM    DATA     BYTE      ADR_H
      00000080H   SFRSYM    DATA     BYTE      P0
      00000090H   SFRSYM    DATA     BYTE      P1
      000000A0H   SFRSYM    DATA     BYTE      P2
      000000B0H   SFRSYM    DATA     BYTE      P3
      000000D0H.6 SFRSYM    DATA     BIT       AC
      000000F3H   SFRSYM    DATA     BYTE      ADR_L
      00000094H   SFRSYM    DATA     BYTE      PAGESEL
      000000F2H   SFRSYM    DATA     BYTE      ADR_M
      000000A8H.7 SFRSYM    DATA     BIT       EA
      000000A0H.5 SFRSYM    DATA     BIT       JIGUANG
      00000090H.7 SFRSYM    DATA     BIT       LED_R
      000000F8H   SFRSYM    DATA     BYTE      RAMMODE
      000000B7H   SFRSYM    DATA     BYTE      P0MDOUT
      000000A8H   SFRSYM    DATA     BYTE      IEN0
      000000BCH   SFRSYM    DATA     BYTE      P1MDOUT
      000000B8H   SFRSYM    DATA     BYTE      IEN1
      000000BDH   SFRSYM    DATA     BYTE      P2MDOUT
      000000F8H.0 SFRSYM    DATA     BIT       APP_DATA0
      0000009AH   SFRSYM    DATA     BYTE      IEN2
      000000BEH   SFRSYM    DATA     BYTE      P3MDOUT
      000000F8H.1 SFRSYM    DATA     BIT       APP_DATA1
      000000D1H   SFRSYM    DATA     BYTE      IEN3
      00000080H.0 SFRSYM    DATA     BIT       P0_0
      000000F8H.2 SFRSYM    DATA     BIT       APP_DATA2
      00000090H.0 SFRSYM    DATA     BIT       P1_0
      000000F8H.3 SFRSYM    DATA     BIT       APP_DATA3
      00000090H.1 SFRSYM    DATA     BIT       P1_1
      000000F8H.4 SFRSYM    DATA     BIT       APP_ACK
      000000F4H   SFRSYM    DATA     BYTE      ADR_INC
      000000B0H.1 SFRSYM    DATA     BIT       P3_1
      00000098H.4 SFRSYM    DATA     BIT       REN0
      000000B8H.1 SFRSYM    DATA     BIT       ECAN
      000000D0H.7 SFRSYM    DATA     BIT       CY
      000000B8H.3 SFRSYM    DATA     BIT       ES2R
      000000B8H.5 SFRSYM    DATA     BIT       ES3R
      000000B8H.2 SFRSYM    DATA     BIT       ES2T
      000000B8H.4 SFRSYM    DATA     BIT       ES3T
      000000C8H.7 SFRSYM    DATA     BIT       TSF2
      000000B0H.3 SFRSYM    DATA     BIT       RTC_SDA
      00000081H   SFRSYM    DATA     BYTE      SP
      000000D0H.2 SFRSYM    DATA     BIT       OV
      00000095H   SFRSYM    DATA     BYTE      D_PAGESEL
      00000090H.5 SFRSYM    DATA     BIT       UV
      000000F8H.7 SFRSYM    DATA     BIT       APP_REQ
      000000B0H.2 SFRSYM    DATA     BIT       RTC_SCL
      000000BFH   SFRSYM    DATA     BYTE      IRCON2
      000000BAH   SFRSYM    DATA     BYTE      SREL0H
      000000BBH   SFRSYM    DATA     BYTE      SREL1H
      00000087H   SFRSYM    DATA     BYTE      PCON
      000000AAH   SFRSYM    DATA     BYTE      SREL0L
      000000F9H   SFRSYM    DATA     BYTE      PORTDRV
      0000009DH   SFRSYM    DATA     BYTE      SREL1L
      00000089H   SFRSYM    DATA     BYTE      TMOD
      00000088H   SFRSYM    DATA     BYTE      TCON
      00000097H   SFRSYM    DATA     BYTE      SCON2R
LX51 LINKER/LOCATER V4.66.93.0                                                        05/08/2025  10:05:08  PAGE 21


      000000FFH   SFRSYM    DATA     BYTE      EXDATA
      000000ABH   SFRSYM    DATA     BYTE      SCON3R
      000000D9H   SFRSYM    DATA     BYTE      BODE2_DIV_H
      000000AEH   SFRSYM    DATA     BYTE      BODE3_DIV_H
      00000096H   SFRSYM    DATA     BYTE      SCON2T
      000000A7H   SFRSYM    DATA     BYTE      SCON3T
      000000E7H   SFRSYM    DATA     BYTE      BODE2_DIV_L
      00000088H.1 SFRSYM    DATA     BIT       IE0
      000000AFH   SFRSYM    DATA     BYTE      BODE3_DIV_L
      00000088H.3 SFRSYM    DATA     BIT       IE1
      000000C9H   SFRSYM    DATA     BYTE      MUX_SEL
      000000F0H   SFRSYM    DATA     BYTE      B
      000000E0H   SFRSYM    DATA     BYTE      ACC
      000000A8H.4 SFRSYM    DATA     BIT       ES0
      0000008FH   SFRSYM    DATA     BYTE      CAN_CR
      000000A8H.1 SFRSYM    DATA     BIT       ET0
      000000A9H   SFRSYM    DATA     BYTE      IP0
      000000A8H.3 SFRSYM    DATA     BIT       ET1
      00000088H.5 SFRSYM    DATA     BIT       TF0
      000000B9H   SFRSYM    DATA     BYTE      IP1
      000000A8H.5 SFRSYM    DATA     BIT       ET2
      00000098H.0 SFRSYM    DATA     BIT       RI0
      00000088H.7 SFRSYM    DATA     BIT       TF1
      000000FDH   SFRSYM    DATA     BYTE      DATA0
      000000C0H.6 SFRSYM    DATA     BIT       TF2
      000000E8H   SFRSYM    DATA     BYTE      CAN_ET
      000000FCH   SFRSYM    DATA     BYTE      DATA1
      0000008CH   SFRSYM    DATA     BYTE      TH0
      000000A8H.0 SFRSYM    DATA     BIT       EX0
      00000098H.1 SFRSYM    DATA     BIT       TI0
      00000088H.0 SFRSYM    DATA     BIT       IT0
      000000FBH   SFRSYM    DATA     BYTE      DATA2
      0000008DH   SFRSYM    DATA     BYTE      TH1
      000000A8H.2 SFRSYM    DATA     BIT       EX1
      00000091H   SFRSYM    DATA     BYTE      CAN_IR
      000000CDH   SFRSYM    DATA     BYTE      TH2
      00000088H.2 SFRSYM    DATA     BIT       IT1
      000000FAH   SFRSYM    DATA     BYTE      DATA3
      000000D0H.0 SFRSYM    DATA     BIT       P
      00000098H.7 SFRSYM    DATA     BIT       SM0
      0000008AH   SFRSYM    DATA     BYTE      TL0
      00000098H.6 SFRSYM    DATA     BIT       SM1
      0000008BH   SFRSYM    DATA     BYTE      TL1
      00000098H.5 SFRSYM    DATA     BIT       SM2
      000000CCH   SFRSYM    DATA     BYTE      TL2
      000000A0H.7 SFRSYM    DATA     BIT       UV_St
      000000D0H.3 SFRSYM    DATA     BIT       RS0
      000000F8H.6 SFRSYM    DATA     BIT       APP_EN
      000000D0H.4 SFRSYM    DATA     BIT       RS1
      00000088H.4 SFRSYM    DATA     BIT       TR0
      00000088H.6 SFRSYM    DATA     BIT       TR1
      00000093H   SFRSYM    DATA     BYTE      DPC
      000000C8H.0 SFRSYM    DATA     BIT       TR2
      000000E5H   SFRSYM    DATA     BYTE      MAC_MODE
      00000083H   SFRSYM    DATA     BYTE      DPH
      00000082H   SFRSYM    DATA     BYTE      DPL
      00000099H   SFRSYM    DATA     BYTE      SBUF0
      0000009CH   SFRSYM    DATA     BYTE      SBUF1
      00000098H   SFRSYM    DATA     BYTE      SCON0
      0000009BH   SFRSYM    DATA     BYTE      SCON1
      000000D8H   SFRSYM    DATA     BYTE      ADCON
      000000C8H   SFRSYM    DATA     BYTE      T2CON
      000000E6H   SFRSYM    DATA     BYTE      DIV_MODE
      000000F8H.5 SFRSYM    DATA     BIT       APP_RW
      000000CBH   SFRSYM    DATA     BYTE      TRL2H
LX51 LINKER/LOCATER V4.66.93.0                                                        05/08/2025  10:05:08  PAGE 22


      0000009FH   SFRSYM    DATA     BYTE      SBUF2_RX
      000000ADH   SFRSYM    DATA     BYTE      SBUF3_RX
      0000008EH   SFRSYM    DATA     BYTE      CKCON
      0000009EH   SFRSYM    DATA     BYTE      SBUF2_TX
      000000ACH   SFRSYM    DATA     BYTE      SBUF3_TX
      000000CAH   SFRSYM    DATA     BYTE      TRL2L
      000000D0H.5 SFRSYM    DATA     BIT       F0
      000000FEH   SFRSYM    DATA     BYTE      EXADR
      000000D0H.1 SFRSYM    DATA     BIT       F1
      000000A0H.3 SFRSYM    DATA     BIT       LED_B
      000000D0H   SFRSYM    DATA     BYTE      PSW
      000000A0H.1 SFRSYM    DATA     BIT       LED_G
      000000C0H   SFRSYM    DATA     BYTE      IRCON
      00000098H.2 SFRSYM    DATA     BIT       RB80

      010044D7H   BLOCK     CODE     ---       LVL=0
      00000006H   SYMBOL    DATA     WORD      n
      010044D7H   BLOCK     CODE     NEAR LAB  LVL=1
      00000004H   SYMBOL    DATA     WORD      i
      00000002H   SYMBOL    DATA     WORD      j
      ---         BLOCKEND  ---      ---       LVL=1
      010044D7H   LINE      CODE     ---       #35
      010044D7H   LINE      CODE     ---       #36
      010044D7H   LINE      CODE     ---       #38
      010044E1H   LINE      CODE     ---       #39
      010044F6H   LINE      CODE     ---       #40
      ---         BLOCKEND  ---      ---       LVL=0

      0100005EH   BLOCK     CODE     ---       LVL=0
      0100005EH   LINE      CODE     ---       #60
      0100005EH   LINE      CODE     ---       #61
      0100005EH   LINE      CODE     ---       #62
      01000061H   LINE      CODE     ---       #63
      01000063H   LINE      CODE     ---       #64
      01000065H   LINE      CODE     ---       #65
      01000067H   LINE      CODE     ---       #66
      01000069H   LINE      CODE     ---       #67
      ---         BLOCKEND  ---      ---       LVL=0

      01004562H   BLOCK     CODE     ---       LVL=0
      01004562H   LINE      CODE     ---       #70
      01004562H   LINE      CODE     ---       #71
      01004562H   LINE      CODE     ---       #72
      01004565H   LINE      CODE     ---       #73
      01004568H   LINE      CODE     ---       #74
      0100456BH   LINE      CODE     ---       #77
      0100456EH   LINE      CODE     ---       #78
      01004571H   LINE      CODE     ---       #79
      01004574H   LINE      CODE     ---       #80
      01004576H   LINE      CODE     ---       #81
      01004578H   LINE      CODE     ---       #82
      0100457AH   LINE      CODE     ---       #83
      ---         BLOCKEND  ---      ---       LVL=0

      01000006H   BLOCK     CODE     ---       LVL=0
      01000006H   LINE      CODE     ---       #84
      01000006H   LINE      CODE     ---       #86
      01000008H   LINE      CODE     ---       #88
      0100000AH   LINE      CODE     ---       #89
      ---         BLOCKEND  ---      ---       LVL=0

      0100000EH   BLOCK     CODE     ---       LVL=0
      0100000EH   LINE      CODE     ---       #90
      0100000EH   LINE      CODE     ---       #92
      01000010H   LINE      CODE     ---       #94
LX51 LINKER/LOCATER V4.66.93.0                                                        05/08/2025  10:05:08  PAGE 23


      01000012H   LINE      CODE     ---       #95
      ---         BLOCKEND  ---      ---       LVL=0

      010045E7H   BLOCK     CODE     ---       LVL=0
      010045E7H   LINE      CODE     ---       #98
      010045E7H   LINE      CODE     ---       #99
      010045E7H   LINE      CODE     ---       #100
      010045E9H   LINE      CODE     ---       #102
      010045ECH   LINE      CODE     ---       #103
      010045EFH   LINE      CODE     ---       #104
      010045F2H   LINE      CODE     ---       #105
      010045F5H   LINE      CODE     ---       #107
      010045F7H   LINE      CODE     ---       #108
      ---         BLOCKEND  ---      ---       LVL=0

      ---         MODULE    ---      ---       DGUS
      0200A4B7H   PUBLIC    XDATA    BYTE      ?_WriteDGUS?BYTE
      0100216FH   PUBLIC    CODE     ---       _WriteDGUS
      0200A4B7H   PUBLIC    XDATA    BYTE      ?_ReadDGUS?BYTE
      010023BCH   PUBLIC    CODE     ---       _ReadDGUS
      00000098H.3 SFRSYM    DATA     BIT       TB80
      000000F1H   SFRSYM    DATA     BYTE      ADR_H
      00000080H   SFRSYM    DATA     BYTE      P0
      00000090H   SFRSYM    DATA     BYTE      P1
      000000A0H   SFRSYM    DATA     BYTE      P2
      000000B0H   SFRSYM    DATA     BYTE      P3
      000000D0H.6 SFRSYM    DATA     BIT       AC
      000000F3H   SFRSYM    DATA     BYTE      ADR_L
      00000094H   SFRSYM    DATA     BYTE      PAGESEL
      000000F2H   SFRSYM    DATA     BYTE      ADR_M
      000000A8H.7 SFRSYM    DATA     BIT       EA
      000000A0H.5 SFRSYM    DATA     BIT       JIGUANG
      00000090H.7 SFRSYM    DATA     BIT       LED_R
      000000F8H   SFRSYM    DATA     BYTE      RAMMODE
      000000B7H   SFRSYM    DATA     BYTE      P0MDOUT
      000000A8H   SFRSYM    DATA     BYTE      IEN0
      000000BCH   SFRSYM    DATA     BYTE      P1MDOUT
      000000B8H   SFRSYM    DATA     BYTE      IEN1
      000000BDH   SFRSYM    DATA     BYTE      P2MDOUT
      000000F8H.0 SFRSYM    DATA     BIT       APP_DATA0
      0000009AH   SFRSYM    DATA     BYTE      IEN2
      000000BEH   SFRSYM    DATA     BYTE      P3MDOUT
      000000F8H.1 SFRSYM    DATA     BIT       APP_DATA1
      000000D1H   SFRSYM    DATA     BYTE      IEN3
      00000080H.0 SFRSYM    DATA     BIT       P0_0
      000000F8H.2 SFRSYM    DATA     BIT       APP_DATA2
      00000090H.0 SFRSYM    DATA     BIT       P1_0
      000000F8H.3 SFRSYM    DATA     BIT       APP_DATA3
      00000090H.1 SFRSYM    DATA     BIT       P1_1
      000000F8H.4 SFRSYM    DATA     BIT       APP_ACK
      000000F4H   SFRSYM    DATA     BYTE      ADR_INC
      000000B0H.1 SFRSYM    DATA     BIT       P3_1
      00000098H.4 SFRSYM    DATA     BIT       REN0
      000000B8H.1 SFRSYM    DATA     BIT       ECAN
      000000D0H.7 SFRSYM    DATA     BIT       CY
      000000B8H.3 SFRSYM    DATA     BIT       ES2R
      000000B8H.5 SFRSYM    DATA     BIT       ES3R
      000000B8H.2 SFRSYM    DATA     BIT       ES2T
      000000B8H.4 SFRSYM    DATA     BIT       ES3T
      000000C8H.7 SFRSYM    DATA     BIT       TSF2
      000000B0H.3 SFRSYM    DATA     BIT       RTC_SDA
      00000081H   SFRSYM    DATA     BYTE      SP
      000000D0H.2 SFRSYM    DATA     BIT       OV
      00000095H   SFRSYM    DATA     BYTE      D_PAGESEL
      00000090H.5 SFRSYM    DATA     BIT       UV
LX51 LINKER/LOCATER V4.66.93.0                                                        05/08/2025  10:05:08  PAGE 24


      000000F8H.7 SFRSYM    DATA     BIT       APP_REQ
      000000B0H.2 SFRSYM    DATA     BIT       RTC_SCL
      000000BFH   SFRSYM    DATA     BYTE      IRCON2
      000000BAH   SFRSYM    DATA     BYTE      SREL0H
      000000BBH   SFRSYM    DATA     BYTE      SREL1H
      00000087H   SFRSYM    DATA     BYTE      PCON
      000000AAH   SFRSYM    DATA     BYTE      SREL0L
      000000F9H   SFRSYM    DATA     BYTE      PORTDRV
      0000009DH   SFRSYM    DATA     BYTE      SREL1L
      00000089H   SFRSYM    DATA     BYTE      TMOD
      00000088H   SFRSYM    DATA     BYTE      TCON
      00000097H   SFRSYM    DATA     BYTE      SCON2R
      000000FFH   SFRSYM    DATA     BYTE      EXDATA
      000000ABH   SFRSYM    DATA     BYTE      SCON3R
      000000D9H   SFRSYM    DATA     BYTE      BODE2_DIV_H
      000000AEH   SFRSYM    DATA     BYTE      BODE3_DIV_H
      00000096H   SFRSYM    DATA     BYTE      SCON2T
      000000A7H   SFRSYM    DATA     BYTE      SCON3T
      000000E7H   SFRSYM    DATA     BYTE      BODE2_DIV_L
      00000088H.1 SFRSYM    DATA     BIT       IE0
      000000AFH   SFRSYM    DATA     BYTE      BODE3_DIV_L
      00000088H.3 SFRSYM    DATA     BIT       IE1
      000000C9H   SFRSYM    DATA     BYTE      MUX_SEL
      000000F0H   SFRSYM    DATA     BYTE      B
      000000E0H   SFRSYM    DATA     BYTE      ACC
      000000A8H.4 SFRSYM    DATA     BIT       ES0
      0000008FH   SFRSYM    DATA     BYTE      CAN_CR
      000000A8H.1 SFRSYM    DATA     BIT       ET0
      000000A9H   SFRSYM    DATA     BYTE      IP0
      000000A8H.3 SFRSYM    DATA     BIT       ET1
      00000088H.5 SFRSYM    DATA     BIT       TF0
      000000B9H   SFRSYM    DATA     BYTE      IP1
      000000A8H.5 SFRSYM    DATA     BIT       ET2
      00000098H.0 SFRSYM    DATA     BIT       RI0
      00000088H.7 SFRSYM    DATA     BIT       TF1
      000000FDH   SFRSYM    DATA     BYTE      DATA0
      000000C0H.6 SFRSYM    DATA     BIT       TF2
      000000E8H   SFRSYM    DATA     BYTE      CAN_ET
      000000FCH   SFRSYM    DATA     BYTE      DATA1
      0000008CH   SFRSYM    DATA     BYTE      TH0
      000000A8H.0 SFRSYM    DATA     BIT       EX0
      00000098H.1 SFRSYM    DATA     BIT       TI0
      00000088H.0 SFRSYM    DATA     BIT       IT0
      000000FBH   SFRSYM    DATA     BYTE      DATA2
      0000008DH   SFRSYM    DATA     BYTE      TH1
      000000A8H.2 SFRSYM    DATA     BIT       EX1
      00000091H   SFRSYM    DATA     BYTE      CAN_IR
      000000CDH   SFRSYM    DATA     BYTE      TH2
      00000088H.2 SFRSYM    DATA     BIT       IT1
      000000FAH   SFRSYM    DATA     BYTE      DATA3
      000000D0H.0 SFRSYM    DATA     BIT       P
      00000098H.7 SFRSYM    DATA     BIT       SM0
      0000008AH   SFRSYM    DATA     BYTE      TL0
      00000098H.6 SFRSYM    DATA     BIT       SM1
      0000008BH   SFRSYM    DATA     BYTE      TL1
      00000098H.5 SFRSYM    DATA     BIT       SM2
      000000CCH   SFRSYM    DATA     BYTE      TL2
      000000A0H.7 SFRSYM    DATA     BIT       UV_St
      000000D0H.3 SFRSYM    DATA     BIT       RS0
      000000F8H.6 SFRSYM    DATA     BIT       APP_EN
      000000D0H.4 SFRSYM    DATA     BIT       RS1
      00000088H.4 SFRSYM    DATA     BIT       TR0
      00000088H.6 SFRSYM    DATA     BIT       TR1
      00000093H   SFRSYM    DATA     BYTE      DPC
      000000C8H.0 SFRSYM    DATA     BIT       TR2
LX51 LINKER/LOCATER V4.66.93.0                                                        05/08/2025  10:05:08  PAGE 25


      000000E5H   SFRSYM    DATA     BYTE      MAC_MODE
      00000083H   SFRSYM    DATA     BYTE      DPH
      00000082H   SFRSYM    DATA     BYTE      DPL
      00000099H   SFRSYM    DATA     BYTE      SBUF0
      0000009CH   SFRSYM    DATA     BYTE      SBUF1
      00000098H   SFRSYM    DATA     BYTE      SCON0
      0000009BH   SFRSYM    DATA     BYTE      SCON1
      000000D8H   SFRSYM    DATA     BYTE      ADCON
      000000C8H   SFRSYM    DATA     BYTE      T2CON
      000000E6H   SFRSYM    DATA     BYTE      DIV_MODE
      000000F8H.5 SFRSYM    DATA     BIT       APP_RW
      000000CBH   SFRSYM    DATA     BYTE      TRL2H
      0000009FH   SFRSYM    DATA     BYTE      SBUF2_RX
      000000ADH   SFRSYM    DATA     BYTE      SBUF3_RX
      0000008EH   SFRSYM    DATA     BYTE      CKCON
      0000009EH   SFRSYM    DATA     BYTE      SBUF2_TX
      000000ACH   SFRSYM    DATA     BYTE      SBUF3_TX
      000000CAH   SFRSYM    DATA     BYTE      TRL2L
      000000D0H.5 SFRSYM    DATA     BIT       F0
      000000FEH   SFRSYM    DATA     BYTE      EXADR
      000000D0H.1 SFRSYM    DATA     BIT       F1
      000000A0H.3 SFRSYM    DATA     BIT       LED_B
      000000D0H   SFRSYM    DATA     BYTE      PSW
      000000A0H.1 SFRSYM    DATA     BIT       LED_G
      000000C0H   SFRSYM    DATA     BYTE      IRCON
      00000098H.2 SFRSYM    DATA     BIT       RB80

      010023BCH   BLOCK     CODE     ---       LVL=0
      00000004H   SYMBOL    DATA     WORD      Addr
      0200A4B9H   SYMBOL    XDATA    ---       pBuf
      0200A4BCH   SYMBOL    XDATA    WORD      Len
      010023CBH   BLOCK     CODE     NEAR LAB  LVL=1
      00000003H   SYMBOL    DATA     BYTE      Aoffset
      ---         BLOCKEND  ---      ---       LVL=1
      010023BCH   LINE      CODE     ---       #31
      010023CBH   LINE      CODE     ---       #32
      010023CBH   LINE      CODE     ---       #34
      010023DCH   LINE      CODE     ---       #35
      010023E8H   LINE      CODE     ---       #36
      010023FFH   LINE      CODE     ---       #37
      01002401H   LINE      CODE     ---       #38
      01002405H   LINE      CODE     ---       #39
      0100240CH   LINE      CODE     ---       #40
      01002419H   LINE      CODE     ---       #41
      0100241CH   LINE      CODE     ---       #42
      01002420H   LINE      CODE     ---       #43
      01002423H   LINE      CODE     ---       #44
      01002426H   LINE      CODE     ---       #45
      01002428H   LINE      CODE     ---       #46
      0100242BH   LINE      CODE     ---       #47
      0100242DH   LINE      CODE     ---       #49
      01002432H   LINE      CODE     ---       #50
      01002432H   LINE      CODE     ---       #51
      01002448H   LINE      CODE     ---       #52
      01002450H   LINE      CODE     ---       #53
      01002452H   LINE      CODE     ---       #54
      01002455H   LINE      CODE     ---       #55
      0100247FH   LINE      CODE     ---       #56
      010024ACH   LINE      CODE     ---       #57
      010024AFH   LINE      CODE     ---       #58
      010024AFH   LINE      CODE     ---       #59
      010024AFH   LINE      CODE     ---       #60
      010024BDH   LINE      CODE     ---       #61
      010024C9H   LINE      CODE     ---       #62
      010024C9H   LINE      CODE     ---       #63
LX51 LINKER/LOCATER V4.66.93.0                                                        05/08/2025  10:05:08  PAGE 26


      010024D6H   LINE      CODE     ---       #64
      010024D6H   LINE      CODE     ---       #65
      010024E0H   LINE      CODE     ---       #66
      010024E6H   LINE      CODE     ---       #67
      010024EEH   LINE      CODE     ---       #68
      010024EEH   LINE      CODE     ---       #69
      010024F0H   LINE      CODE     ---       #70
      010024F3H   LINE      CODE     ---       #71
      0100250EH   LINE      CODE     ---       #72
      0100250EH   LINE      CODE     ---       #73
      0100254CH   LINE      CODE     ---       #74
      01002575H   LINE      CODE     ---       #75
      0100258CH   LINE      CODE     ---       #76
      0100258CH   LINE      CODE     ---       #77
      0100258CH   LINE      CODE     ---       #78
      0100258CH   LINE      CODE     ---       #80
      0100258CH   LINE      CODE     ---       #81
      01002594H   LINE      CODE     ---       #82
      01002596H   LINE      CODE     ---       #83
      01002599H   LINE      CODE     ---       #84
      010025EDH   LINE      CODE     ---       #85
      010025FBH   LINE      CODE     ---       #86
      010025FBH   LINE      CODE     ---       #87
      010025FEH   LINE      CODE     ---       #89
      01002601H   LINE      CODE     ---       #90
      01002603H   LINE      CODE     ---       #91
      ---         BLOCKEND  ---      ---       LVL=0

      0100216FH   BLOCK     CODE     ---       LVL=0
      00000004H   SYMBOL    DATA     WORD      Addr
      0200A4B9H   SYMBOL    XDATA    ---       pBuf
      0200A4BCH   SYMBOL    XDATA    WORD      Len
      0100217EH   BLOCK     CODE     NEAR LAB  LVL=1
      00000003H   SYMBOL    DATA     BYTE      Aoffset
      ---         BLOCKEND  ---      ---       LVL=1
      0100216FH   LINE      CODE     ---       #107
      0100217EH   LINE      CODE     ---       #108
      0100217EH   LINE      CODE     ---       #110
      0100218FH   LINE      CODE     ---       #111
      0100219BH   LINE      CODE     ---       #112
      010021B2H   LINE      CODE     ---       #113
      010021B4H   LINE      CODE     ---       #114
      010021B8H   LINE      CODE     ---       #115
      010021BFH   LINE      CODE     ---       #116
      010021CCH   LINE      CODE     ---       #117
      010021CFH   LINE      CODE     ---       #118
      010021D3H   LINE      CODE     ---       #119
      010021D6H   LINE      CODE     ---       #120
      010021D9H   LINE      CODE     ---       #121
      010021DBH   LINE      CODE     ---       #122
      010021DEH   LINE      CODE     ---       #123
      010021E0H   LINE      CODE     ---       #125
      010021E5H   LINE      CODE     ---       #126
      010021E5H   LINE      CODE     ---       #127
      010021FCH   LINE      CODE     ---       #128
      01002204H   LINE      CODE     ---       #129
      01002227H   LINE      CODE     ---       #130
      0100225CH   LINE      CODE     ---       #131
      0100225EH   LINE      CODE     ---       #132
      01002261H   LINE      CODE     ---       #133
      01002261H   LINE      CODE     ---       #134
      01002261H   LINE      CODE     ---       #135
      01002261H   LINE      CODE     ---       #136
      0100226FH   LINE      CODE     ---       #137
      0100227BH   LINE      CODE     ---       #138
LX51 LINKER/LOCATER V4.66.93.0                                                        05/08/2025  10:05:08  PAGE 27


      0100227BH   LINE      CODE     ---       #139
      01002288H   LINE      CODE     ---       #140
      01002288H   LINE      CODE     ---       #141
      01002292H   LINE      CODE     ---       #142
      01002298H   LINE      CODE     ---       #143
      010022A0H   LINE      CODE     ---       #144
      010022A0H   LINE      CODE     ---       #145
      010022BBH   LINE      CODE     ---       #146
      010022BBH   LINE      CODE     ---       #147
      010022FCH   LINE      CODE     ---       #148
      01002328H   LINE      CODE     ---       #149
      0100233DH   LINE      CODE     ---       #150
      0100233DH   LINE      CODE     ---       #151
      0100233FH   LINE      CODE     ---       #152
      01002344H   LINE      CODE     ---       #153
      01002344H   LINE      CODE     ---       #154
      01002344H   LINE      CODE     ---       #156
      01002344H   LINE      CODE     ---       #157
      0100234CH   LINE      CODE     ---       #158
      010023A0H   LINE      CODE     ---       #159
      010023A2H   LINE      CODE     ---       #160
      010023A5H   LINE      CODE     ---       #161
      010023B3H   LINE      CODE     ---       #162
      010023B3H   LINE      CODE     ---       #163
      010023B6H   LINE      CODE     ---       #165
      010023B9H   LINE      CODE     ---       #166
      010023BBH   LINE      CODE     ---       #167
      ---         BLOCKEND  ---      ---       LVL=0

      ---         MODULE    ---      ---       UART
      0200A0AAH   PUBLIC    XDATA    ---       Uart4_Rx
      0200A02AH   PUBLIC    XDATA    ---       Uart3_Rx
      0200808AH   PUBLIC    XDATA    ---       Uart2_Rx
      02008088H   PUBLIC    XDATA    WORD      uart5_rx_count
      02008086H   PUBLIC    XDATA    WORD      uart4_rx_count
      02008084H   PUBLIC    XDATA    WORD      uart3_rx_count
      02008082H   PUBLIC    XDATA    WORD      uart2_rx_count
      02008081H   PUBLIC    XDATA    BYTE      uart3_busy
      02008080H   PUBLIC    XDATA    BYTE      uart2_busy
      02008000H   PUBLIC    XDATA    ---       Uart5_Rx
      01004675H   PUBLIC    CODE     ---       InitUart
      01003B88H   PUBLIC    CODE     ---       UART5_RX_ISR_PC
      0100006EH   PUBLIC    CODE     ---       Uart5Init
      01003FCCH   PUBLIC    CODE     ---       UART4_RX_ISR_PC
      0100466DH   PUBLIC    CODE     ---       UART4_TX_ISR_PC
      01000026H   PUBLIC    CODE     ---       _putchar
      010045F8H   PUBLIC    CODE     ---       _Uart4SendByte
      0100457BH   PUBLIC    CODE     ---       Uart4Init
      01003F6CH   PUBLIC    CODE     ---       UART3_ISR_PC
      010042CFH   PUBLIC    CODE     ---       _Uart3SendStr
      01004616H   PUBLIC    CODE     ---       _Uart3SendByte
      010044F7H   PUBLIC    CODE     ---       Uart3Init
      01003EA4H   PUBLIC    CODE     ---       UART2_ISR_PC
      0100428EH   PUBLIC    CODE     ---       _Uart2SendStr
      01004608H   PUBLIC    CODE     ---       _Uart2SendByte
      0100002EH   PUBLIC    CODE     ---       Uart2Init
      00000098H.3 SFRSYM    DATA     BIT       TB80
      000000F1H   SFRSYM    DATA     BYTE      ADR_H
      00000080H   SFRSYM    DATA     BYTE      P0
      00000090H   SFRSYM    DATA     BYTE      P1
      000000A0H   SFRSYM    DATA     BYTE      P2
      000000B0H   SFRSYM    DATA     BYTE      P3
      000000D0H.6 SFRSYM    DATA     BIT       AC
      000000F3H   SFRSYM    DATA     BYTE      ADR_L
      00000094H   SFRSYM    DATA     BYTE      PAGESEL
LX51 LINKER/LOCATER V4.66.93.0                                                        05/08/2025  10:05:08  PAGE 28


      000000F2H   SFRSYM    DATA     BYTE      ADR_M
      000000A8H.7 SFRSYM    DATA     BIT       EA
      000000A0H.5 SFRSYM    DATA     BIT       JIGUANG
      00000090H.7 SFRSYM    DATA     BIT       LED_R
      000000F8H   SFRSYM    DATA     BYTE      RAMMODE
      000000B7H   SFRSYM    DATA     BYTE      P0MDOUT
      000000A8H   SFRSYM    DATA     BYTE      IEN0
      000000BCH   SFRSYM    DATA     BYTE      P1MDOUT
      000000B8H   SFRSYM    DATA     BYTE      IEN1
      000000BDH   SFRSYM    DATA     BYTE      P2MDOUT
      000000F8H.0 SFRSYM    DATA     BIT       APP_DATA0
      0000009AH   SFRSYM    DATA     BYTE      IEN2
      000000BEH   SFRSYM    DATA     BYTE      P3MDOUT
      000000F8H.1 SFRSYM    DATA     BIT       APP_DATA1
      000000D1H   SFRSYM    DATA     BYTE      IEN3
      00000080H.0 SFRSYM    DATA     BIT       P0_0
      000000F8H.2 SFRSYM    DATA     BIT       APP_DATA2
      00000090H.0 SFRSYM    DATA     BIT       P1_0
      000000F8H.3 SFRSYM    DATA     BIT       APP_DATA3
      00000090H.1 SFRSYM    DATA     BIT       P1_1
      000000F8H.4 SFRSYM    DATA     BIT       APP_ACK
      000000F4H   SFRSYM    DATA     BYTE      ADR_INC
      000000B0H.1 SFRSYM    DATA     BIT       P3_1
      00000098H.4 SFRSYM    DATA     BIT       REN0
      000000B8H.1 SFRSYM    DATA     BIT       ECAN
      000000D0H.7 SFRSYM    DATA     BIT       CY
      000000B8H.3 SFRSYM    DATA     BIT       ES2R
      000000B8H.5 SFRSYM    DATA     BIT       ES3R
      000000B8H.2 SFRSYM    DATA     BIT       ES2T
      000000B8H.4 SFRSYM    DATA     BIT       ES3T
      000000C8H.7 SFRSYM    DATA     BIT       TSF2
      000000B0H.3 SFRSYM    DATA     BIT       RTC_SDA
      00000081H   SFRSYM    DATA     BYTE      SP
      000000D0H.2 SFRSYM    DATA     BIT       OV
      00000095H   SFRSYM    DATA     BYTE      D_PAGESEL
      00000090H.5 SFRSYM    DATA     BIT       UV
      000000F8H.7 SFRSYM    DATA     BIT       APP_REQ
      000000B0H.2 SFRSYM    DATA     BIT       RTC_SCL
      000000BFH   SFRSYM    DATA     BYTE      IRCON2
      000000BAH   SFRSYM    DATA     BYTE      SREL0H
      000000BBH   SFRSYM    DATA     BYTE      SREL1H
      00000087H   SFRSYM    DATA     BYTE      PCON
      000000AAH   SFRSYM    DATA     BYTE      SREL0L
      000000F9H   SFRSYM    DATA     BYTE      PORTDRV
      0000009DH   SFRSYM    DATA     BYTE      SREL1L
      00000089H   SFRSYM    DATA     BYTE      TMOD
      00000088H   SFRSYM    DATA     BYTE      TCON
      00000097H   SFRSYM    DATA     BYTE      SCON2R
      000000FFH   SFRSYM    DATA     BYTE      EXDATA
      000000ABH   SFRSYM    DATA     BYTE      SCON3R
      000000D9H   SFRSYM    DATA     BYTE      BODE2_DIV_H
      000000AEH   SFRSYM    DATA     BYTE      BODE3_DIV_H
      00000096H   SFRSYM    DATA     BYTE      SCON2T
      000000A7H   SFRSYM    DATA     BYTE      SCON3T
      000000E7H   SFRSYM    DATA     BYTE      BODE2_DIV_L
      00000088H.1 SFRSYM    DATA     BIT       IE0
      000000AFH   SFRSYM    DATA     BYTE      BODE3_DIV_L
      00000088H.3 SFRSYM    DATA     BIT       IE1
      000000C9H   SFRSYM    DATA     BYTE      MUX_SEL
      000000F0H   SFRSYM    DATA     BYTE      B
      000000E0H   SFRSYM    DATA     BYTE      ACC
      000000A8H.4 SFRSYM    DATA     BIT       ES0
      0000008FH   SFRSYM    DATA     BYTE      CAN_CR
      000000A8H.1 SFRSYM    DATA     BIT       ET0
      000000A9H   SFRSYM    DATA     BYTE      IP0
LX51 LINKER/LOCATER V4.66.93.0                                                        05/08/2025  10:05:08  PAGE 29


      000000A8H.3 SFRSYM    DATA     BIT       ET1
      00000088H.5 SFRSYM    DATA     BIT       TF0
      000000B9H   SFRSYM    DATA     BYTE      IP1
      000000A8H.5 SFRSYM    DATA     BIT       ET2
      00000098H.0 SFRSYM    DATA     BIT       RI0
      00000088H.7 SFRSYM    DATA     BIT       TF1
      000000FDH   SFRSYM    DATA     BYTE      DATA0
      000000C0H.6 SFRSYM    DATA     BIT       TF2
      000000E8H   SFRSYM    DATA     BYTE      CAN_ET
      000000FCH   SFRSYM    DATA     BYTE      DATA1
      0000008CH   SFRSYM    DATA     BYTE      TH0
      000000A8H.0 SFRSYM    DATA     BIT       EX0
      00000098H.1 SFRSYM    DATA     BIT       TI0
      00000088H.0 SFRSYM    DATA     BIT       IT0
      000000FBH   SFRSYM    DATA     BYTE      DATA2
      0000008DH   SFRSYM    DATA     BYTE      TH1
      000000A8H.2 SFRSYM    DATA     BIT       EX1
      00000091H   SFRSYM    DATA     BYTE      CAN_IR
      000000CDH   SFRSYM    DATA     BYTE      TH2
      00000088H.2 SFRSYM    DATA     BIT       IT1
      000000FAH   SFRSYM    DATA     BYTE      DATA3
      000000D0H.0 SFRSYM    DATA     BIT       P
      00000098H.7 SFRSYM    DATA     BIT       SM0
      0000008AH   SFRSYM    DATA     BYTE      TL0
      00000098H.6 SFRSYM    DATA     BIT       SM1
      0000008BH   SFRSYM    DATA     BYTE      TL1
      00000098H.5 SFRSYM    DATA     BIT       SM2
      000000CCH   SFRSYM    DATA     BYTE      TL2
      000000A0H.7 SFRSYM    DATA     BIT       UV_St
      000000D0H.3 SFRSYM    DATA     BIT       RS0
      000000F8H.6 SFRSYM    DATA     BIT       APP_EN
      000000D0H.4 SFRSYM    DATA     BIT       RS1
      00000088H.4 SFRSYM    DATA     BIT       TR0
      00000088H.6 SFRSYM    DATA     BIT       TR1
      00000093H   SFRSYM    DATA     BYTE      DPC
      000000C8H.0 SFRSYM    DATA     BIT       TR2
      000000E5H   SFRSYM    DATA     BYTE      MAC_MODE
      00000083H   SFRSYM    DATA     BYTE      DPH
      00000082H   SFRSYM    DATA     BYTE      DPL
      00000099H   SFRSYM    DATA     BYTE      SBUF0
      0000009CH   SFRSYM    DATA     BYTE      SBUF1
      00000098H   SFRSYM    DATA     BYTE      SCON0
      0000009BH   SFRSYM    DATA     BYTE      SCON1
      000000D8H   SFRSYM    DATA     BYTE      ADCON
      000000C8H   SFRSYM    DATA     BYTE      T2CON
      000000E6H   SFRSYM    DATA     BYTE      DIV_MODE
      000000F8H.5 SFRSYM    DATA     BIT       APP_RW
      000000CBH   SFRSYM    DATA     BYTE      TRL2H
      0000009FH   SFRSYM    DATA     BYTE      SBUF2_RX
      000000ADH   SFRSYM    DATA     BYTE      SBUF3_RX
      0000008EH   SFRSYM    DATA     BYTE      CKCON
      0000009EH   SFRSYM    DATA     BYTE      SBUF2_TX
      000000ACH   SFRSYM    DATA     BYTE      SBUF3_TX
      000000CAH   SFRSYM    DATA     BYTE      TRL2L
      000000D0H.5 SFRSYM    DATA     BIT       F0
      000000FEH   SFRSYM    DATA     BYTE      EXADR
      000000D0H.1 SFRSYM    DATA     BIT       F1
      000000A0H.3 SFRSYM    DATA     BIT       LED_B
      000000D0H   SFRSYM    DATA     BYTE      PSW
      000000A0H.1 SFRSYM    DATA     BIT       LED_G
      000000C0H   SFRSYM    DATA     BYTE      IRCON
      00000098H.2 SFRSYM    DATA     BIT       RB80

      0100002EH   BLOCK     CODE     ---       LVL=0
      0100002EH   LINE      CODE     ---       #41
LX51 LINKER/LOCATER V4.66.93.0                                                        05/08/2025  10:05:08  PAGE 30


      0100002EH   LINE      CODE     ---       #42
      0100002EH   LINE      CODE     ---       #43
      01000031H   LINE      CODE     ---       #44
      01000034H   LINE      CODE     ---       #45
      01000039H   LINE      CODE     ---       #46
      0100003FH   LINE      CODE     ---       #47
      01000042H   LINE      CODE     ---       #48
      01000045H   LINE      CODE     ---       #49
      01000048H   LINE      CODE     ---       #50
      0100004BH   LINE      CODE     ---       #51
      0100004EH   LINE      CODE     ---       #52
      01000050H   LINE      CODE     ---       #53
      01000052H   LINE      CODE     ---       #54
      ---         BLOCKEND  ---      ---       LVL=0

      01004608H   BLOCK     CODE     ---       LVL=0
      00000007H   SYMBOL    DATA     BYTE      dat
      01004608H   LINE      CODE     ---       #57
      01004608H   LINE      CODE     ---       #58
      01004608H   LINE      CODE     ---       #59
      01004610H   LINE      CODE     ---       #60
      01004613H   LINE      CODE     ---       #61
      01004615H   LINE      CODE     ---       #62
      ---         BLOCKEND  ---      ---       LVL=0

      0100428EH   BLOCK     CODE     ---       LVL=0
      0200A48FH   SYMBOL    XDATA    ---       pstr
      00000005H   SYMBOL    DATA     BYTE      strlen
      0100428EH   LINE      CODE     ---       #65
      01004299H   LINE      CODE     ---       #66
      01004299H   LINE      CODE     ---       #67
      010042AAH   LINE      CODE     ---       #68
      010042AAH   LINE      CODE     ---       #70
      010042AAH   LINE      CODE     ---       #71
      010042B0H   LINE      CODE     ---       #72
      010042B0H   LINE      CODE     ---       #73
      010042C2H   LINE      CODE     ---       #74
      010042CCH   LINE      CODE     ---       #75
      010042CEH   LINE      CODE     ---       #76
      ---         BLOCKEND  ---      ---       LVL=0

      01003EA4H   BLOCK     CODE     ---       LVL=0
      01003EB3H   BLOCK     CODE     NEAR LAB  LVL=1
      00000007H   SYMBOL    DATA     BYTE      res
      ---         BLOCKEND  ---      ---       LVL=1
      01003EA4H   LINE      CODE     ---       #79
      01003EB3H   LINE      CODE     ---       #81
      01003EB3H   LINE      CODE     ---       #82
      01003EB5H   LINE      CODE     ---       #85
      01003EB8H   LINE      CODE     ---       #86
      01003EB8H   LINE      CODE     ---       #87
      01003EBAH   LINE      CODE     ---       #88
      01003ECCH   LINE      CODE     ---       #89
      01003EDAH   LINE      CODE     ---       #90
      01003EE9H   LINE      CODE     ---       #92
      01003EEDH   LINE      CODE     ---       #93
      01003EEDH   LINE      CODE     ---       #94
      01003EEFH   LINE      CODE     ---       #95
      01003EEFH   LINE      CODE     ---       #96
      01003EF2H   LINE      CODE     ---       #97
      01003EF2H   LINE      CODE     ---       #98
      01003EF4H   LINE      CODE     ---       #99
      01003EF9H   LINE      CODE     ---       #100
      01003EF9H   LINE      CODE     ---       #102
      01003EFBH   LINE      CODE     ---       #103
LX51 LINKER/LOCATER V4.66.93.0                                                        05/08/2025  10:05:08  PAGE 31


      ---         BLOCKEND  ---      ---       LVL=0

      010044F7H   BLOCK     CODE     ---       LVL=0
      010044F7H   LINE      CODE     ---       #109
      010044F7H   LINE      CODE     ---       #110
      010044F7H   LINE      CODE     ---       #111
      010044FAH   LINE      CODE     ---       #112
      010044FDH   LINE      CODE     ---       #113
      01004502H   LINE      CODE     ---       #114
      01004508H   LINE      CODE     ---       #115
      0100450BH   LINE      CODE     ---       #116
      0100450EH   LINE      CODE     ---       #117
      01004511H   LINE      CODE     ---       #118
      01004514H   LINE      CODE     ---       #119
      ---         BLOCKEND  ---      ---       LVL=0

      01004616H   BLOCK     CODE     ---       LVL=0
      00000007H   SYMBOL    DATA     BYTE      dat
      01004616H   LINE      CODE     ---       #122
      01004616H   LINE      CODE     ---       #123
      01004616H   LINE      CODE     ---       #124
      0100461EH   LINE      CODE     ---       #125
      01004621H   LINE      CODE     ---       #126
      01004623H   LINE      CODE     ---       #127
      ---         BLOCKEND  ---      ---       LVL=0

      010042CFH   BLOCK     CODE     ---       LVL=0
      0200A553H   SYMBOL    XDATA    ---       pstr
      00000005H   SYMBOL    DATA     BYTE      strlen
      010042CFH   LINE      CODE     ---       #137
      010042DAH   LINE      CODE     ---       #138
      010042DAH   LINE      CODE     ---       #139
      010042EBH   LINE      CODE     ---       #140
      010042EBH   LINE      CODE     ---       #142
      010042EBH   LINE      CODE     ---       #143
      010042F1H   LINE      CODE     ---       #144
      010042F1H   LINE      CODE     ---       #145
      01004303H   LINE      CODE     ---       #146
      0100430DH   LINE      CODE     ---       #147
      0100430FH   LINE      CODE     ---       #148
      ---         BLOCKEND  ---      ---       LVL=0

      01003F6CH   BLOCK     CODE     ---       LVL=0
      01003F7BH   BLOCK     CODE     NEAR LAB  LVL=1
      00000007H   SYMBOL    DATA     BYTE      res
      ---         BLOCKEND  ---      ---       LVL=1
      01003F6CH   LINE      CODE     ---       #151
      01003F7BH   LINE      CODE     ---       #153
      01003F7BH   LINE      CODE     ---       #154
      01003F7DH   LINE      CODE     ---       #155
      01003F82H   LINE      CODE     ---       #156
      01003F82H   LINE      CODE     ---       #157
      01003F84H   LINE      CODE     ---       #158
      01003F96H   LINE      CODE     ---       #159
      01003FA4H   LINE      CODE     ---       #160
      01003FA7H   LINE      CODE     ---       #161
      01003FAAH   LINE      CODE     ---       #162
      01003FAAH   LINE      CODE     ---       #163
      01003FAFH   LINE      CODE     ---       #164
      01003FAFH   LINE      CODE     ---       #165
      01003FB2H   LINE      CODE     ---       #166
      01003FB5H   LINE      CODE     ---       #167
      01003FBAH   LINE      CODE     ---       #168
      01003FBAH   LINE      CODE     ---       #169
      01003FBDH   LINE      CODE     ---       #170
LX51 LINKER/LOCATER V4.66.93.0                                                        05/08/2025  10:05:08  PAGE 32


      01003FBFH   LINE      CODE     ---       #171
      ---         BLOCKEND  ---      ---       LVL=0

      0100457BH   BLOCK     CODE     ---       LVL=0
      0100457BH   LINE      CODE     ---       #175
      0100457BH   LINE      CODE     ---       #176
      0100457BH   LINE      CODE     ---       #177
      01004582H   LINE      CODE     ---       #178
      01004585H   LINE      CODE     ---       #179
      01004588H   LINE      CODE     ---       #180
      0100458AH   LINE      CODE     ---       #181
      0100458DH   LINE      CODE     ---       #182
      0100458FH   LINE      CODE     ---       #183
      01004591H   LINE      CODE     ---       #184
      ---         BLOCKEND  ---      ---       LVL=0

      010045F8H   BLOCK     CODE     ---       LVL=0
      00000007H   SYMBOL    DATA     BYTE      dat
      010045F8H   LINE      CODE     ---       #187
      010045F8H   LINE      CODE     ---       #188
      010045FAH   LINE      CODE     ---       #189
      010045FCH   LINE      CODE     ---       #190
      01004602H   LINE      CODE     ---       #191
      01004605H   LINE      CODE     ---       #192
      01004607H   LINE      CODE     ---       #193
      ---         BLOCKEND  ---      ---       LVL=0

      01000026H   BLOCK     CODE     ---       LVL=0
      00000006H   SYMBOL    DATA     CHAR      c
      01000026H   LINE      CODE     ---       #196
      01000028H   LINE      CODE     ---       #197
      01000028H   LINE      CODE     ---       #199
      ---         BLOCKEND  ---      ---       LVL=0

      0100466DH   BLOCK     CODE     ---       LVL=0
      0100466DH   LINE      CODE     ---       #219
      0100466DH   LINE      CODE     ---       #221
      0100466FH   LINE      CODE     ---       #222
      01004672H   LINE      CODE     ---       #223
      01004674H   LINE      CODE     ---       #224
      ---         BLOCKEND  ---      ---       LVL=0

      01003FCCH   BLOCK     CODE     ---       LVL=0
      01003FDBH   BLOCK     CODE     NEAR LAB  LVL=1
      00000007H   SYMBOL    DATA     BYTE      res
      ---         BLOCKEND  ---      ---       LVL=1
      01003FCCH   LINE      CODE     ---       #227
      01003FDBH   LINE      CODE     ---       #229
      01003FDBH   LINE      CODE     ---       #230
      01003FDDH   LINE      CODE     ---       #231
      01003FE5H   LINE      CODE     ---       #232
      01003FE5H   LINE      CODE     ---       #233
      01003FE7H   LINE      CODE     ---       #234
      01003FF9H   LINE      CODE     ---       #235
      01004007H   LINE      CODE     ---       #236
      0100400AH   LINE      CODE     ---       #237
      01004019H   LINE      CODE     ---       #239
      0100401DH   LINE      CODE     ---       #240
      0100401DH   LINE      CODE     ---       #241
      0100401DH   LINE      CODE     ---       #243
      0100401FH   LINE      CODE     ---       #244
      ---         BLOCKEND  ---      ---       LVL=0

      0100006EH   BLOCK     CODE     ---       LVL=0
      0100006EH   LINE      CODE     ---       #251
LX51 LINKER/LOCATER V4.66.93.0                                                        05/08/2025  10:05:08  PAGE 33


      0100006EH   LINE      CODE     ---       #252
      0100006EH   LINE      CODE     ---       #253
      01000075H   LINE      CODE     ---       #254
      01000078H   LINE      CODE     ---       #255
      0100007BH   LINE      CODE     ---       #256
      0100007DH   LINE      CODE     ---       #257
      01000080H   LINE      CODE     ---       #260
      01000082H   LINE      CODE     ---       #261
      ---         BLOCKEND  ---      ---       LVL=0

      01003B88H   BLOCK     CODE     ---       LVL=0
      01003BA5H   BLOCK     CODE     NEAR LAB  LVL=1
      00000007H   SYMBOL    DATA     BYTE      res
      ---         BLOCKEND  ---      ---       LVL=1
      01003B88H   LINE      CODE     ---       #300
      01003BA5H   LINE      CODE     ---       #302
      01003BA7H   LINE      CODE     ---       #303
      01003BA9H   LINE      CODE     ---       #304
      01003BB1H   LINE      CODE     ---       #305
      01003BB1H   LINE      CODE     ---       #306
      01003BB4H   LINE      CODE     ---       #307
      01003BB6H   LINE      CODE     ---       #308
      01003BC8H   LINE      CODE     ---       #309
      01003BD6H   LINE      CODE     ---       #310
      01003BD9H   LINE      CODE     ---       #311
      01003BE8H   LINE      CODE     ---       #313
      01003BECH   LINE      CODE     ---       #314
      01003BECH   LINE      CODE     ---       #315
      01003BECH   LINE      CODE     ---       #319
      01003BEEH   LINE      CODE     ---       #320
      ---         BLOCKEND  ---      ---       LVL=0

      01004675H   BLOCK     CODE     ---       LVL=0
      01004675H   LINE      CODE     ---       #324
      01004675H   LINE      CODE     ---       #325
      01004675H   LINE      CODE     ---       #328
      01004678H   LINE      CODE     ---       #329
      ---         BLOCKEND  ---      ---       LVL=0

      ---         MODULE    ---      ---       NORFLASH
      00000098H.3 SFRSYM    DATA     BIT       TB80
      000000F1H   SFRSYM    DATA     BYTE      ADR_H
      00000080H   SFRSYM    DATA     BYTE      P0
      00000090H   SFRSYM    DATA     BYTE      P1
      000000A0H   SFRSYM    DATA     BYTE      P2
      000000B0H   SFRSYM    DATA     BYTE      P3
      000000D0H.6 SFRSYM    DATA     BIT       AC
      000000F3H   SFRSYM    DATA     BYTE      ADR_L
      00000094H   SFRSYM    DATA     BYTE      PAGESEL
      000000F2H   SFRSYM    DATA     BYTE      ADR_M
      000000A8H.7 SFRSYM    DATA     BIT       EA
      000000A0H.5 SFRSYM    DATA     BIT       JIGUANG
      00000090H.7 SFRSYM    DATA     BIT       LED_R
      000000F8H   SFRSYM    DATA     BYTE      RAMMODE
      000000B7H   SFRSYM    DATA     BYTE      P0MDOUT
      000000A8H   SFRSYM    DATA     BYTE      IEN0
      000000BCH   SFRSYM    DATA     BYTE      P1MDOUT
      000000B8H   SFRSYM    DATA     BYTE      IEN1
      000000BDH   SFRSYM    DATA     BYTE      P2MDOUT
      000000F8H.0 SFRSYM    DATA     BIT       APP_DATA0
      0000009AH   SFRSYM    DATA     BYTE      IEN2
      000000BEH   SFRSYM    DATA     BYTE      P3MDOUT
      000000F8H.1 SFRSYM    DATA     BIT       APP_DATA1
      000000D1H   SFRSYM    DATA     BYTE      IEN3
      00000080H.0 SFRSYM    DATA     BIT       P0_0
LX51 LINKER/LOCATER V4.66.93.0                                                        05/08/2025  10:05:08  PAGE 34


      000000F8H.2 SFRSYM    DATA     BIT       APP_DATA2
      00000090H.0 SFRSYM    DATA     BIT       P1_0
      000000F8H.3 SFRSYM    DATA     BIT       APP_DATA3
      00000090H.1 SFRSYM    DATA     BIT       P1_1
      000000F8H.4 SFRSYM    DATA     BIT       APP_ACK
      000000F4H   SFRSYM    DATA     BYTE      ADR_INC
      000000B0H.1 SFRSYM    DATA     BIT       P3_1
      00000098H.4 SFRSYM    DATA     BIT       REN0
      000000B8H.1 SFRSYM    DATA     BIT       ECAN
      000000D0H.7 SFRSYM    DATA     BIT       CY
      000000B8H.3 SFRSYM    DATA     BIT       ES2R
      000000B8H.5 SFRSYM    DATA     BIT       ES3R
      000000B8H.2 SFRSYM    DATA     BIT       ES2T
      000000B8H.4 SFRSYM    DATA     BIT       ES3T
      000000C8H.7 SFRSYM    DATA     BIT       TSF2
      000000B0H.3 SFRSYM    DATA     BIT       RTC_SDA
      00000081H   SFRSYM    DATA     BYTE      SP
      000000D0H.2 SFRSYM    DATA     BIT       OV
      00000095H   SFRSYM    DATA     BYTE      D_PAGESEL
      00000090H.5 SFRSYM    DATA     BIT       UV
      000000F8H.7 SFRSYM    DATA     BIT       APP_REQ
      000000B0H.2 SFRSYM    DATA     BIT       RTC_SCL
      000000BFH   SFRSYM    DATA     BYTE      IRCON2
      000000BAH   SFRSYM    DATA     BYTE      SREL0H
      000000BBH   SFRSYM    DATA     BYTE      SREL1H
      00000087H   SFRSYM    DATA     BYTE      PCON
      000000AAH   SFRSYM    DATA     BYTE      SREL0L
      000000F9H   SFRSYM    DATA     BYTE      PORTDRV
      0000009DH   SFRSYM    DATA     BYTE      SREL1L
      00000089H   SFRSYM    DATA     BYTE      TMOD
      00000088H   SFRSYM    DATA     BYTE      TCON
      00000097H   SFRSYM    DATA     BYTE      SCON2R
      000000FFH   SFRSYM    DATA     BYTE      EXDATA
      000000ABH   SFRSYM    DATA     BYTE      SCON3R
      000000D9H   SFRSYM    DATA     BYTE      BODE2_DIV_H
      000000AEH   SFRSYM    DATA     BYTE      BODE3_DIV_H
      00000096H   SFRSYM    DATA     BYTE      SCON2T
      000000A7H   SFRSYM    DATA     BYTE      SCON3T
      000000E7H   SFRSYM    DATA     BYTE      BODE2_DIV_L
      00000088H.1 SFRSYM    DATA     BIT       IE0
      000000AFH   SFRSYM    DATA     BYTE      BODE3_DIV_L
      00000088H.3 SFRSYM    DATA     BIT       IE1
      000000C9H   SFRSYM    DATA     BYTE      MUX_SEL
      000000F0H   SFRSYM    DATA     BYTE      B
      000000E0H   SFRSYM    DATA     BYTE      ACC
      000000A8H.4 SFRSYM    DATA     BIT       ES0
      0000008FH   SFRSYM    DATA     BYTE      CAN_CR
      000000A8H.1 SFRSYM    DATA     BIT       ET0
      000000A9H   SFRSYM    DATA     BYTE      IP0
      000000A8H.3 SFRSYM    DATA     BIT       ET1
      00000088H.5 SFRSYM    DATA     BIT       TF0
      000000B9H   SFRSYM    DATA     BYTE      IP1
      000000A8H.5 SFRSYM    DATA     BIT       ET2
      00000098H.0 SFRSYM    DATA     BIT       RI0
      00000088H.7 SFRSYM    DATA     BIT       TF1
      000000FDH   SFRSYM    DATA     BYTE      DATA0
      000000C0H.6 SFRSYM    DATA     BIT       TF2
      000000E8H   SFRSYM    DATA     BYTE      CAN_ET
      000000FCH   SFRSYM    DATA     BYTE      DATA1
      0000008CH   SFRSYM    DATA     BYTE      TH0
      000000A8H.0 SFRSYM    DATA     BIT       EX0
      00000098H.1 SFRSYM    DATA     BIT       TI0
      00000088H.0 SFRSYM    DATA     BIT       IT0
      000000FBH   SFRSYM    DATA     BYTE      DATA2
      0000008DH   SFRSYM    DATA     BYTE      TH1
LX51 LINKER/LOCATER V4.66.93.0                                                        05/08/2025  10:05:08  PAGE 35


      000000A8H.2 SFRSYM    DATA     BIT       EX1
      00000091H   SFRSYM    DATA     BYTE      CAN_IR
      000000CDH   SFRSYM    DATA     BYTE      TH2
      00000088H.2 SFRSYM    DATA     BIT       IT1
      000000FAH   SFRSYM    DATA     BYTE      DATA3
      000000D0H.0 SFRSYM    DATA     BIT       P
      00000098H.7 SFRSYM    DATA     BIT       SM0
      0000008AH   SFRSYM    DATA     BYTE      TL0
      00000098H.6 SFRSYM    DATA     BIT       SM1
      0000008BH   SFRSYM    DATA     BYTE      TL1
      00000098H.5 SFRSYM    DATA     BIT       SM2
      000000CCH   SFRSYM    DATA     BYTE      TL2
      000000A0H.7 SFRSYM    DATA     BIT       UV_St
      000000D0H.3 SFRSYM    DATA     BIT       RS0
      000000F8H.6 SFRSYM    DATA     BIT       APP_EN
      000000D0H.4 SFRSYM    DATA     BIT       RS1
      00000088H.4 SFRSYM    DATA     BIT       TR0
      00000088H.6 SFRSYM    DATA     BIT       TR1
      00000093H   SFRSYM    DATA     BYTE      DPC
      000000C8H.0 SFRSYM    DATA     BIT       TR2
      000000E5H   SFRSYM    DATA     BYTE      MAC_MODE
      00000083H   SFRSYM    DATA     BYTE      DPH
      00000082H   SFRSYM    DATA     BYTE      DPL
      00000099H   SFRSYM    DATA     BYTE      SBUF0
      0000009CH   SFRSYM    DATA     BYTE      SBUF1
      00000098H   SFRSYM    DATA     BYTE      SCON0
      0000009BH   SFRSYM    DATA     BYTE      SCON1
      000000D8H   SFRSYM    DATA     BYTE      ADCON
      000000C8H   SFRSYM    DATA     BYTE      T2CON
      000000E6H   SFRSYM    DATA     BYTE      DIV_MODE
      000000F8H.5 SFRSYM    DATA     BIT       APP_RW
      000000CBH   SFRSYM    DATA     BYTE      TRL2H
      0000009FH   SFRSYM    DATA     BYTE      SBUF2_RX
      000000ADH   SFRSYM    DATA     BYTE      SBUF3_RX
      0000008EH   SFRSYM    DATA     BYTE      CKCON
      0000009EH   SFRSYM    DATA     BYTE      SBUF2_TX
      000000ACH   SFRSYM    DATA     BYTE      SBUF3_TX
      000000CAH   SFRSYM    DATA     BYTE      TRL2L
      000000D0H.5 SFRSYM    DATA     BIT       F0
      000000FEH   SFRSYM    DATA     BYTE      EXADR
      000000D0H.1 SFRSYM    DATA     BIT       F1
      000000A0H.3 SFRSYM    DATA     BIT       LED_B
      000000D0H   SFRSYM    DATA     BYTE      PSW
      000000A0H.1 SFRSYM    DATA     BIT       LED_G
      000000C0H   SFRSYM    DATA     BYTE      IRCON
      00000098H.2 SFRSYM    DATA     BIT       RB80

      ---         MODULE    ---      ---       TIMER
      0200A54FH   PUBLIC    XDATA    DWORD     i
      0100467BH   PUBLIC    CODE     ---       InitTimer
      0100468BH   PUBLIC    CODE     ---       T2_ISR_PC
      010045BFH   PUBLIC    CODE     ---       T2_Init
      01003234H   PUBLIC    CODE     ---       T0_ISR_PC
      01004624H   PUBLIC    CODE     ---       T0_Init
      00000098H.3 SFRSYM    DATA     BIT       TB80
      000000F1H   SFRSYM    DATA     BYTE      ADR_H
      00000080H   SFRSYM    DATA     BYTE      P0
      00000090H   SFRSYM    DATA     BYTE      P1
      000000A0H   SFRSYM    DATA     BYTE      P2
      000000B0H   SFRSYM    DATA     BYTE      P3
      000000D0H.6 SFRSYM    DATA     BIT       AC
      000000F3H   SFRSYM    DATA     BYTE      ADR_L
      00000094H   SFRSYM    DATA     BYTE      PAGESEL
      000000F2H   SFRSYM    DATA     BYTE      ADR_M
      000000A8H.7 SFRSYM    DATA     BIT       EA
LX51 LINKER/LOCATER V4.66.93.0                                                        05/08/2025  10:05:08  PAGE 36


      000000A0H.5 SFRSYM    DATA     BIT       JIGUANG
      00000090H.7 SFRSYM    DATA     BIT       LED_R
      000000F8H   SFRSYM    DATA     BYTE      RAMMODE
      000000B7H   SFRSYM    DATA     BYTE      P0MDOUT
      000000A8H   SFRSYM    DATA     BYTE      IEN0
      000000BCH   SFRSYM    DATA     BYTE      P1MDOUT
      000000B8H   SFRSYM    DATA     BYTE      IEN1
      000000BDH   SFRSYM    DATA     BYTE      P2MDOUT
      000000F8H.0 SFRSYM    DATA     BIT       APP_DATA0
      0000009AH   SFRSYM    DATA     BYTE      IEN2
      000000BEH   SFRSYM    DATA     BYTE      P3MDOUT
      000000F8H.1 SFRSYM    DATA     BIT       APP_DATA1
      000000D1H   SFRSYM    DATA     BYTE      IEN3
      00000080H.0 SFRSYM    DATA     BIT       P0_0
      000000F8H.2 SFRSYM    DATA     BIT       APP_DATA2
      00000090H.0 SFRSYM    DATA     BIT       P1_0
      000000F8H.3 SFRSYM    DATA     BIT       APP_DATA3
      00000090H.1 SFRSYM    DATA     BIT       P1_1
      000000F8H.4 SFRSYM    DATA     BIT       APP_ACK
      000000F4H   SFRSYM    DATA     BYTE      ADR_INC
      000000B0H.1 SFRSYM    DATA     BIT       P3_1
      00000098H.4 SFRSYM    DATA     BIT       REN0
      000000B8H.1 SFRSYM    DATA     BIT       ECAN
      000000D0H.7 SFRSYM    DATA     BIT       CY
      000000B8H.3 SFRSYM    DATA     BIT       ES2R
      000000B8H.5 SFRSYM    DATA     BIT       ES3R
      000000B8H.2 SFRSYM    DATA     BIT       ES2T
      000000B8H.4 SFRSYM    DATA     BIT       ES3T
      000000C8H.7 SFRSYM    DATA     BIT       TSF2
      000000B0H.3 SFRSYM    DATA     BIT       RTC_SDA
      00000081H   SFRSYM    DATA     BYTE      SP
      000000D0H.2 SFRSYM    DATA     BIT       OV
      00000095H   SFRSYM    DATA     BYTE      D_PAGESEL
      00000090H.5 SFRSYM    DATA     BIT       UV
      000000F8H.7 SFRSYM    DATA     BIT       APP_REQ
      000000B0H.2 SFRSYM    DATA     BIT       RTC_SCL
      000000BFH   SFRSYM    DATA     BYTE      IRCON2
      000000BAH   SFRSYM    DATA     BYTE      SREL0H
      000000BBH   SFRSYM    DATA     BYTE      SREL1H
      00000087H   SFRSYM    DATA     BYTE      PCON
      000000AAH   SFRSYM    DATA     BYTE      SREL0L
      000000F9H   SFRSYM    DATA     BYTE      PORTDRV
      0000009DH   SFRSYM    DATA     BYTE      SREL1L
      00000089H   SFRSYM    DATA     BYTE      TMOD
      00000088H   SFRSYM    DATA     BYTE      TCON
      00000097H   SFRSYM    DATA     BYTE      SCON2R
      000000FFH   SFRSYM    DATA     BYTE      EXDATA
      000000ABH   SFRSYM    DATA     BYTE      SCON3R
      000000D9H   SFRSYM    DATA     BYTE      BODE2_DIV_H
      000000AEH   SFRSYM    DATA     BYTE      BODE3_DIV_H
      00000096H   SFRSYM    DATA     BYTE      SCON2T
      000000A7H   SFRSYM    DATA     BYTE      SCON3T
      000000E7H   SFRSYM    DATA     BYTE      BODE2_DIV_L
      00000088H.1 SFRSYM    DATA     BIT       IE0
      000000AFH   SFRSYM    DATA     BYTE      BODE3_DIV_L
      00000088H.3 SFRSYM    DATA     BIT       IE1
      000000C9H   SFRSYM    DATA     BYTE      MUX_SEL
      000000F0H   SFRSYM    DATA     BYTE      B
      000000E0H   SFRSYM    DATA     BYTE      ACC
      000000A8H.4 SFRSYM    DATA     BIT       ES0
      0000008FH   SFRSYM    DATA     BYTE      CAN_CR
      000000A8H.1 SFRSYM    DATA     BIT       ET0
      000000A9H   SFRSYM    DATA     BYTE      IP0
      000000A8H.3 SFRSYM    DATA     BIT       ET1
      00000088H.5 SFRSYM    DATA     BIT       TF0
LX51 LINKER/LOCATER V4.66.93.0                                                        05/08/2025  10:05:08  PAGE 37


      000000B9H   SFRSYM    DATA     BYTE      IP1
      000000A8H.5 SFRSYM    DATA     BIT       ET2
      00000098H.0 SFRSYM    DATA     BIT       RI0
      00000088H.7 SFRSYM    DATA     BIT       TF1
      000000FDH   SFRSYM    DATA     BYTE      DATA0
      000000C0H.6 SFRSYM    DATA     BIT       TF2
      000000E8H   SFRSYM    DATA     BYTE      CAN_ET
      000000FCH   SFRSYM    DATA     BYTE      DATA1
      0000008CH   SFRSYM    DATA     BYTE      TH0
      000000A8H.0 SFRSYM    DATA     BIT       EX0
      00000098H.1 SFRSYM    DATA     BIT       TI0
      00000088H.0 SFRSYM    DATA     BIT       IT0
      000000FBH   SFRSYM    DATA     BYTE      DATA2
      0000008DH   SFRSYM    DATA     BYTE      TH1
      000000A8H.2 SFRSYM    DATA     BIT       EX1
      00000091H   SFRSYM    DATA     BYTE      CAN_IR
      000000CDH   SFRSYM    DATA     BYTE      TH2
      00000088H.2 SFRSYM    DATA     BIT       IT1
      000000FAH   SFRSYM    DATA     BYTE      DATA3
      000000D0H.0 SFRSYM    DATA     BIT       P
      00000098H.7 SFRSYM    DATA     BIT       SM0
      0000008AH   SFRSYM    DATA     BYTE      TL0
      00000098H.6 SFRSYM    DATA     BIT       SM1
      0000008BH   SFRSYM    DATA     BYTE      TL1
      00000098H.5 SFRSYM    DATA     BIT       SM2
      000000CCH   SFRSYM    DATA     BYTE      TL2
      000000A0H.7 SFRSYM    DATA     BIT       UV_St
      000000D0H.3 SFRSYM    DATA     BIT       RS0
      000000F8H.6 SFRSYM    DATA     BIT       APP_EN
      000000D0H.4 SFRSYM    DATA     BIT       RS1
      00000088H.4 SFRSYM    DATA     BIT       TR0
      00000088H.6 SFRSYM    DATA     BIT       TR1
      00000093H   SFRSYM    DATA     BYTE      DPC
      000000C8H.0 SFRSYM    DATA     BIT       TR2
      000000E5H   SFRSYM    DATA     BYTE      MAC_MODE
      00000083H   SFRSYM    DATA     BYTE      DPH
      00000082H   SFRSYM    DATA     BYTE      DPL
      00000099H   SFRSYM    DATA     BYTE      SBUF0
      0000009CH   SFRSYM    DATA     BYTE      SBUF1
      00000098H   SFRSYM    DATA     BYTE      SCON0
      0000009BH   SFRSYM    DATA     BYTE      SCON1
      000000D8H   SFRSYM    DATA     BYTE      ADCON
      000000C8H   SFRSYM    DATA     BYTE      T2CON
      000000E6H   SFRSYM    DATA     BYTE      DIV_MODE
      000000F8H.5 SFRSYM    DATA     BIT       APP_RW
      000000CBH   SFRSYM    DATA     BYTE      TRL2H
      0000009FH   SFRSYM    DATA     BYTE      SBUF2_RX
      000000ADH   SFRSYM    DATA     BYTE      SBUF3_RX
      0000008EH   SFRSYM    DATA     BYTE      CKCON
      0000009EH   SFRSYM    DATA     BYTE      SBUF2_TX
      000000ACH   SFRSYM    DATA     BYTE      SBUF3_TX
      000000CAH   SFRSYM    DATA     BYTE      TRL2L
      000000D0H.5 SFRSYM    DATA     BIT       F0
      000000FEH   SFRSYM    DATA     BYTE      EXADR
      000000D0H.1 SFRSYM    DATA     BIT       F1
      000000A0H.3 SFRSYM    DATA     BIT       LED_B
      000000D0H   SFRSYM    DATA     BYTE      PSW
      000000A0H.1 SFRSYM    DATA     BIT       LED_G
      000000C0H   SFRSYM    DATA     BYTE      IRCON
      00000098H.2 SFRSYM    DATA     BIT       RB80

      01004624H   BLOCK     CODE     ---       LVL=0
      01004624H   LINE      CODE     ---       #26
      01004624H   LINE      CODE     ---       #27
      01004624H   LINE      CODE     ---       #28
LX51 LINKER/LOCATER V4.66.93.0                                                        05/08/2025  10:05:08  PAGE 38


      01004627H   LINE      CODE     ---       #29
      0100462AH   LINE      CODE     ---       #30
      0100462DH   LINE      CODE     ---       #31
      0100462FH   LINE      CODE     ---       #32
      01004631H   LINE      CODE     ---       #33
      ---         BLOCKEND  ---      ---       LVL=0

      01003234H   BLOCK     CODE     ---       LVL=0
      01003234H   LINE      CODE     ---       #37
      01003251H   LINE      CODE     ---       #39
      01003253H   LINE      CODE     ---       #40
      01003256H   LINE      CODE     ---       #41
      01003259H   LINE      CODE     ---       #49
      01003267H   LINE      CODE     ---       #50
      01003286H   LINE      CODE     ---       #51
      010032A0H   LINE      CODE     ---       #52
      010032A0H   LINE      CODE     ---       #53
      010032AEH   LINE      CODE     ---       #54
      010032CDH   LINE      CODE     ---       #55
      010032ECH   LINE      CODE     ---       #56
      010032F6H   LINE      CODE     ---       #57
      010032F6H   LINE      CODE     ---       #61
      010032F8H   LINE      CODE     ---       #62
      ---         BLOCKEND  ---      ---       LVL=0

      010045BFH   BLOCK     CODE     ---       LVL=0
      010045BFH   LINE      CODE     ---       #67
      010045BFH   LINE      CODE     ---       #68
      010045BFH   LINE      CODE     ---       #69
      010045C2H   LINE      CODE     ---       #70
      010045C5H   LINE      CODE     ---       #71
      010045C7H   LINE      CODE     ---       #72
      010045CAH   LINE      CODE     ---       #73
      010045CDH   LINE      CODE     ---       #74
      010045D0H   LINE      CODE     ---       #75
      010045D2H   LINE      CODE     ---       #76
      ---         BLOCKEND  ---      ---       LVL=0

      0100468BH   BLOCK     CODE     ---       LVL=0
      0100468BH   LINE      CODE     ---       #77
      0100468BH   LINE      CODE     ---       #79
      0100468DH   LINE      CODE     ---       #83
      ---         BLOCKEND  ---      ---       LVL=0

      0100467BH   BLOCK     CODE     ---       LVL=0
      0100467BH   LINE      CODE     ---       #88
      0100467BH   LINE      CODE     ---       #89
      0100467BH   LINE      CODE     ---       #90
      0100467EH   LINE      CODE     ---       #91
      ---         BLOCKEND  ---      ---       LVL=0

      ---         MODULE    ---      ---       HANDLE
      0200A429H   PUBLIC    XDATA    ---       value0F00
      0200A428H   PUBLIC    XDATA    BYTE      xp_status
      0200A329H   PUBLIC    XDATA    ---       frame_buf1
      0200A229H   PUBLIC    XDATA    ---       s_dl_t_645_8283_body
      0200A12AH   PUBLIC    XDATA    ---       frame_buf
      010046C7H   PUBLIC    CONST    ---       CUart5
      010046B5H   PUBLIC    CONST    ---       CUart4
      010046A3H   PUBLIC    CONST    ---       CUart3
      0100468EH   PUBLIC    CONST    ---       CUart2
      01004640H   PUBLIC    CODE     ---       HandleProc
      0100104CH   PUBLIC    CODE     ---       ParseBuffer
      0200A48DH   PUBLIC    XDATA    BYTE      ?_find_dlt645_frame?BYTE
      01003313H   PUBLIC    CODE     ---       _find_dlt645_frame
LX51 LINKER/LOCATER V4.66.93.0                                                        05/08/2025  10:05:08  PAGE 39


      0200A48DH   PUBLIC    XDATA    BYTE      ?_parse_dlt645_frame?BYTE
      0100441CH   PUBLIC    CODE     ---       _parse_dlt645_frame
      01003893H   PUBLIC    CODE     ---       dlt645_handle
      01003B04H   PUBLIC    CODE     ---       TouchHandle
      01003671H   PUBLIC    CODE     ---       _page_set
      01003F08H   PUBLIC    CODE     ---       _JumpPage
      0100464CH   PUBLIC    CODE     ---       InitUartSend
      010041F9H   PUBLIC    CODE     ---       GetValue0F00
      01003A72H   PUBLIC    CODE     ---       _SetVoice
      01004515H   PUBLIC    CODE     ---       _SetBlight
      01004681H   PUBLIC    CODE     ---       get_data1
      00000098H.3 SFRSYM    DATA     BIT       TB80
      000000F1H   SFRSYM    DATA     BYTE      ADR_H
      00000080H   SFRSYM    DATA     BYTE      P0
      00000090H   SFRSYM    DATA     BYTE      P1
      000000A0H   SFRSYM    DATA     BYTE      P2
      000000B0H   SFRSYM    DATA     BYTE      P3
      000000D0H.6 SFRSYM    DATA     BIT       AC
      000000F3H   SFRSYM    DATA     BYTE      ADR_L
      00000094H   SFRSYM    DATA     BYTE      PAGESEL
      000000F2H   SFRSYM    DATA     BYTE      ADR_M
      000000A8H.7 SFRSYM    DATA     BIT       EA
      000000A0H.5 SFRSYM    DATA     BIT       JIGUANG
      00000090H.7 SFRSYM    DATA     BIT       LED_R
      000000F8H   SFRSYM    DATA     BYTE      RAMMODE
      000000B7H   SFRSYM    DATA     BYTE      P0MDOUT
      000000A8H   SFRSYM    DATA     BYTE      IEN0
      000000BCH   SFRSYM    DATA     BYTE      P1MDOUT
      000000B8H   SFRSYM    DATA     BYTE      IEN1
      000000BDH   SFRSYM    DATA     BYTE      P2MDOUT
      000000F8H.0 SFRSYM    DATA     BIT       APP_DATA0
      0000009AH   SFRSYM    DATA     BYTE      IEN2
      000000BEH   SFRSYM    DATA     BYTE      P3MDOUT
      000000F8H.1 SFRSYM    DATA     BIT       APP_DATA1
      000000D1H   SFRSYM    DATA     BYTE      IEN3
      00000080H.0 SFRSYM    DATA     BIT       P0_0
      000000F8H.2 SFRSYM    DATA     BIT       APP_DATA2
      00000090H.0 SFRSYM    DATA     BIT       P1_0
      000000F8H.3 SFRSYM    DATA     BIT       APP_DATA3
      00000090H.1 SFRSYM    DATA     BIT       P1_1
      000000F8H.4 SFRSYM    DATA     BIT       APP_ACK
      000000F4H   SFRSYM    DATA     BYTE      ADR_INC
      000000B0H.1 SFRSYM    DATA     BIT       P3_1
      00000098H.4 SFRSYM    DATA     BIT       REN0
      000000B8H.1 SFRSYM    DATA     BIT       ECAN
      000000D0H.7 SFRSYM    DATA     BIT       CY
      000000B8H.3 SFRSYM    DATA     BIT       ES2R
      000000B8H.5 SFRSYM    DATA     BIT       ES3R
      000000B8H.2 SFRSYM    DATA     BIT       ES2T
      000000B8H.4 SFRSYM    DATA     BIT       ES3T
      000000C8H.7 SFRSYM    DATA     BIT       TSF2
      000000B0H.3 SFRSYM    DATA     BIT       RTC_SDA
      00000081H   SFRSYM    DATA     BYTE      SP
      000000D0H.2 SFRSYM    DATA     BIT       OV
      00000095H   SFRSYM    DATA     BYTE      D_PAGESEL
      00000090H.5 SFRSYM    DATA     BIT       UV
      000000F8H.7 SFRSYM    DATA     BIT       APP_REQ
      000000B0H.2 SFRSYM    DATA     BIT       RTC_SCL
      000000BFH   SFRSYM    DATA     BYTE      IRCON2
      000000BAH   SFRSYM    DATA     BYTE      SREL0H
      000000BBH   SFRSYM    DATA     BYTE      SREL1H
      00000087H   SFRSYM    DATA     BYTE      PCON
      000000AAH   SFRSYM    DATA     BYTE      SREL0L
      000000F9H   SFRSYM    DATA     BYTE      PORTDRV
      0000009DH   SFRSYM    DATA     BYTE      SREL1L
LX51 LINKER/LOCATER V4.66.93.0                                                        05/08/2025  10:05:08  PAGE 40


      00000089H   SFRSYM    DATA     BYTE      TMOD
      00000088H   SFRSYM    DATA     BYTE      TCON
      00000097H   SFRSYM    DATA     BYTE      SCON2R
      000000FFH   SFRSYM    DATA     BYTE      EXDATA
      000000ABH   SFRSYM    DATA     BYTE      SCON3R
      000000D9H   SFRSYM    DATA     BYTE      BODE2_DIV_H
      000000AEH   SFRSYM    DATA     BYTE      BODE3_DIV_H
      00000096H   SFRSYM    DATA     BYTE      SCON2T
      000000A7H   SFRSYM    DATA     BYTE      SCON3T
      000000E7H   SFRSYM    DATA     BYTE      BODE2_DIV_L
      00000088H.1 SFRSYM    DATA     BIT       IE0
      000000AFH   SFRSYM    DATA     BYTE      BODE3_DIV_L
      00000088H.3 SFRSYM    DATA     BIT       IE1
      000000C9H   SFRSYM    DATA     BYTE      MUX_SEL
      000000F0H   SFRSYM    DATA     BYTE      B
      000000E0H   SFRSYM    DATA     BYTE      ACC
      000000A8H.4 SFRSYM    DATA     BIT       ES0
      0000008FH   SFRSYM    DATA     BYTE      CAN_CR
      000000A8H.1 SFRSYM    DATA     BIT       ET0
      000000A9H   SFRSYM    DATA     BYTE      IP0
      000000A8H.3 SFRSYM    DATA     BIT       ET1
      00000088H.5 SFRSYM    DATA     BIT       TF0
      000000B9H   SFRSYM    DATA     BYTE      IP1
      000000A8H.5 SFRSYM    DATA     BIT       ET2
      00000098H.0 SFRSYM    DATA     BIT       RI0
      00000088H.7 SFRSYM    DATA     BIT       TF1
      000000FDH   SFRSYM    DATA     BYTE      DATA0
      000000C0H.6 SFRSYM    DATA     BIT       TF2
      000000E8H   SFRSYM    DATA     BYTE      CAN_ET
      000000FCH   SFRSYM    DATA     BYTE      DATA1
      0000008CH   SFRSYM    DATA     BYTE      TH0
      000000A8H.0 SFRSYM    DATA     BIT       EX0
      00000098H.1 SFRSYM    DATA     BIT       TI0
      00000088H.0 SFRSYM    DATA     BIT       IT0
      000000FBH   SFRSYM    DATA     BYTE      DATA2
      0000008DH   SFRSYM    DATA     BYTE      TH1
      000000A8H.2 SFRSYM    DATA     BIT       EX1
      00000091H   SFRSYM    DATA     BYTE      CAN_IR
      000000CDH   SFRSYM    DATA     BYTE      TH2
      00000088H.2 SFRSYM    DATA     BIT       IT1
      000000FAH   SFRSYM    DATA     BYTE      DATA3
      000000D0H.0 SFRSYM    DATA     BIT       P
      00000098H.7 SFRSYM    DATA     BIT       SM0
      0000008AH   SFRSYM    DATA     BYTE      TL0
      00000098H.6 SFRSYM    DATA     BIT       SM1
      0000008BH   SFRSYM    DATA     BYTE      TL1
      00000098H.5 SFRSYM    DATA     BIT       SM2
      000000CCH   SFRSYM    DATA     BYTE      TL2
      000000A0H.7 SFRSYM    DATA     BIT       UV_St
      000000D0H.3 SFRSYM    DATA     BIT       RS0
      000000F8H.6 SFRSYM    DATA     BIT       APP_EN
      000000D0H.4 SFRSYM    DATA     BIT       RS1
      00000088H.4 SFRSYM    DATA     BIT       TR0
      00000088H.6 SFRSYM    DATA     BIT       TR1
      00000093H   SFRSYM    DATA     BYTE      DPC
      000000C8H.0 SFRSYM    DATA     BIT       TR2
      000000E5H   SFRSYM    DATA     BYTE      MAC_MODE
      00000083H   SFRSYM    DATA     BYTE      DPH
      00000082H   SFRSYM    DATA     BYTE      DPL
      00000099H   SFRSYM    DATA     BYTE      SBUF0
      0000009CH   SFRSYM    DATA     BYTE      SBUF1
      00000098H   SFRSYM    DATA     BYTE      SCON0
      0000009BH   SFRSYM    DATA     BYTE      SCON1
      000000D8H   SFRSYM    DATA     BYTE      ADCON
      000000C8H   SFRSYM    DATA     BYTE      T2CON
LX51 LINKER/LOCATER V4.66.93.0                                                        05/08/2025  10:05:08  PAGE 41


      000000E6H   SFRSYM    DATA     BYTE      DIV_MODE
      000000F8H.5 SFRSYM    DATA     BIT       APP_RW
      000000CBH   SFRSYM    DATA     BYTE      TRL2H
      0000009FH   SFRSYM    DATA     BYTE      SBUF2_RX
      000000ADH   SFRSYM    DATA     BYTE      SBUF3_RX
      0000008EH   SFRSYM    DATA     BYTE      CKCON
      0000009EH   SFRSYM    DATA     BYTE      SBUF2_TX
      000000ACH   SFRSYM    DATA     BYTE      SBUF3_TX
      000000CAH   SFRSYM    DATA     BYTE      TRL2L
      000000D0H.5 SFRSYM    DATA     BIT       F0
      000000FEH   SFRSYM    DATA     BYTE      EXADR
      000000D0H.1 SFRSYM    DATA     BIT       F1
      000000A0H.3 SFRSYM    DATA     BIT       LED_B
      000000D0H   SFRSYM    DATA     BYTE      PSW
      000000A0H.1 SFRSYM    DATA     BIT       LED_G
      000000C0H   SFRSYM    DATA     BYTE      IRCON
      00000098H.2 SFRSYM    DATA     BIT       RB80
      010046D9H   SYMBOL    CONST    ---       _?ix1000
      010046DDH   SYMBOL    CONST    ---       _?ix1001
      010046E1H   SYMBOL    CONST    ---       _?ix1002
      010046E5H   SYMBOL    CONST    ---       _?ix1003
      010046F5H   SYMBOL    CONST    ---       _?ix1004

      01004681H   BLOCK     CODE     ---       LVL=0
      01004681H   LINE      CODE     ---       #42
      01004681H   LINE      CODE     ---       #43
      01004686H   LINE      CODE     ---       #44
      ---         BLOCKEND  ---      ---       LVL=0

      01004515H   BLOCK     CODE     ---       LVL=0
      0200A556H   SYMBOL    XDATA    BYTE      n
      01004515H   LINE      CODE     ---       #83
      0100451AH   LINE      CODE     ---       #84
      0100451AH   LINE      CODE     ---       #86
      ---         BLOCKEND  ---      ---       LVL=0

      01003A72H   BLOCK     CODE     ---       LVL=0
      0200A54AH   SYMBOL    XDATA    CHAR      status
      01003A77H   BLOCK     CODE     NEAR LAB  LVL=1
      0200A54BH   SYMBOL    XDATA    ---       temp
      ---         BLOCKEND  ---      ---       LVL=1
      01003A72H   LINE      CODE     ---       #95
      01003A77H   LINE      CODE     ---       #96
      01003A77H   LINE      CODE     ---       #97
      01003A8AH   LINE      CODE     ---       #98
      01003AA0H   LINE      CODE     ---       #99
      01003AA6H   LINE      CODE     ---       #100
      01003ABEH   LINE      CODE     ---       #101
      01003ACBH   LINE      CODE     ---       #102
      01003ACBH   LINE      CODE     ---       #103
      01003AE1H   LINE      CODE     ---       #105
      01003AE1H   LINE      CODE     ---       #106
      01003AE8H   LINE      CODE     ---       #107
      01003AFDH   LINE      CODE     ---       #108
      01003B03H   LINE      CODE     ---       #109
      ---         BLOCKEND  ---      ---       LVL=0

      010041F9H   BLOCK     CODE     ---       LVL=0
      010041F9H   BLOCK     CODE     NEAR LAB  LVL=1
      0200A47EH   SYMBOL    XDATA    ---       cleanData
      ---         BLOCKEND  ---      ---       LVL=1
      010041F9H   LINE      CODE     ---       #116
      010041F9H   LINE      CODE     ---       #117
      010041F9H   LINE      CODE     ---       #118
      0100420CH   LINE      CODE     ---       #119
LX51 LINKER/LOCATER V4.66.93.0                                                        05/08/2025  10:05:08  PAGE 42


      01004222H   LINE      CODE     ---       #120
      0100422AH   LINE      CODE     ---       #121
      0100422AH   LINE      CODE     ---       #122
      0100423FH   LINE      CODE     ---       #123
      01004242H   LINE      CODE     ---       #124
      01004242H   LINE      CODE     ---       #125
      01004244H   LINE      CODE     ---       #126
      ---         BLOCKEND  ---      ---       LVL=0

      0100464CH   BLOCK     CODE     ---       LVL=0
      0100464CH   LINE      CODE     ---       #129
      0100464CH   LINE      CODE     ---       #130
      0100464CH   LINE      CODE     ---       #131
      ---         BLOCKEND  ---      ---       LVL=0

      01003F08H   BLOCK     CODE     ---       LVL=0
      0200A53EH   SYMBOL    XDATA    WORD      pageId
      01003F10H   BLOCK     CODE     NEAR LAB  LVL=1
      0200A540H   SYMBOL    XDATA    ---       temp
      ---         BLOCKEND  ---      ---       LVL=1
      01003F08H   LINE      CODE     ---       #140
      01003F10H   LINE      CODE     ---       #141
      01003F10H   LINE      CODE     ---       #142
      01003F23H   LINE      CODE     ---       #143
      01003F30H   LINE      CODE     ---       #144
      01003F33H   LINE      CODE     ---       #145
      01003F49H   LINE      CODE     ---       #147
      01003F49H   LINE      CODE     ---       #148
      01003F50H   LINE      CODE     ---       #149
      01003F65H   LINE      CODE     ---       #150
      01003F6BH   LINE      CODE     ---       #151
      ---         BLOCKEND  ---      ---       LVL=0

      01003671H   BLOCK     CODE     ---       LVL=0
      0200A494H   SYMBOL    XDATA    WORD      getDar
      01003671H   LINE      CODE     ---       #157
      01003679H   LINE      CODE     ---       #158
      01003679H   LINE      CODE     ---       #165
      0100368BH   LINE      CODE     ---       #166
      0100368BH   LINE      CODE     ---       #167
      0100368BH   LINE      CODE     ---       #168
      0100368BH   LINE      CODE     ---       #171
      0100368BH   LINE      CODE     ---       #172
      0100368BH   LINE      CODE     ---       #174
      0100368BH   LINE      CODE     ---       #175
      0100368BH   LINE      CODE     ---       #176
      01003699H   LINE      CODE     ---       #177
      01003699H   LINE      CODE     ---       #179
      010036A1H   LINE      CODE     ---       #180
      010036A1H   LINE      CODE     ---       #181
      010036A9H   LINE      CODE     ---       #182
      010036A9H   LINE      CODE     ---       #183
      010036ACH   LINE      CODE     ---       #184
      010036B2H   LINE      CODE     ---       #185
      010036B5H   LINE      CODE     ---       #186
      010036CBH   LINE      CODE     ---       #187
      010036CBH   LINE      CODE     ---       #188
      010036D9H   LINE      CODE     ---       #190
      010036E4H   LINE      CODE     ---       #191
      010036E5H   LINE      CODE     ---       #192
      010036EEH   LINE      CODE     ---       #193
      010036EEH   LINE      CODE     ---       #194
      010036F1H   LINE      CODE     ---       #196
      010036F2H   LINE      CODE     ---       #197
      010036F5H   LINE      CODE     ---       #199
LX51 LINKER/LOCATER V4.66.93.0                                                        05/08/2025  10:05:08  PAGE 43


      010036F6H   LINE      CODE     ---       #200
      01003702H   LINE      CODE     ---       #201
      01003702H   LINE      CODE     ---       #202
      01003708H   LINE      CODE     ---       #204
      01003708H   LINE      CODE     ---       #207
      01003709H   LINE      CODE     ---       #208
      01003709H   LINE      CODE     ---       #210
      01003709H   LINE      CODE     ---       #211
      01003709H   LINE      CODE     ---       #215
      01003709H   LINE      CODE     ---       #216
      01003709H   LINE      CODE     ---       #218
      01003709H   LINE      CODE     ---       #219
      01003709H   LINE      CODE     ---       #223
      01003709H   LINE      CODE     ---       #224
      01003709H   LINE      CODE     ---       #227
      01003709H   LINE      CODE     ---       #228
      01003709H   LINE      CODE     ---       #230
      01003709H   LINE      CODE     ---       #231
      01003709H   LINE      CODE     ---       #234
      01003709H   LINE      CODE     ---       #235
      01003709H   LINE      CODE     ---       #236
      01003709H   LINE      CODE     ---       #237
      01003709H   LINE      CODE     ---       #240
      01003709H   LINE      CODE     ---       #241
      01003709H   LINE      CODE     ---       #243
      01003709H   LINE      CODE     ---       #244
      01003709H   LINE      CODE     ---       #246
      01003709H   LINE      CODE     ---       #247
      01003709H   LINE      CODE     ---       #249
      01003709H   LINE      CODE     ---       #250
      01003709H   LINE      CODE     ---       #253
      01003709H   LINE      CODE     ---       #254
      01003709H   LINE      CODE     ---       #255
      01003724H   LINE      CODE     ---       #256
      01003724H   LINE      CODE     ---       #258
      01003724H   LINE      CODE     ---       #259
      0100372CH   LINE      CODE     ---       #260
      0100372CH   LINE      CODE     ---       #261
      0100372FH   LINE      CODE     ---       #262
      0100372FH   LINE      CODE     ---       #263
      0100372FH   LINE      CODE     ---       #264
      0100372FH   LINE      CODE     ---       #266
      0100372FH   LINE      CODE     ---       #267
      0100372FH   LINE      CODE     ---       #268
      0100372FH   LINE      CODE     ---       #270
      0100372FH   LINE      CODE     ---       #271
      0100372FH   LINE      CODE     ---       #272
      0100372FH   LINE      CODE     ---       #274
      0100372FH   LINE      CODE     ---       #275
      0100372FH   LINE      CODE     ---       #276
      0100372FH   LINE      CODE     ---       #278
      0100372FH   LINE      CODE     ---       #279
      0100372FH   LINE      CODE     ---       #281
      0100372FH   LINE      CODE     ---       #282
      0100372FH   LINE      CODE     ---       #284
      0100372FH   LINE      CODE     ---       #285
      0100372FH   LINE      CODE     ---       #286
      0100372FH   LINE      CODE     ---       #287
      0100372FH   LINE      CODE     ---       #288
      0100372FH   LINE      CODE     ---       #289
      0100372FH   LINE      CODE     ---       #291
      0100372FH   LINE      CODE     ---       #292
      0100372FH   LINE      CODE     ---       #294
      0100372FH   LINE      CODE     ---       #301
      ---         BLOCKEND  ---      ---       LVL=0
LX51 LINKER/LOCATER V4.66.93.0                                                        05/08/2025  10:05:08  PAGE 44



      01003B04H   BLOCK     CODE     ---       LVL=0
      01003B04H   BLOCK     CODE     NEAR LAB  LVL=1
      0200A47EH   SYMBOL    XDATA    ---       temp
      0200A48EH   SYMBOL    XDATA    WORD      flag
      0200A490H   SYMBOL    XDATA    WORD      iconid
      0200A492H   SYMBOL    XDATA    WORD      getDar
      ---         BLOCKEND  ---      ---       LVL=1
      01003B04H   LINE      CODE     ---       #306
      01003B04H   LINE      CODE     ---       #307
      01003B04H   LINE      CODE     ---       #308
      01003B17H   LINE      CODE     ---       #309
      01003B1EH   LINE      CODE     ---       #310
      01003B22H   LINE      CODE     ---       #311
      01003B26H   LINE      CODE     ---       #312
      01003B3CH   LINE      CODE     ---       #313
      01003B3CH   LINE      CODE     ---       #315
      01003B42H   LINE      CODE     ---       #316
      01003B46H   LINE      CODE     ---       #317
      01003B53H   LINE      CODE     ---       #318
      01003B57H   LINE      CODE     ---       #319
      01003B5AH   LINE      CODE     ---       #320
      01003B5DH   LINE      CODE     ---       #321
      01003B7DH   LINE      CODE     ---       #324
      ---         BLOCKEND  ---      ---       LVL=0

      01003893H   BLOCK     CODE     ---       LVL=0
      01003893H   BLOCK     CODE     NEAR LAB  LVL=1
      0200A48DH   SYMBOL    XDATA    WORD      ADDR
      ---         BLOCKEND  ---      ---       LVL=1
      01003893H   LINE      CODE     ---       #340
      01003893H   LINE      CODE     ---       #341
      01003893H   LINE      CODE     ---       #342
      0100389AH   LINE      CODE     ---       #344
      010038ACH   LINE      CODE     ---       #346
      010038B4H   LINE      CODE     ---       #347
      010038B4H   LINE      CODE     ---       #348
      010038D6H   LINE      CODE     ---       #349
      010038DCH   LINE      CODE     ---       #350
      010038E2H   LINE      CODE     ---       #351
      010038E6H   LINE      CODE     ---       #352
      010038EFH   LINE      CODE     ---       #353
      010038F1H   LINE      CODE     ---       #354
      010038F9H   LINE      CODE     ---       #355
      010038F9H   LINE      CODE     ---       #356
      0100391CH   LINE      CODE     ---       #357
      01003929H   LINE      CODE     ---       #358
      01003936H   LINE      CODE     ---       #359
      01003936H   LINE      CODE     ---       #361
      ---         BLOCKEND  ---      ---       LVL=0

      0100441CH   BLOCK     CODE     ---       LVL=0
      00000001H   SYMBOL    DATA     ---       p_frame
      00000004H   SYMBOL    DATA     WORD      frame_len
      0200A492H   SYMBOL    XDATA    ---       sframe_body
      0100441CH   BLOCK     CODE     NEAR LAB  LVL=1
      0200A495H   SYMBOL    XDATA    WORD      temp16_t
      0200A497H   SYMBOL    XDATA    WORD      i
      ---         BLOCKEND  ---      ---       LVL=1
      0100441CH   LINE      CODE     ---       #364
      0100441CH   LINE      CODE     ---       #365
      0100441CH   LINE      CODE     ---       #366
      01004423H   LINE      CODE     ---       #367
      01004427H   LINE      CODE     ---       #369
      01004427H   LINE      CODE     ---       #370
LX51 LINKER/LOCATER V4.66.93.0                                                        05/08/2025  10:05:08  PAGE 45


      01004445H   LINE      CODE     ---       #371
      01004447H   LINE      CODE     ---       #372
      01004447H   LINE      CODE     ---       #374
      ---         BLOCKEND  ---      ---       LVL=0

      01003313H   BLOCK     CODE     ---       LVL=0
      0200A48DH   SYMBOL    XDATA    ---       line
      0200A490H   SYMBOL    XDATA    ---       out
      0200A493H   SYMBOL    XDATA    ---       frame_len
      0200A496H   SYMBOL    XDATA    WORD      line_len
      0100331EH   BLOCK     CODE     NEAR LAB  LVL=1
      0200A498H   SYMBOL    XDATA    WORD      frame_length
      0200A49AH   SYMBOL    XDATA    WORD      temp_len
      ---         BLOCKEND  ---      ---       LVL=1
      01003313H   LINE      CODE     ---       #384
      0100331EH   LINE      CODE     ---       #385
      01003325H   LINE      CODE     ---       #386
      01003329H   LINE      CODE     ---       #388
      01003338H   LINE      CODE     ---       #389
      0100333BH   LINE      CODE     ---       #390
      0100333BH   LINE      CODE     ---       #392
      0100334DH   LINE      CODE     ---       #393
      01003350H   LINE      CODE     ---       #394
      01003350H   LINE      CODE     ---       #395
      0100335AH   LINE      CODE     ---       #396
      0100335DH   LINE      CODE     ---       #397
      0100335DH   LINE      CODE     ---       #398
      01003370H   LINE      CODE     ---       #400
      0100337DH   LINE      CODE     ---       #402
      01003398H   LINE      CODE     ---       #403
      010033BAH   LINE      CODE     ---       #404
      010033C4H   LINE      CODE     ---       #405
      010033D4H   LINE      CODE     ---       #406
      010033ECH   LINE      CODE     ---       #407
      010033EFH   LINE      CODE     ---       #408
      010033EFH   LINE      CODE     ---       #410
      010033F1H   LINE      CODE     ---       #411
      010033F1H   LINE      CODE     ---       #412
      ---         BLOCKEND  ---      ---       LVL=0

      0100104CH   BLOCK     CODE     ---       LVL=0
      0100104CH   BLOCK     CODE     NEAR LAB  LVL=1
      0200A47EH   SYMBOL    XDATA    WORD      frame_length
      0200A480H   SYMBOL    XDATA    WORD      i
      0200A482H   SYMBOL    XDATA    WORD      temp_len
      0200A484H   SYMBOL    XDATA    BYTE      has_content
      0200A485H   SYMBOL    XDATA    BYTE      frame_error
      0200A486H   SYMBOL    XDATA    ---       p_buf
      0200A489H   SYMBOL    XDATA    BYTE      protl_type
      0200A48AH   SYMBOL    XDATA    BYTE      find_frame_re
      0200A48BH   SYMBOL    XDATA    ---       frame_results
      ---         BLOCKEND  ---      ---       LVL=1
      0100104CH   LINE      CODE     ---       #416
      0100104CH   LINE      CODE     ---       #417
      0100104CH   LINE      CODE     ---       #418
      01001053H   LINE      CODE     ---       #419
      0100105BH   LINE      CODE     ---       #420
      0100105DH   LINE      CODE     ---       #421
      0100105FH   LINE      CODE     ---       #422
      0100106AH   LINE      CODE     ---       #423
      0100106DH   LINE      CODE     ---       #424
      0100106FH   LINE      CODE     ---       #429
      01001081H   LINE      CODE     ---       #431
      01001099H   LINE      CODE     ---       #432
      010010A2H   LINE      CODE     ---       #433
LX51 LINKER/LOCATER V4.66.93.0                                                        05/08/2025  10:05:08  PAGE 46


      010010B0H   LINE      CODE     ---       #435
      010010F0H   LINE      CODE     ---       #436
      010010FAH   LINE      CODE     ---       #437
      010010FCH   LINE      CODE     ---       #438
      01001130H   LINE      CODE     ---       #440
      01001136H   LINE      CODE     ---       #441
      01001137H   LINE      CODE     ---       #442
      01001137H   LINE      CODE     ---       #444
      0100115AH   LINE      CODE     ---       #447
      01001169H   LINE      CODE     ---       #448
      01001169H   LINE      CODE     ---       #449
      01001178H   LINE      CODE     ---       #450
      0100117DH   LINE      CODE     ---       #451
      01001181H   LINE      CODE     ---       #452
      01001187H   LINE      CODE     ---       #453
      0100119BH   LINE      CODE     ---       #454
      010011A7H   LINE      CODE     ---       #455
      010011B7H   LINE      CODE     ---       #457
      010011B7H   LINE      CODE     ---       #458
      010011F3H   LINE      CODE     ---       #460
      010011F5H   LINE      CODE     ---       #461
      010011F9H   LINE      CODE     ---       #462
      0100121EH   LINE      CODE     ---       #464
      01001221H   LINE      CODE     ---       #465
      01001230H   LINE      CODE     ---       #466
      01001230H   LINE      CODE     ---       #467
      01001233H   LINE      CODE     ---       #468
      01001233H   LINE      CODE     ---       #470
      01001233H   LINE      CODE     ---       #474
      01001233H   LINE      CODE     ---       #475
      0100123EH   LINE      CODE     ---       #478
      01001243H   LINE      CODE     ---       #480
      01001283H   LINE      CODE     ---       #481
      0100128DH   LINE      CODE     ---       #482
      0100128FH   LINE      CODE     ---       #484
      010012C3H   LINE      CODE     ---       #486
      010012C9H   LINE      CODE     ---       #487
      010012CBH   LINE      CODE     ---       #488
      010012CBH   LINE      CODE     ---       #491
      010012D1H   LINE      CODE     ---       #492
      010012D1H   LINE      CODE     ---       #493
      010012D1H   LINE      CODE     ---       #494
      010012D1H   LINE      CODE     ---       #498
      010012E2H   LINE      CODE     ---       #500
      01001315H   LINE      CODE     ---       #501
      0100131DH   LINE      CODE     ---       #503
      0100133AH   LINE      CODE     ---       #504
      01001369H   LINE      CODE     ---       #505
      0100136DH   LINE      CODE     ---       #506
      0100137DH   LINE      CODE     ---       #507
      01001383H   LINE      CODE     ---       #508
      01001385H   LINE      CODE     ---       #510
      010013B6H   LINE      CODE     ---       #511
      010013C2H   LINE      CODE     ---       #512
      010013D2H   LINE      CODE     ---       #513
      010013D7H   LINE      CODE     ---       #514
      010013D7H   LINE      CODE     ---       #515
      010013E6H   LINE      CODE     ---       #516
      010013E9H   LINE      CODE     ---       #517
      010013EEH   LINE      CODE     ---       #518
      010013EEH   LINE      CODE     ---       #519
      010013F1H   LINE      CODE     ---       #520
      ---         BLOCKEND  ---      ---       LVL=0

      01004640H   BLOCK     CODE     ---       LVL=0
LX51 LINKER/LOCATER V4.66.93.0                                                        05/08/2025  10:05:08  PAGE 47


      01004640H   LINE      CODE     ---       #525
      01004640H   LINE      CODE     ---       #526
      01004640H   LINE      CODE     ---       #527
      01004646H   LINE      CODE     ---       #528
      01004646H   LINE      CODE     ---       #529
      01004649H   LINE      CODE     ---       #530
      01004649H   LINE      CODE     ---       #531
      ---         BLOCKEND  ---      ---       LVL=0

      ---         MODULE    ---      ---       CRC16
      00000098H.3 SFRSYM    DATA     BIT       TB80
      000000F1H   SFRSYM    DATA     BYTE      ADR_H
      00000080H   SFRSYM    DATA     BYTE      P0
      00000090H   SFRSYM    DATA     BYTE      P1
      000000A0H   SFRSYM    DATA     BYTE      P2
      000000B0H   SFRSYM    DATA     BYTE      P3
      000000D0H.6 SFRSYM    DATA     BIT       AC
      000000F3H   SFRSYM    DATA     BYTE      ADR_L
      00000094H   SFRSYM    DATA     BYTE      PAGESEL
      000000F2H   SFRSYM    DATA     BYTE      ADR_M
      000000A8H.7 SFRSYM    DATA     BIT       EA
      000000A0H.5 SFRSYM    DATA     BIT       JIGUANG
      00000090H.7 SFRSYM    DATA     BIT       LED_R
      000000F8H   SFRSYM    DATA     BYTE      RAMMODE
      000000B7H   SFRSYM    DATA     BYTE      P0MDOUT
      000000A8H   SFRSYM    DATA     BYTE      IEN0
      000000BCH   SFRSYM    DATA     BYTE      P1MDOUT
      000000B8H   SFRSYM    DATA     BYTE      IEN1
      000000BDH   SFRSYM    DATA     BYTE      P2MDOUT
      000000F8H.0 SFRSYM    DATA     BIT       APP_DATA0
      0000009AH   SFRSYM    DATA     BYTE      IEN2
      000000BEH   SFRSYM    DATA     BYTE      P3MDOUT
      000000F8H.1 SFRSYM    DATA     BIT       APP_DATA1
      000000D1H   SFRSYM    DATA     BYTE      IEN3
      00000080H.0 SFRSYM    DATA     BIT       P0_0
      000000F8H.2 SFRSYM    DATA     BIT       APP_DATA2
      00000090H.0 SFRSYM    DATA     BIT       P1_0
      000000F8H.3 SFRSYM    DATA     BIT       APP_DATA3
      00000090H.1 SFRSYM    DATA     BIT       P1_1
      000000F8H.4 SFRSYM    DATA     BIT       APP_ACK
      000000F4H   SFRSYM    DATA     BYTE      ADR_INC
      000000B0H.1 SFRSYM    DATA     BIT       P3_1
      00000098H.4 SFRSYM    DATA     BIT       REN0
      000000B8H.1 SFRSYM    DATA     BIT       ECAN
      000000D0H.7 SFRSYM    DATA     BIT       CY
      000000B8H.3 SFRSYM    DATA     BIT       ES2R
      000000B8H.5 SFRSYM    DATA     BIT       ES3R
      000000B8H.2 SFRSYM    DATA     BIT       ES2T
      000000B8H.4 SFRSYM    DATA     BIT       ES3T
      000000C8H.7 SFRSYM    DATA     BIT       TSF2
      000000B0H.3 SFRSYM    DATA     BIT       RTC_SDA
      00000081H   SFRSYM    DATA     BYTE      SP
      000000D0H.2 SFRSYM    DATA     BIT       OV
      00000095H   SFRSYM    DATA     BYTE      D_PAGESEL
      00000090H.5 SFRSYM    DATA     BIT       UV
      000000F8H.7 SFRSYM    DATA     BIT       APP_REQ
      000000B0H.2 SFRSYM    DATA     BIT       RTC_SCL
      000000BFH   SFRSYM    DATA     BYTE      IRCON2
      000000BAH   SFRSYM    DATA     BYTE      SREL0H
      000000BBH   SFRSYM    DATA     BYTE      SREL1H
      00000087H   SFRSYM    DATA     BYTE      PCON
      000000AAH   SFRSYM    DATA     BYTE      SREL0L
      000000F9H   SFRSYM    DATA     BYTE      PORTDRV
      0000009DH   SFRSYM    DATA     BYTE      SREL1L
      00000089H   SFRSYM    DATA     BYTE      TMOD
LX51 LINKER/LOCATER V4.66.93.0                                                        05/08/2025  10:05:08  PAGE 48


      00000088H   SFRSYM    DATA     BYTE      TCON
      00000097H   SFRSYM    DATA     BYTE      SCON2R
      000000FFH   SFRSYM    DATA     BYTE      EXDATA
      000000ABH   SFRSYM    DATA     BYTE      SCON3R
      000000D9H   SFRSYM    DATA     BYTE      BODE2_DIV_H
      000000AEH   SFRSYM    DATA     BYTE      BODE3_DIV_H
      00000096H   SFRSYM    DATA     BYTE      SCON2T
      000000A7H   SFRSYM    DATA     BYTE      SCON3T
      000000E7H   SFRSYM    DATA     BYTE      BODE2_DIV_L
      00000088H.1 SFRSYM    DATA     BIT       IE0
      000000AFH   SFRSYM    DATA     BYTE      BODE3_DIV_L
      00000088H.3 SFRSYM    DATA     BIT       IE1
      000000C9H   SFRSYM    DATA     BYTE      MUX_SEL
      000000F0H   SFRSYM    DATA     BYTE      B
      000000E0H   SFRSYM    DATA     BYTE      ACC
      000000A8H.4 SFRSYM    DATA     BIT       ES0
      0000008FH   SFRSYM    DATA     BYTE      CAN_CR
      000000A8H.1 SFRSYM    DATA     BIT       ET0
      000000A9H   SFRSYM    DATA     BYTE      IP0
      000000A8H.3 SFRSYM    DATA     BIT       ET1
      00000088H.5 SFRSYM    DATA     BIT       TF0
      000000B9H   SFRSYM    DATA     BYTE      IP1
      000000A8H.5 SFRSYM    DATA     BIT       ET2
      00000098H.0 SFRSYM    DATA     BIT       RI0
      00000088H.7 SFRSYM    DATA     BIT       TF1
      000000FDH   SFRSYM    DATA     BYTE      DATA0
      000000C0H.6 SFRSYM    DATA     BIT       TF2
      000000E8H   SFRSYM    DATA     BYTE      CAN_ET
      000000FCH   SFRSYM    DATA     BYTE      DATA1
      0000008CH   SFRSYM    DATA     BYTE      TH0
      000000A8H.0 SFRSYM    DATA     BIT       EX0
      00000098H.1 SFRSYM    DATA     BIT       TI0
      00000088H.0 SFRSYM    DATA     BIT       IT0
      000000FBH   SFRSYM    DATA     BYTE      DATA2
      0000008DH   SFRSYM    DATA     BYTE      TH1
      000000A8H.2 SFRSYM    DATA     BIT       EX1
      00000091H   SFRSYM    DATA     BYTE      CAN_IR
      000000CDH   SFRSYM    DATA     BYTE      TH2
      00000088H.2 SFRSYM    DATA     BIT       IT1
      000000FAH   SFRSYM    DATA     BYTE      DATA3
      000000D0H.0 SFRSYM    DATA     BIT       P
      00000098H.7 SFRSYM    DATA     BIT       SM0
      0000008AH   SFRSYM    DATA     BYTE      TL0
      00000098H.6 SFRSYM    DATA     BIT       SM1
      0000008BH   SFRSYM    DATA     BYTE      TL1
      00000098H.5 SFRSYM    DATA     BIT       SM2
      000000CCH   SFRSYM    DATA     BYTE      TL2
      000000A0H.7 SFRSYM    DATA     BIT       UV_St
      000000D0H.3 SFRSYM    DATA     BIT       RS0
      000000F8H.6 SFRSYM    DATA     BIT       APP_EN
      000000D0H.4 SFRSYM    DATA     BIT       RS1
      00000088H.4 SFRSYM    DATA     BIT       TR0
      00000088H.6 SFRSYM    DATA     BIT       TR1
      00000093H   SFRSYM    DATA     BYTE      DPC
      000000C8H.0 SFRSYM    DATA     BIT       TR2
      000000E5H   SFRSYM    DATA     BYTE      MAC_MODE
      00000083H   SFRSYM    DATA     BYTE      DPH
      00000082H   SFRSYM    DATA     BYTE      DPL
      00000099H   SFRSYM    DATA     BYTE      SBUF0
      0000009CH   SFRSYM    DATA     BYTE      SBUF1
      00000098H   SFRSYM    DATA     BYTE      SCON0
      0000009BH   SFRSYM    DATA     BYTE      SCON1
      000000D8H   SFRSYM    DATA     BYTE      ADCON
      000000C8H   SFRSYM    DATA     BYTE      T2CON
      000000E6H   SFRSYM    DATA     BYTE      DIV_MODE
LX51 LINKER/LOCATER V4.66.93.0                                                        05/08/2025  10:05:08  PAGE 49


      000000F8H.5 SFRSYM    DATA     BIT       APP_RW
      000000CBH   SFRSYM    DATA     BYTE      TRL2H
      0000009FH   SFRSYM    DATA     BYTE      SBUF2_RX
      000000ADH   SFRSYM    DATA     BYTE      SBUF3_RX
      0000008EH   SFRSYM    DATA     BYTE      CKCON
      0000009EH   SFRSYM    DATA     BYTE      SBUF2_TX
      000000ACH   SFRSYM    DATA     BYTE      SBUF3_TX
      000000CAH   SFRSYM    DATA     BYTE      TRL2L
      000000D0H.5 SFRSYM    DATA     BIT       F0
      000000FEH   SFRSYM    DATA     BYTE      EXADR
      000000D0H.1 SFRSYM    DATA     BIT       F1
      000000A0H.3 SFRSYM    DATA     BIT       LED_B
      000000D0H   SFRSYM    DATA     BYTE      PSW
      000000A0H.1 SFRSYM    DATA     BIT       LED_G
      000000C0H   SFRSYM    DATA     BYTE      IRCON
      00000098H.2 SFRSYM    DATA     BIT       RB80

      ---         MODULE    ---      ---       I2C
      0200A53CH   PUBLIC    XDATA    WORD      SysTick_RTC
      0200A53BH   PUBLIC    XDATA    BYTE      Select_rtc
      01004493H   PUBLIC    CODE     ---       Clock
      01002811H   PUBLIC    CODE     ---       RTC_Set_Time
      0100419FH   PUBLIC    CODE     ---       Init_Rtc
      01002DD0H   PUBLIC    CODE     ---       Read_Time
      01002B27H   PUBLIC    CODE     ---       _RTC_Get_Week
      010043EFH   PUBLIC    CODE     ---       Rx8130_Read_Byte
      01003D3EH   PUBLIC    CODE     ---       _Rx8130_Writ_Byte
      01004470H   PUBLIC    CODE     ---       Rx8130_Cack
      01004657H   PUBLIC    CODE     ---       Rx8130_Mnak
      01000016H   PUBLIC    CODE     ---       Rx8130_Mack
      010044C5H   PUBLIC    CODE     ---       Rx8130_Stop
      010045D3H   PUBLIC    CODE     ---       Rx8130_Start
      01001A04H   PUBLIC    CODE     ---       RTC_SET_IN
      01004687H   PUBLIC    CODE     ---       SDA_OUT
      01000056H   PUBLIC    CODE     ---       SDA_IN
      01004599H   PUBLIC    CODE     ---       Delayus
      00000098H.3 SFRSYM    DATA     BIT       TB80
      000000F1H   SFRSYM    DATA     BYTE      ADR_H
      00000080H   SFRSYM    DATA     BYTE      P0
      00000090H   SFRSYM    DATA     BYTE      P1
      000000A0H   SFRSYM    DATA     BYTE      P2
      000000B0H   SFRSYM    DATA     BYTE      P3
      000000D0H.6 SFRSYM    DATA     BIT       AC
      000000F3H   SFRSYM    DATA     BYTE      ADR_L
      00000094H   SFRSYM    DATA     BYTE      PAGESEL
      000000F2H   SFRSYM    DATA     BYTE      ADR_M
      000000A8H.7 SFRSYM    DATA     BIT       EA
      000000A0H.5 SFRSYM    DATA     BIT       JIGUANG
      00000090H.7 SFRSYM    DATA     BIT       LED_R
      000000F8H   SFRSYM    DATA     BYTE      RAMMODE
      000000B7H   SFRSYM    DATA     BYTE      P0MDOUT
      000000A8H   SFRSYM    DATA     BYTE      IEN0
      000000BCH   SFRSYM    DATA     BYTE      P1MDOUT
      000000B8H   SFRSYM    DATA     BYTE      IEN1
      000000BDH   SFRSYM    DATA     BYTE      P2MDOUT
      000000F8H.0 SFRSYM    DATA     BIT       APP_DATA0
      0000009AH   SFRSYM    DATA     BYTE      IEN2
      000000BEH   SFRSYM    DATA     BYTE      P3MDOUT
      000000F8H.1 SFRSYM    DATA     BIT       APP_DATA1
      000000D1H   SFRSYM    DATA     BYTE      IEN3
      00000080H.0 SFRSYM    DATA     BIT       P0_0
      000000F8H.2 SFRSYM    DATA     BIT       APP_DATA2
      00000090H.0 SFRSYM    DATA     BIT       P1_0
      000000F8H.3 SFRSYM    DATA     BIT       APP_DATA3
      00000090H.1 SFRSYM    DATA     BIT       P1_1
LX51 LINKER/LOCATER V4.66.93.0                                                        05/08/2025  10:05:08  PAGE 50


      000000F8H.4 SFRSYM    DATA     BIT       APP_ACK
      000000F4H   SFRSYM    DATA     BYTE      ADR_INC
      000000B0H.1 SFRSYM    DATA     BIT       P3_1
      00000098H.4 SFRSYM    DATA     BIT       REN0
      000000B8H.1 SFRSYM    DATA     BIT       ECAN
      000000D0H.7 SFRSYM    DATA     BIT       CY
      000000B8H.3 SFRSYM    DATA     BIT       ES2R
      000000B8H.5 SFRSYM    DATA     BIT       ES3R
      000000B8H.2 SFRSYM    DATA     BIT       ES2T
      000000B8H.4 SFRSYM    DATA     BIT       ES3T
      000000C8H.7 SFRSYM    DATA     BIT       TSF2
      000000B0H.3 SFRSYM    DATA     BIT       RTC_SDA
      00000081H   SFRSYM    DATA     BYTE      SP
      000000D0H.2 SFRSYM    DATA     BIT       OV
      00000095H   SFRSYM    DATA     BYTE      D_PAGESEL
      00000090H.5 SFRSYM    DATA     BIT       UV
      000000F8H.7 SFRSYM    DATA     BIT       APP_REQ
      000000B0H.2 SFRSYM    DATA     BIT       RTC_SCL
      000000BFH   SFRSYM    DATA     BYTE      IRCON2
      000000BAH   SFRSYM    DATA     BYTE      SREL0H
      000000BBH   SFRSYM    DATA     BYTE      SREL1H
      00000087H   SFRSYM    DATA     BYTE      PCON
      000000AAH   SFRSYM    DATA     BYTE      SREL0L
      000000F9H   SFRSYM    DATA     BYTE      PORTDRV
      0000009DH   SFRSYM    DATA     BYTE      SREL1L
      00000089H   SFRSYM    DATA     BYTE      TMOD
      00000088H   SFRSYM    DATA     BYTE      TCON
      00000097H   SFRSYM    DATA     BYTE      SCON2R
      000000FFH   SFRSYM    DATA     BYTE      EXDATA
      000000ABH   SFRSYM    DATA     BYTE      SCON3R
      000000D9H   SFRSYM    DATA     BYTE      BODE2_DIV_H
      000000AEH   SFRSYM    DATA     BYTE      BODE3_DIV_H
      00000096H   SFRSYM    DATA     BYTE      SCON2T
      000000A7H   SFRSYM    DATA     BYTE      SCON3T
      000000E7H   SFRSYM    DATA     BYTE      BODE2_DIV_L
      00000088H.1 SFRSYM    DATA     BIT       IE0
      000000AFH   SFRSYM    DATA     BYTE      BODE3_DIV_L
      00000088H.3 SFRSYM    DATA     BIT       IE1
      000000C9H   SFRSYM    DATA     BYTE      MUX_SEL
      000000F0H   SFRSYM    DATA     BYTE      B
      000000E0H   SFRSYM    DATA     BYTE      ACC
      000000A8H.4 SFRSYM    DATA     BIT       ES0
      0000008FH   SFRSYM    DATA     BYTE      CAN_CR
      000000A8H.1 SFRSYM    DATA     BIT       ET0
      000000A9H   SFRSYM    DATA     BYTE      IP0
      000000A8H.3 SFRSYM    DATA     BIT       ET1
      00000088H.5 SFRSYM    DATA     BIT       TF0
      000000B9H   SFRSYM    DATA     BYTE      IP1
      000000A8H.5 SFRSYM    DATA     BIT       ET2
      00000098H.0 SFRSYM    DATA     BIT       RI0
      00000088H.7 SFRSYM    DATA     BIT       TF1
      000000FDH   SFRSYM    DATA     BYTE      DATA0
      000000C0H.6 SFRSYM    DATA     BIT       TF2
      000000E8H   SFRSYM    DATA     BYTE      CAN_ET
      000000FCH   SFRSYM    DATA     BYTE      DATA1
      0000008CH   SFRSYM    DATA     BYTE      TH0
      000000A8H.0 SFRSYM    DATA     BIT       EX0
      00000098H.1 SFRSYM    DATA     BIT       TI0
      00000088H.0 SFRSYM    DATA     BIT       IT0
      000000FBH   SFRSYM    DATA     BYTE      DATA2
      0000008DH   SFRSYM    DATA     BYTE      TH1
      000000A8H.2 SFRSYM    DATA     BIT       EX1
      00000091H   SFRSYM    DATA     BYTE      CAN_IR
      000000CDH   SFRSYM    DATA     BYTE      TH2
      00000088H.2 SFRSYM    DATA     BIT       IT1
LX51 LINKER/LOCATER V4.66.93.0                                                        05/08/2025  10:05:08  PAGE 51


      000000FAH   SFRSYM    DATA     BYTE      DATA3
      000000D0H.0 SFRSYM    DATA     BIT       P
      00000098H.7 SFRSYM    DATA     BIT       SM0
      0000008AH   SFRSYM    DATA     BYTE      TL0
      00000098H.6 SFRSYM    DATA     BIT       SM1
      0000008BH   SFRSYM    DATA     BYTE      TL1
      00000098H.5 SFRSYM    DATA     BIT       SM2
      000000CCH   SFRSYM    DATA     BYTE      TL2
      000000A0H.7 SFRSYM    DATA     BIT       UV_St
      000000D0H.3 SFRSYM    DATA     BIT       RS0
      000000F8H.6 SFRSYM    DATA     BIT       APP_EN
      000000D0H.4 SFRSYM    DATA     BIT       RS1
      00000088H.4 SFRSYM    DATA     BIT       TR0
      00000088H.6 SFRSYM    DATA     BIT       TR1
      00000093H   SFRSYM    DATA     BYTE      DPC
      000000C8H.0 SFRSYM    DATA     BIT       TR2
      000000E5H   SFRSYM    DATA     BYTE      MAC_MODE
      00000083H   SFRSYM    DATA     BYTE      DPH
      00000082H   SFRSYM    DATA     BYTE      DPL
      00000099H   SFRSYM    DATA     BYTE      SBUF0
      0000009CH   SFRSYM    DATA     BYTE      SBUF1
      00000098H   SFRSYM    DATA     BYTE      SCON0
      0000009BH   SFRSYM    DATA     BYTE      SCON1
      000000D8H   SFRSYM    DATA     BYTE      ADCON
      000000C8H   SFRSYM    DATA     BYTE      T2CON
      000000E6H   SFRSYM    DATA     BYTE      DIV_MODE
      000000F8H.5 SFRSYM    DATA     BIT       APP_RW
      000000CBH   SFRSYM    DATA     BYTE      TRL2H
      0000009FH   SFRSYM    DATA     BYTE      SBUF2_RX
      000000ADH   SFRSYM    DATA     BYTE      SBUF3_RX
      0000008EH   SFRSYM    DATA     BYTE      CKCON
      0000009EH   SFRSYM    DATA     BYTE      SBUF2_TX
      000000ACH   SFRSYM    DATA     BYTE      SBUF3_TX
      000000CAH   SFRSYM    DATA     BYTE      TRL2L
      000000D0H.5 SFRSYM    DATA     BIT       F0
      000000FEH   SFRSYM    DATA     BYTE      EXADR
      000000D0H.1 SFRSYM    DATA     BIT       F1
      000000A0H.3 SFRSYM    DATA     BIT       LED_B
      000000D0H   SFRSYM    DATA     BYTE      PSW
      000000A0H.1 SFRSYM    DATA     BIT       LED_G
      000000C0H   SFRSYM    DATA     BYTE      IRCON
      00000098H.2 SFRSYM    DATA     BIT       RB80
      010046FDH   SYMBOL    CONST    ---       _?ix1000
      01004703H   SYMBOL    CONST    ---       _?ix1001
      0100470BH   SYMBOL    CONST    ---       _?ix1002
      0100470DH   SYMBOL    CONST    ---       _?ix1003

      01004592H   BLOCK     CODE     ---       LVL=0
      ---         BLOCKEND  ---      ---       LVL=0

      01004599H   BLOCK     CODE     ---       LVL=0
      00000007H   SYMBOL    DATA     BYTE      i
      01004599H   BLOCK     CODE     NEAR LAB  LVL=1
      00000007H   SYMBOL    DATA     BYTE      i
      ---         BLOCKEND  ---      ---       LVL=1
      01004599H   LINE      CODE     ---       #24
      ---         BLOCKEND  ---      ---       LVL=0

      01000056H   BLOCK     CODE     ---       LVL=0
      01000056H   LINE      CODE     ---       #26
      ---         BLOCKEND  ---      ---       LVL=0

      01004687H   BLOCK     CODE     ---       LVL=0
      01004687H   LINE      CODE     ---       #28
      ---         BLOCKEND  ---      ---       LVL=0
LX51 LINKER/LOCATER V4.66.93.0                                                        05/08/2025  10:05:08  PAGE 52



      01001A04H   BLOCK     CODE     ---       LVL=0
      01001A04H   BLOCK     CODE     NEAR LAB  LVL=1
      0200A496H   SYMBOL    XDATA    ---       RTC_H
      0200A49AH   SYMBOL    XDATA    ---       RTC_L
      0200A49EH   SYMBOL    XDATA    ---       RTC_6
      0200A535H   SYMBOL    XDATA    ---       RTC_9C
      0200A4A4H   SYMBOL    XDATA    DWORD     RTC_H_HEX
      0200A537H   SYMBOL    XDATA    DWORD     RTC_L_HEX
      ---         BLOCKEND  ---      ---       LVL=1
      01001A04H   LINE      CODE     ---       #36
      01001A04H   LINE      CODE     ---       #37
      01001A04H   LINE      CODE     ---       #43
      01001A17H   LINE      CODE     ---       #49
      01001A2DH   LINE      CODE     ---       #50
      01001A43H   LINE      CODE     ---       #69
      01001AB7H   LINE      CODE     ---       #70
      01001B2BH   LINE      CODE     ---       #74
      01001B47H   LINE      CODE     ---       #75
      01001B6CH   LINE      CODE     ---       #76
      01001B92H   LINE      CODE     ---       #77
      01001BAEH   LINE      CODE     ---       #78
      01001BD3H   LINE      CODE     ---       #79
      01001BF9H   LINE      CODE     ---       #82
      01001C0FH   LINE      CODE     ---       #83
      01001C0FH   LINE      CODE     ---       #84
      01001C23H   LINE      CODE     ---       #85
      01001C23H   LINE      CODE     ---       #86
      01001C35H   LINE      CODE     ---       #87
      01001C35H   LINE      CODE     ---       #88
      01001C47H   LINE      CODE     ---       #89
      01001C47H   LINE      CODE     ---       #90
      01001C59H   LINE      CODE     ---       #91
      01001C59H   LINE      CODE     ---       #92
      01001C5EH   LINE      CODE     ---       #93
      01001C65H   LINE      CODE     ---       #94
      01001C6CH   LINE      CODE     ---       #95
      01001C6EH   LINE      CODE     ---       #96
      01001C71H   LINE      CODE     ---       #97
      01001C73H   LINE      CODE     ---       #98
      01001C79H   LINE      CODE     ---       #100
      01001C8FH   LINE      CODE     ---       #101
      01001CA5H   LINE      CODE     ---       #105
      ---         BLOCKEND  ---      ---       LVL=0

      010045D3H   BLOCK     CODE     ---       LVL=0
      010045D3H   LINE      CODE     ---       #109
      010045D3H   LINE      CODE     ---       #110
      010045D3H   LINE      CODE     ---       #111
      010045D6H   LINE      CODE     ---       #112
      010045D8H   LINE      CODE     ---       #113
      010045DAH   LINE      CODE     ---       #114
      010045DDH   LINE      CODE     ---       #115
      010045DFH   LINE      CODE     ---       #116
      010045E2H   LINE      CODE     ---       #117
      010045E4H   LINE      CODE     ---       #118
      ---         BLOCKEND  ---      ---       LVL=0

      010044B6H   BLOCK     CODE     ---       LVL=0
      ---         BLOCKEND  ---      ---       LVL=0

      010044C5H   BLOCK     CODE     ---       LVL=0
      010044C5H   LINE      CODE     ---       #121
      010044C5H   LINE      CODE     ---       #122
      010044C5H   LINE      CODE     ---       #123
LX51 LINKER/LOCATER V4.66.93.0                                                        05/08/2025  10:05:08  PAGE 53


      010044C8H   LINE      CODE     ---       #124
      010044CAH   LINE      CODE     ---       #125
      010044CCH   LINE      CODE     ---       #126
      010044CFH   LINE      CODE     ---       #127
      010044D1H   LINE      CODE     ---       #128
      010044D4H   LINE      CODE     ---       #129
      ---         BLOCKEND  ---      ---       LVL=0

      01000016H   BLOCK     CODE     ---       LVL=0
      01000016H   LINE      CODE     ---       #132
      01000016H   LINE      CODE     ---       #133
      01000016H   LINE      CODE     ---       #134
      01000019H   LINE      CODE     ---       #135
      0100001BH   LINE      CODE     ---       #136
      0100001BH   LINE      CODE     ---       #137
      0100001BH   LINE      CODE     ---       #138
      0100001EH   LINE      CODE     ---       #139
      01000020H   LINE      CODE     ---       #140
      ---         BLOCKEND  ---      ---       LVL=0

      01004657H   BLOCK     CODE     ---       LVL=0
      01004657H   LINE      CODE     ---       #143
      01004657H   LINE      CODE     ---       #144
      01004657H   LINE      CODE     ---       #145
      0100465AH   LINE      CODE     ---       #146
      0100465AH   LINE      CODE     ---       #147
      0100465AH   LINE      CODE     ---       #148
      0100465AH   LINE      CODE     ---       #149
      0100465DH   LINE      CODE     ---       #150
      0100465FH   LINE      CODE     ---       #151
      ---         BLOCKEND  ---      ---       LVL=0

      01004470H   BLOCK     CODE     ---       LVL=0
      01004470H   BLOCK     CODE     NEAR LAB  LVL=1
      00000006H   SYMBOL    DATA     BYTE      i
      ---         BLOCKEND  ---      ---       LVL=1
      01004470H   LINE      CODE     ---       #154
      01004470H   LINE      CODE     ---       #155
      01004470H   LINE      CODE     ---       #157
      01004473H   LINE      CODE     ---       #158
      01004473H   LINE      CODE     ---       #159
      01004473H   LINE      CODE     ---       #160
      01004473H   LINE      CODE     ---       #161
      01004476H   LINE      CODE     ---       #162
      01004482H   LINE      CODE     ---       #163
      01004482H   LINE      CODE     ---       #164
      01004485H   LINE      CODE     ---       #165
      01004488H   LINE      CODE     ---       #166
      0100448BH   LINE      CODE     ---       #167
      0100448DH   LINE      CODE     ---       #168
      01004490H   LINE      CODE     ---       #169
      ---         BLOCKEND  ---      ---       LVL=0

      01003D00H   BLOCK     CODE     ---       LVL=0
      ---         BLOCKEND  ---      ---       LVL=0

      01003D3EH   BLOCK     CODE     ---       LVL=0
      00000006H   SYMBOL    DATA     BYTE      dat
      00000005H   SYMBOL    DATA     BYTE      i
      01003D40H   BLOCK     CODE     NEAR LAB  LVL=1
      00000005H   SYMBOL    DATA     BYTE      i
      ---         BLOCKEND  ---      ---       LVL=1
      01003D3EH   LINE      CODE     ---       #172
      01003D40H   LINE      CODE     ---       #173
      01003D40H   LINE      CODE     ---       #175
LX51 LINKER/LOCATER V4.66.93.0                                                        05/08/2025  10:05:08  PAGE 54


      01003D43H   LINE      CODE     ---       #176
      01003D4FH   LINE      CODE     ---       #177
      01003D4FH   LINE      CODE     ---       #178
      01003D57H   LINE      CODE     ---       #179
      01003D59H   LINE      CODE     ---       #180
      01003D5DH   LINE      CODE     ---       #181
      01003D5DH   LINE      CODE     ---       #182
      01003D5DH   LINE      CODE     ---       #183
      01003D60H   LINE      CODE     ---       #184
      01003D62H   LINE      CODE     ---       #185
      01003D65H   LINE      CODE     ---       #186
      01003D68H   LINE      CODE     ---       #187
      ---         BLOCKEND  ---      ---       LVL=0

      010043EFH   BLOCK     CODE     ---       LVL=0
      010043EFH   BLOCK     CODE     NEAR LAB  LVL=1
      00000005H   SYMBOL    DATA     BYTE      i
      00000006H   SYMBOL    DATA     BYTE      Dat
      ---         BLOCKEND  ---      ---       LVL=1
      010043EFH   LINE      CODE     ---       #190
      010043EFH   LINE      CODE     ---       #191
      010043EFH   LINE      CODE     ---       #194
      010043F2H   LINE      CODE     ---       #195
      010043FEH   LINE      CODE     ---       #196
      010043FEH   LINE      CODE     ---       #197
      010043FEH   LINE      CODE     ---       #198
      010043FEH   LINE      CODE     ---       #199
      01004401H   LINE      CODE     ---       #200
      01004405H   LINE      CODE     ---       #201
      0100440DH   LINE      CODE     ---       #202
      01004411H   LINE      CODE     ---       #203
      01004413H   LINE      CODE     ---       #204
      01004416H   LINE      CODE     ---       #205
      01004419H   LINE      CODE     ---       #206
      0100441BH   LINE      CODE     ---       #207
      ---         BLOCKEND  ---      ---       LVL=0

      01002B27H   BLOCK     CODE     ---       LVL=0
      00000007H   SYMBOL    DATA     BYTE      years
      0200A488H   SYMBOL    XDATA    BYTE      month
      0200A489H   SYMBOL    XDATA    BYTE      day
      01002B31H   BLOCK     CODE     NEAR LAB  LVL=1
      0200A48AH   SYMBOL    XDATA    BYTE      weak
      0200A48BH   SYMBOL    XDATA    WORD      year
      ---         BLOCKEND  ---      ---       LVL=1
      01002B27H   LINE      CODE     ---       #209
      01002B31H   LINE      CODE     ---       #210
      01002B31H   LINE      CODE     ---       #213
      01002B3FH   LINE      CODE     ---       #214
      01002B4AH   LINE      CODE     ---       #215
      01002B4AH   LINE      CODE     ---       #216
      01002B5FH   LINE      CODE     ---       #217
      01002B5FH   LINE      CODE     ---       #218
      01002BA3H   LINE      CODE     ---       #219
      01002BA3H   LINE      CODE     ---       #220
      01002BF3H   LINE      CODE     ---       #221
      01002BF5H   LINE      CODE     ---       #223
      01002BF5H   LINE      CODE     ---       #224
      01002C7EH   LINE      CODE     ---       #225
      01002C7EH   LINE      CODE     ---       #226
      01002C83H   LINE      CODE     ---       #227
      ---         BLOCKEND  ---      ---       LVL=0

      01002DD0H   BLOCK     CODE     ---       LVL=0
      01002DD0H   BLOCK     CODE     NEAR LAB  LVL=1
LX51 LINKER/LOCATER V4.66.93.0                                                        05/08/2025  10:05:08  PAGE 55


      00000004H   SYMBOL    DATA     BYTE      i
      0200A47EH   SYMBOL    XDATA    BYTE      N
      0200A47FH   SYMBOL    XDATA    BYTE      M
      0200A480H   SYMBOL    XDATA    ---       Rtcdata
      ---         BLOCKEND  ---      ---       LVL=1
      01002DD0H   LINE      CODE     ---       #229
      01002DD0H   LINE      CODE     ---       #230
      01002DD0H   LINE      CODE     ---       #232
      01002DE3H   LINE      CODE     ---       #233
      01002DE3H   LINE      CODE     ---       #234
      01002DE6H   LINE      CODE     ---       #235
      01002DE6H   LINE      CODE     ---       #236
      01002DE9H   LINE      CODE     ---       #237
      01002DECH   LINE      CODE     ---       #238
      01002DF1H   LINE      CODE     ---       #239
      01002DFDH   LINE      CODE     ---       #240
      01002DFDH   LINE      CODE     ---       #241
      01002E0CH   LINE      CODE     ---       #242
      01002E0FH   LINE      CODE     ---       #243
      01002E12H   LINE      CODE     ---       #244
      01002E1DH   LINE      CODE     ---       #245
      01002E20H   LINE      CODE     ---       #246
      01002E2CH   LINE      CODE     ---       #247
      01002E2CH   LINE      CODE     ---       #248
      01002E40H   LINE      CODE     ---       #249
      01002E46H   LINE      CODE     ---       #250
      01002E59H   LINE      CODE     ---       #251
      01002E5CH   LINE      CODE     ---       #252
      01002E68H   LINE      CODE     ---       #253
      01002E68H   LINE      CODE     ---       #254
      01002E7CH   LINE      CODE     ---       #255
      01002E82H   LINE      CODE     ---       #256
      01002E95H   LINE      CODE     ---       #257
      01002E98H   LINE      CODE     ---       #258
      01002EABH   LINE      CODE     ---       #259
      01002EC1H   LINE      CODE     ---       #260
      01002ED7H   LINE      CODE     ---       #261
      01002EEDH   LINE      CODE     ---       #262
      ---         BLOCKEND  ---      ---       LVL=0

      0100419FH   BLOCK     CODE     ---       LVL=0
      0100419FH   BLOCK     CODE     NEAR LAB  LVL=1
      00000004H   SYMBOL    DATA     BYTE      i
      ---         BLOCKEND  ---      ---       LVL=1
      0100419FH   LINE      CODE     ---       #265
      0100419FH   LINE      CODE     ---       #266
      0100419FH   LINE      CODE     ---       #268
      0100419FH   LINE      CODE     ---       #269
      010041A2H   LINE      CODE     ---       #270
      010041A7H   LINE      CODE     ---       #271
      010041AAH   LINE      CODE     ---       #272
      010041ADH   LINE      CODE     ---       #273
      010041B2H   LINE      CODE     ---       #274
      010041B7H   LINE      CODE     ---       #275
      010041BAH   LINE      CODE     ---       #276
      010041BDH   LINE      CODE     ---       #277
      010041C0H   LINE      CODE     ---       #278
      010041C3H   LINE      CODE     ---       #279
      010041CAH   LINE      CODE     ---       #280
      010041CAH   LINE      CODE     ---       #282
      010041CAH   LINE      CODE     ---       #283
      010041CAH   LINE      CODE     ---       #284
      010041CAH   LINE      CODE     ---       #285
      010041CAH   LINE      CODE     ---       #286
      010041CAH   LINE      CODE     ---       #287
LX51 LINKER/LOCATER V4.66.93.0                                                        05/08/2025  10:05:08  PAGE 56


      010041CAH   LINE      CODE     ---       #288
      010041CAH   LINE      CODE     ---       #289
      010041CAH   LINE      CODE     ---       #290
      010041CAH   LINE      CODE     ---       #291
      010041CAH   LINE      CODE     ---       #292
      010041CAH   LINE      CODE     ---       #293
      010041CAH   LINE      CODE     ---       #294
      010041CAH   LINE      CODE     ---       #295
      010041CAH   LINE      CODE     ---       #296
      010041CDH   LINE      CODE     ---       #297
      010041D2H   LINE      CODE     ---       #298
      010041D7H   LINE      CODE     ---       #299
      010041DCH   LINE      CODE     ---       #300
      010041E1H   LINE      CODE     ---       #301
      010041E6H   LINE      CODE     ---       #302
      010041EBH   LINE      CODE     ---       #303
      010041F0H   LINE      CODE     ---       #304
      010041F2H   LINE      CODE     ---       #305
      010041F2H   LINE      CODE     ---       #306
      010041F2H   LINE      CODE     ---       #307
      010041F5H   LINE      CODE     ---       #308
      010041F5H   LINE      CODE     ---       #309
      010041F5H   LINE      CODE     ---       #310
      010041F5H   LINE      CODE     ---       #311
      010041F8H   LINE      CODE     ---       #312
      010041F8H   LINE      CODE     ---       #313
      ---         BLOCKEND  ---      ---       LVL=0

      01002811H   BLOCK     CODE     ---       LVL=0
      01002811H   BLOCK     CODE     NEAR LAB  LVL=1
      0200A4A8H   SYMBOL    XDATA    WORD      Va
      0200A4AAH   SYMBOL    XDATA    ---       zero
      0100284BH   BLOCK     CODE     NEAR LAB  LVL=2
      0200A4ACH   SYMBOL    XDATA    BYTE      N
      0200A4ADH   SYMBOL    XDATA    BYTE      S
      00000020H.0 SYMBOL    BIT      BIT       Flog
      0200A4AEH   SYMBOL    XDATA    ---       TimeS
      0200A4B5H   SYMBOL    XDATA    WORD      V1
      ---         BLOCKEND  ---      ---       LVL=2
      ---         BLOCKEND  ---      ---       LVL=1
      01002811H   LINE      CODE     ---       #315
      01002811H   LINE      CODE     ---       #316
      01002811H   LINE      CODE     ---       #320
      01002824H   LINE      CODE     ---       #321
      0100283AH   LINE      CODE     ---       #322
      0100284BH   LINE      CODE     ---       #323
      0100284BH   LINE      CODE     ---       #324
      01002851H   LINE      CODE     ---       #325
      01002853H   LINE      CODE     ---       #326
      01002865H   LINE      CODE     ---       #328
      0100287BH   LINE      CODE     ---       #329
      0100289EH   LINE      CODE     ---       #330
      010028B9H   LINE      CODE     ---       #331
      010028CFH   LINE      CODE     ---       #332
      010028F2H   LINE      CODE     ---       #333
      0100290DH   LINE      CODE     ---       #334
      01002923H   LINE      CODE     ---       #335
      01002946H   LINE      CODE     ---       #336
      01002961H   LINE      CODE     ---       #339
      01002976H   LINE      CODE     ---       #340
      01002979H   LINE      CODE     ---       #341
      01002979H   LINE      CODE     ---       #342
      01002979H   LINE      CODE     ---       #343
      01002979H   LINE      CODE     ---       #344
      01002979H   LINE      CODE     ---       #345
LX51 LINKER/LOCATER V4.66.93.0                                                        05/08/2025  10:05:08  PAGE 57


      01002979H   LINE      CODE     ---       #346
      01002979H   LINE      CODE     ---       #347
      01002979H   LINE      CODE     ---       #348
      01002979H   LINE      CODE     ---       #349
      01002979H   LINE      CODE     ---       #350
      01002979H   LINE      CODE     ---       #351
      01002979H   LINE      CODE     ---       #352
      01002979H   LINE      CODE     ---       #353
      01002979H   LINE      CODE     ---       #354
      01002979H   LINE      CODE     ---       #355
      01002979H   LINE      CODE     ---       #356
      0100297CH   LINE      CODE     ---       #357
      01002981H   LINE      CODE     ---       #358
      01002989H   LINE      CODE     ---       #359
      01002991H   LINE      CODE     ---       #360
      01002999H   LINE      CODE     ---       #361
      010029A1H   LINE      CODE     ---       #362
      010029A9H   LINE      CODE     ---       #363
      010029B1H   LINE      CODE     ---       #364
      010029B6H   LINE      CODE     ---       #365
      010029B6H   LINE      CODE     ---       #366
      010029B6H   LINE      CODE     ---       #367
      010029B9H   LINE      CODE     ---       #368
      010029B9H   LINE      CODE     ---       #369
      010029B9H   LINE      CODE     ---       #370
      010029B9H   LINE      CODE     ---       #371
      010029BCH   LINE      CODE     ---       #372
      010029BEH   LINE      CODE     ---       #373
      010029C0H   LINE      CODE     ---       #374
      010029C0H   LINE      CODE     ---       #375
      ---         BLOCKEND  ---      ---       LVL=0

      01004493H   BLOCK     CODE     ---       LVL=0
      01004493H   LINE      CODE     ---       #393
      01004493H   LINE      CODE     ---       #394
      01004493H   LINE      CODE     ---       #396
      010044A2H   LINE      CODE     ---       #397
      010044A2H   LINE      CODE     ---       #398
      010044ABH   LINE      CODE     ---       #399
      010044AEH   LINE      CODE     ---       #400
      010044B5H   LINE      CODE     ---       #401
      010044B5H   LINE      CODE     ---       #403
      ---         BLOCKEND  ---      ---       LVL=0

      ---         MODULE    ---      ---       TOF
      0200A50CH   PUBLIC    XDATA    WORD      L_int
      0200A4FCH   PUBLIC    XDATA    ---       GY53_Data
      0200A4FBH   PUBLIC    XDATA    BYTE      MODE
      01003133H   PUBLIC    CODE     ---       UART5_isr
      00000098H.3 SFRSYM    DATA     BIT       TB80
      000000F1H   SFRSYM    DATA     BYTE      ADR_H
      00000080H   SFRSYM    DATA     BYTE      P0
      00000090H   SFRSYM    DATA     BYTE      P1
      000000A0H   SFRSYM    DATA     BYTE      P2
      000000B0H   SFRSYM    DATA     BYTE      P3
      000000D0H.6 SFRSYM    DATA     BIT       AC
      000000F3H   SFRSYM    DATA     BYTE      ADR_L
      00000094H   SFRSYM    DATA     BYTE      PAGESEL
      000000F2H   SFRSYM    DATA     BYTE      ADR_M
      000000A8H.7 SFRSYM    DATA     BIT       EA
      000000A0H.5 SFRSYM    DATA     BIT       JIGUANG
      00000090H.7 SFRSYM    DATA     BIT       LED_R
      000000F8H   SFRSYM    DATA     BYTE      RAMMODE
      000000B7H   SFRSYM    DATA     BYTE      P0MDOUT
      000000A8H   SFRSYM    DATA     BYTE      IEN0
LX51 LINKER/LOCATER V4.66.93.0                                                        05/08/2025  10:05:08  PAGE 58


      000000BCH   SFRSYM    DATA     BYTE      P1MDOUT
      000000B8H   SFRSYM    DATA     BYTE      IEN1
      000000BDH   SFRSYM    DATA     BYTE      P2MDOUT
      000000F8H.0 SFRSYM    DATA     BIT       APP_DATA0
      0000009AH   SFRSYM    DATA     BYTE      IEN2
      000000BEH   SFRSYM    DATA     BYTE      P3MDOUT
      000000F8H.1 SFRSYM    DATA     BIT       APP_DATA1
      000000D1H   SFRSYM    DATA     BYTE      IEN3
      00000080H.0 SFRSYM    DATA     BIT       P0_0
      000000F8H.2 SFRSYM    DATA     BIT       APP_DATA2
      00000090H.0 SFRSYM    DATA     BIT       P1_0
      000000F8H.3 SFRSYM    DATA     BIT       APP_DATA3
      00000090H.1 SFRSYM    DATA     BIT       P1_1
      000000F8H.4 SFRSYM    DATA     BIT       APP_ACK
      000000F4H   SFRSYM    DATA     BYTE      ADR_INC
      000000B0H.1 SFRSYM    DATA     BIT       P3_1
      00000098H.4 SFRSYM    DATA     BIT       REN0
      000000B8H.1 SFRSYM    DATA     BIT       ECAN
      000000D0H.7 SFRSYM    DATA     BIT       CY
      000000B8H.3 SFRSYM    DATA     BIT       ES2R
      000000B8H.5 SFRSYM    DATA     BIT       ES3R
      000000B8H.2 SFRSYM    DATA     BIT       ES2T
      000000B8H.4 SFRSYM    DATA     BIT       ES3T
      000000C8H.7 SFRSYM    DATA     BIT       TSF2
      000000B0H.3 SFRSYM    DATA     BIT       RTC_SDA
      00000081H   SFRSYM    DATA     BYTE      SP
      000000D0H.2 SFRSYM    DATA     BIT       OV
      00000095H   SFRSYM    DATA     BYTE      D_PAGESEL
      00000090H.5 SFRSYM    DATA     BIT       UV
      000000F8H.7 SFRSYM    DATA     BIT       APP_REQ
      000000B0H.2 SFRSYM    DATA     BIT       RTC_SCL
      000000BFH   SFRSYM    DATA     BYTE      IRCON2
      000000BAH   SFRSYM    DATA     BYTE      SREL0H
      000000BBH   SFRSYM    DATA     BYTE      SREL1H
      00000087H   SFRSYM    DATA     BYTE      PCON
      000000AAH   SFRSYM    DATA     BYTE      SREL0L
      000000F9H   SFRSYM    DATA     BYTE      PORTDRV
      0000009DH   SFRSYM    DATA     BYTE      SREL1L
      00000089H   SFRSYM    DATA     BYTE      TMOD
      00000088H   SFRSYM    DATA     BYTE      TCON
      00000097H   SFRSYM    DATA     BYTE      SCON2R
      000000FFH   SFRSYM    DATA     BYTE      EXDATA
      000000ABH   SFRSYM    DATA     BYTE      SCON3R
      000000D9H   SFRSYM    DATA     BYTE      BODE2_DIV_H
      000000AEH   SFRSYM    DATA     BYTE      BODE3_DIV_H
      00000096H   SFRSYM    DATA     BYTE      SCON2T
      000000A7H   SFRSYM    DATA     BYTE      SCON3T
      000000E7H   SFRSYM    DATA     BYTE      BODE2_DIV_L
      00000088H.1 SFRSYM    DATA     BIT       IE0
      000000AFH   SFRSYM    DATA     BYTE      BODE3_DIV_L
      00000088H.3 SFRSYM    DATA     BIT       IE1
      000000C9H   SFRSYM    DATA     BYTE      MUX_SEL
      000000F0H   SFRSYM    DATA     BYTE      B
      000000E0H   SFRSYM    DATA     BYTE      ACC
      000000A8H.4 SFRSYM    DATA     BIT       ES0
      0000008FH   SFRSYM    DATA     BYTE      CAN_CR
      000000A8H.1 SFRSYM    DATA     BIT       ET0
      000000A9H   SFRSYM    DATA     BYTE      IP0
      000000A8H.3 SFRSYM    DATA     BIT       ET1
      00000088H.5 SFRSYM    DATA     BIT       TF0
      000000B9H   SFRSYM    DATA     BYTE      IP1
      000000A8H.5 SFRSYM    DATA     BIT       ET2
      00000098H.0 SFRSYM    DATA     BIT       RI0
      00000088H.7 SFRSYM    DATA     BIT       TF1
      000000FDH   SFRSYM    DATA     BYTE      DATA0
LX51 LINKER/LOCATER V4.66.93.0                                                        05/08/2025  10:05:08  PAGE 59


      000000C0H.6 SFRSYM    DATA     BIT       TF2
      000000E8H   SFRSYM    DATA     BYTE      CAN_ET
      000000FCH   SFRSYM    DATA     BYTE      DATA1
      0000008CH   SFRSYM    DATA     BYTE      TH0
      000000A8H.0 SFRSYM    DATA     BIT       EX0
      00000098H.1 SFRSYM    DATA     BIT       TI0
      00000088H.0 SFRSYM    DATA     BIT       IT0
      000000FBH   SFRSYM    DATA     BYTE      DATA2
      0000008DH   SFRSYM    DATA     BYTE      TH1
      000000A8H.2 SFRSYM    DATA     BIT       EX1
      00000091H   SFRSYM    DATA     BYTE      CAN_IR
      000000CDH   SFRSYM    DATA     BYTE      TH2
      00000088H.2 SFRSYM    DATA     BIT       IT1
      000000FAH   SFRSYM    DATA     BYTE      DATA3
      000000D0H.0 SFRSYM    DATA     BIT       P
      00000098H.7 SFRSYM    DATA     BIT       SM0
      0000008AH   SFRSYM    DATA     BYTE      TL0
      00000098H.6 SFRSYM    DATA     BIT       SM1
      0000008BH   SFRSYM    DATA     BYTE      TL1
      00000098H.5 SFRSYM    DATA     BIT       SM2
      000000CCH   SFRSYM    DATA     BYTE      TL2
      000000A0H.7 SFRSYM    DATA     BIT       UV_St
      000000D0H.3 SFRSYM    DATA     BIT       RS0
      000000F8H.6 SFRSYM    DATA     BIT       APP_EN
      000000D0H.4 SFRSYM    DATA     BIT       RS1
      00000088H.4 SFRSYM    DATA     BIT       TR0
      00000088H.6 SFRSYM    DATA     BIT       TR1
      00000093H   SFRSYM    DATA     BYTE      DPC
      000000C8H.0 SFRSYM    DATA     BIT       TR2
      000000E5H   SFRSYM    DATA     BYTE      MAC_MODE
      00000083H   SFRSYM    DATA     BYTE      DPH
      00000082H   SFRSYM    DATA     BYTE      DPL
      00000099H   SFRSYM    DATA     BYTE      SBUF0
      0000009CH   SFRSYM    DATA     BYTE      SBUF1
      00000098H   SFRSYM    DATA     BYTE      SCON0
      0000009BH   SFRSYM    DATA     BYTE      SCON1
      000000D8H   SFRSYM    DATA     BYTE      ADCON
      000000C8H   SFRSYM    DATA     BYTE      T2CON
      000000E6H   SFRSYM    DATA     BYTE      DIV_MODE
      000000F8H.5 SFRSYM    DATA     BIT       APP_RW
      000000CBH   SFRSYM    DATA     BYTE      TRL2H
      0000009FH   SFRSYM    DATA     BYTE      SBUF2_RX
      000000ADH   SFRSYM    DATA     BYTE      SBUF3_RX
      0000008EH   SFRSYM    DATA     BYTE      CKCON
      0000009EH   SFRSYM    DATA     BYTE      SBUF2_TX
      000000ACH   SFRSYM    DATA     BYTE      SBUF3_TX
      000000CAH   SFRSYM    DATA     BYTE      TRL2L
      000000D0H.5 SFRSYM    DATA     BIT       F0
      000000FEH   SFRSYM    DATA     BYTE      EXADR
      000000D0H.1 SFRSYM    DATA     BIT       F1
      000000A0H.3 SFRSYM    DATA     BIT       LED_B
      000000D0H   SFRSYM    DATA     BYTE      PSW
      000000A0H.1 SFRSYM    DATA     BIT       LED_G
      000000C0H   SFRSYM    DATA     BYTE      IRCON
      00000098H.2 SFRSYM    DATA     BIT       RB80

      01003133H   BLOCK     CODE     ---       LVL=0
      01003133H   BLOCK     CODE     NEAR LAB  LVL=1
      00000007H   SYMBOL    DATA     BYTE      DATA15
      0200A4F9H   SYMBOL    XDATA    WORD      UART5_FLAG
      00000006H   SYMBOL    DATA     BYTE      Dat
      ---         BLOCKEND  ---      ---       LVL=1
      01003133H   LINE      CODE     ---       #15
      01003133H   LINE      CODE     ---       #16
      01003133H   LINE      CODE     ---       #17
LX51 LINKER/LOCATER V4.66.93.0                                                        05/08/2025  10:05:08  PAGE 60


      01003133H   LINE      CODE     ---       #20
      01003135H   LINE      CODE     ---       #24
      01003147H   LINE      CODE     ---       #25
      01003147H   LINE      CODE     ---       #26
      01003147H   LINE      CODE     ---       #27
      01003147H   LINE      CODE     ---       #28
      0100314FH   LINE      CODE     ---       #29
      0100314FH   LINE      CODE     ---       #30
      0100315BH   LINE      CODE     ---       #31
      01003163H   LINE      CODE     ---       #32
      01003163H   LINE      CODE     ---       #33
      01003164H   LINE      CODE     ---       #34
      01003164H   LINE      CODE     ---       #35
      01003164H   LINE      CODE     ---       #36
      01003164H   LINE      CODE     ---       #37
      01003167H   LINE      CODE     ---       #38
      01003167H   LINE      CODE     ---       #39
      01003179H   LINE      CODE     ---       #40
      01003182H   LINE      CODE     ---       #41
      01003183H   LINE      CODE     ---       #43
      01003183H   LINE      CODE     ---       #44
      0100318AH   LINE      CODE     ---       #45
      0100318AH   LINE      CODE     ---       #46
      0100318BH   LINE      CODE     ---       #47
      0100318BH   LINE      CODE     ---       #48
      0100318BH   LINE      CODE     ---       #49
      0100318BH   LINE      CODE     ---       #50
      0100319DH   LINE      CODE     ---       #51
      010031ABH   LINE      CODE     ---       #52
      010031BAH   LINE      CODE     ---       #53
      010031BAH   LINE      CODE     ---       #55
      010031BEH   LINE      CODE     ---       #56
      01003201H   LINE      CODE     ---       #59
      01003206H   LINE      CODE     ---       #60
      01003206H   LINE      CODE     ---       #64
      01003209H   LINE      CODE     ---       #65
      01003209H   LINE      CODE     ---       #67
      01003233H   LINE      CODE     ---       #77
      01003233H   LINE      CODE     ---       #85
      01003233H   LINE      CODE     ---       #86
      01003233H   LINE      CODE     ---       #87
      01003233H   LINE      CODE     ---       #88
      01003233H   LINE      CODE     ---       #89
      01003233H   LINE      CODE     ---       #90
      ---         BLOCKEND  ---      ---       LVL=0

      ---         MODULE    ---      ---       START_WIN
      0200A4F7H   PUBLIC    XDATA    WORD      X_calculate_1s
      0200A4F6H   PUBLIC    XDATA    BYTE      STATE_FIRST_FLAG
      0200A4F1H   PUBLIC    XDATA    ---       point_get
      0200A4EBH   PUBLIC    XDATA    ---       point_update
      0200A4EAH   PUBLIC    XDATA    BYTE      current_state
      0200A4C8H   PUBLIC    XDATA    WORD      Adress_line_2
      0200A4C6H   PUBLIC    XDATA    WORD      Adress_line_1
      01004144H   PUBLIC    CODE     ---       Draw_chart
      01004310H   PUBLIC    CODE     ---       switch_state
      01003D6BH   PUBLIC    CODE     ---       _CHART_RESET
      01003C09H   PUBLIC    CODE     ---       _CHART_FIRST_RUNNING
      01003730H   PUBLIC    CODE     ---       _CHART_FIRST__RUNNING_CANKAO
      01004662H   PUBLIC    CODE     ---       CHART_RUNNING
      010037E3H   PUBLIC    CODE     ---       _update_point
      01000086H   PUBLIC    CODE     ---       _get_X_Y
      01002604H   PUBLIC    CODE     ---       X_calculate
      01003C97H   PUBLIC    CODE     ---       _Y_log_calculate
      0100434DH   PUBLIC    CODE     ---       start_win_Init
LX51 LINKER/LOCATER V4.66.93.0                                                        05/08/2025  10:05:08  PAGE 61


      00000098H.3 SFRSYM    DATA     BIT       TB80
      000000F1H   SFRSYM    DATA     BYTE      ADR_H
      00000080H   SFRSYM    DATA     BYTE      P0
      00000090H   SFRSYM    DATA     BYTE      P1
      000000A0H   SFRSYM    DATA     BYTE      P2
      000000B0H   SFRSYM    DATA     BYTE      P3
      000000D0H.6 SFRSYM    DATA     BIT       AC
      000000F3H   SFRSYM    DATA     BYTE      ADR_L
      00000094H   SFRSYM    DATA     BYTE      PAGESEL
      000000F2H   SFRSYM    DATA     BYTE      ADR_M
      000000A8H.7 SFRSYM    DATA     BIT       EA
      000000A0H.5 SFRSYM    DATA     BIT       JIGUANG
      00000090H.7 SFRSYM    DATA     BIT       LED_R
      000000F8H   SFRSYM    DATA     BYTE      RAMMODE
      000000B7H   SFRSYM    DATA     BYTE      P0MDOUT
      000000A8H   SFRSYM    DATA     BYTE      IEN0
      000000BCH   SFRSYM    DATA     BYTE      P1MDOUT
      000000B8H   SFRSYM    DATA     BYTE      IEN1
      000000BDH   SFRSYM    DATA     BYTE      P2MDOUT
      000000F8H.0 SFRSYM    DATA     BIT       APP_DATA0
      0000009AH   SFRSYM    DATA     BYTE      IEN2
      000000BEH   SFRSYM    DATA     BYTE      P3MDOUT
      000000F8H.1 SFRSYM    DATA     BIT       APP_DATA1
      000000D1H   SFRSYM    DATA     BYTE      IEN3
      00000080H.0 SFRSYM    DATA     BIT       P0_0
      000000F8H.2 SFRSYM    DATA     BIT       APP_DATA2
      00000090H.0 SFRSYM    DATA     BIT       P1_0
      000000F8H.3 SFRSYM    DATA     BIT       APP_DATA3
      00000090H.1 SFRSYM    DATA     BIT       P1_1
      000000F8H.4 SFRSYM    DATA     BIT       APP_ACK
      000000F4H   SFRSYM    DATA     BYTE      ADR_INC
      000000B0H.1 SFRSYM    DATA     BIT       P3_1
      00000098H.4 SFRSYM    DATA     BIT       REN0
      000000B8H.1 SFRSYM    DATA     BIT       ECAN
      000000D0H.7 SFRSYM    DATA     BIT       CY
      000000B8H.3 SFRSYM    DATA     BIT       ES2R
      000000B8H.5 SFRSYM    DATA     BIT       ES3R
      000000B8H.2 SFRSYM    DATA     BIT       ES2T
      000000B8H.4 SFRSYM    DATA     BIT       ES3T
      000000C8H.7 SFRSYM    DATA     BIT       TSF2
      000000B0H.3 SFRSYM    DATA     BIT       RTC_SDA
      00000081H   SFRSYM    DATA     BYTE      SP
      000000D0H.2 SFRSYM    DATA     BIT       OV
      00000095H   SFRSYM    DATA     BYTE      D_PAGESEL
      00000090H.5 SFRSYM    DATA     BIT       UV
      000000F8H.7 SFRSYM    DATA     BIT       APP_REQ
      000000B0H.2 SFRSYM    DATA     BIT       RTC_SCL
      000000BFH   SFRSYM    DATA     BYTE      IRCON2
      000000BAH   SFRSYM    DATA     BYTE      SREL0H
      000000BBH   SFRSYM    DATA     BYTE      SREL1H
      00000087H   SFRSYM    DATA     BYTE      PCON
      000000AAH   SFRSYM    DATA     BYTE      SREL0L
      000000F9H   SFRSYM    DATA     BYTE      PORTDRV
      0000009DH   SFRSYM    DATA     BYTE      SREL1L
      00000089H   SFRSYM    DATA     BYTE      TMOD
      00000088H   SFRSYM    DATA     BYTE      TCON
      00000097H   SFRSYM    DATA     BYTE      SCON2R
      000000FFH   SFRSYM    DATA     BYTE      EXDATA
      000000ABH   SFRSYM    DATA     BYTE      SCON3R
      000000D9H   SFRSYM    DATA     BYTE      BODE2_DIV_H
      000000AEH   SFRSYM    DATA     BYTE      BODE3_DIV_H
      00000096H   SFRSYM    DATA     BYTE      SCON2T
      000000A7H   SFRSYM    DATA     BYTE      SCON3T
      000000E7H   SFRSYM    DATA     BYTE      BODE2_DIV_L
      00000088H.1 SFRSYM    DATA     BIT       IE0
LX51 LINKER/LOCATER V4.66.93.0                                                        05/08/2025  10:05:08  PAGE 62


      000000AFH   SFRSYM    DATA     BYTE      BODE3_DIV_L
      00000088H.3 SFRSYM    DATA     BIT       IE1
      000000C9H   SFRSYM    DATA     BYTE      MUX_SEL
      000000F0H   SFRSYM    DATA     BYTE      B
      000000E0H   SFRSYM    DATA     BYTE      ACC
      000000A8H.4 SFRSYM    DATA     BIT       ES0
      0000008FH   SFRSYM    DATA     BYTE      CAN_CR
      000000A8H.1 SFRSYM    DATA     BIT       ET0
      000000A9H   SFRSYM    DATA     BYTE      IP0
      000000A8H.3 SFRSYM    DATA     BIT       ET1
      00000088H.5 SFRSYM    DATA     BIT       TF0
      000000B9H   SFRSYM    DATA     BYTE      IP1
      000000A8H.5 SFRSYM    DATA     BIT       ET2
      00000098H.0 SFRSYM    DATA     BIT       RI0
      00000088H.7 SFRSYM    DATA     BIT       TF1
      000000FDH   SFRSYM    DATA     BYTE      DATA0
      000000C0H.6 SFRSYM    DATA     BIT       TF2
      000000E8H   SFRSYM    DATA     BYTE      CAN_ET
      000000FCH   SFRSYM    DATA     BYTE      DATA1
      0000008CH   SFRSYM    DATA     BYTE      TH0
      000000A8H.0 SFRSYM    DATA     BIT       EX0
      00000098H.1 SFRSYM    DATA     BIT       TI0
      00000088H.0 SFRSYM    DATA     BIT       IT0
      000000FBH   SFRSYM    DATA     BYTE      DATA2
      0000008DH   SFRSYM    DATA     BYTE      TH1
      000000A8H.2 SFRSYM    DATA     BIT       EX1
      00000091H   SFRSYM    DATA     BYTE      CAN_IR
      000000CDH   SFRSYM    DATA     BYTE      TH2
      00000088H.2 SFRSYM    DATA     BIT       IT1
      000000FAH   SFRSYM    DATA     BYTE      DATA3
      000000D0H.0 SFRSYM    DATA     BIT       P
      00000098H.7 SFRSYM    DATA     BIT       SM0
      0000008AH   SFRSYM    DATA     BYTE      TL0
      00000098H.6 SFRSYM    DATA     BIT       SM1
      0000008BH   SFRSYM    DATA     BYTE      TL1
      00000098H.5 SFRSYM    DATA     BIT       SM2
      000000CCH   SFRSYM    DATA     BYTE      TL2
      000000A0H.7 SFRSYM    DATA     BIT       UV_St
      000000D0H.3 SFRSYM    DATA     BIT       RS0
      000000F8H.6 SFRSYM    DATA     BIT       APP_EN
      000000D0H.4 SFRSYM    DATA     BIT       RS1
      00000088H.4 SFRSYM    DATA     BIT       TR0
      00000088H.6 SFRSYM    DATA     BIT       TR1
      00000093H   SFRSYM    DATA     BYTE      DPC
      000000C8H.0 SFRSYM    DATA     BIT       TR2
      000000E5H   SFRSYM    DATA     BYTE      MAC_MODE
      00000083H   SFRSYM    DATA     BYTE      DPH
      00000082H   SFRSYM    DATA     BYTE      DPL
      00000099H   SFRSYM    DATA     BYTE      SBUF0
      0000009CH   SFRSYM    DATA     BYTE      SBUF1
      00000098H   SFRSYM    DATA     BYTE      SCON0
      0000009BH   SFRSYM    DATA     BYTE      SCON1
      000000D8H   SFRSYM    DATA     BYTE      ADCON
      000000C8H   SFRSYM    DATA     BYTE      T2CON
      000000E6H   SFRSYM    DATA     BYTE      DIV_MODE
      000000F8H.5 SFRSYM    DATA     BIT       APP_RW
      000000CBH   SFRSYM    DATA     BYTE      TRL2H
      0000009FH   SFRSYM    DATA     BYTE      SBUF2_RX
      000000ADH   SFRSYM    DATA     BYTE      SBUF3_RX
      0000008EH   SFRSYM    DATA     BYTE      CKCON
      0000009EH   SFRSYM    DATA     BYTE      SBUF2_TX
      000000ACH   SFRSYM    DATA     BYTE      SBUF3_TX
      000000CAH   SFRSYM    DATA     BYTE      TRL2L
      000000D0H.5 SFRSYM    DATA     BIT       F0
      000000FEH   SFRSYM    DATA     BYTE      EXADR
LX51 LINKER/LOCATER V4.66.93.0                                                        05/08/2025  10:05:08  PAGE 63


      000000D0H.1 SFRSYM    DATA     BIT       F1
      000000A0H.3 SFRSYM    DATA     BIT       LED_B
      000000D0H   SFRSYM    DATA     BYTE      PSW
      000000A0H.1 SFRSYM    DATA     BIT       LED_G
      000000C0H   SFRSYM    DATA     BYTE      IRCON
      00000098H.2 SFRSYM    DATA     BIT       RB80
      0200A4CAH   SYMBOL    XDATA    ---       Line
      0100471CH   SYMBOL    CONST    ---       _?ix1000
      0100471EH   SYMBOL    CONST    ---       _?ix1001
      0200A4F5H   SYMBOL    XDATA    BYTE      num_dian

      0100434DH   BLOCK     CODE     ---       LVL=0
      0100434DH   LINE      CODE     ---       #58
      0100434DH   LINE      CODE     ---       #59
      0100434DH   LINE      CODE     ---       #61
      01004356H   LINE      CODE     ---       #62
      0100435FH   LINE      CODE     ---       #63
      01004366H   LINE      CODE     ---       #65
      0100436FH   LINE      CODE     ---       #66
      01004378H   LINE      CODE     ---       #67
      0100437FH   LINE      CODE     ---       #69
      01004388H   LINE      CODE     ---       #70
      ---         BLOCKEND  ---      ---       LVL=0

      01003C89H   BLOCK     CODE     ---       LVL=0
      ---         BLOCKEND  ---      ---       LVL=0

      01003C97H   BLOCK     CODE     ---       LVL=0
      00000004H   SYMBOL    DATA     FLOAT     P_uW
      0200A4BEH   SYMBOL    XDATA    FLOAT     P_log_uW
      01003C97H   BLOCK     CODE     NEAR LAB  LVL=1
      0200A4BEH   SYMBOL    XDATA    FLOAT     P_log_uW
      ---         BLOCKEND  ---      ---       LVL=1
      01003C97H   LINE      CODE     ---       #75
      01003C97H   LINE      CODE     ---       #76
      01003C97H   LINE      CODE     ---       #79
      01003CA0H   LINE      CODE     ---       #82
      01003CB8H   LINE      CODE     ---       #83
      01003CB8H   LINE      CODE     ---       #85
      01003CFBH   LINE      CODE     ---       #86
      01003CFBH   LINE      CODE     ---       #88
      01003CFFH   LINE      CODE     ---       #89
      ---         BLOCKEND  ---      ---       LVL=0

      01002604H   BLOCK     CODE     ---       LVL=0
      01002604H   BLOCK     CODE     NEAR LAB  LVL=1
      0200A4C2H   SYMBOL    XDATA    BYTE      wait_1s
      0200A4C3H   SYMBOL    XDATA    BYTE      doing_1s
      0200A4C4H   SYMBOL    XDATA    WORD      last_y
      ---         BLOCKEND  ---      ---       LVL=1
      01002604H   LINE      CODE     ---       #95
      01002604H   LINE      CODE     ---       #96
      01002604H   LINE      CODE     ---       #104
      0100260AH   LINE      CODE     ---       #105
      01002611H   LINE      CODE     ---       #106
      01002617H   LINE      CODE     ---       #107
      01002617H   LINE      CODE     ---       #109
      0100261AH   LINE      CODE     ---       #110
      01002623H   LINE      CODE     ---       #112
      01002627H   LINE      CODE     ---       #113
      01002627H   LINE      CODE     ---       #114
      0100264FH   LINE      CODE     ---       #115
      0100264FH   LINE      CODE     ---       #117
      0100268EH   LINE      CODE     ---       #118
      01002697H   LINE      CODE     ---       #119
LX51 LINKER/LOCATER V4.66.93.0                                                        05/08/2025  10:05:08  PAGE 64


      01002697H   LINE      CODE     ---       #120
      01002699H   LINE      CODE     ---       #121
      0100269FH   LINE      CODE     ---       #122
      010026ADH   LINE      CODE     ---       #123
      010026C9H   LINE      CODE     ---       #124
      010026C9H   LINE      CODE     ---       #125
      010026CCH   LINE      CODE     ---       #126
      010026CCH   LINE      CODE     ---       #128
      010026CCH   LINE      CODE     ---       #129
      010026CCH   LINE      CODE     ---       #130
      01002723H   LINE      CODE     ---       #131
      01002723H   LINE      CODE     ---       #132
      01002729H   LINE      CODE     ---       #133
      01002732H   LINE      CODE     ---       #134
      01002732H   LINE      CODE     ---       #135
      01002734H   LINE      CODE     ---       #136
      0100273AH   LINE      CODE     ---       #137
      01002748H   LINE      CODE     ---       #138
      0100275EH   LINE      CODE     ---       #139
      0100275EH   LINE      CODE     ---       #140
      01002761H   LINE      CODE     ---       #141
      01002761H   LINE      CODE     ---       #142
      01002764H   LINE      CODE     ---       #143
      01002764H   LINE      CODE     ---       #144
      01002764H   LINE      CODE     ---       #178
      01002793H   LINE      CODE     ---       #179
      01002793H   LINE      CODE     ---       #180
      010027C1H   LINE      CODE     ---       #181
      010027C4H   LINE      CODE     ---       #182
      010027CAH   LINE      CODE     ---       #183
      010027D7H   LINE      CODE     ---       #186
      010027EDH   LINE      CODE     ---       #187
      010027EDH   LINE      CODE     ---       #188
      010027F2H   LINE      CODE     ---       #189
      010027F2H   LINE      CODE     ---       #191
      010027FBH   LINE      CODE     ---       #192
      010027FBH   LINE      CODE     ---       #197
      01002808H   LINE      CODE     ---       #198
      01002808H   LINE      CODE     ---       #199
      0100280DH   LINE      CODE     ---       #200
      0100280DH   LINE      CODE     ---       #202
      01002810H   LINE      CODE     ---       #203
      ---         BLOCKEND  ---      ---       LVL=0

      01000086H   BLOCK     CODE     ---       LVL=0
      0200A482H   SYMBOL    XDATA    ---       point
      01000086H   LINE      CODE     ---       #211
      01000091H   LINE      CODE     ---       #212
      01000091H   LINE      CODE     ---       #213
      010000A0H   LINE      CODE     ---       #214
      010000A0H   LINE      CODE     ---       #215
      010000B4H   LINE      CODE     ---       #216
      010000B4H   LINE      CODE     ---       #219
      010000D9H   LINE      CODE     ---       #220
      010000D9H   LINE      CODE     ---       #222
      010000F0H   LINE      CODE     ---       #223
      010000F3H   LINE      CODE     ---       #224
      010000F3H   LINE      CODE     ---       #225
      010000F5H   LINE      CODE     ---       #226
      ---         BLOCKEND  ---      ---       LVL=0

      010037E3H   BLOCK     CODE     ---       LVL=0
      0200A544H   SYMBOL    XDATA    ---       point
      0200A547H   SYMBOL    XDATA    BYTE      line_num
      010037F1H   BLOCK     CODE     NEAR LAB  LVL=1
LX51 LINKER/LOCATER V4.66.93.0                                                        05/08/2025  10:05:08  PAGE 65


      0200A548H   SYMBOL    XDATA    ---       chart_numline
      ---         BLOCKEND  ---      ---       LVL=1
      010037E3H   LINE      CODE     ---       #236
      010037F1H   LINE      CODE     ---       #237
      010037F1H   LINE      CODE     ---       #238
      01003804H   LINE      CODE     ---       #239
      0100380EH   LINE      CODE     ---       #240
      0100380EH   LINE      CODE     ---       #241
      0100380EH   LINE      CODE     ---       #242
      0100380EH   LINE      CODE     ---       #244
      0100381FH   LINE      CODE     ---       #245
      0100381FH   LINE      CODE     ---       #246
      01003829H   LINE      CODE     ---       #247
      0100382CH   LINE      CODE     ---       #248
      01003844H   LINE      CODE     ---       #249
      01003854H   LINE      CODE     ---       #250
      0100386AH   LINE      CODE     ---       #251
      01003884H   LINE      CODE     ---       #253
      01003892H   LINE      CODE     ---       #256
      01003892H   LINE      CODE     ---       #257
      01003892H   LINE      CODE     ---       #258
      01003892H   LINE      CODE     ---       #259
      01003892H   LINE      CODE     ---       #260
      01003892H   LINE      CODE     ---       #262
      01003892H   LINE      CODE     ---       #263
      01003892H   LINE      CODE     ---       #265
      01003892H   LINE      CODE     ---       #266
      01003892H   LINE      CODE     ---       #268
      01003892H   LINE      CODE     ---       #269
      01003892H   LINE      CODE     ---       #270
      01003892H   LINE      CODE     ---       #272
      ---         BLOCKEND  ---      ---       LVL=0

      01004662H   BLOCK     CODE     ---       LVL=0
      01004662H   LINE      CODE     ---       #275
      01004662H   LINE      CODE     ---       #276
      01004662H   LINE      CODE     ---       #278
      ---         BLOCKEND  ---      ---       LVL=0

      01003730H   BLOCK     CODE     ---       LVL=0
      0200A482H   SYMBOL    XDATA    BYTE      num_lines_cankao
      01003730H   LINE      CODE     ---       #284
      01003735H   LINE      CODE     ---       #285
      01003735H   LINE      CODE     ---       #288
      01003748H   LINE      CODE     ---       #290
      0100375AH   LINE      CODE     ---       #292
      0100376DH   LINE      CODE     ---       #293
      01003786H   LINE      CODE     ---       #295
      0100379AH   LINE      CODE     ---       #296
      010037BEH   LINE      CODE     ---       #297
      010037C3H   LINE      CODE     ---       #298
      010037C3H   LINE      CODE     ---       #299
      010037E2H   LINE      CODE     ---       #300
      010037E2H   LINE      CODE     ---       #302
      ---         BLOCKEND  ---      ---       LVL=0

      01003C09H   BLOCK     CODE     ---       LVL=0
      0200A47EH   SYMBOL    XDATA    ---       point
      0200A481H   SYMBOL    XDATA    BYTE      line_num
      01003C09H   LINE      CODE     ---       #305
      01003C19H   LINE      CODE     ---       #306
      01003C19H   LINE      CODE     ---       #308
      01003C1FH   LINE      CODE     ---       #309
      01003C1FH   LINE      CODE     ---       #311
      01003C24H   LINE      CODE     ---       #312
LX51 LINKER/LOCATER V4.66.93.0                                                        05/08/2025  10:05:08  PAGE 66


      01003C2DH   LINE      CODE     ---       #314
      01003C35H   LINE      CODE     ---       #315
      01003C35H   LINE      CODE     ---       #316
      01003C3BH   LINE      CODE     ---       #318
      01003C42H   LINE      CODE     ---       #319
      01003C48H   LINE      CODE     ---       #321
      01003C63H   LINE      CODE     ---       #324
      01003C6CH   LINE      CODE     ---       #327
      01003C82H   LINE      CODE     ---       #330
      01003C82H   LINE      CODE     ---       #347
      01003C88H   LINE      CODE     ---       #348
      01003C88H   LINE      CODE     ---       #349
      ---         BLOCKEND  ---      ---       LVL=0

      01003D6BH   BLOCK     CODE     ---       LVL=0
      0200A47EH   SYMBOL    XDATA    BYTE      num_lines
      01003D70H   BLOCK     CODE     NEAR LAB  LVL=1
      0200A47FH   SYMBOL    XDATA    ---       Reset
      ---         BLOCKEND  ---      ---       LVL=1
      01003D6BH   LINE      CODE     ---       #353
      01003D70H   LINE      CODE     ---       #354
      01003D70H   LINE      CODE     ---       #355
      01003D83H   LINE      CODE     ---       #356
      01003D91H   LINE      CODE     ---       #357
      01003D91H   LINE      CODE     ---       #358
      01003D91H   LINE      CODE     ---       #359
      01003D91H   LINE      CODE     ---       #360
      01003DA7H   LINE      CODE     ---       #361
      01003DA7H   LINE      CODE     ---       #362
      01003DA9H   LINE      CODE     ---       #363
      01003DA9H   LINE      CODE     ---       #365
      01003DA9H   LINE      CODE     ---       #366
      01003DA9H   LINE      CODE     ---       #367
      01003DBCH   LINE      CODE     ---       #368
      01003DBEH   LINE      CODE     ---       #369
      01003DBEH   LINE      CODE     ---       #372
      01003DBEH   LINE      CODE     ---       #373
      01003DBEH   LINE      CODE     ---       #374
      01003DD4H   LINE      CODE     ---       #375
      01003DD4H   LINE      CODE     ---       #376
      01003DD4H   LINE      CODE     ---       #378
      01003DD4H   LINE      CODE     ---       #379
      01003DD4H   LINE      CODE     ---       #381
      01003DD4H   LINE      CODE     ---       #382
      01003DD4H   LINE      CODE     ---       #383
      01003DD4H   LINE      CODE     ---       #386
      ---         BLOCKEND  ---      ---       LVL=0

      01004310H   BLOCK     CODE     ---       LVL=0
      01004310H   LINE      CODE     ---       #395
      01004310H   LINE      CODE     ---       #396
      01004310H   LINE      CODE     ---       #397
      01004322H   LINE      CODE     ---       #398
      01004322H   LINE      CODE     ---       #400
      01004322H   LINE      CODE     ---       #401
      01004322H   LINE      CODE     ---       #403
      01004322H   LINE      CODE     ---       #404
      01004322H   LINE      CODE     ---       #405
      01004322H   LINE      CODE     ---       #406
      01004322H   LINE      CODE     ---       #407
      0100432BH   LINE      CODE     ---       #408
      0100432BH   LINE      CODE     ---       #409
      0100432EH   LINE      CODE     ---       #410
      0100432FH   LINE      CODE     ---       #412
      0100432FH   LINE      CODE     ---       #413
LX51 LINKER/LOCATER V4.66.93.0                                                        05/08/2025  10:05:08  PAGE 67


      01004332H   LINE      CODE     ---       #414
      01004332H   LINE      CODE     ---       #416
      01004333H   LINE      CODE     ---       #417
      01004333H   LINE      CODE     ---       #419
      01004333H   LINE      CODE     ---       #420
      01004333H   LINE      CODE     ---       #421
      01004339H   LINE      CODE     ---       #422
      0100433AH   LINE      CODE     ---       #423
      0100433AH   LINE      CODE     ---       #424
      0100433AH   LINE      CODE     ---       #425
      0100433AH   LINE      CODE     ---       #426
      0100433FH   LINE      CODE     ---       #427
      01004345H   LINE      CODE     ---       #428
      01004346H   LINE      CODE     ---       #429
      01004346H   LINE      CODE     ---       #430
      01004346H   LINE      CODE     ---       #431
      01004346H   LINE      CODE     ---       #433
      0100434CH   LINE      CODE     ---       #434
      0100434CH   LINE      CODE     ---       #435
      0100434CH   LINE      CODE     ---       #436
      0100434CH   LINE      CODE     ---       #437
      0100434CH   LINE      CODE     ---       #439
      0100434CH   LINE      CODE     ---       #440
      0100434CH   LINE      CODE     ---       #441
      0100434CH   LINE      CODE     ---       #444
      ---         BLOCKEND  ---      ---       LVL=0

      01004144H   BLOCK     CODE     ---       LVL=0
      01004144H   LINE      CODE     ---       #450
      01004144H   LINE      CODE     ---       #451
      01004144H   LINE      CODE     ---       #453
      01004147H   LINE      CODE     ---       #454
      0100415BH   LINE      CODE     ---       #455
      0100415BH   LINE      CODE     ---       #456
      0100415BH   LINE      CODE     ---       #457
      0100415BH   LINE      CODE     ---       #458
      01004160H   LINE      CODE     ---       #459
      01004161H   LINE      CODE     ---       #460
      01004161H   LINE      CODE     ---       #461
      01004161H   LINE      CODE     ---       #462
      01004161H   LINE      CODE     ---       #464
      01004161H   LINE      CODE     ---       #465
      01004161H   LINE      CODE     ---       #466
      01004161H   LINE      CODE     ---       #467
      01004161H   LINE      CODE     ---       #470
      0100416CH   LINE      CODE     ---       #471
      0100416CH   LINE      CODE     ---       #472
      0100416CH   LINE      CODE     ---       #473
      0100416CH   LINE      CODE     ---       #474
      0100416CH   LINE      CODE     ---       #476
      0100416CH   LINE      CODE     ---       #477
      0100416CH   LINE      CODE     ---       #479
      0100416CH   LINE      CODE     ---       #480
      0100416CH   LINE      CODE     ---       #481
      01004171H   LINE      CODE     ---       #482
      01004175H   LINE      CODE     ---       #483
      01004179H   LINE      CODE     ---       #488
      01004179H   LINE      CODE     ---       #489
      01004179H   LINE      CODE     ---       #490
      0100417BH   LINE      CODE     ---       #491
      0100417BH   LINE      CODE     ---       #492
      0100417BH   LINE      CODE     ---       #493
      0100417BH   LINE      CODE     ---       #495
      0100417BH   LINE      CODE     ---       #496
      0100417BH   LINE      CODE     ---       #497
LX51 LINKER/LOCATER V4.66.93.0                                                        05/08/2025  10:05:08  PAGE 68


      0100417BH   LINE      CODE     ---       #498
      0100417BH   LINE      CODE     ---       #499
      01004180H   LINE      CODE     ---       #500
      01004184H   LINE      CODE     ---       #501
      01004188H   LINE      CODE     ---       #504
      0100418CH   LINE      CODE     ---       #506
      01004196H   LINE      CODE     ---       #507
      0100419EH   LINE      CODE     ---       #508
      0100419EH   LINE      CODE     ---       #509
      0100419EH   LINE      CODE     ---       #510
      0100419EH   LINE      CODE     ---       #511
      0100419EH   LINE      CODE     ---       #513
      0100419EH   LINE      CODE     ---       #514
      0100419EH   LINE      CODE     ---       #515
      0100419EH   LINE      CODE     ---       #516
      0100419EH   LINE      CODE     ---       #518
      0100419EH   LINE      CODE     ---       #519
      0100419EH   LINE      CODE     ---       #520
      0100419EH   LINE      CODE     ---       #522
      ---         BLOCKEND  ---      ---       LVL=0

      ---         MODULE    ---      ---       INTERACTIVE
      0100006AH   PUBLIC    CODE     ---       Interactive_RUNNING
      0100005AH   PUBLIC    CODE     ---       Interactive_INIT
      00000098H.3 SFRSYM    DATA     BIT       TB80
      000000F1H   SFRSYM    DATA     BYTE      ADR_H
      00000080H   SFRSYM    DATA     BYTE      P0
      00000090H   SFRSYM    DATA     BYTE      P1
      000000A0H   SFRSYM    DATA     BYTE      P2
      000000B0H   SFRSYM    DATA     BYTE      P3
      000000D0H.6 SFRSYM    DATA     BIT       AC
      000000F3H   SFRSYM    DATA     BYTE      ADR_L
      00000094H   SFRSYM    DATA     BYTE      PAGESEL
      000000F2H   SFRSYM    DATA     BYTE      ADR_M
      000000A8H.7 SFRSYM    DATA     BIT       EA
      000000A0H.5 SFRSYM    DATA     BIT       JIGUANG
      00000090H.7 SFRSYM    DATA     BIT       LED_R
      000000F8H   SFRSYM    DATA     BYTE      RAMMODE
      000000B7H   SFRSYM    DATA     BYTE      P0MDOUT
      000000A8H   SFRSYM    DATA     BYTE      IEN0
      000000BCH   SFRSYM    DATA     BYTE      P1MDOUT
      000000B8H   SFRSYM    DATA     BYTE      IEN1
      000000BDH   SFRSYM    DATA     BYTE      P2MDOUT
      000000F8H.0 SFRSYM    DATA     BIT       APP_DATA0
      0000009AH   SFRSYM    DATA     BYTE      IEN2
      000000BEH   SFRSYM    DATA     BYTE      P3MDOUT
      000000F8H.1 SFRSYM    DATA     BIT       APP_DATA1
      000000D1H   SFRSYM    DATA     BYTE      IEN3
      00000080H.0 SFRSYM    DATA     BIT       P0_0
      000000F8H.2 SFRSYM    DATA     BIT       APP_DATA2
      00000090H.0 SFRSYM    DATA     BIT       P1_0
      000000F8H.3 SFRSYM    DATA     BIT       APP_DATA3
      00000090H.1 SFRSYM    DATA     BIT       P1_1
      000000F8H.4 SFRSYM    DATA     BIT       APP_ACK
      000000F4H   SFRSYM    DATA     BYTE      ADR_INC
      000000B0H.1 SFRSYM    DATA     BIT       P3_1
      00000098H.4 SFRSYM    DATA     BIT       REN0
      000000B8H.1 SFRSYM    DATA     BIT       ECAN
      000000D0H.7 SFRSYM    DATA     BIT       CY
      000000B8H.3 SFRSYM    DATA     BIT       ES2R
      000000B8H.5 SFRSYM    DATA     BIT       ES3R
      000000B8H.2 SFRSYM    DATA     BIT       ES2T
      000000B8H.4 SFRSYM    DATA     BIT       ES3T
      000000C8H.7 SFRSYM    DATA     BIT       TSF2
      000000B0H.3 SFRSYM    DATA     BIT       RTC_SDA
LX51 LINKER/LOCATER V4.66.93.0                                                        05/08/2025  10:05:08  PAGE 69


      00000081H   SFRSYM    DATA     BYTE      SP
      000000D0H.2 SFRSYM    DATA     BIT       OV
      00000095H   SFRSYM    DATA     BYTE      D_PAGESEL
      00000090H.5 SFRSYM    DATA     BIT       UV
      000000F8H.7 SFRSYM    DATA     BIT       APP_REQ
      000000B0H.2 SFRSYM    DATA     BIT       RTC_SCL
      000000BFH   SFRSYM    DATA     BYTE      IRCON2
      000000BAH   SFRSYM    DATA     BYTE      SREL0H
      000000BBH   SFRSYM    DATA     BYTE      SREL1H
      00000087H   SFRSYM    DATA     BYTE      PCON
      000000AAH   SFRSYM    DATA     BYTE      SREL0L
      000000F9H   SFRSYM    DATA     BYTE      PORTDRV
      0000009DH   SFRSYM    DATA     BYTE      SREL1L
      00000089H   SFRSYM    DATA     BYTE      TMOD
      00000088H   SFRSYM    DATA     BYTE      TCON
      00000097H   SFRSYM    DATA     BYTE      SCON2R
      000000FFH   SFRSYM    DATA     BYTE      EXDATA
      000000ABH   SFRSYM    DATA     BYTE      SCON3R
      000000D9H   SFRSYM    DATA     BYTE      BODE2_DIV_H
      000000AEH   SFRSYM    DATA     BYTE      BODE3_DIV_H
      00000096H   SFRSYM    DATA     BYTE      SCON2T
      000000A7H   SFRSYM    DATA     BYTE      SCON3T
      000000E7H   SFRSYM    DATA     BYTE      BODE2_DIV_L
      00000088H.1 SFRSYM    DATA     BIT       IE0
      000000AFH   SFRSYM    DATA     BYTE      BODE3_DIV_L
      00000088H.3 SFRSYM    DATA     BIT       IE1
      000000C9H   SFRSYM    DATA     BYTE      MUX_SEL
      000000F0H   SFRSYM    DATA     BYTE      B
      000000E0H   SFRSYM    DATA     BYTE      ACC
      000000A8H.4 SFRSYM    DATA     BIT       ES0
      0000008FH   SFRSYM    DATA     BYTE      CAN_CR
      000000A8H.1 SFRSYM    DATA     BIT       ET0
      000000A9H   SFRSYM    DATA     BYTE      IP0
      000000A8H.3 SFRSYM    DATA     BIT       ET1
      00000088H.5 SFRSYM    DATA     BIT       TF0
      000000B9H   SFRSYM    DATA     BYTE      IP1
      000000A8H.5 SFRSYM    DATA     BIT       ET2
      00000098H.0 SFRSYM    DATA     BIT       RI0
      00000088H.7 SFRSYM    DATA     BIT       TF1
      000000FDH   SFRSYM    DATA     BYTE      DATA0
      000000C0H.6 SFRSYM    DATA     BIT       TF2
      000000E8H   SFRSYM    DATA     BYTE      CAN_ET
      000000FCH   SFRSYM    DATA     BYTE      DATA1
      0000008CH   SFRSYM    DATA     BYTE      TH0
      000000A8H.0 SFRSYM    DATA     BIT       EX0
      00000098H.1 SFRSYM    DATA     BIT       TI0
      00000088H.0 SFRSYM    DATA     BIT       IT0
      000000FBH   SFRSYM    DATA     BYTE      DATA2
      0000008DH   SFRSYM    DATA     BYTE      TH1
      000000A8H.2 SFRSYM    DATA     BIT       EX1
      00000091H   SFRSYM    DATA     BYTE      CAN_IR
      000000CDH   SFRSYM    DATA     BYTE      TH2
      00000088H.2 SFRSYM    DATA     BIT       IT1
      000000FAH   SFRSYM    DATA     BYTE      DATA3
      000000D0H.0 SFRSYM    DATA     BIT       P
      00000098H.7 SFRSYM    DATA     BIT       SM0
      0000008AH   SFRSYM    DATA     BYTE      TL0
      00000098H.6 SFRSYM    DATA     BIT       SM1
      0000008BH   SFRSYM    DATA     BYTE      TL1
      00000098H.5 SFRSYM    DATA     BIT       SM2
      000000CCH   SFRSYM    DATA     BYTE      TL2
      000000A0H.7 SFRSYM    DATA     BIT       UV_St
      000000D0H.3 SFRSYM    DATA     BIT       RS0
      000000F8H.6 SFRSYM    DATA     BIT       APP_EN
      000000D0H.4 SFRSYM    DATA     BIT       RS1
LX51 LINKER/LOCATER V4.66.93.0                                                        05/08/2025  10:05:08  PAGE 70


      00000088H.4 SFRSYM    DATA     BIT       TR0
      00000088H.6 SFRSYM    DATA     BIT       TR1
      00000093H   SFRSYM    DATA     BYTE      DPC
      000000C8H.0 SFRSYM    DATA     BIT       TR2
      000000E5H   SFRSYM    DATA     BYTE      MAC_MODE
      00000083H   SFRSYM    DATA     BYTE      DPH
      00000082H   SFRSYM    DATA     BYTE      DPL
      00000099H   SFRSYM    DATA     BYTE      SBUF0
      0000009CH   SFRSYM    DATA     BYTE      SBUF1
      00000098H   SFRSYM    DATA     BYTE      SCON0
      0000009BH   SFRSYM    DATA     BYTE      SCON1
      000000D8H   SFRSYM    DATA     BYTE      ADCON
      000000C8H   SFRSYM    DATA     BYTE      T2CON
      000000E6H   SFRSYM    DATA     BYTE      DIV_MODE
      000000F8H.5 SFRSYM    DATA     BIT       APP_RW
      000000CBH   SFRSYM    DATA     BYTE      TRL2H
      0000009FH   SFRSYM    DATA     BYTE      SBUF2_RX
      000000ADH   SFRSYM    DATA     BYTE      SBUF3_RX
      0000008EH   SFRSYM    DATA     BYTE      CKCON
      0000009EH   SFRSYM    DATA     BYTE      SBUF2_TX
      000000ACH   SFRSYM    DATA     BYTE      SBUF3_TX
      000000CAH   SFRSYM    DATA     BYTE      TRL2L
      000000D0H.5 SFRSYM    DATA     BIT       F0
      000000FEH   SFRSYM    DATA     BYTE      EXADR
      000000D0H.1 SFRSYM    DATA     BIT       F1
      000000A0H.3 SFRSYM    DATA     BIT       LED_B
      000000D0H   SFRSYM    DATA     BYTE      PSW
      000000A0H.1 SFRSYM    DATA     BIT       LED_G
      000000C0H   SFRSYM    DATA     BYTE      IRCON
      00000098H.2 SFRSYM    DATA     BIT       RB80

      0100005AH   BLOCK     CODE     ---       LVL=0
      0100005AH   LINE      CODE     ---       #22
      0100005AH   LINE      CODE     ---       #23
      0100005AH   LINE      CODE     ---       #26
      ---         BLOCKEND  ---      ---       LVL=0

      0100006AH   BLOCK     CODE     ---       LVL=0
      0100006AH   LINE      CODE     ---       #30
      0100006AH   LINE      CODE     ---       #31
      0100006AH   LINE      CODE     ---       #34
      ---         BLOCKEND  ---      ---       LVL=0

      ---         MODULE    ---      ---       ADC
      0200A522H   PUBLIC    XDATA    BYTE      adc_channel
      0200A51EH   PUBLIC    XDATA    DWORD     ADC_100ms
      01002C84H   PUBLIC    CODE     ---       T_100MS_ADC_isr
      010043C1H   PUBLIC    CODE     ---       _adc_read
      00000098H.3 SFRSYM    DATA     BIT       TB80
      000000F1H   SFRSYM    DATA     BYTE      ADR_H
      00000080H   SFRSYM    DATA     BYTE      P0
      00000090H   SFRSYM    DATA     BYTE      P1
      000000A0H   SFRSYM    DATA     BYTE      P2
      000000B0H   SFRSYM    DATA     BYTE      P3
      000000D0H.6 SFRSYM    DATA     BIT       AC
      000000F3H   SFRSYM    DATA     BYTE      ADR_L
      00000094H   SFRSYM    DATA     BYTE      PAGESEL
      000000F2H   SFRSYM    DATA     BYTE      ADR_M
      000000A8H.7 SFRSYM    DATA     BIT       EA
      000000A0H.5 SFRSYM    DATA     BIT       JIGUANG
      00000090H.7 SFRSYM    DATA     BIT       LED_R
      000000F8H   SFRSYM    DATA     BYTE      RAMMODE
      000000B7H   SFRSYM    DATA     BYTE      P0MDOUT
      000000A8H   SFRSYM    DATA     BYTE      IEN0
      000000BCH   SFRSYM    DATA     BYTE      P1MDOUT
LX51 LINKER/LOCATER V4.66.93.0                                                        05/08/2025  10:05:08  PAGE 71


      000000B8H   SFRSYM    DATA     BYTE      IEN1
      000000BDH   SFRSYM    DATA     BYTE      P2MDOUT
      000000F8H.0 SFRSYM    DATA     BIT       APP_DATA0
      0000009AH   SFRSYM    DATA     BYTE      IEN2
      000000BEH   SFRSYM    DATA     BYTE      P3MDOUT
      000000F8H.1 SFRSYM    DATA     BIT       APP_DATA1
      000000D1H   SFRSYM    DATA     BYTE      IEN3
      00000080H.0 SFRSYM    DATA     BIT       P0_0
      000000F8H.2 SFRSYM    DATA     BIT       APP_DATA2
      00000090H.0 SFRSYM    DATA     BIT       P1_0
      000000F8H.3 SFRSYM    DATA     BIT       APP_DATA3
      00000090H.1 SFRSYM    DATA     BIT       P1_1
      000000F8H.4 SFRSYM    DATA     BIT       APP_ACK
      000000F4H   SFRSYM    DATA     BYTE      ADR_INC
      000000B0H.1 SFRSYM    DATA     BIT       P3_1
      00000098H.4 SFRSYM    DATA     BIT       REN0
      000000B8H.1 SFRSYM    DATA     BIT       ECAN
      000000D0H.7 SFRSYM    DATA     BIT       CY
      000000B8H.3 SFRSYM    DATA     BIT       ES2R
      000000B8H.5 SFRSYM    DATA     BIT       ES3R
      000000B8H.2 SFRSYM    DATA     BIT       ES2T
      000000B8H.4 SFRSYM    DATA     BIT       ES3T
      000000C8H.7 SFRSYM    DATA     BIT       TSF2
      000000B0H.3 SFRSYM    DATA     BIT       RTC_SDA
      00000081H   SFRSYM    DATA     BYTE      SP
      000000D0H.2 SFRSYM    DATA     BIT       OV
      00000095H   SFRSYM    DATA     BYTE      D_PAGESEL
      00000090H.5 SFRSYM    DATA     BIT       UV
      000000F8H.7 SFRSYM    DATA     BIT       APP_REQ
      000000B0H.2 SFRSYM    DATA     BIT       RTC_SCL
      000000BFH   SFRSYM    DATA     BYTE      IRCON2
      000000BAH   SFRSYM    DATA     BYTE      SREL0H
      000000BBH   SFRSYM    DATA     BYTE      SREL1H
      00000087H   SFRSYM    DATA     BYTE      PCON
      000000AAH   SFRSYM    DATA     BYTE      SREL0L
      000000F9H   SFRSYM    DATA     BYTE      PORTDRV
      0000009DH   SFRSYM    DATA     BYTE      SREL1L
      00000089H   SFRSYM    DATA     BYTE      TMOD
      00000088H   SFRSYM    DATA     BYTE      TCON
      00000097H   SFRSYM    DATA     BYTE      SCON2R
      000000FFH   SFRSYM    DATA     BYTE      EXDATA
      000000ABH   SFRSYM    DATA     BYTE      SCON3R
      000000D9H   SFRSYM    DATA     BYTE      BODE2_DIV_H
      000000AEH   SFRSYM    DATA     BYTE      BODE3_DIV_H
      00000096H   SFRSYM    DATA     BYTE      SCON2T
      000000A7H   SFRSYM    DATA     BYTE      SCON3T
      000000E7H   SFRSYM    DATA     BYTE      BODE2_DIV_L
      00000088H.1 SFRSYM    DATA     BIT       IE0
      000000AFH   SFRSYM    DATA     BYTE      BODE3_DIV_L
      00000088H.3 SFRSYM    DATA     BIT       IE1
      000000C9H   SFRSYM    DATA     BYTE      MUX_SEL
      000000F0H   SFRSYM    DATA     BYTE      B
      000000E0H   SFRSYM    DATA     BYTE      ACC
      000000A8H.4 SFRSYM    DATA     BIT       ES0
      0000008FH   SFRSYM    DATA     BYTE      CAN_CR
      000000A8H.1 SFRSYM    DATA     BIT       ET0
      000000A9H   SFRSYM    DATA     BYTE      IP0
      000000A8H.3 SFRSYM    DATA     BIT       ET1
      00000088H.5 SFRSYM    DATA     BIT       TF0
      000000B9H   SFRSYM    DATA     BYTE      IP1
      000000A8H.5 SFRSYM    DATA     BIT       ET2
      00000098H.0 SFRSYM    DATA     BIT       RI0
      00000088H.7 SFRSYM    DATA     BIT       TF1
      000000FDH   SFRSYM    DATA     BYTE      DATA0
      000000C0H.6 SFRSYM    DATA     BIT       TF2
LX51 LINKER/LOCATER V4.66.93.0                                                        05/08/2025  10:05:08  PAGE 72


      000000E8H   SFRSYM    DATA     BYTE      CAN_ET
      000000FCH   SFRSYM    DATA     BYTE      DATA1
      0000008CH   SFRSYM    DATA     BYTE      TH0
      000000A8H.0 SFRSYM    DATA     BIT       EX0
      00000098H.1 SFRSYM    DATA     BIT       TI0
      00000088H.0 SFRSYM    DATA     BIT       IT0
      000000FBH   SFRSYM    DATA     BYTE      DATA2
      0000008DH   SFRSYM    DATA     BYTE      TH1
      000000A8H.2 SFRSYM    DATA     BIT       EX1
      00000091H   SFRSYM    DATA     BYTE      CAN_IR
      000000CDH   SFRSYM    DATA     BYTE      TH2
      00000088H.2 SFRSYM    DATA     BIT       IT1
      000000FAH   SFRSYM    DATA     BYTE      DATA3
      000000D0H.0 SFRSYM    DATA     BIT       P
      00000098H.7 SFRSYM    DATA     BIT       SM0
      0000008AH   SFRSYM    DATA     BYTE      TL0
      00000098H.6 SFRSYM    DATA     BIT       SM1
      0000008BH   SFRSYM    DATA     BYTE      TL1
      00000098H.5 SFRSYM    DATA     BIT       SM2
      000000CCH   SFRSYM    DATA     BYTE      TL2
      000000A0H.7 SFRSYM    DATA     BIT       UV_St
      000000D0H.3 SFRSYM    DATA     BIT       RS0
      000000F8H.6 SFRSYM    DATA     BIT       APP_EN
      000000D0H.4 SFRSYM    DATA     BIT       RS1
      00000088H.4 SFRSYM    DATA     BIT       TR0
      00000088H.6 SFRSYM    DATA     BIT       TR1
      00000093H   SFRSYM    DATA     BYTE      DPC
      000000C8H.0 SFRSYM    DATA     BIT       TR2
      000000E5H   SFRSYM    DATA     BYTE      MAC_MODE
      00000083H   SFRSYM    DATA     BYTE      DPH
      00000082H   SFRSYM    DATA     BYTE      DPL
      00000099H   SFRSYM    DATA     BYTE      SBUF0
      0000009CH   SFRSYM    DATA     BYTE      SBUF1
      00000098H   SFRSYM    DATA     BYTE      SCON0
      0000009BH   SFRSYM    DATA     BYTE      SCON1
      000000D8H   SFRSYM    DATA     BYTE      ADCON
      000000C8H   SFRSYM    DATA     BYTE      T2CON
      000000E6H   SFRSYM    DATA     BYTE      DIV_MODE
      000000F8H.5 SFRSYM    DATA     BIT       APP_RW
      000000CBH   SFRSYM    DATA     BYTE      TRL2H
      0000009FH   SFRSYM    DATA     BYTE      SBUF2_RX
      000000ADH   SFRSYM    DATA     BYTE      SBUF3_RX
      0000008EH   SFRSYM    DATA     BYTE      CKCON
      0000009EH   SFRSYM    DATA     BYTE      SBUF2_TX
      000000ACH   SFRSYM    DATA     BYTE      SBUF3_TX
      000000CAH   SFRSYM    DATA     BYTE      TRL2L
      000000D0H.5 SFRSYM    DATA     BIT       F0
      000000FEH   SFRSYM    DATA     BYTE      EXADR
      000000D0H.1 SFRSYM    DATA     BIT       F1
      000000A0H.3 SFRSYM    DATA     BIT       LED_B
      000000D0H   SFRSYM    DATA     BYTE      PSW
      000000A0H.1 SFRSYM    DATA     BIT       LED_G
      000000C0H   SFRSYM    DATA     BYTE      IRCON
      00000098H.2 SFRSYM    DATA     BIT       RB80

      010043C1H   BLOCK     CODE     ---       LVL=0
      0200A480H   SYMBOL    XDATA    WORD      channel
      010043C1H   LINE      CODE     ---       #13
      010043C9H   LINE      CODE     ---       #14
      010043C9H   LINE      CODE     ---       #15
      010043E6H   LINE      CODE     ---       #17
      010043EEH   LINE      CODE     ---       #18
      ---         BLOCKEND  ---      ---       LVL=0

      01002C84H   BLOCK     CODE     ---       LVL=0
LX51 LINKER/LOCATER V4.66.93.0                                                        05/08/2025  10:05:08  PAGE 73


      01002C84H   BLOCK     CODE     NEAR LAB  LVL=1
      0200A47EH   SYMBOL    XDATA    WORD      ad
      0200A50EH   SYMBOL    XDATA    FLOAT     adc_08
      0200A512H   SYMBOL    XDATA    FLOAT     adc_09
      0200A516H   SYMBOL    XDATA    FLOAT     adc_10
      0200A51AH   SYMBOL    XDATA    FLOAT     I
      ---         BLOCKEND  ---      ---       LVL=1
      01002C84H   LINE      CODE     ---       #24
      01002C84H   LINE      CODE     ---       #25
      01002C84H   LINE      CODE     ---       #31
      01002C96H   LINE      CODE     ---       #33
      01002CACH   LINE      CODE     ---       #34
      01002CACH   LINE      CODE     ---       #35
      01002CACH   LINE      CODE     ---       #36
      01002CACH   LINE      CODE     ---       #37
      01002CB2H   LINE      CODE     ---       #38
      01002CE4H   LINE      CODE     ---       #40
      01002CF7H   LINE      CODE     ---       #41
      01002CFAH   LINE      CODE     ---       #42
      01002CFAH   LINE      CODE     ---       #43
      01002CFAH   LINE      CODE     ---       #44
      01002CFAH   LINE      CODE     ---       #45
      01002D00H   LINE      CODE     ---       #46
      01002D32H   LINE      CODE     ---       #48
      01002D45H   LINE      CODE     ---       #49
      01002D48H   LINE      CODE     ---       #50
      01002D48H   LINE      CODE     ---       #51
      01002D48H   LINE      CODE     ---       #52
      01002D48H   LINE      CODE     ---       #53
      01002D4EH   LINE      CODE     ---       #54
      01002D80H   LINE      CODE     ---       #56
      01002DB9H   LINE      CODE     ---       #57
      01002DCFH   LINE      CODE     ---       #59
      01002DCFH   LINE      CODE     ---       #60
      01002DCFH   LINE      CODE     ---       #62
      01002DCFH   LINE      CODE     ---       #63
      ---         BLOCKEND  ---      ---       LVL=0

      ---         MODULE    ---      ---       HOME
      0200A47AH   PUBLIC    XDATA    FLOAT     Volume
      0200A476H   PUBLIC    XDATA    FLOAT     L_M
      0200A472H   PUBLIC    XDATA    FLOAT     Square
      0200A470H   PUBLIC    XDATA    WORD      baifenbi_T
      0200A46EH   PUBLIC    XDATA    WORD      Current_Lock
      0200A46CH   PUBLIC    XDATA    ---       st_current
      0200A46BH   PUBLIC    XDATA    BYTE      Returnkey
      0200A46AH   PUBLIC    XDATA    BYTE      PageSliding
      0200A466H   PUBLIC    XDATA    FLOAT     D
      0200A462H   PUBLIC    XDATA    FLOAT     change_P_uW_doing
      0200A460H   PUBLIC    XDATA    WORD      mode_open
      0200A45CH   PUBLIC    XDATA    FLOAT     pai
      0200A45AH   PUBLIC    XDATA    WORD      ControlPageLock_Adress
      0200A459H   PUBLIC    XDATA    BYTE      last_page
      0200A455H   PUBLIC    XDATA    FLOAT     mJ_doing
      0200A451H   PUBLIC    XDATA    FLOAT     L_m_D_V_S
      0200A44DH   PUBLIC    XDATA    DWORD     time_doing
      0200A44BH   PUBLIC    XDATA    WORD      mode_close
      0200A447H   PUBLIC    XDATA    FLOAT     zhongxin_35mm
      0200A443H   PUBLIC    XDATA    FLOAT     Tanx
      0200A441H   PUBLIC    XDATA    ---       CurrentPageNum
      0200A435H   PUBLIC    XDATA    DWORD     time_100ms
      0200A431H   PUBLIC    XDATA    FLOAT     Tan_zhongxin
      0100408AH   PUBLIC    CODE     ---       _Unlock_current_page_zengliang
      0100402CH   PUBLIC    CODE     ---       _Lock_current_page_zengliang
      010034D1H   PUBLIC    CODE     ---       Unlock_current_page
LX51 LINKER/LOCATER V4.66.93.0                                                        05/08/2025  10:05:08  PAGE 74


      010035A9H   PUBLIC    CODE     ---       Lock_current_page
      01004632H   PUBLIC    CODE     ---       PageLock_Init
      01001CA8H   PUBLIC    CODE     ---       _QRJ_ZX__QY_RUN
      01001714H   PUBLIC    CODE     ---       Prepare_qrj_zx_qy
      01001F13H   PUBLIC    CODE     ---       _L_mm_TO_P_uw
      01004245H   PUBLIC    CODE     ---       ReadCurrentPage_run
      00000098H.3 SFRSYM    DATA     BIT       TB80
      000000F1H   SFRSYM    DATA     BYTE      ADR_H
      00000080H   SFRSYM    DATA     BYTE      P0
      00000090H   SFRSYM    DATA     BYTE      P1
      000000A0H   SFRSYM    DATA     BYTE      P2
      000000B0H   SFRSYM    DATA     BYTE      P3
      000000D0H.6 SFRSYM    DATA     BIT       AC
      000000F3H   SFRSYM    DATA     BYTE      ADR_L
      00000094H   SFRSYM    DATA     BYTE      PAGESEL
      000000F2H   SFRSYM    DATA     BYTE      ADR_M
      000000A8H.7 SFRSYM    DATA     BIT       EA
      000000A0H.5 SFRSYM    DATA     BIT       JIGUANG
      00000090H.7 SFRSYM    DATA     BIT       LED_R
      000000F8H   SFRSYM    DATA     BYTE      RAMMODE
      000000B7H   SFRSYM    DATA     BYTE      P0MDOUT
      000000A8H   SFRSYM    DATA     BYTE      IEN0
      000000BCH   SFRSYM    DATA     BYTE      P1MDOUT
      000000B8H   SFRSYM    DATA     BYTE      IEN1
      000000BDH   SFRSYM    DATA     BYTE      P2MDOUT
      000000F8H.0 SFRSYM    DATA     BIT       APP_DATA0
      0000009AH   SFRSYM    DATA     BYTE      IEN2
      000000BEH   SFRSYM    DATA     BYTE      P3MDOUT
      000000F8H.1 SFRSYM    DATA     BIT       APP_DATA1
      000000D1H   SFRSYM    DATA     BYTE      IEN3
      00000080H.0 SFRSYM    DATA     BIT       P0_0
      000000F8H.2 SFRSYM    DATA     BIT       APP_DATA2
      00000090H.0 SFRSYM    DATA     BIT       P1_0
      000000F8H.3 SFRSYM    DATA     BIT       APP_DATA3
      00000090H.1 SFRSYM    DATA     BIT       P1_1
      000000F8H.4 SFRSYM    DATA     BIT       APP_ACK
      000000F4H   SFRSYM    DATA     BYTE      ADR_INC
      000000B0H.1 SFRSYM    DATA     BIT       P3_1
      00000098H.4 SFRSYM    DATA     BIT       REN0
      000000B8H.1 SFRSYM    DATA     BIT       ECAN
      000000D0H.7 SFRSYM    DATA     BIT       CY
      000000B8H.3 SFRSYM    DATA     BIT       ES2R
      000000B8H.5 SFRSYM    DATA     BIT       ES3R
      000000B8H.2 SFRSYM    DATA     BIT       ES2T
      000000B8H.4 SFRSYM    DATA     BIT       ES3T
      000000C8H.7 SFRSYM    DATA     BIT       TSF2
      000000B0H.3 SFRSYM    DATA     BIT       RTC_SDA
      00000081H   SFRSYM    DATA     BYTE      SP
      000000D0H.2 SFRSYM    DATA     BIT       OV
      00000095H   SFRSYM    DATA     BYTE      D_PAGESEL
      00000090H.5 SFRSYM    DATA     BIT       UV
      000000F8H.7 SFRSYM    DATA     BIT       APP_REQ
      000000B0H.2 SFRSYM    DATA     BIT       RTC_SCL
      000000BFH   SFRSYM    DATA     BYTE      IRCON2
      000000BAH   SFRSYM    DATA     BYTE      SREL0H
      000000BBH   SFRSYM    DATA     BYTE      SREL1H
      00000087H   SFRSYM    DATA     BYTE      PCON
      000000AAH   SFRSYM    DATA     BYTE      SREL0L
      000000F9H   SFRSYM    DATA     BYTE      PORTDRV
      0000009DH   SFRSYM    DATA     BYTE      SREL1L
      00000089H   SFRSYM    DATA     BYTE      TMOD
      00000088H   SFRSYM    DATA     BYTE      TCON
      00000097H   SFRSYM    DATA     BYTE      SCON2R
      000000FFH   SFRSYM    DATA     BYTE      EXDATA
      000000ABH   SFRSYM    DATA     BYTE      SCON3R
LX51 LINKER/LOCATER V4.66.93.0                                                        05/08/2025  10:05:08  PAGE 75


      000000D9H   SFRSYM    DATA     BYTE      BODE2_DIV_H
      000000AEH   SFRSYM    DATA     BYTE      BODE3_DIV_H
      00000096H   SFRSYM    DATA     BYTE      SCON2T
      000000A7H   SFRSYM    DATA     BYTE      SCON3T
      000000E7H   SFRSYM    DATA     BYTE      BODE2_DIV_L
      00000088H.1 SFRSYM    DATA     BIT       IE0
      000000AFH   SFRSYM    DATA     BYTE      BODE3_DIV_L
      00000088H.3 SFRSYM    DATA     BIT       IE1
      000000C9H   SFRSYM    DATA     BYTE      MUX_SEL
      000000F0H   SFRSYM    DATA     BYTE      B
      000000E0H   SFRSYM    DATA     BYTE      ACC
      000000A8H.4 SFRSYM    DATA     BIT       ES0
      0000008FH   SFRSYM    DATA     BYTE      CAN_CR
      000000A8H.1 SFRSYM    DATA     BIT       ET0
      000000A9H   SFRSYM    DATA     BYTE      IP0
      000000A8H.3 SFRSYM    DATA     BIT       ET1
      00000088H.5 SFRSYM    DATA     BIT       TF0
      000000B9H   SFRSYM    DATA     BYTE      IP1
      000000A8H.5 SFRSYM    DATA     BIT       ET2
      00000098H.0 SFRSYM    DATA     BIT       RI0
      00000088H.7 SFRSYM    DATA     BIT       TF1
      000000FDH   SFRSYM    DATA     BYTE      DATA0
      000000C0H.6 SFRSYM    DATA     BIT       TF2
      000000E8H   SFRSYM    DATA     BYTE      CAN_ET
      000000FCH   SFRSYM    DATA     BYTE      DATA1
      0000008CH   SFRSYM    DATA     BYTE      TH0
      000000A8H.0 SFRSYM    DATA     BIT       EX0
      00000098H.1 SFRSYM    DATA     BIT       TI0
      00000088H.0 SFRSYM    DATA     BIT       IT0
      000000FBH   SFRSYM    DATA     BYTE      DATA2
      0000008DH   SFRSYM    DATA     BYTE      TH1
      000000A8H.2 SFRSYM    DATA     BIT       EX1
      00000091H   SFRSYM    DATA     BYTE      CAN_IR
      000000CDH   SFRSYM    DATA     BYTE      TH2
      00000088H.2 SFRSYM    DATA     BIT       IT1
      000000FAH   SFRSYM    DATA     BYTE      DATA3
      000000D0H.0 SFRSYM    DATA     BIT       P
      00000098H.7 SFRSYM    DATA     BIT       SM0
      0000008AH   SFRSYM    DATA     BYTE      TL0
      00000098H.6 SFRSYM    DATA     BIT       SM1
      0000008BH   SFRSYM    DATA     BYTE      TL1
      00000098H.5 SFRSYM    DATA     BIT       SM2
      000000CCH   SFRSYM    DATA     BYTE      TL2
      000000A0H.7 SFRSYM    DATA     BIT       UV_St
      000000D0H.3 SFRSYM    DATA     BIT       RS0
      000000F8H.6 SFRSYM    DATA     BIT       APP_EN
      000000D0H.4 SFRSYM    DATA     BIT       RS1
      00000088H.4 SFRSYM    DATA     BIT       TR0
      00000088H.6 SFRSYM    DATA     BIT       TR1
      00000093H   SFRSYM    DATA     BYTE      DPC
      000000C8H.0 SFRSYM    DATA     BIT       TR2
      000000E5H   SFRSYM    DATA     BYTE      MAC_MODE
      00000083H   SFRSYM    DATA     BYTE      DPH
      00000082H   SFRSYM    DATA     BYTE      DPL
      00000099H   SFRSYM    DATA     BYTE      SBUF0
      0000009CH   SFRSYM    DATA     BYTE      SBUF1
      00000098H   SFRSYM    DATA     BYTE      SCON0
      0000009BH   SFRSYM    DATA     BYTE      SCON1
      000000D8H   SFRSYM    DATA     BYTE      ADCON
      000000C8H   SFRSYM    DATA     BYTE      T2CON
      000000E6H   SFRSYM    DATA     BYTE      DIV_MODE
      000000F8H.5 SFRSYM    DATA     BIT       APP_RW
      000000CBH   SFRSYM    DATA     BYTE      TRL2H
      0000009FH   SFRSYM    DATA     BYTE      SBUF2_RX
      000000ADH   SFRSYM    DATA     BYTE      SBUF3_RX
LX51 LINKER/LOCATER V4.66.93.0                                                        05/08/2025  10:05:08  PAGE 76


      0000008EH   SFRSYM    DATA     BYTE      CKCON
      0000009EH   SFRSYM    DATA     BYTE      SBUF2_TX
      000000ACH   SFRSYM    DATA     BYTE      SBUF3_TX
      000000CAH   SFRSYM    DATA     BYTE      TRL2L
      000000D0H.5 SFRSYM    DATA     BIT       F0
      000000FEH   SFRSYM    DATA     BYTE      EXADR
      000000D0H.1 SFRSYM    DATA     BIT       F1
      000000A0H.3 SFRSYM    DATA     BIT       LED_B
      000000D0H   SFRSYM    DATA     BYTE      PSW
      000000A0H.1 SFRSYM    DATA     BIT       LED_G
      000000C0H   SFRSYM    DATA     BYTE      IRCON
      00000098H.2 SFRSYM    DATA     BIT       RB80
      0200A439H   SYMBOL    XDATA    ---       PageLock

      01004245H   BLOCK     CODE     ---       LVL=0
      01004245H   LINE      CODE     ---       #33
      01004245H   LINE      CODE     ---       #34
      01004245H   LINE      CODE     ---       #37
      0100425BH   LINE      CODE     ---       #38
      01004271H   LINE      CODE     ---       #39
      01004271H   LINE      CODE     ---       #40
      01004271H   LINE      CODE     ---       #41
      01004271H   LINE      CODE     ---       #42
      01004276H   LINE      CODE     ---       #43
      0100427CH   LINE      CODE     ---       #44
      0100427DH   LINE      CODE     ---       #45
      0100427DH   LINE      CODE     ---       #47
      0100427DH   LINE      CODE     ---       #48
      0100427DH   LINE      CODE     ---       #53
      01004280H   LINE      CODE     ---       #56
      01004283H   LINE      CODE     ---       #57
      01004283H   LINE      CODE     ---       #59
      01004285H   LINE      CODE     ---       #60
      01004285H   LINE      CODE     ---       #62
      01004285H   LINE      CODE     ---       #63
      01004285H   LINE      CODE     ---       #65
      01004285H   LINE      CODE     ---       #68
      01004287H   LINE      CODE     ---       #69
      01004287H   LINE      CODE     ---       #71
      01004287H   LINE      CODE     ---       #72
      01004287H   LINE      CODE     ---       #74
      0100428AH   LINE      CODE     ---       #76
      0100428AH   LINE      CODE     ---       #77
      0100428AH   LINE      CODE     ---       #80
      0100428AH   LINE      CODE     ---       #81
      0100428AH   LINE      CODE     ---       #83
      0100428AH   LINE      CODE     ---       #84
      0100428AH   LINE      CODE     ---       #87
      0100428AH   LINE      CODE     ---       #88
      0100428AH   LINE      CODE     ---       #89
      0100428AH   LINE      CODE     ---       #90
      0100428AH   LINE      CODE     ---       #93
      0100428AH   LINE      CODE     ---       #94
      0100428AH   LINE      CODE     ---       #96
      0100428AH   LINE      CODE     ---       #97
      0100428AH   LINE      CODE     ---       #99
      0100428AH   LINE      CODE     ---       #100
      0100428AH   LINE      CODE     ---       #102
      0100428AH   LINE      CODE     ---       #103
      0100428AH   LINE      CODE     ---       #106
      0100428AH   LINE      CODE     ---       #107
      0100428AH   LINE      CODE     ---       #108
      0100428DH   LINE      CODE     ---       #109
      0100428DH   LINE      CODE     ---       #110
      0100428DH   LINE      CODE     ---       #112
LX51 LINKER/LOCATER V4.66.93.0                                                        05/08/2025  10:05:08  PAGE 77


      0100428DH   LINE      CODE     ---       #113
      0100428DH   LINE      CODE     ---       #115
      0100428DH   LINE      CODE     ---       #116
      0100428DH   LINE      CODE     ---       #118
      0100428DH   LINE      CODE     ---       #119
      0100428DH   LINE      CODE     ---       #120
      0100428DH   LINE      CODE     ---       #121
      0100428DH   LINE      CODE     ---       #122
      0100428DH   LINE      CODE     ---       #123
      0100428DH   LINE      CODE     ---       #125
      0100428DH   LINE      CODE     ---       #126
      0100428DH   LINE      CODE     ---       #128
      0100428DH   LINE      CODE     ---       #130
      ---         BLOCKEND  ---      ---       LVL=0

      01001F13H   BLOCK     CODE     ---       LVL=0
      00000002H   SYMBOL    DATA     WORD      L_mm_TO_P
      0200A47EH   SYMBOL    XDATA    BYTE      current_page
      01001F1CH   BLOCK     CODE     NEAR LAB  LVL=1
      0200A47FH   SYMBOL    XDATA    BYTE      L_mm_TO_P_uw_FLAG
      0200A480H   SYMBOL    XDATA    FLOAT     BEISHU
      0200A484H   SYMBOL    XDATA    FLOAT     L_CM
      0200A488H   SYMBOL    XDATA    FLOAT     mihanshu
      ---         BLOCKEND  ---      ---       LVL=1
      01001F13H   LINE      CODE     ---       #164
      01001F1CH   LINE      CODE     ---       #165
      01001F1CH   LINE      CODE     ---       #166
      01001F1FH   LINE      CODE     ---       #167
      01001F27H   LINE      CODE     ---       #169
      01001F31H   LINE      CODE     ---       #172
      01001F4AH   LINE      CODE     ---       #174
      01001F89H   LINE      CODE     ---       #175
      01001FCAH   LINE      CODE     ---       #176
      0100200AH   LINE      CODE     ---       #177
      0100204AH   LINE      CODE     ---       #178
      01002050H   LINE      CODE     ---       #181
      01002068H   LINE      CODE     ---       #182
      01002068H   LINE      CODE     ---       #183
      01002068H   LINE      CODE     ---       #184
      01002068H   LINE      CODE     ---       #185
      01002089H   LINE      CODE     ---       #186
      0100208FH   LINE      CODE     ---       #187
      0100208FH   LINE      CODE     ---       #188
      01002091H   LINE      CODE     ---       #189
      01002091H   LINE      CODE     ---       #192
      01002091H   LINE      CODE     ---       #193
      01002091H   LINE      CODE     ---       #194
      010020B2H   LINE      CODE     ---       #195
      010020B8H   LINE      CODE     ---       #196
      010020B8H   LINE      CODE     ---       #197
      010020BAH   LINE      CODE     ---       #198
      010020BAH   LINE      CODE     ---       #200
      010020BAH   LINE      CODE     ---       #201
      010020BAH   LINE      CODE     ---       #202
      010020DBH   LINE      CODE     ---       #203
      010020E3H   LINE      CODE     ---       #204
      010020E3H   LINE      CODE     ---       #205
      010020E5H   LINE      CODE     ---       #206
      010020E5H   LINE      CODE     ---       #208
      010020E5H   LINE      CODE     ---       #209
      010020E5H   LINE      CODE     ---       #210
      01002106H   LINE      CODE     ---       #211
      01002125H   LINE      CODE     ---       #212
      01002139H   LINE      CODE     ---       #213
      0100213BH   LINE      CODE     ---       #214
LX51 LINKER/LOCATER V4.66.93.0                                                        05/08/2025  10:05:08  PAGE 78


      0100213BH   LINE      CODE     ---       #216
      0100213BH   LINE      CODE     ---       #217
      0100213BH   LINE      CODE     ---       #218
      01002141H   LINE      CODE     ---       #219
      01002141H   LINE      CODE     ---       #220
      01002141H   LINE      CODE     ---       #222
      0100214FH   LINE      CODE     ---       #223
      0100214FH   LINE      CODE     ---       #224
      0100216EH   LINE      CODE     ---       #225
      0100216EH   LINE      CODE     ---       #231
      ---         BLOCKEND  ---      ---       LVL=0

      01001714H   BLOCK     CODE     ---       LVL=0
      01001714H   LINE      CODE     ---       #238
      01001714H   LINE      CODE     ---       #239
      01001714H   LINE      CODE     ---       #241
      01001724H   LINE      CODE     ---       #242
      0100173AH   LINE      CODE     ---       #243
      01001756H   LINE      CODE     ---       #245
      01001761H   LINE      CODE     ---       #246
      01001761H   LINE      CODE     ---       #247
      0100178EH   LINE      CODE     ---       #248
      010017BCH   LINE      CODE     ---       #249
      0100180FH   LINE      CODE     ---       #250
      0100183EH   LINE      CODE     ---       #251
      01001844H   LINE      CODE     ---       #254
      01001847H   LINE      CODE     ---       #255
      01001852H   LINE      CODE     ---       #256
      01001852H   LINE      CODE     ---       #258
      0100187FH   LINE      CODE     ---       #259
      010018ADH   LINE      CODE     ---       #260
      01001900H   LINE      CODE     ---       #262
      01001906H   LINE      CODE     ---       #265
      01001909H   LINE      CODE     ---       #266
      01001914H   LINE      CODE     ---       #267
      01001914H   LINE      CODE     ---       #268
      01001941H   LINE      CODE     ---       #269
      0100196FH   LINE      CODE     ---       #270
      010019C2H   LINE      CODE     ---       #272
      010019D8H   LINE      CODE     ---       #275
      010019D8H   LINE      CODE     ---       #277
      010019EEH   LINE      CODE     ---       #278
      ---         BLOCKEND  ---      ---       LVL=0

      01001CA8H   BLOCK     CODE     ---       LVL=0
      0200A47EH   SYMBOL    XDATA    ---       callback_u16
      01001CB3H   BLOCK     CODE     NEAR LAB  LVL=1
      0200A481H   SYMBOL    XDATA    WORD      ResTime_sec
      0200A483H   SYMBOL    XDATA    WORD      ResTime_min
      0200A42DH   SYMBOL    XDATA    DWORD     t_1
      ---         BLOCKEND  ---      ---       LVL=1
      01001CA8H   LINE      CODE     ---       #291
      01001CB3H   LINE      CODE     ---       #292
      01001CB3H   LINE      CODE     ---       #296
      01001CCAH   LINE      CODE     ---       #297
      01001CCAH   LINE      CODE     ---       #298
      01001CD4H   LINE      CODE     ---       #301
      01001D14H   LINE      CODE     ---       #302
      01001D33H   LINE      CODE     ---       #303
      01001D4DH   LINE      CODE     ---       #304
      01001D4DH   LINE      CODE     ---       #305
      01001D57H   LINE      CODE     ---       #308
      01001D76H   LINE      CODE     ---       #310
      01001D76H   LINE      CODE     ---       #311
      01001D8DH   LINE      CODE     ---       #314
LX51 LINKER/LOCATER V4.66.93.0                                                        05/08/2025  10:05:08  PAGE 79


      01001DB1H   LINE      CODE     ---       #315
      01001DC4H   LINE      CODE     ---       #317
      01001DDAH   LINE      CODE     ---       #318
      01001DF0H   LINE      CODE     ---       #321
      01001E29H   LINE      CODE     ---       #322
      01001E3CH   LINE      CODE     ---       #323
      01001E52H   LINE      CODE     ---       #324
      01001E68H   LINE      CODE     ---       #327
      01001E7EH   LINE      CODE     ---       #329
      01001EC7H   LINE      CODE     ---       #330
      01001EFCH   LINE      CODE     ---       #331
      01001F12H   LINE      CODE     ---       #333
      01001F12H   LINE      CODE     ---       #334
      ---         BLOCKEND  ---      ---       LVL=0

      01004632H   BLOCK     CODE     ---       LVL=0
      01004632H   LINE      CODE     ---       #363
      01004632H   LINE      CODE     ---       #364
      01004632H   LINE      CODE     ---       #365
      0100463CH   LINE      CODE     ---       #366
      0100463FH   LINE      CODE     ---       #367
      ---         BLOCKEND  ---      ---       LVL=0

      010035A9H   BLOCK     CODE     ---       LVL=0
      010035A9H   LINE      CODE     ---       #382
      010035A9H   LINE      CODE     ---       #383
      010035A9H   LINE      CODE     ---       #384
      010035B1H   LINE      CODE     ---       #385
      010035B1H   LINE      CODE     ---       #386
      010035B8H   LINE      CODE     ---       #388
      010035B8H   LINE      CODE     ---       #410
      010035C0H   LINE      CODE     ---       #411
      010035C3H   LINE      CODE     ---       #412
      010035CBH   LINE      CODE     ---       #413
      010035DAH   LINE      CODE     ---       #415
      010035F4H   LINE      CODE     ---       #416
      010035F4H   LINE      CODE     ---       #417
      010035F4H   LINE      CODE     ---       #418
      0100360EH   LINE      CODE     ---       #419
      0100361AH   LINE      CODE     ---       #420
      0100361AH   LINE      CODE     ---       #421
      0100361AH   LINE      CODE     ---       #423
      01003620H   LINE      CODE     ---       #424
      01003628H   LINE      CODE     ---       #425
      01003642H   LINE      CODE     ---       #426
      01003642H   LINE      CODE     ---       #427
      01003642H   LINE      CODE     ---       #428
      0100365CH   LINE      CODE     ---       #429
      01003668H   LINE      CODE     ---       #430
      01003668H   LINE      CODE     ---       #431
      01003668H   LINE      CODE     ---       #432
      01003670H   LINE      CODE     ---       #434
      ---         BLOCKEND  ---      ---       LVL=0

      010034D1H   BLOCK     CODE     ---       LVL=0
      010034D1H   LINE      CODE     ---       #436
      010034D1H   LINE      CODE     ---       #437
      010034D1H   LINE      CODE     ---       #439
      010034E0H   LINE      CODE     ---       #440
      010034E0H   LINE      CODE     ---       #441
      010034E8H   LINE      CODE     ---       #442
      010034E8H   LINE      CODE     ---       #444
      010034EFH   LINE      CODE     ---       #445
      010034EFH   LINE      CODE     ---       #467
      010034F7H   LINE      CODE     ---       #468
LX51 LINKER/LOCATER V4.66.93.0                                                        05/08/2025  10:05:08  PAGE 80


      01003506H   LINE      CODE     ---       #469
      0100350EH   LINE      CODE     ---       #470
      01003514H   LINE      CODE     ---       #471
      0100352EH   LINE      CODE     ---       #472
      0100352EH   LINE      CODE     ---       #473
      0100352EH   LINE      CODE     ---       #474
      01003548H   LINE      CODE     ---       #475
      01003554H   LINE      CODE     ---       #476
      01003554H   LINE      CODE     ---       #477
      01003554H   LINE      CODE     ---       #478
      0100355CH   LINE      CODE     ---       #479
      01003561H   LINE      CODE     ---       #480
      0100357BH   LINE      CODE     ---       #481
      0100357BH   LINE      CODE     ---       #482
      0100357BH   LINE      CODE     ---       #483
      01003595H   LINE      CODE     ---       #484
      010035A1H   LINE      CODE     ---       #485
      010035A1H   LINE      CODE     ---       #486
      010035A1H   LINE      CODE     ---       #487
      010035A8H   LINE      CODE     ---       #489
      010035A8H   LINE      CODE     ---       #492
      ---         BLOCKEND  ---      ---       LVL=0

      0100402CH   BLOCK     CODE     ---       LVL=0
      00000007H   SYMBOL    DATA     BYTE      id_1
      00000005H   SYMBOL    DATA     BYTE      daima_1
      0100402CH   LINE      CODE     ---       #495
      0100402CH   LINE      CODE     ---       #496
      0100402CH   LINE      CODE     ---       #498
      01004034H   LINE      CODE     ---       #499
      01004037H   LINE      CODE     ---       #500
      0100403AH   LINE      CODE     ---       #501
      01004049H   LINE      CODE     ---       #503
      01004063H   LINE      CODE     ---       #504
      01004063H   LINE      CODE     ---       #505
      01004063H   LINE      CODE     ---       #506
      0100407DH   LINE      CODE     ---       #507
      01004089H   LINE      CODE     ---       #508
      01004089H   LINE      CODE     ---       #509
      01004089H   LINE      CODE     ---       #510
      ---         BLOCKEND  ---      ---       LVL=0

      0100408AH   BLOCK     CODE     ---       LVL=0
      00000007H   SYMBOL    DATA     BYTE      id_1
      00000005H   SYMBOL    DATA     BYTE      daima_1
      0100408AH   LINE      CODE     ---       #515
      0100408AH   LINE      CODE     ---       #516
      0100408AH   LINE      CODE     ---       #518
      01004092H   LINE      CODE     ---       #519
      01004095H   LINE      CODE     ---       #520
      01004098H   LINE      CODE     ---       #521
      010040A7H   LINE      CODE     ---       #522
      010040C1H   LINE      CODE     ---       #523
      010040C1H   LINE      CODE     ---       #524
      010040C1H   LINE      CODE     ---       #525
      010040DBH   LINE      CODE     ---       #526
      010040E7H   LINE      CODE     ---       #527
      010040E7H   LINE      CODE     ---       #528
      010040E7H   LINE      CODE     ---       #529
      ---         BLOCKEND  ---      ---       LVL=0

      ---         MODULE    ---      ---       QRJ
      0200A534H   PUBLIC    XDATA    BYTE      current_st
      0200A533H   PUBLIC    XDATA    BYTE      L_T_S_FLAG
      0200A52BH   PUBLIC    XDATA    ---       icon
LX51 LINKER/LOCATER V4.66.93.0                                                        05/08/2025  10:05:08  PAGE 81


      0200A527H   PUBLIC    XDATA    FLOAT     TIME_static
      0200A523H   PUBLIC    XDATA    FLOAT     qirongjiao_j
      01003DD5H   PUBLIC    CODE     ---       QRJ_Home
      010000F7H   PUBLIC    CODE     ---       QRJ_stop
      010033F2H   PUBLIC    CODE     ---       _QRJ_mm_to_s
      0100302CH   PUBLIC    CODE     ---       QRJ_prepare
      010040E8H   PUBLIC    CODE     ---       QRJ_Reset
      010000F6H   PUBLIC    CODE     ---       QRJ_Set
      0100452FH   PUBLIC    CODE     ---       QRJ_Init
      01003E3EH   PUBLIC    CODE     ---       QRJ_run
      010045A9H   PUBLIC    CODE     ---       QRJ_done
      00000098H.3 SFRSYM    DATA     BIT       TB80
      000000F1H   SFRSYM    DATA     BYTE      ADR_H
      00000080H   SFRSYM    DATA     BYTE      P0
      00000090H   SFRSYM    DATA     BYTE      P1
      000000A0H   SFRSYM    DATA     BYTE      P2
      000000B0H   SFRSYM    DATA     BYTE      P3
      000000D0H.6 SFRSYM    DATA     BIT       AC
      000000F3H   SFRSYM    DATA     BYTE      ADR_L
      00000094H   SFRSYM    DATA     BYTE      PAGESEL
      000000F2H   SFRSYM    DATA     BYTE      ADR_M
      000000A8H.7 SFRSYM    DATA     BIT       EA
      000000A0H.5 SFRSYM    DATA     BIT       JIGUANG
      00000090H.7 SFRSYM    DATA     BIT       LED_R
      000000F8H   SFRSYM    DATA     BYTE      RAMMODE
      000000B7H   SFRSYM    DATA     BYTE      P0MDOUT
      000000A8H   SFRSYM    DATA     BYTE      IEN0
      000000BCH   SFRSYM    DATA     BYTE      P1MDOUT
      000000B8H   SFRSYM    DATA     BYTE      IEN1
      000000BDH   SFRSYM    DATA     BYTE      P2MDOUT
      000000F8H.0 SFRSYM    DATA     BIT       APP_DATA0
      0000009AH   SFRSYM    DATA     BYTE      IEN2
      000000BEH   SFRSYM    DATA     BYTE      P3MDOUT
      000000F8H.1 SFRSYM    DATA     BIT       APP_DATA1
      000000D1H   SFRSYM    DATA     BYTE      IEN3
      00000080H.0 SFRSYM    DATA     BIT       P0_0
      000000F8H.2 SFRSYM    DATA     BIT       APP_DATA2
      00000090H.0 SFRSYM    DATA     BIT       P1_0
      000000F8H.3 SFRSYM    DATA     BIT       APP_DATA3
      00000090H.1 SFRSYM    DATA     BIT       P1_1
      000000F8H.4 SFRSYM    DATA     BIT       APP_ACK
      000000F4H   SFRSYM    DATA     BYTE      ADR_INC
      000000B0H.1 SFRSYM    DATA     BIT       P3_1
      00000098H.4 SFRSYM    DATA     BIT       REN0
      000000B8H.1 SFRSYM    DATA     BIT       ECAN
      000000D0H.7 SFRSYM    DATA     BIT       CY
      000000B8H.3 SFRSYM    DATA     BIT       ES2R
      000000B8H.5 SFRSYM    DATA     BIT       ES3R
      000000B8H.2 SFRSYM    DATA     BIT       ES2T
      000000B8H.4 SFRSYM    DATA     BIT       ES3T
      000000C8H.7 SFRSYM    DATA     BIT       TSF2
      000000B0H.3 SFRSYM    DATA     BIT       RTC_SDA
      00000081H   SFRSYM    DATA     BYTE      SP
      000000D0H.2 SFRSYM    DATA     BIT       OV
      00000095H   SFRSYM    DATA     BYTE      D_PAGESEL
      00000090H.5 SFRSYM    DATA     BIT       UV
      000000F8H.7 SFRSYM    DATA     BIT       APP_REQ
      000000B0H.2 SFRSYM    DATA     BIT       RTC_SCL
      000000BFH   SFRSYM    DATA     BYTE      IRCON2
      000000BAH   SFRSYM    DATA     BYTE      SREL0H
      000000BBH   SFRSYM    DATA     BYTE      SREL1H
      00000087H   SFRSYM    DATA     BYTE      PCON
      000000AAH   SFRSYM    DATA     BYTE      SREL0L
      000000F9H   SFRSYM    DATA     BYTE      PORTDRV
      0000009DH   SFRSYM    DATA     BYTE      SREL1L
LX51 LINKER/LOCATER V4.66.93.0                                                        05/08/2025  10:05:08  PAGE 82


      00000089H   SFRSYM    DATA     BYTE      TMOD
      00000088H   SFRSYM    DATA     BYTE      TCON
      00000097H   SFRSYM    DATA     BYTE      SCON2R
      000000FFH   SFRSYM    DATA     BYTE      EXDATA
      000000ABH   SFRSYM    DATA     BYTE      SCON3R
      000000D9H   SFRSYM    DATA     BYTE      BODE2_DIV_H
      000000AEH   SFRSYM    DATA     BYTE      BODE3_DIV_H
      00000096H   SFRSYM    DATA     BYTE      SCON2T
      000000A7H   SFRSYM    DATA     BYTE      SCON3T
      000000E7H   SFRSYM    DATA     BYTE      BODE2_DIV_L
      00000088H.1 SFRSYM    DATA     BIT       IE0
      000000AFH   SFRSYM    DATA     BYTE      BODE3_DIV_L
      00000088H.3 SFRSYM    DATA     BIT       IE1
      000000C9H   SFRSYM    DATA     BYTE      MUX_SEL
      000000F0H   SFRSYM    DATA     BYTE      B
      000000E0H   SFRSYM    DATA     BYTE      ACC
      000000A8H.4 SFRSYM    DATA     BIT       ES0
      0000008FH   SFRSYM    DATA     BYTE      CAN_CR
      000000A8H.1 SFRSYM    DATA     BIT       ET0
      000000A9H   SFRSYM    DATA     BYTE      IP0
      000000A8H.3 SFRSYM    DATA     BIT       ET1
      00000088H.5 SFRSYM    DATA     BIT       TF0
      000000B9H   SFRSYM    DATA     BYTE      IP1
      000000A8H.5 SFRSYM    DATA     BIT       ET2
      00000098H.0 SFRSYM    DATA     BIT       RI0
      00000088H.7 SFRSYM    DATA     BIT       TF1
      000000FDH   SFRSYM    DATA     BYTE      DATA0
      000000C0H.6 SFRSYM    DATA     BIT       TF2
      000000E8H   SFRSYM    DATA     BYTE      CAN_ET
      000000FCH   SFRSYM    DATA     BYTE      DATA1
      0000008CH   SFRSYM    DATA     BYTE      TH0
      000000A8H.0 SFRSYM    DATA     BIT       EX0
      00000098H.1 SFRSYM    DATA     BIT       TI0
      00000088H.0 SFRSYM    DATA     BIT       IT0
      000000FBH   SFRSYM    DATA     BYTE      DATA2
      0000008DH   SFRSYM    DATA     BYTE      TH1
      000000A8H.2 SFRSYM    DATA     BIT       EX1
      00000091H   SFRSYM    DATA     BYTE      CAN_IR
      000000CDH   SFRSYM    DATA     BYTE      TH2
      00000088H.2 SFRSYM    DATA     BIT       IT1
      000000FAH   SFRSYM    DATA     BYTE      DATA3
      000000D0H.0 SFRSYM    DATA     BIT       P
      00000098H.7 SFRSYM    DATA     BIT       SM0
      0000008AH   SFRSYM    DATA     BYTE      TL0
      00000098H.6 SFRSYM    DATA     BIT       SM1
      0000008BH   SFRSYM    DATA     BYTE      TL1
      00000098H.5 SFRSYM    DATA     BIT       SM2
      000000CCH   SFRSYM    DATA     BYTE      TL2
      000000A0H.7 SFRSYM    DATA     BIT       UV_St
      000000D0H.3 SFRSYM    DATA     BIT       RS0
      000000F8H.6 SFRSYM    DATA     BIT       APP_EN
      000000D0H.4 SFRSYM    DATA     BIT       RS1
      00000088H.4 SFRSYM    DATA     BIT       TR0
      00000088H.6 SFRSYM    DATA     BIT       TR1
      00000093H   SFRSYM    DATA     BYTE      DPC
      000000C8H.0 SFRSYM    DATA     BIT       TR2
      000000E5H   SFRSYM    DATA     BYTE      MAC_MODE
      00000083H   SFRSYM    DATA     BYTE      DPH
      00000082H   SFRSYM    DATA     BYTE      DPL
      00000099H   SFRSYM    DATA     BYTE      SBUF0
      0000009CH   SFRSYM    DATA     BYTE      SBUF1
      00000098H   SFRSYM    DATA     BYTE      SCON0
      0000009BH   SFRSYM    DATA     BYTE      SCON1
      000000D8H   SFRSYM    DATA     BYTE      ADCON
      000000C8H   SFRSYM    DATA     BYTE      T2CON
LX51 LINKER/LOCATER V4.66.93.0                                                        05/08/2025  10:05:08  PAGE 83


      000000E6H   SFRSYM    DATA     BYTE      DIV_MODE
      000000F8H.5 SFRSYM    DATA     BIT       APP_RW
      000000CBH   SFRSYM    DATA     BYTE      TRL2H
      0000009FH   SFRSYM    DATA     BYTE      SBUF2_RX
      000000ADH   SFRSYM    DATA     BYTE      SBUF3_RX
      0000008EH   SFRSYM    DATA     BYTE      CKCON
      0000009EH   SFRSYM    DATA     BYTE      SBUF2_TX
      000000ACH   SFRSYM    DATA     BYTE      SBUF3_TX
      000000CAH   SFRSYM    DATA     BYTE      TRL2L
      000000D0H.5 SFRSYM    DATA     BIT       F0
      000000FEH   SFRSYM    DATA     BYTE      EXADR
      000000D0H.1 SFRSYM    DATA     BIT       F1
      000000A0H.3 SFRSYM    DATA     BIT       LED_B
      000000D0H   SFRSYM    DATA     BYTE      PSW
      000000A0H.1 SFRSYM    DATA     BIT       LED_G
      000000C0H   SFRSYM    DATA     BYTE      IRCON
      00000098H.2 SFRSYM    DATA     BIT       RB80

      010045A9H   BLOCK     CODE     ---       LVL=0
      010045A9H   LINE      CODE     ---       #20
      010045A9H   LINE      CODE     ---       #21
      010045A9H   LINE      CODE     ---       #22
      ---         BLOCKEND  ---      ---       LVL=0

      01003E3EH   BLOCK     CODE     ---       LVL=0
      01003E3EH   LINE      CODE     ---       #26
      01003E3EH   LINE      CODE     ---       #27
      01003E3EH   LINE      CODE     ---       #29
      01003E47H   LINE      CODE     ---       #32
      01003E9DH   LINE      CODE     ---       #33
      01003E9DH   LINE      CODE     ---       #37
      01003EA3H   LINE      CODE     ---       #38
      01003EA3H   LINE      CODE     ---       #40
      ---         BLOCKEND  ---      ---       LVL=0

      0100452FH   BLOCK     CODE     ---       LVL=0
      0100452FH   LINE      CODE     ---       #44
      0100452FH   LINE      CODE     ---       #45
      0100452FH   LINE      CODE     ---       #46
      01004534H   LINE      CODE     ---       #47
      ---         BLOCKEND  ---      ---       LVL=0

      010000F6H   BLOCK     CODE     ---       LVL=0
      010000F6H   LINE      CODE     ---       #54
      010000F6H   LINE      CODE     ---       #55
      010000F6H   LINE      CODE     ---       #57
      ---         BLOCKEND  ---      ---       LVL=0

      010040E8H   BLOCK     CODE     ---       LVL=0
      010040E8H   LINE      CODE     ---       #60
      010040E8H   LINE      CODE     ---       #61
      010040E8H   LINE      CODE     ---       #63
      010040F2H   LINE      CODE     ---       #64
      01004108H   LINE      CODE     ---       #66
      0100410FH   LINE      CODE     ---       #67
      01004124H   LINE      CODE     ---       #69
      0100412EH   LINE      CODE     ---       #71
      ---         BLOCKEND  ---      ---       LVL=0

      0100302CH   BLOCK     CODE     ---       LVL=0
      0100302CH   BLOCK     CODE     NEAR LAB  LVL=1
      0200A47EH   SYMBOL    XDATA    WORD      ResTime_sec
      0200A480H   SYMBOL    XDATA    WORD      ResTime_min
      0200A482H   SYMBOL    XDATA    WORD      QRJ_mj
      ---         BLOCKEND  ---      ---       LVL=1
LX51 LINKER/LOCATER V4.66.93.0                                                        05/08/2025  10:05:08  PAGE 84


      0100302CH   LINE      CODE     ---       #80
      0100302CH   LINE      CODE     ---       #81
      0100302CH   LINE      CODE     ---       #87
      01003042H   LINE      CODE     ---       #88
      0100305FH   LINE      CODE     ---       #89
      0100305FH   LINE      CODE     ---       #90
      0100305FH   LINE      CODE     ---       #91
      0100305FH   LINE      CODE     ---       #92
      01003069H   LINE      CODE     ---       #93
      0100306BH   LINE      CODE     ---       #94
      0100306BH   LINE      CODE     ---       #95
      0100306BH   LINE      CODE     ---       #96
      0100306BH   LINE      CODE     ---       #97
      01003075H   LINE      CODE     ---       #98
      01003077H   LINE      CODE     ---       #99
      01003077H   LINE      CODE     ---       #100
      01003077H   LINE      CODE     ---       #101
      01003077H   LINE      CODE     ---       #102
      01003081H   LINE      CODE     ---       #103
      01003083H   LINE      CODE     ---       #104
      01003083H   LINE      CODE     ---       #105
      01003083H   LINE      CODE     ---       #106
      01003083H   LINE      CODE     ---       #107
      0100308DH   LINE      CODE     ---       #108
      0100308FH   LINE      CODE     ---       #109
      0100308FH   LINE      CODE     ---       #110
      0100308FH   LINE      CODE     ---       #111
      0100308FH   LINE      CODE     ---       #112
      01003099H   LINE      CODE     ---       #113
      01003099H   LINE      CODE     ---       #114
      01003099H   LINE      CODE     ---       #115
      01003099H   LINE      CODE     ---       #117
      010030A4H   LINE      CODE     ---       #119
      010030C8H   LINE      CODE     ---       #120
      010030DBH   LINE      CODE     ---       #121
      010030F1H   LINE      CODE     ---       #122
      01003107H   LINE      CODE     ---       #123
      0100311DH   LINE      CODE     ---       #124
      ---         BLOCKEND  ---      ---       LVL=0

      010033F2H   BLOCK     CODE     ---       LVL=0
      00000006H   SYMBOL    DATA     WORD      L_T
      010033F2H   BLOCK     CODE     NEAR LAB  LVL=1
      0200A484H   SYMBOL    XDATA    FLOAT     L_CM
      ---         BLOCKEND  ---      ---       LVL=1
      010033F2H   LINE      CODE     ---       #133
      010033F2H   LINE      CODE     ---       #134
      010033F2H   LINE      CODE     ---       #136
      0100340AH   LINE      CODE     ---       #137
      01003448H   LINE      CODE     ---       #138
      0100344EH   LINE      CODE     ---       #140
      01003456H   LINE      CODE     ---       #141
      01003456H   LINE      CODE     ---       #142
      0100345DH   LINE      CODE     ---       #143
      0100345DH   LINE      CODE     ---       #144
      0100345DH   LINE      CODE     ---       #145
      0100345DH   LINE      CODE     ---       #146
      01003479H   LINE      CODE     ---       #147
      0100347BH   LINE      CODE     ---       #148
      0100347BH   LINE      CODE     ---       #150
      0100347BH   LINE      CODE     ---       #155
      0100347BH   LINE      CODE     ---       #156
      0100347BH   LINE      CODE     ---       #157
      0100347BH   LINE      CODE     ---       #161
      0100347BH   LINE      CODE     ---       #163
LX51 LINKER/LOCATER V4.66.93.0                                                        05/08/2025  10:05:08  PAGE 85


      01003482H   LINE      CODE     ---       #164
      01003482H   LINE      CODE     ---       #165
      01003482H   LINE      CODE     ---       #166
      01003482H   LINE      CODE     ---       #168
      010034CAH   LINE      CODE     ---       #169
      010034CAH   LINE      CODE     ---       #170
      010034CAH   LINE      CODE     ---       #172
      010034CAH   LINE      CODE     ---       #173
      010034CAH   LINE      CODE     ---       #174
      010034D0H   LINE      CODE     ---       #176
      010034D0H   LINE      CODE     ---       #177
      010034D0H   LINE      CODE     ---       #178
      010034D0H   LINE      CODE     ---       #183
      010034D0H   LINE      CODE     ---       #186
      ---         BLOCKEND  ---      ---       LVL=0

      010000F7H   BLOCK     CODE     ---       LVL=0
      010000F7H   LINE      CODE     ---       #192
      010000F7H   LINE      CODE     ---       #193
      010000F7H   LINE      CODE     ---       #195
      ---         BLOCKEND  ---      ---       LVL=0

      01003DD5H   BLOCK     CODE     ---       LVL=0
      01003DD5H   LINE      CODE     ---       #201
      01003DD5H   LINE      CODE     ---       #202
      01003DD5H   LINE      CODE     ---       #204
      01003DE1H   LINE      CODE     ---       #205
      01003DE1H   LINE      CODE     ---       #206
      01003DE3H   LINE      CODE     ---       #207
      01003DE9H   LINE      CODE     ---       #208
      01003DE9H   LINE      CODE     ---       #214
      01003E0EH   LINE      CODE     ---       #215
      01003E0EH   LINE      CODE     ---       #216
      01003E0EH   LINE      CODE     ---       #217
      01003E0EH   LINE      CODE     ---       #218
      01003E14H   LINE      CODE     ---       #220
      01003E14H   LINE      CODE     ---       #222
      01003E14H   LINE      CODE     ---       #223
      01003E14H   LINE      CODE     ---       #224
      01003E1AH   LINE      CODE     ---       #225
      01003E1DH   LINE      CODE     ---       #228
      01003E1DH   LINE      CODE     ---       #230
      01003E1DH   LINE      CODE     ---       #231
      01003E1DH   LINE      CODE     ---       #232
      01003E20H   LINE      CODE     ---       #233
      01003E20H   LINE      CODE     ---       #234
      01003E20H   LINE      CODE     ---       #236
      01003E20H   LINE      CODE     ---       #237
      01003E20H   LINE      CODE     ---       #238
      01003E22H   LINE      CODE     ---       #239
      01003E25H   LINE      CODE     ---       #240
      01003E25H   LINE      CODE     ---       #241
      01003E25H   LINE      CODE     ---       #243
      01003E25H   LINE      CODE     ---       #244
      01003E25H   LINE      CODE     ---       #245
      01003E27H   LINE      CODE     ---       #246
      01003E2AH   LINE      CODE     ---       #247
      01003E2AH   LINE      CODE     ---       #248
      01003E2AH   LINE      CODE     ---       #250
      01003E2AH   LINE      CODE     ---       #251
      01003E2AH   LINE      CODE     ---       #252
      01003E2CH   LINE      CODE     ---       #253
      01003E2FH   LINE      CODE     ---       #254
      01003E2FH   LINE      CODE     ---       #255
      01003E2FH   LINE      CODE     ---       #256
LX51 LINKER/LOCATER V4.66.93.0                                                        05/08/2025  10:05:08  PAGE 86


      01003E2FH   LINE      CODE     ---       #257
      01003E2FH   LINE      CODE     ---       #258
      01003E31H   LINE      CODE     ---       #259
      01003E34H   LINE      CODE     ---       #260
      01003E37H   LINE      CODE     ---       #261
      01003E3DH   LINE      CODE     ---       #262
      01003E3DH   LINE      CODE     ---       #263
      01003E3DH   LINE      CODE     ---       #265
      01003E3DH   LINE      CODE     ---       #266
      01003E3DH   LINE      CODE     ---       #267
      01003E3DH   LINE      CODE     ---       #268
      01003E3DH   LINE      CODE     ---       #270
      01003E3DH   LINE      CODE     ---       #273
      ---         BLOCKEND  ---      ---       LVL=0

      ---         MODULE    ---      ---       ZX
      00000098H.3 SFRSYM    DATA     BIT       TB80
      000000F1H   SFRSYM    DATA     BYTE      ADR_H
      00000080H   SFRSYM    DATA     BYTE      P0
      00000090H   SFRSYM    DATA     BYTE      P1
      000000A0H   SFRSYM    DATA     BYTE      P2
      000000B0H   SFRSYM    DATA     BYTE      P3
      000000D0H.6 SFRSYM    DATA     BIT       AC
      000000F3H   SFRSYM    DATA     BYTE      ADR_L
      00000094H   SFRSYM    DATA     BYTE      PAGESEL
      000000F2H   SFRSYM    DATA     BYTE      ADR_M
      000000A8H.7 SFRSYM    DATA     BIT       EA
      000000A0H.5 SFRSYM    DATA     BIT       JIGUANG
      00000090H.7 SFRSYM    DATA     BIT       LED_R
      000000F8H   SFRSYM    DATA     BYTE      RAMMODE
      000000B7H   SFRSYM    DATA     BYTE      P0MDOUT
      000000A8H   SFRSYM    DATA     BYTE      IEN0
      000000BCH   SFRSYM    DATA     BYTE      P1MDOUT
      000000B8H   SFRSYM    DATA     BYTE      IEN1
      000000BDH   SFRSYM    DATA     BYTE      P2MDOUT
      000000F8H.0 SFRSYM    DATA     BIT       APP_DATA0
      0000009AH   SFRSYM    DATA     BYTE      IEN2
      000000BEH   SFRSYM    DATA     BYTE      P3MDOUT
      000000F8H.1 SFRSYM    DATA     BIT       APP_DATA1
      000000D1H   SFRSYM    DATA     BYTE      IEN3
      00000080H.0 SFRSYM    DATA     BIT       P0_0
      000000F8H.2 SFRSYM    DATA     BIT       APP_DATA2
      00000090H.0 SFRSYM    DATA     BIT       P1_0
      000000F8H.3 SFRSYM    DATA     BIT       APP_DATA3
      00000090H.1 SFRSYM    DATA     BIT       P1_1
      000000F8H.4 SFRSYM    DATA     BIT       APP_ACK
      000000F4H   SFRSYM    DATA     BYTE      ADR_INC
      000000B0H.1 SFRSYM    DATA     BIT       P3_1
      00000098H.4 SFRSYM    DATA     BIT       REN0
      000000B8H.1 SFRSYM    DATA     BIT       ECAN
      000000D0H.7 SFRSYM    DATA     BIT       CY
      000000B8H.3 SFRSYM    DATA     BIT       ES2R
      000000B8H.5 SFRSYM    DATA     BIT       ES3R
      000000B8H.2 SFRSYM    DATA     BIT       ES2T
      000000B8H.4 SFRSYM    DATA     BIT       ES3T
      000000C8H.7 SFRSYM    DATA     BIT       TSF2
      000000B0H.3 SFRSYM    DATA     BIT       RTC_SDA
      00000081H   SFRSYM    DATA     BYTE      SP
      000000D0H.2 SFRSYM    DATA     BIT       OV
      00000095H   SFRSYM    DATA     BYTE      D_PAGESEL
      00000090H.5 SFRSYM    DATA     BIT       UV
      000000F8H.7 SFRSYM    DATA     BIT       APP_REQ
      000000B0H.2 SFRSYM    DATA     BIT       RTC_SCL
      000000BFH   SFRSYM    DATA     BYTE      IRCON2
      000000BAH   SFRSYM    DATA     BYTE      SREL0H
LX51 LINKER/LOCATER V4.66.93.0                                                        05/08/2025  10:05:08  PAGE 87


      000000BBH   SFRSYM    DATA     BYTE      SREL1H
      00000087H   SFRSYM    DATA     BYTE      PCON
      000000AAH   SFRSYM    DATA     BYTE      SREL0L
      000000F9H   SFRSYM    DATA     BYTE      PORTDRV
      0000009DH   SFRSYM    DATA     BYTE      SREL1L
      00000089H   SFRSYM    DATA     BYTE      TMOD
      00000088H   SFRSYM    DATA     BYTE      TCON
      00000097H   SFRSYM    DATA     BYTE      SCON2R
      000000FFH   SFRSYM    DATA     BYTE      EXDATA
      000000ABH   SFRSYM    DATA     BYTE      SCON3R
      000000D9H   SFRSYM    DATA     BYTE      BODE2_DIV_H
      000000AEH   SFRSYM    DATA     BYTE      BODE3_DIV_H
      00000096H   SFRSYM    DATA     BYTE      SCON2T
      000000A7H   SFRSYM    DATA     BYTE      SCON3T
      000000E7H   SFRSYM    DATA     BYTE      BODE2_DIV_L
      00000088H.1 SFRSYM    DATA     BIT       IE0
      000000AFH   SFRSYM    DATA     BYTE      BODE3_DIV_L
      00000088H.3 SFRSYM    DATA     BIT       IE1
      000000C9H   SFRSYM    DATA     BYTE      MUX_SEL
      000000F0H   SFRSYM    DATA     BYTE      B
      000000E0H   SFRSYM    DATA     BYTE      ACC
      000000A8H.4 SFRSYM    DATA     BIT       ES0
      0000008FH   SFRSYM    DATA     BYTE      CAN_CR
      000000A8H.1 SFRSYM    DATA     BIT       ET0
      000000A9H   SFRSYM    DATA     BYTE      IP0
      000000A8H.3 SFRSYM    DATA     BIT       ET1
      00000088H.5 SFRSYM    DATA     BIT       TF0
      000000B9H   SFRSYM    DATA     BYTE      IP1
      000000A8H.5 SFRSYM    DATA     BIT       ET2
      00000098H.0 SFRSYM    DATA     BIT       RI0
      00000088H.7 SFRSYM    DATA     BIT       TF1
      000000FDH   SFRSYM    DATA     BYTE      DATA0
      000000C0H.6 SFRSYM    DATA     BIT       TF2
      000000E8H   SFRSYM    DATA     BYTE      CAN_ET
      000000FCH   SFRSYM    DATA     BYTE      DATA1
      0000008CH   SFRSYM    DATA     BYTE      TH0
      000000A8H.0 SFRSYM    DATA     BIT       EX0
      00000098H.1 SFRSYM    DATA     BIT       TI0
      00000088H.0 SFRSYM    DATA     BIT       IT0
      000000FBH   SFRSYM    DATA     BYTE      DATA2
      0000008DH   SFRSYM    DATA     BYTE      TH1
      000000A8H.2 SFRSYM    DATA     BIT       EX1
      00000091H   SFRSYM    DATA     BYTE      CAN_IR
      000000CDH   SFRSYM    DATA     BYTE      TH2
      00000088H.2 SFRSYM    DATA     BIT       IT1
      000000FAH   SFRSYM    DATA     BYTE      DATA3
      000000D0H.0 SFRSYM    DATA     BIT       P
      00000098H.7 SFRSYM    DATA     BIT       SM0
      0000008AH   SFRSYM    DATA     BYTE      TL0
      00000098H.6 SFRSYM    DATA     BIT       SM1
      0000008BH   SFRSYM    DATA     BYTE      TL1
      00000098H.5 SFRSYM    DATA     BIT       SM2
      000000CCH   SFRSYM    DATA     BYTE      TL2
      000000A0H.7 SFRSYM    DATA     BIT       UV_St
      000000D0H.3 SFRSYM    DATA     BIT       RS0
      000000F8H.6 SFRSYM    DATA     BIT       APP_EN
      000000D0H.4 SFRSYM    DATA     BIT       RS1
      00000088H.4 SFRSYM    DATA     BIT       TR0
      00000088H.6 SFRSYM    DATA     BIT       TR1
      00000093H   SFRSYM    DATA     BYTE      DPC
      000000C8H.0 SFRSYM    DATA     BIT       TR2
      000000E5H   SFRSYM    DATA     BYTE      MAC_MODE
      00000083H   SFRSYM    DATA     BYTE      DPH
      00000082H   SFRSYM    DATA     BYTE      DPL
      00000099H   SFRSYM    DATA     BYTE      SBUF0
LX51 LINKER/LOCATER V4.66.93.0                                                        05/08/2025  10:05:08  PAGE 88


      0000009CH   SFRSYM    DATA     BYTE      SBUF1
      00000098H   SFRSYM    DATA     BYTE      SCON0
      0000009BH   SFRSYM    DATA     BYTE      SCON1
      000000D8H   SFRSYM    DATA     BYTE      ADCON
      000000C8H   SFRSYM    DATA     BYTE      T2CON
      000000E6H   SFRSYM    DATA     BYTE      DIV_MODE
      000000F8H.5 SFRSYM    DATA     BIT       APP_RW
      000000CBH   SFRSYM    DATA     BYTE      TRL2H
      0000009FH   SFRSYM    DATA     BYTE      SBUF2_RX
      000000ADH   SFRSYM    DATA     BYTE      SBUF3_RX
      0000008EH   SFRSYM    DATA     BYTE      CKCON
      0000009EH   SFRSYM    DATA     BYTE      SBUF2_TX
      000000ACH   SFRSYM    DATA     BYTE      SBUF3_TX
      000000CAH   SFRSYM    DATA     BYTE      TRL2L
      000000D0H.5 SFRSYM    DATA     BIT       F0
      000000FEH   SFRSYM    DATA     BYTE      EXADR
      000000D0H.1 SFRSYM    DATA     BIT       F1
      000000A0H.3 SFRSYM    DATA     BIT       LED_B
      000000D0H   SFRSYM    DATA     BYTE      PSW
      000000A0H.1 SFRSYM    DATA     BIT       LED_G
      000000C0H   SFRSYM    DATA     BYTE      IRCON
      00000098H.2 SFRSYM    DATA     BIT       RB80

      ---         MODULE    ---      ---       QY
      00000098H.3 SFRSYM    DATA     BIT       TB80
      000000F1H   SFRSYM    DATA     BYTE      ADR_H
      00000080H   SFRSYM    DATA     BYTE      P0
      00000090H   SFRSYM    DATA     BYTE      P1
      000000A0H   SFRSYM    DATA     BYTE      P2
      000000B0H   SFRSYM    DATA     BYTE      P3
      000000D0H.6 SFRSYM    DATA     BIT       AC
      000000F3H   SFRSYM    DATA     BYTE      ADR_L
      00000094H   SFRSYM    DATA     BYTE      PAGESEL
      000000F2H   SFRSYM    DATA     BYTE      ADR_M
      000000A8H.7 SFRSYM    DATA     BIT       EA
      000000A0H.5 SFRSYM    DATA     BIT       JIGUANG
      00000090H.7 SFRSYM    DATA     BIT       LED_R
      000000F8H   SFRSYM    DATA     BYTE      RAMMODE
      000000B7H   SFRSYM    DATA     BYTE      P0MDOUT
      000000A8H   SFRSYM    DATA     BYTE      IEN0
      000000BCH   SFRSYM    DATA     BYTE      P1MDOUT
      000000B8H   SFRSYM    DATA     BYTE      IEN1
      000000BDH   SFRSYM    DATA     BYTE      P2MDOUT
      000000F8H.0 SFRSYM    DATA     BIT       APP_DATA0
      0000009AH   SFRSYM    DATA     BYTE      IEN2
      000000BEH   SFRSYM    DATA     BYTE      P3MDOUT
      000000F8H.1 SFRSYM    DATA     BIT       APP_DATA1
      000000D1H   SFRSYM    DATA     BYTE      IEN3
      00000080H.0 SFRSYM    DATA     BIT       P0_0
      000000F8H.2 SFRSYM    DATA     BIT       APP_DATA2
      00000090H.0 SFRSYM    DATA     BIT       P1_0
      000000F8H.3 SFRSYM    DATA     BIT       APP_DATA3
      00000090H.1 SFRSYM    DATA     BIT       P1_1
      000000F8H.4 SFRSYM    DATA     BIT       APP_ACK
      000000F4H   SFRSYM    DATA     BYTE      ADR_INC
      000000B0H.1 SFRSYM    DATA     BIT       P3_1
      00000098H.4 SFRSYM    DATA     BIT       REN0
      000000B8H.1 SFRSYM    DATA     BIT       ECAN
      000000D0H.7 SFRSYM    DATA     BIT       CY
      000000B8H.3 SFRSYM    DATA     BIT       ES2R
      000000B8H.5 SFRSYM    DATA     BIT       ES3R
      000000B8H.2 SFRSYM    DATA     BIT       ES2T
      000000B8H.4 SFRSYM    DATA     BIT       ES3T
      000000C8H.7 SFRSYM    DATA     BIT       TSF2
      000000B0H.3 SFRSYM    DATA     BIT       RTC_SDA
LX51 LINKER/LOCATER V4.66.93.0                                                        05/08/2025  10:05:08  PAGE 89


      00000081H   SFRSYM    DATA     BYTE      SP
      000000D0H.2 SFRSYM    DATA     BIT       OV
      00000095H   SFRSYM    DATA     BYTE      D_PAGESEL
      00000090H.5 SFRSYM    DATA     BIT       UV
      000000F8H.7 SFRSYM    DATA     BIT       APP_REQ
      000000B0H.2 SFRSYM    DATA     BIT       RTC_SCL
      000000BFH   SFRSYM    DATA     BYTE      IRCON2
      000000BAH   SFRSYM    DATA     BYTE      SREL0H
      000000BBH   SFRSYM    DATA     BYTE      SREL1H
      00000087H   SFRSYM    DATA     BYTE      PCON
      000000AAH   SFRSYM    DATA     BYTE      SREL0L
      000000F9H   SFRSYM    DATA     BYTE      PORTDRV
      0000009DH   SFRSYM    DATA     BYTE      SREL1L
      00000089H   SFRSYM    DATA     BYTE      TMOD
      00000088H   SFRSYM    DATA     BYTE      TCON
      00000097H   SFRSYM    DATA     BYTE      SCON2R
      000000FFH   SFRSYM    DATA     BYTE      EXDATA
      000000ABH   SFRSYM    DATA     BYTE      SCON3R
      000000D9H   SFRSYM    DATA     BYTE      BODE2_DIV_H
      000000AEH   SFRSYM    DATA     BYTE      BODE3_DIV_H
      00000096H   SFRSYM    DATA     BYTE      SCON2T
      000000A7H   SFRSYM    DATA     BYTE      SCON3T
      000000E7H   SFRSYM    DATA     BYTE      BODE2_DIV_L
      00000088H.1 SFRSYM    DATA     BIT       IE0
      000000AFH   SFRSYM    DATA     BYTE      BODE3_DIV_L
      00000088H.3 SFRSYM    DATA     BIT       IE1
      000000C9H   SFRSYM    DATA     BYTE      MUX_SEL
      000000F0H   SFRSYM    DATA     BYTE      B
      000000E0H   SFRSYM    DATA     BYTE      ACC
      000000A8H.4 SFRSYM    DATA     BIT       ES0
      0000008FH   SFRSYM    DATA     BYTE      CAN_CR
      000000A8H.1 SFRSYM    DATA     BIT       ET0
      000000A9H   SFRSYM    DATA     BYTE      IP0
      000000A8H.3 SFRSYM    DATA     BIT       ET1
      00000088H.5 SFRSYM    DATA     BIT       TF0
      000000B9H   SFRSYM    DATA     BYTE      IP1
      000000A8H.5 SFRSYM    DATA     BIT       ET2
      00000098H.0 SFRSYM    DATA     BIT       RI0
      00000088H.7 SFRSYM    DATA     BIT       TF1
      000000FDH   SFRSYM    DATA     BYTE      DATA0
      000000C0H.6 SFRSYM    DATA     BIT       TF2
      000000E8H   SFRSYM    DATA     BYTE      CAN_ET
      000000FCH   SFRSYM    DATA     BYTE      DATA1
      0000008CH   SFRSYM    DATA     BYTE      TH0
      000000A8H.0 SFRSYM    DATA     BIT       EX0
      00000098H.1 SFRSYM    DATA     BIT       TI0
      00000088H.0 SFRSYM    DATA     BIT       IT0
      000000FBH   SFRSYM    DATA     BYTE      DATA2
      0000008DH   SFRSYM    DATA     BYTE      TH1
      000000A8H.2 SFRSYM    DATA     BIT       EX1
      00000091H   SFRSYM    DATA     BYTE      CAN_IR
      000000CDH   SFRSYM    DATA     BYTE      TH2
      00000088H.2 SFRSYM    DATA     BIT       IT1
      000000FAH   SFRSYM    DATA     BYTE      DATA3
      000000D0H.0 SFRSYM    DATA     BIT       P
      00000098H.7 SFRSYM    DATA     BIT       SM0
      0000008AH   SFRSYM    DATA     BYTE      TL0
      00000098H.6 SFRSYM    DATA     BIT       SM1
      0000008BH   SFRSYM    DATA     BYTE      TL1
      00000098H.5 SFRSYM    DATA     BIT       SM2
      000000CCH   SFRSYM    DATA     BYTE      TL2
      000000A0H.7 SFRSYM    DATA     BIT       UV_St
      000000D0H.3 SFRSYM    DATA     BIT       RS0
      000000F8H.6 SFRSYM    DATA     BIT       APP_EN
      000000D0H.4 SFRSYM    DATA     BIT       RS1
LX51 LINKER/LOCATER V4.66.93.0                                                        05/08/2025  10:05:08  PAGE 90


      00000088H.4 SFRSYM    DATA     BIT       TR0
      00000088H.6 SFRSYM    DATA     BIT       TR1
      00000093H   SFRSYM    DATA     BYTE      DPC
      000000C8H.0 SFRSYM    DATA     BIT       TR2
      000000E5H   SFRSYM    DATA     BYTE      MAC_MODE
      00000083H   SFRSYM    DATA     BYTE      DPH
      00000082H   SFRSYM    DATA     BYTE      DPL
      00000099H   SFRSYM    DATA     BYTE      SBUF0
      0000009CH   SFRSYM    DATA     BYTE      SBUF1
      00000098H   SFRSYM    DATA     BYTE      SCON0
      0000009BH   SFRSYM    DATA     BYTE      SCON1
      000000D8H   SFRSYM    DATA     BYTE      ADCON
      000000C8H   SFRSYM    DATA     BYTE      T2CON
      000000E6H   SFRSYM    DATA     BYTE      DIV_MODE
      000000F8H.5 SFRSYM    DATA     BIT       APP_RW
      000000CBH   SFRSYM    DATA     BYTE      TRL2H
      0000009FH   SFRSYM    DATA     BYTE      SBUF2_RX
      000000ADH   SFRSYM    DATA     BYTE      SBUF3_RX
      0000008EH   SFRSYM    DATA     BYTE      CKCON
      0000009EH   SFRSYM    DATA     BYTE      SBUF2_TX
      000000ACH   SFRSYM    DATA     BYTE      SBUF3_TX
      000000CAH   SFRSYM    DATA     BYTE      TRL2L
      000000D0H.5 SFRSYM    DATA     BIT       F0
      000000FEH   SFRSYM    DATA     BYTE      EXADR
      000000D0H.1 SFRSYM    DATA     BIT       F1
      000000A0H.3 SFRSYM    DATA     BIT       LED_B
      000000D0H   SFRSYM    DATA     BYTE      PSW
      000000A0H.1 SFRSYM    DATA     BIT       LED_G
      000000C0H   SFRSYM    DATA     BYTE      IRCON
      00000098H.2 SFRSYM    DATA     BIT       RB80

      ---         MODULE    ---      ---       CXH
      00000098H.3 SFRSYM    DATA     BIT       TB80
      000000F1H   SFRSYM    DATA     BYTE      ADR_H
      00000080H   SFRSYM    DATA     BYTE      P0
      00000090H   SFRSYM    DATA     BYTE      P1
      000000A0H   SFRSYM    DATA     BYTE      P2
      000000B0H   SFRSYM    DATA     BYTE      P3
      000000D0H.6 SFRSYM    DATA     BIT       AC
      000000F3H   SFRSYM    DATA     BYTE      ADR_L
      00000094H   SFRSYM    DATA     BYTE      PAGESEL
      000000F2H   SFRSYM    DATA     BYTE      ADR_M
      000000A8H.7 SFRSYM    DATA     BIT       EA
      000000A0H.5 SFRSYM    DATA     BIT       JIGUANG
      00000090H.7 SFRSYM    DATA     BIT       LED_R
      000000F8H   SFRSYM    DATA     BYTE      RAMMODE
      000000B7H   SFRSYM    DATA     BYTE      P0MDOUT
      000000A8H   SFRSYM    DATA     BYTE      IEN0
      000000BCH   SFRSYM    DATA     BYTE      P1MDOUT
      000000B8H   SFRSYM    DATA     BYTE      IEN1
      000000BDH   SFRSYM    DATA     BYTE      P2MDOUT
      000000F8H.0 SFRSYM    DATA     BIT       APP_DATA0
      0000009AH   SFRSYM    DATA     BYTE      IEN2
      000000BEH   SFRSYM    DATA     BYTE      P3MDOUT
      000000F8H.1 SFRSYM    DATA     BIT       APP_DATA1
      000000D1H   SFRSYM    DATA     BYTE      IEN3
      00000080H.0 SFRSYM    DATA     BIT       P0_0
      000000F8H.2 SFRSYM    DATA     BIT       APP_DATA2
      00000090H.0 SFRSYM    DATA     BIT       P1_0
      000000F8H.3 SFRSYM    DATA     BIT       APP_DATA3
      00000090H.1 SFRSYM    DATA     BIT       P1_1
      000000F8H.4 SFRSYM    DATA     BIT       APP_ACK
      000000F4H   SFRSYM    DATA     BYTE      ADR_INC
      000000B0H.1 SFRSYM    DATA     BIT       P3_1
      00000098H.4 SFRSYM    DATA     BIT       REN0
LX51 LINKER/LOCATER V4.66.93.0                                                        05/08/2025  10:05:08  PAGE 91


      000000B8H.1 SFRSYM    DATA     BIT       ECAN
      000000D0H.7 SFRSYM    DATA     BIT       CY
      000000B8H.3 SFRSYM    DATA     BIT       ES2R
      000000B8H.5 SFRSYM    DATA     BIT       ES3R
      000000B8H.2 SFRSYM    DATA     BIT       ES2T
      000000B8H.4 SFRSYM    DATA     BIT       ES3T
      000000C8H.7 SFRSYM    DATA     BIT       TSF2
      000000B0H.3 SFRSYM    DATA     BIT       RTC_SDA
      00000081H   SFRSYM    DATA     BYTE      SP
      000000D0H.2 SFRSYM    DATA     BIT       OV
      00000095H   SFRSYM    DATA     BYTE      D_PAGESEL
      00000090H.5 SFRSYM    DATA     BIT       UV
      000000F8H.7 SFRSYM    DATA     BIT       APP_REQ
      000000B0H.2 SFRSYM    DATA     BIT       RTC_SCL
      000000BFH   SFRSYM    DATA     BYTE      IRCON2
      000000BAH   SFRSYM    DATA     BYTE      SREL0H
      000000BBH   SFRSYM    DATA     BYTE      SREL1H
      00000087H   SFRSYM    DATA     BYTE      PCON
      000000AAH   SFRSYM    DATA     BYTE      SREL0L
      000000F9H   SFRSYM    DATA     BYTE      PORTDRV
      0000009DH   SFRSYM    DATA     BYTE      SREL1L
      00000089H   SFRSYM    DATA     BYTE      TMOD
      00000088H   SFRSYM    DATA     BYTE      TCON
      00000097H   SFRSYM    DATA     BYTE      SCON2R
      000000FFH   SFRSYM    DATA     BYTE      EXDATA
      000000ABH   SFRSYM    DATA     BYTE      SCON3R
      000000D9H   SFRSYM    DATA     BYTE      BODE2_DIV_H
      000000AEH   SFRSYM    DATA     BYTE      BODE3_DIV_H
      00000096H   SFRSYM    DATA     BYTE      SCON2T
      000000A7H   SFRSYM    DATA     BYTE      SCON3T
      000000E7H   SFRSYM    DATA     BYTE      BODE2_DIV_L
      00000088H.1 SFRSYM    DATA     BIT       IE0
      000000AFH   SFRSYM    DATA     BYTE      BODE3_DIV_L
      00000088H.3 SFRSYM    DATA     BIT       IE1
      000000C9H   SFRSYM    DATA     BYTE      MUX_SEL
      000000F0H   SFRSYM    DATA     BYTE      B
      000000E0H   SFRSYM    DATA     BYTE      ACC
      000000A8H.4 SFRSYM    DATA     BIT       ES0
      0000008FH   SFRSYM    DATA     BYTE      CAN_CR
      000000A8H.1 SFRSYM    DATA     BIT       ET0
      000000A9H   SFRSYM    DATA     BYTE      IP0
      000000A8H.3 SFRSYM    DATA     BIT       ET1
      00000088H.5 SFRSYM    DATA     BIT       TF0
      000000B9H   SFRSYM    DATA     BYTE      IP1
      000000A8H.5 SFRSYM    DATA     BIT       ET2
      00000098H.0 SFRSYM    DATA     BIT       RI0
      00000088H.7 SFRSYM    DATA     BIT       TF1
      000000FDH   SFRSYM    DATA     BYTE      DATA0
      000000C0H.6 SFRSYM    DATA     BIT       TF2
      000000E8H   SFRSYM    DATA     BYTE      CAN_ET
      000000FCH   SFRSYM    DATA     BYTE      DATA1
      0000008CH   SFRSYM    DATA     BYTE      TH0
      000000A8H.0 SFRSYM    DATA     BIT       EX0
      00000098H.1 SFRSYM    DATA     BIT       TI0
      00000088H.0 SFRSYM    DATA     BIT       IT0
      000000FBH   SFRSYM    DATA     BYTE      DATA2
      0000008DH   SFRSYM    DATA     BYTE      TH1
      000000A8H.2 SFRSYM    DATA     BIT       EX1
      00000091H   SFRSYM    DATA     BYTE      CAN_IR
      000000CDH   SFRSYM    DATA     BYTE      TH2
      00000088H.2 SFRSYM    DATA     BIT       IT1
      000000FAH   SFRSYM    DATA     BYTE      DATA3
      000000D0H.0 SFRSYM    DATA     BIT       P
      00000098H.7 SFRSYM    DATA     BIT       SM0
      0000008AH   SFRSYM    DATA     BYTE      TL0
LX51 LINKER/LOCATER V4.66.93.0                                                        05/08/2025  10:05:08  PAGE 92


      00000098H.6 SFRSYM    DATA     BIT       SM1
      0000008BH   SFRSYM    DATA     BYTE      TL1
      00000098H.5 SFRSYM    DATA     BIT       SM2
      000000CCH   SFRSYM    DATA     BYTE      TL2
      000000A0H.7 SFRSYM    DATA     BIT       UV_St
      000000D0H.3 SFRSYM    DATA     BIT       RS0
      000000F8H.6 SFRSYM    DATA     BIT       APP_EN
      000000D0H.4 SFRSYM    DATA     BIT       RS1
      00000088H.4 SFRSYM    DATA     BIT       TR0
      00000088H.6 SFRSYM    DATA     BIT       TR1
      00000093H   SFRSYM    DATA     BYTE      DPC
      000000C8H.0 SFRSYM    DATA     BIT       TR2
      000000E5H   SFRSYM    DATA     BYTE      MAC_MODE
      00000083H   SFRSYM    DATA     BYTE      DPH
      00000082H   SFRSYM    DATA     BYTE      DPL
      00000099H   SFRSYM    DATA     BYTE      SBUF0
      0000009CH   SFRSYM    DATA     BYTE      SBUF1
      00000098H   SFRSYM    DATA     BYTE      SCON0
      0000009BH   SFRSYM    DATA     BYTE      SCON1
      000000D8H   SFRSYM    DATA     BYTE      ADCON
      000000C8H   SFRSYM    DATA     BYTE      T2CON
      000000E6H   SFRSYM    DATA     BYTE      DIV_MODE
      000000F8H.5 SFRSYM    DATA     BIT       APP_RW
      000000CBH   SFRSYM    DATA     BYTE      TRL2H
      0000009FH   SFRSYM    DATA     BYTE      SBUF2_RX
      000000ADH   SFRSYM    DATA     BYTE      SBUF3_RX
      0000008EH   SFRSYM    DATA     BYTE      CKCON
      0000009EH   SFRSYM    DATA     BYTE      SBUF2_TX
      000000ACH   SFRSYM    DATA     BYTE      SBUF3_TX
      000000CAH   SFRSYM    DATA     BYTE      TRL2L
      000000D0H.5 SFRSYM    DATA     BIT       F0
      000000FEH   SFRSYM    DATA     BYTE      EXADR
      000000D0H.1 SFRSYM    DATA     BIT       F1
      000000A0H.3 SFRSYM    DATA     BIT       LED_B
      000000D0H   SFRSYM    DATA     BYTE      PSW
      000000A0H.1 SFRSYM    DATA     BIT       LED_G
      000000C0H   SFRSYM    DATA     BYTE      IRCON
      00000098H.2 SFRSYM    DATA     BIT       RB80

      ---         MODULE    ---      ---       ZL
      00000098H.3 SFRSYM    DATA     BIT       TB80
      000000F1H   SFRSYM    DATA     BYTE      ADR_H
      00000080H   SFRSYM    DATA     BYTE      P0
      00000090H   SFRSYM    DATA     BYTE      P1
      000000A0H   SFRSYM    DATA     BYTE      P2
      000000B0H   SFRSYM    DATA     BYTE      P3
      000000D0H.6 SFRSYM    DATA     BIT       AC
      000000F3H   SFRSYM    DATA     BYTE      ADR_L
      00000094H   SFRSYM    DATA     BYTE      PAGESEL
      000000F2H   SFRSYM    DATA     BYTE      ADR_M
      000000A8H.7 SFRSYM    DATA     BIT       EA
      000000A0H.5 SFRSYM    DATA     BIT       JIGUANG
      00000090H.7 SFRSYM    DATA     BIT       LED_R
      000000F8H   SFRSYM    DATA     BYTE      RAMMODE
      000000B7H   SFRSYM    DATA     BYTE      P0MDOUT
      000000A8H   SFRSYM    DATA     BYTE      IEN0
      000000BCH   SFRSYM    DATA     BYTE      P1MDOUT
      000000B8H   SFRSYM    DATA     BYTE      IEN1
      000000BDH   SFRSYM    DATA     BYTE      P2MDOUT
      000000F8H.0 SFRSYM    DATA     BIT       APP_DATA0
      0000009AH   SFRSYM    DATA     BYTE      IEN2
      000000BEH   SFRSYM    DATA     BYTE      P3MDOUT
      000000F8H.1 SFRSYM    DATA     BIT       APP_DATA1
      000000D1H   SFRSYM    DATA     BYTE      IEN3
      00000080H.0 SFRSYM    DATA     BIT       P0_0
LX51 LINKER/LOCATER V4.66.93.0                                                        05/08/2025  10:05:08  PAGE 93


      000000F8H.2 SFRSYM    DATA     BIT       APP_DATA2
      00000090H.0 SFRSYM    DATA     BIT       P1_0
      000000F8H.3 SFRSYM    DATA     BIT       APP_DATA3
      00000090H.1 SFRSYM    DATA     BIT       P1_1
      000000F8H.4 SFRSYM    DATA     BIT       APP_ACK
      000000F4H   SFRSYM    DATA     BYTE      ADR_INC
      000000B0H.1 SFRSYM    DATA     BIT       P3_1
      00000098H.4 SFRSYM    DATA     BIT       REN0
      000000B8H.1 SFRSYM    DATA     BIT       ECAN
      000000D0H.7 SFRSYM    DATA     BIT       CY
      000000B8H.3 SFRSYM    DATA     BIT       ES2R
      000000B8H.5 SFRSYM    DATA     BIT       ES3R
      000000B8H.2 SFRSYM    DATA     BIT       ES2T
      000000B8H.4 SFRSYM    DATA     BIT       ES3T
      000000C8H.7 SFRSYM    DATA     BIT       TSF2
      000000B0H.3 SFRSYM    DATA     BIT       RTC_SDA
      00000081H   SFRSYM    DATA     BYTE      SP
      000000D0H.2 SFRSYM    DATA     BIT       OV
      00000095H   SFRSYM    DATA     BYTE      D_PAGESEL
      00000090H.5 SFRSYM    DATA     BIT       UV
      000000F8H.7 SFRSYM    DATA     BIT       APP_REQ
      000000B0H.2 SFRSYM    DATA     BIT       RTC_SCL
      000000BFH   SFRSYM    DATA     BYTE      IRCON2
      000000BAH   SFRSYM    DATA     BYTE      SREL0H
      000000BBH   SFRSYM    DATA     BYTE      SREL1H
      00000087H   SFRSYM    DATA     BYTE      PCON
      000000AAH   SFRSYM    DATA     BYTE      SREL0L
      000000F9H   SFRSYM    DATA     BYTE      PORTDRV
      0000009DH   SFRSYM    DATA     BYTE      SREL1L
      00000089H   SFRSYM    DATA     BYTE      TMOD
      00000088H   SFRSYM    DATA     BYTE      TCON
      00000097H   SFRSYM    DATA     BYTE      SCON2R
      000000FFH   SFRSYM    DATA     BYTE      EXDATA
      000000ABH   SFRSYM    DATA     BYTE      SCON3R
      000000D9H   SFRSYM    DATA     BYTE      BODE2_DIV_H
      000000AEH   SFRSYM    DATA     BYTE      BODE3_DIV_H
      00000096H   SFRSYM    DATA     BYTE      SCON2T
      000000A7H   SFRSYM    DATA     BYTE      SCON3T
      000000E7H   SFRSYM    DATA     BYTE      BODE2_DIV_L
      00000088H.1 SFRSYM    DATA     BIT       IE0
      000000AFH   SFRSYM    DATA     BYTE      BODE3_DIV_L
      00000088H.3 SFRSYM    DATA     BIT       IE1
      000000C9H   SFRSYM    DATA     BYTE      MUX_SEL
      000000F0H   SFRSYM    DATA     BYTE      B
      000000E0H   SFRSYM    DATA     BYTE      ACC
      000000A8H.4 SFRSYM    DATA     BIT       ES0
      0000008FH   SFRSYM    DATA     BYTE      CAN_CR
      000000A8H.1 SFRSYM    DATA     BIT       ET0
      000000A9H   SFRSYM    DATA     BYTE      IP0
      000000A8H.3 SFRSYM    DATA     BIT       ET1
      00000088H.5 SFRSYM    DATA     BIT       TF0
      000000B9H   SFRSYM    DATA     BYTE      IP1
      000000A8H.5 SFRSYM    DATA     BIT       ET2
      00000098H.0 SFRSYM    DATA     BIT       RI0
      00000088H.7 SFRSYM    DATA     BIT       TF1
      000000FDH   SFRSYM    DATA     BYTE      DATA0
      000000C0H.6 SFRSYM    DATA     BIT       TF2
      000000E8H   SFRSYM    DATA     BYTE      CAN_ET
      000000FCH   SFRSYM    DATA     BYTE      DATA1
      0000008CH   SFRSYM    DATA     BYTE      TH0
      000000A8H.0 SFRSYM    DATA     BIT       EX0
      00000098H.1 SFRSYM    DATA     BIT       TI0
      00000088H.0 SFRSYM    DATA     BIT       IT0
      000000FBH   SFRSYM    DATA     BYTE      DATA2
      0000008DH   SFRSYM    DATA     BYTE      TH1
LX51 LINKER/LOCATER V4.66.93.0                                                        05/08/2025  10:05:08  PAGE 94


      000000A8H.2 SFRSYM    DATA     BIT       EX1
      00000091H   SFRSYM    DATA     BYTE      CAN_IR
      000000CDH   SFRSYM    DATA     BYTE      TH2
      00000088H.2 SFRSYM    DATA     BIT       IT1
      000000FAH   SFRSYM    DATA     BYTE      DATA3
      000000D0H.0 SFRSYM    DATA     BIT       P
      00000098H.7 SFRSYM    DATA     BIT       SM0
      0000008AH   SFRSYM    DATA     BYTE      TL0
      00000098H.6 SFRSYM    DATA     BIT       SM1
      0000008BH   SFRSYM    DATA     BYTE      TL1
      00000098H.5 SFRSYM    DATA     BIT       SM2
      000000CCH   SFRSYM    DATA     BYTE      TL2
      000000A0H.7 SFRSYM    DATA     BIT       UV_St
      000000D0H.3 SFRSYM    DATA     BIT       RS0
      000000F8H.6 SFRSYM    DATA     BIT       APP_EN
      000000D0H.4 SFRSYM    DATA     BIT       RS1
      00000088H.4 SFRSYM    DATA     BIT       TR0
      00000088H.6 SFRSYM    DATA     BIT       TR1
      00000093H   SFRSYM    DATA     BYTE      DPC
      000000C8H.0 SFRSYM    DATA     BIT       TR2
      000000E5H   SFRSYM    DATA     BYTE      MAC_MODE
      00000083H   SFRSYM    DATA     BYTE      DPH
      00000082H   SFRSYM    DATA     BYTE      DPL
      00000099H   SFRSYM    DATA     BYTE      SBUF0
      0000009CH   SFRSYM    DATA     BYTE      SBUF1
      00000098H   SFRSYM    DATA     BYTE      SCON0
      0000009BH   SFRSYM    DATA     BYTE      SCON1
      000000D8H   SFRSYM    DATA     BYTE      ADCON
      000000C8H   SFRSYM    DATA     BYTE      T2CON
      000000E6H   SFRSYM    DATA     BYTE      DIV_MODE
      000000F8H.5 SFRSYM    DATA     BIT       APP_RW
      000000CBH   SFRSYM    DATA     BYTE      TRL2H
      0000009FH   SFRSYM    DATA     BYTE      SBUF2_RX
      000000ADH   SFRSYM    DATA     BYTE      SBUF3_RX
      0000008EH   SFRSYM    DATA     BYTE      CKCON
      0000009EH   SFRSYM    DATA     BYTE      SBUF2_TX
      000000ACH   SFRSYM    DATA     BYTE      SBUF3_TX
      000000CAH   SFRSYM    DATA     BYTE      TRL2L
      000000D0H.5 SFRSYM    DATA     BIT       F0
      000000FEH   SFRSYM    DATA     BYTE      EXADR
      000000D0H.1 SFRSYM    DATA     BIT       F1
      000000A0H.3 SFRSYM    DATA     BIT       LED_B
      000000D0H   SFRSYM    DATA     BYTE      PSW
      000000A0H.1 SFRSYM    DATA     BIT       LED_G
      000000C0H   SFRSYM    DATA     BYTE      IRCON
      00000098H.2 SFRSYM    DATA     BIT       RB80

      ---         MODULE    ---      ---       SD
      00000098H.3 SFRSYM    DATA     BIT       TB80
      000000F1H   SFRSYM    DATA     BYTE      ADR_H
      00000080H   SFRSYM    DATA     BYTE      P0
      00000090H   SFRSYM    DATA     BYTE      P1
      000000A0H   SFRSYM    DATA     BYTE      P2
      000000B0H   SFRSYM    DATA     BYTE      P3
      000000D0H.6 SFRSYM    DATA     BIT       AC
      000000F3H   SFRSYM    DATA     BYTE      ADR_L
      00000094H   SFRSYM    DATA     BYTE      PAGESEL
      000000F2H   SFRSYM    DATA     BYTE      ADR_M
      000000A8H.7 SFRSYM    DATA     BIT       EA
      000000A0H.5 SFRSYM    DATA     BIT       JIGUANG
      00000090H.7 SFRSYM    DATA     BIT       LED_R
      000000F8H   SFRSYM    DATA     BYTE      RAMMODE
      000000B7H   SFRSYM    DATA     BYTE      P0MDOUT
      000000A8H   SFRSYM    DATA     BYTE      IEN0
      000000BCH   SFRSYM    DATA     BYTE      P1MDOUT
LX51 LINKER/LOCATER V4.66.93.0                                                        05/08/2025  10:05:08  PAGE 95


      000000B8H   SFRSYM    DATA     BYTE      IEN1
      000000BDH   SFRSYM    DATA     BYTE      P2MDOUT
      000000F8H.0 SFRSYM    DATA     BIT       APP_DATA0
      0000009AH   SFRSYM    DATA     BYTE      IEN2
      000000BEH   SFRSYM    DATA     BYTE      P3MDOUT
      000000F8H.1 SFRSYM    DATA     BIT       APP_DATA1
      000000D1H   SFRSYM    DATA     BYTE      IEN3
      00000080H.0 SFRSYM    DATA     BIT       P0_0
      000000F8H.2 SFRSYM    DATA     BIT       APP_DATA2
      00000090H.0 SFRSYM    DATA     BIT       P1_0
      000000F8H.3 SFRSYM    DATA     BIT       APP_DATA3
      00000090H.1 SFRSYM    DATA     BIT       P1_1
      000000F8H.4 SFRSYM    DATA     BIT       APP_ACK
      000000F4H   SFRSYM    DATA     BYTE      ADR_INC
      000000B0H.1 SFRSYM    DATA     BIT       P3_1
      00000098H.4 SFRSYM    DATA     BIT       REN0
      000000B8H.1 SFRSYM    DATA     BIT       ECAN
      000000D0H.7 SFRSYM    DATA     BIT       CY
      000000B8H.3 SFRSYM    DATA     BIT       ES2R
      000000B8H.5 SFRSYM    DATA     BIT       ES3R
      000000B8H.2 SFRSYM    DATA     BIT       ES2T
      000000B8H.4 SFRSYM    DATA     BIT       ES3T
      000000C8H.7 SFRSYM    DATA     BIT       TSF2
      000000B0H.3 SFRSYM    DATA     BIT       RTC_SDA
      00000081H   SFRSYM    DATA     BYTE      SP
      000000D0H.2 SFRSYM    DATA     BIT       OV
      00000095H   SFRSYM    DATA     BYTE      D_PAGESEL
      00000090H.5 SFRSYM    DATA     BIT       UV
      000000F8H.7 SFRSYM    DATA     BIT       APP_REQ
      000000B0H.2 SFRSYM    DATA     BIT       RTC_SCL
      000000BFH   SFRSYM    DATA     BYTE      IRCON2
      000000BAH   SFRSYM    DATA     BYTE      SREL0H
      000000BBH   SFRSYM    DATA     BYTE      SREL1H
      00000087H   SFRSYM    DATA     BYTE      PCON
      000000AAH   SFRSYM    DATA     BYTE      SREL0L
      000000F9H   SFRSYM    DATA     BYTE      PORTDRV
      0000009DH   SFRSYM    DATA     BYTE      SREL1L
      00000089H   SFRSYM    DATA     BYTE      TMOD
      00000088H   SFRSYM    DATA     BYTE      TCON
      00000097H   SFRSYM    DATA     BYTE      SCON2R
      000000FFH   SFRSYM    DATA     BYTE      EXDATA
      000000ABH   SFRSYM    DATA     BYTE      SCON3R
      000000D9H   SFRSYM    DATA     BYTE      BODE2_DIV_H
      000000AEH   SFRSYM    DATA     BYTE      BODE3_DIV_H
      00000096H   SFRSYM    DATA     BYTE      SCON2T
      000000A7H   SFRSYM    DATA     BYTE      SCON3T
      000000E7H   SFRSYM    DATA     BYTE      BODE2_DIV_L
      00000088H.1 SFRSYM    DATA     BIT       IE0
      000000AFH   SFRSYM    DATA     BYTE      BODE3_DIV_L
      00000088H.3 SFRSYM    DATA     BIT       IE1
      000000C9H   SFRSYM    DATA     BYTE      MUX_SEL
      000000F0H   SFRSYM    DATA     BYTE      B
      000000E0H   SFRSYM    DATA     BYTE      ACC
      000000A8H.4 SFRSYM    DATA     BIT       ES0
      0000008FH   SFRSYM    DATA     BYTE      CAN_CR
      000000A8H.1 SFRSYM    DATA     BIT       ET0
      000000A9H   SFRSYM    DATA     BYTE      IP0
      000000A8H.3 SFRSYM    DATA     BIT       ET1
      00000088H.5 SFRSYM    DATA     BIT       TF0
      000000B9H   SFRSYM    DATA     BYTE      IP1
      000000A8H.5 SFRSYM    DATA     BIT       ET2
      00000098H.0 SFRSYM    DATA     BIT       RI0
      00000088H.7 SFRSYM    DATA     BIT       TF1
      000000FDH   SFRSYM    DATA     BYTE      DATA0
      000000C0H.6 SFRSYM    DATA     BIT       TF2
LX51 LINKER/LOCATER V4.66.93.0                                                        05/08/2025  10:05:08  PAGE 96


      000000E8H   SFRSYM    DATA     BYTE      CAN_ET
      000000FCH   SFRSYM    DATA     BYTE      DATA1
      0000008CH   SFRSYM    DATA     BYTE      TH0
      000000A8H.0 SFRSYM    DATA     BIT       EX0
      00000098H.1 SFRSYM    DATA     BIT       TI0
      00000088H.0 SFRSYM    DATA     BIT       IT0
      000000FBH   SFRSYM    DATA     BYTE      DATA2
      0000008DH   SFRSYM    DATA     BYTE      TH1
      000000A8H.2 SFRSYM    DATA     BIT       EX1
      00000091H   SFRSYM    DATA     BYTE      CAN_IR
      000000CDH   SFRSYM    DATA     BYTE      TH2
      00000088H.2 SFRSYM    DATA     BIT       IT1
      000000FAH   SFRSYM    DATA     BYTE      DATA3
      000000D0H.0 SFRSYM    DATA     BIT       P
      00000098H.7 SFRSYM    DATA     BIT       SM0
      0000008AH   SFRSYM    DATA     BYTE      TL0
      00000098H.6 SFRSYM    DATA     BIT       SM1
      0000008BH   SFRSYM    DATA     BYTE      TL1
      00000098H.5 SFRSYM    DATA     BIT       SM2
      000000CCH   SFRSYM    DATA     BYTE      TL2
      000000A0H.7 SFRSYM    DATA     BIT       UV_St
      000000D0H.3 SFRSYM    DATA     BIT       RS0
      000000F8H.6 SFRSYM    DATA     BIT       APP_EN
      000000D0H.4 SFRSYM    DATA     BIT       RS1
      00000088H.4 SFRSYM    DATA     BIT       TR0
      00000088H.6 SFRSYM    DATA     BIT       TR1
      00000093H   SFRSYM    DATA     BYTE      DPC
      000000C8H.0 SFRSYM    DATA     BIT       TR2
      000000E5H   SFRSYM    DATA     BYTE      MAC_MODE
      00000083H   SFRSYM    DATA     BYTE      DPH
      00000082H   SFRSYM    DATA     BYTE      DPL
      00000099H   SFRSYM    DATA     BYTE      SBUF0
      0000009CH   SFRSYM    DATA     BYTE      SBUF1
      00000098H   SFRSYM    DATA     BYTE      SCON0
      0000009BH   SFRSYM    DATA     BYTE      SCON1
      000000D8H   SFRSYM    DATA     BYTE      ADCON
      000000C8H   SFRSYM    DATA     BYTE      T2CON
      000000E6H   SFRSYM    DATA     BYTE      DIV_MODE
      000000F8H.5 SFRSYM    DATA     BIT       APP_RW
      000000CBH   SFRSYM    DATA     BYTE      TRL2H
      0000009FH   SFRSYM    DATA     BYTE      SBUF2_RX
      000000ADH   SFRSYM    DATA     BYTE      SBUF3_RX
      0000008EH   SFRSYM    DATA     BYTE      CKCON
      0000009EH   SFRSYM    DATA     BYTE      SBUF2_TX
      000000ACH   SFRSYM    DATA     BYTE      SBUF3_TX
      000000CAH   SFRSYM    DATA     BYTE      TRL2L
      000000D0H.5 SFRSYM    DATA     BIT       F0
      000000FEH   SFRSYM    DATA     BYTE      EXADR
      000000D0H.1 SFRSYM    DATA     BIT       F1
      000000A0H.3 SFRSYM    DATA     BIT       LED_B
      000000D0H   SFRSYM    DATA     BYTE      PSW
      000000A0H.1 SFRSYM    DATA     BIT       LED_G
      000000C0H   SFRSYM    DATA     BYTE      IRCON
      00000098H.2 SFRSYM    DATA     BIT       RB80

      ---         MODULE    ---      ---       LJ
      00000098H.3 SFRSYM    DATA     BIT       TB80
      000000F1H   SFRSYM    DATA     BYTE      ADR_H
      00000080H   SFRSYM    DATA     BYTE      P0
      00000090H   SFRSYM    DATA     BYTE      P1
      000000A0H   SFRSYM    DATA     BYTE      P2
      000000B0H   SFRSYM    DATA     BYTE      P3
      000000D0H.6 SFRSYM    DATA     BIT       AC
      000000F3H   SFRSYM    DATA     BYTE      ADR_L
      00000094H   SFRSYM    DATA     BYTE      PAGESEL
LX51 LINKER/LOCATER V4.66.93.0                                                        05/08/2025  10:05:08  PAGE 97


      000000F2H   SFRSYM    DATA     BYTE      ADR_M
      000000A8H.7 SFRSYM    DATA     BIT       EA
      000000A0H.5 SFRSYM    DATA     BIT       JIGUANG
      00000090H.7 SFRSYM    DATA     BIT       LED_R
      000000F8H   SFRSYM    DATA     BYTE      RAMMODE
      000000B7H   SFRSYM    DATA     BYTE      P0MDOUT
      000000A8H   SFRSYM    DATA     BYTE      IEN0
      000000BCH   SFRSYM    DATA     BYTE      P1MDOUT
      000000B8H   SFRSYM    DATA     BYTE      IEN1
      000000BDH   SFRSYM    DATA     BYTE      P2MDOUT
      000000F8H.0 SFRSYM    DATA     BIT       APP_DATA0
      0000009AH   SFRSYM    DATA     BYTE      IEN2
      000000BEH   SFRSYM    DATA     BYTE      P3MDOUT
      000000F8H.1 SFRSYM    DATA     BIT       APP_DATA1
      000000D1H   SFRSYM    DATA     BYTE      IEN3
      00000080H.0 SFRSYM    DATA     BIT       P0_0
      000000F8H.2 SFRSYM    DATA     BIT       APP_DATA2
      00000090H.0 SFRSYM    DATA     BIT       P1_0
      000000F8H.3 SFRSYM    DATA     BIT       APP_DATA3
      00000090H.1 SFRSYM    DATA     BIT       P1_1
      000000F8H.4 SFRSYM    DATA     BIT       APP_ACK
      000000F4H   SFRSYM    DATA     BYTE      ADR_INC
      000000B0H.1 SFRSYM    DATA     BIT       P3_1
      00000098H.4 SFRSYM    DATA     BIT       REN0
      000000B8H.1 SFRSYM    DATA     BIT       ECAN
      000000D0H.7 SFRSYM    DATA     BIT       CY
      000000B8H.3 SFRSYM    DATA     BIT       ES2R
      000000B8H.5 SFRSYM    DATA     BIT       ES3R
      000000B8H.2 SFRSYM    DATA     BIT       ES2T
      000000B8H.4 SFRSYM    DATA     BIT       ES3T
      000000C8H.7 SFRSYM    DATA     BIT       TSF2
      000000B0H.3 SFRSYM    DATA     BIT       RTC_SDA
      00000081H   SFRSYM    DATA     BYTE      SP
      000000D0H.2 SFRSYM    DATA     BIT       OV
      00000095H   SFRSYM    DATA     BYTE      D_PAGESEL
      00000090H.5 SFRSYM    DATA     BIT       UV
      000000F8H.7 SFRSYM    DATA     BIT       APP_REQ
      000000B0H.2 SFRSYM    DATA     BIT       RTC_SCL
      000000BFH   SFRSYM    DATA     BYTE      IRCON2
      000000BAH   SFRSYM    DATA     BYTE      SREL0H
      000000BBH   SFRSYM    DATA     BYTE      SREL1H
      00000087H   SFRSYM    DATA     BYTE      PCON
      000000AAH   SFRSYM    DATA     BYTE      SREL0L
      000000F9H   SFRSYM    DATA     BYTE      PORTDRV
      0000009DH   SFRSYM    DATA     BYTE      SREL1L
      00000089H   SFRSYM    DATA     BYTE      TMOD
      00000088H   SFRSYM    DATA     BYTE      TCON
      00000097H   SFRSYM    DATA     BYTE      SCON2R
      000000FFH   SFRSYM    DATA     BYTE      EXDATA
      000000ABH   SFRSYM    DATA     BYTE      SCON3R
      000000D9H   SFRSYM    DATA     BYTE      BODE2_DIV_H
      000000AEH   SFRSYM    DATA     BYTE      BODE3_DIV_H
      00000096H   SFRSYM    DATA     BYTE      SCON2T
      000000A7H   SFRSYM    DATA     BYTE      SCON3T
      000000E7H   SFRSYM    DATA     BYTE      BODE2_DIV_L
      00000088H.1 SFRSYM    DATA     BIT       IE0
      000000AFH   SFRSYM    DATA     BYTE      BODE3_DIV_L
      00000088H.3 SFRSYM    DATA     BIT       IE1
      000000C9H   SFRSYM    DATA     BYTE      MUX_SEL
      000000F0H   SFRSYM    DATA     BYTE      B
      000000E0H   SFRSYM    DATA     BYTE      ACC
      000000A8H.4 SFRSYM    DATA     BIT       ES0
      0000008FH   SFRSYM    DATA     BYTE      CAN_CR
      000000A8H.1 SFRSYM    DATA     BIT       ET0
      000000A9H   SFRSYM    DATA     BYTE      IP0
LX51 LINKER/LOCATER V4.66.93.0                                                        05/08/2025  10:05:08  PAGE 98


      000000A8H.3 SFRSYM    DATA     BIT       ET1
      00000088H.5 SFRSYM    DATA     BIT       TF0
      000000B9H   SFRSYM    DATA     BYTE      IP1
      000000A8H.5 SFRSYM    DATA     BIT       ET2
      00000098H.0 SFRSYM    DATA     BIT       RI0
      00000088H.7 SFRSYM    DATA     BIT       TF1
      000000FDH   SFRSYM    DATA     BYTE      DATA0
      000000C0H.6 SFRSYM    DATA     BIT       TF2
      000000E8H   SFRSYM    DATA     BYTE      CAN_ET
      000000FCH   SFRSYM    DATA     BYTE      DATA1
      0000008CH   SFRSYM    DATA     BYTE      TH0
      000000A8H.0 SFRSYM    DATA     BIT       EX0
      00000098H.1 SFRSYM    DATA     BIT       TI0
      00000088H.0 SFRSYM    DATA     BIT       IT0
      000000FBH   SFRSYM    DATA     BYTE      DATA2
      0000008DH   SFRSYM    DATA     BYTE      TH1
      000000A8H.2 SFRSYM    DATA     BIT       EX1
      00000091H   SFRSYM    DATA     BYTE      CAN_IR
      000000CDH   SFRSYM    DATA     BYTE      TH2
      00000088H.2 SFRSYM    DATA     BIT       IT1
      000000FAH   SFRSYM    DATA     BYTE      DATA3
      000000D0H.0 SFRSYM    DATA     BIT       P
      00000098H.7 SFRSYM    DATA     BIT       SM0
      0000008AH   SFRSYM    DATA     BYTE      TL0
      00000098H.6 SFRSYM    DATA     BIT       SM1
      0000008BH   SFRSYM    DATA     BYTE      TL1
      00000098H.5 SFRSYM    DATA     BIT       SM2
      000000CCH   SFRSYM    DATA     BYTE      TL2
      000000A0H.7 SFRSYM    DATA     BIT       UV_St
      000000D0H.3 SFRSYM    DATA     BIT       RS0
      000000F8H.6 SFRSYM    DATA     BIT       APP_EN
      000000D0H.4 SFRSYM    DATA     BIT       RS1
      00000088H.4 SFRSYM    DATA     BIT       TR0
      00000088H.6 SFRSYM    DATA     BIT       TR1
      00000093H   SFRSYM    DATA     BYTE      DPC
      000000C8H.0 SFRSYM    DATA     BIT       TR2
      000000E5H   SFRSYM    DATA     BYTE      MAC_MODE
      00000083H   SFRSYM    DATA     BYTE      DPH
      00000082H   SFRSYM    DATA     BYTE      DPL
      00000099H   SFRSYM    DATA     BYTE      SBUF0
      0000009CH   SFRSYM    DATA     BYTE      SBUF1
      00000098H   SFRSYM    DATA     BYTE      SCON0
      0000009BH   SFRSYM    DATA     BYTE      SCON1
      000000D8H   SFRSYM    DATA     BYTE      ADCON
      000000C8H   SFRSYM    DATA     BYTE      T2CON
      000000E6H   SFRSYM    DATA     BYTE      DIV_MODE
      000000F8H.5 SFRSYM    DATA     BIT       APP_RW
      000000CBH   SFRSYM    DATA     BYTE      TRL2H
      0000009FH   SFRSYM    DATA     BYTE      SBUF2_RX
      000000ADH   SFRSYM    DATA     BYTE      SBUF3_RX
      0000008EH   SFRSYM    DATA     BYTE      CKCON
      0000009EH   SFRSYM    DATA     BYTE      SBUF2_TX
      000000ACH   SFRSYM    DATA     BYTE      SBUF3_TX
      000000CAH   SFRSYM    DATA     BYTE      TRL2L
      000000D0H.5 SFRSYM    DATA     BIT       F0
      000000FEH   SFRSYM    DATA     BYTE      EXADR
      000000D0H.1 SFRSYM    DATA     BIT       F1
      000000A0H.3 SFRSYM    DATA     BIT       LED_B
      000000D0H   SFRSYM    DATA     BYTE      PSW
      000000A0H.1 SFRSYM    DATA     BIT       LED_G
      000000C0H   SFRSYM    DATA     BYTE      IRCON
      00000098H.2 SFRSYM    DATA     BIT       RB80

      ---         MODULE    ---      ---       SZ
      01004389H   PUBLIC    CODE     ---       SZ_Home
LX51 LINKER/LOCATER V4.66.93.0                                                        05/08/2025  10:05:08  PAGE 99


      01004448H   PUBLIC    CODE     ---       SZ_prepare
      00000098H.3 SFRSYM    DATA     BIT       TB80
      000000F1H   SFRSYM    DATA     BYTE      ADR_H
      00000080H   SFRSYM    DATA     BYTE      P0
      00000090H   SFRSYM    DATA     BYTE      P1
      000000A0H   SFRSYM    DATA     BYTE      P2
      000000B0H   SFRSYM    DATA     BYTE      P3
      000000D0H.6 SFRSYM    DATA     BIT       AC
      000000F3H   SFRSYM    DATA     BYTE      ADR_L
      00000094H   SFRSYM    DATA     BYTE      PAGESEL
      000000F2H   SFRSYM    DATA     BYTE      ADR_M
      000000A8H.7 SFRSYM    DATA     BIT       EA
      000000A0H.5 SFRSYM    DATA     BIT       JIGUANG
      00000090H.7 SFRSYM    DATA     BIT       LED_R
      000000F8H   SFRSYM    DATA     BYTE      RAMMODE
      000000B7H   SFRSYM    DATA     BYTE      P0MDOUT
      000000A8H   SFRSYM    DATA     BYTE      IEN0
      000000BCH   SFRSYM    DATA     BYTE      P1MDOUT
      000000B8H   SFRSYM    DATA     BYTE      IEN1
      000000BDH   SFRSYM    DATA     BYTE      P2MDOUT
      000000F8H.0 SFRSYM    DATA     BIT       APP_DATA0
      0000009AH   SFRSYM    DATA     BYTE      IEN2
      000000BEH   SFRSYM    DATA     BYTE      P3MDOUT
      000000F8H.1 SFRSYM    DATA     BIT       APP_DATA1
      000000D1H   SFRSYM    DATA     BYTE      IEN3
      00000080H.0 SFRSYM    DATA     BIT       P0_0
      000000F8H.2 SFRSYM    DATA     BIT       APP_DATA2
      00000090H.0 SFRSYM    DATA     BIT       P1_0
      000000F8H.3 SFRSYM    DATA     BIT       APP_DATA3
      00000090H.1 SFRSYM    DATA     BIT       P1_1
      000000F8H.4 SFRSYM    DATA     BIT       APP_ACK
      000000F4H   SFRSYM    DATA     BYTE      ADR_INC
      000000B0H.1 SFRSYM    DATA     BIT       P3_1
      00000098H.4 SFRSYM    DATA     BIT       REN0
      000000B8H.1 SFRSYM    DATA     BIT       ECAN
      000000D0H.7 SFRSYM    DATA     BIT       CY
      000000B8H.3 SFRSYM    DATA     BIT       ES2R
      000000B8H.5 SFRSYM    DATA     BIT       ES3R
      000000B8H.2 SFRSYM    DATA     BIT       ES2T
      000000B8H.4 SFRSYM    DATA     BIT       ES3T
      000000C8H.7 SFRSYM    DATA     BIT       TSF2
      000000B0H.3 SFRSYM    DATA     BIT       RTC_SDA
      00000081H   SFRSYM    DATA     BYTE      SP
      000000D0H.2 SFRSYM    DATA     BIT       OV
      00000095H   SFRSYM    DATA     BYTE      D_PAGESEL
      00000090H.5 SFRSYM    DATA     BIT       UV
      000000F8H.7 SFRSYM    DATA     BIT       APP_REQ
      000000B0H.2 SFRSYM    DATA     BIT       RTC_SCL
      000000BFH   SFRSYM    DATA     BYTE      IRCON2
      000000BAH   SFRSYM    DATA     BYTE      SREL0H
      000000BBH   SFRSYM    DATA     BYTE      SREL1H
      00000087H   SFRSYM    DATA     BYTE      PCON
      000000AAH   SFRSYM    DATA     BYTE      SREL0L
      000000F9H   SFRSYM    DATA     BYTE      PORTDRV
      0000009DH   SFRSYM    DATA     BYTE      SREL1L
      00000089H   SFRSYM    DATA     BYTE      TMOD
      00000088H   SFRSYM    DATA     BYTE      TCON
      00000097H   SFRSYM    DATA     BYTE      SCON2R
      000000FFH   SFRSYM    DATA     BYTE      EXDATA
      000000ABH   SFRSYM    DATA     BYTE      SCON3R
      000000D9H   SFRSYM    DATA     BYTE      BODE2_DIV_H
      000000AEH   SFRSYM    DATA     BYTE      BODE3_DIV_H
      00000096H   SFRSYM    DATA     BYTE      SCON2T
      000000A7H   SFRSYM    DATA     BYTE      SCON3T
      000000E7H   SFRSYM    DATA     BYTE      BODE2_DIV_L
LX51 LINKER/LOCATER V4.66.93.0                                                        05/08/2025  10:05:08  PAGE 100


      00000088H.1 SFRSYM    DATA     BIT       IE0
      000000AFH   SFRSYM    DATA     BYTE      BODE3_DIV_L
      00000088H.3 SFRSYM    DATA     BIT       IE1
      000000C9H   SFRSYM    DATA     BYTE      MUX_SEL
      000000F0H   SFRSYM    DATA     BYTE      B
      000000E0H   SFRSYM    DATA     BYTE      ACC
      000000A8H.4 SFRSYM    DATA     BIT       ES0
      0000008FH   SFRSYM    DATA     BYTE      CAN_CR
      000000A8H.1 SFRSYM    DATA     BIT       ET0
      000000A9H   SFRSYM    DATA     BYTE      IP0
      000000A8H.3 SFRSYM    DATA     BIT       ET1
      00000088H.5 SFRSYM    DATA     BIT       TF0
      000000B9H   SFRSYM    DATA     BYTE      IP1
      000000A8H.5 SFRSYM    DATA     BIT       ET2
      00000098H.0 SFRSYM    DATA     BIT       RI0
      00000088H.7 SFRSYM    DATA     BIT       TF1
      000000FDH   SFRSYM    DATA     BYTE      DATA0
      000000C0H.6 SFRSYM    DATA     BIT       TF2
      000000E8H   SFRSYM    DATA     BYTE      CAN_ET
      000000FCH   SFRSYM    DATA     BYTE      DATA1
      0000008CH   SFRSYM    DATA     BYTE      TH0
      000000A8H.0 SFRSYM    DATA     BIT       EX0
      00000098H.1 SFRSYM    DATA     BIT       TI0
      00000088H.0 SFRSYM    DATA     BIT       IT0
      000000FBH   SFRSYM    DATA     BYTE      DATA2
      0000008DH   SFRSYM    DATA     BYTE      TH1
      000000A8H.2 SFRSYM    DATA     BIT       EX1
      00000091H   SFRSYM    DATA     BYTE      CAN_IR
      000000CDH   SFRSYM    DATA     BYTE      TH2
      00000088H.2 SFRSYM    DATA     BIT       IT1
      000000FAH   SFRSYM    DATA     BYTE      DATA3
      000000D0H.0 SFRSYM    DATA     BIT       P
      00000098H.7 SFRSYM    DATA     BIT       SM0
      0000008AH   SFRSYM    DATA     BYTE      TL0
      00000098H.6 SFRSYM    DATA     BIT       SM1
      0000008BH   SFRSYM    DATA     BYTE      TL1
      00000098H.5 SFRSYM    DATA     BIT       SM2
      000000CCH   SFRSYM    DATA     BYTE      TL2
      000000A0H.7 SFRSYM    DATA     BIT       UV_St
      000000D0H.3 SFRSYM    DATA     BIT       RS0
      000000F8H.6 SFRSYM    DATA     BIT       APP_EN
      000000D0H.4 SFRSYM    DATA     BIT       RS1
      00000088H.4 SFRSYM    DATA     BIT       TR0
      00000088H.6 SFRSYM    DATA     BIT       TR1
      00000093H   SFRSYM    DATA     BYTE      DPC
      000000C8H.0 SFRSYM    DATA     BIT       TR2
      000000E5H   SFRSYM    DATA     BYTE      MAC_MODE
      00000083H   SFRSYM    DATA     BYTE      DPH
      00000082H   SFRSYM    DATA     BYTE      DPL
      00000099H   SFRSYM    DATA     BYTE      SBUF0
      0000009CH   SFRSYM    DATA     BYTE      SBUF1
      00000098H   SFRSYM    DATA     BYTE      SCON0
      0000009BH   SFRSYM    DATA     BYTE      SCON1
      000000D8H   SFRSYM    DATA     BYTE      ADCON
      000000C8H   SFRSYM    DATA     BYTE      T2CON
      000000E6H   SFRSYM    DATA     BYTE      DIV_MODE
      000000F8H.5 SFRSYM    DATA     BIT       APP_RW
      000000CBH   SFRSYM    DATA     BYTE      TRL2H
      0000009FH   SFRSYM    DATA     BYTE      SBUF2_RX
      000000ADH   SFRSYM    DATA     BYTE      SBUF3_RX
      0000008EH   SFRSYM    DATA     BYTE      CKCON
      0000009EH   SFRSYM    DATA     BYTE      SBUF2_TX
      000000ACH   SFRSYM    DATA     BYTE      SBUF3_TX
      000000CAH   SFRSYM    DATA     BYTE      TRL2L
      000000D0H.5 SFRSYM    DATA     BIT       F0
LX51 LINKER/LOCATER V4.66.93.0                                                        05/08/2025  10:05:08  PAGE 101


      000000FEH   SFRSYM    DATA     BYTE      EXADR
      000000D0H.1 SFRSYM    DATA     BIT       F1
      000000A0H.3 SFRSYM    DATA     BIT       LED_B
      000000D0H   SFRSYM    DATA     BYTE      PSW
      000000A0H.1 SFRSYM    DATA     BIT       LED_G
      000000C0H   SFRSYM    DATA     BYTE      IRCON
      00000098H.2 SFRSYM    DATA     BIT       RB80

      01004448H   BLOCK     CODE     ---       LVL=0
      01004448H   LINE      CODE     ---       #6
      01004448H   LINE      CODE     ---       #7
      01004448H   LINE      CODE     ---       #8
      01004462H   LINE      CODE     ---       #9
      01004462H   LINE      CODE     ---       #10
      01004465H   LINE      CODE     ---       #11
      0100446FH   LINE      CODE     ---       #12
      0100446FH   LINE      CODE     ---       #14
      ---         BLOCKEND  ---      ---       LVL=0

      01004389H   BLOCK     CODE     ---       LVL=0
      01004389H   LINE      CODE     ---       #20
      01004389H   LINE      CODE     ---       #21
      01004389H   LINE      CODE     ---       #24
      01004395H   LINE      CODE     ---       #25
      01004395H   LINE      CODE     ---       #26
      01004397H   LINE      CODE     ---       #27
      0100439DH   LINE      CODE     ---       #28
      0100439DH   LINE      CODE     ---       #31
      010043ABH   LINE      CODE     ---       #32
      010043ABH   LINE      CODE     ---       #33
      010043ABH   LINE      CODE     ---       #34
      010043ABH   LINE      CODE     ---       #35
      010043B1H   LINE      CODE     ---       #37
      010043B1H   LINE      CODE     ---       #39
      010043B1H   LINE      CODE     ---       #40
      010043B1H   LINE      CODE     ---       #41
      010043B7H   LINE      CODE     ---       #42
      010043B7H   LINE      CODE     ---       #44
      010043B7H   LINE      CODE     ---       #45
      010043B7H   LINE      CODE     ---       #47
      010043BAH   LINE      CODE     ---       #48
      010043BAH   LINE      CODE     ---       #49
      010043BAH   LINE      CODE     ---       #52
      010043BAH   LINE      CODE     ---       #53
      010043BAH   LINE      CODE     ---       #54
      010043C0H   LINE      CODE     ---       #56
      010043C0H   LINE      CODE     ---       #57
      010043C0H   LINE      CODE     ---       #58
      010043C0H   LINE      CODE     ---       #61
      ---         BLOCKEND  ---      ---       LVL=0

      ---         MODULE    ---      ---       ?C?FPADD
      01000107H   PUBLIC    CODE     ---       ?C?FPADD
      01000103H   PUBLIC    CODE     ---       ?C?FPSUB

      ---         MODULE    ---      ---       ?C?FPMUL
      010001F8H   PUBLIC    CODE     ---       ?C?FPMUL

      ---         MODULE    ---      ---       ?C?FPDIV
      01000301H   PUBLIC    CODE     ---       ?C?FPDIV

      ---         MODULE    ---      ---       ?C?FPCMP
      010003A0H   PUBLIC    CODE     ---       ?C?FPCMP
      0100039EH   PUBLIC    CODE     ---       ?C?FPCMP3

LX51 LINKER/LOCATER V4.66.93.0                                                        05/08/2025  10:05:08  PAGE 102


      ---         MODULE    ---      ---       ?C?FCAST
      01000421H   PUBLIC    CODE     ---       ?C?FCASTC
      0100041CH   PUBLIC    CODE     ---       ?C?FCASTI
      01000417H   PUBLIC    CODE     ---       ?C?FCASTL

      ---         MODULE    ---      ---       ?C?CASTF
      01000455H   PUBLIC    CODE     ---       ?C?CASTF

      ---         MODULE    ---      ---       PRINTF
      0200A482H   PUBLIC    XDATA    ---       ?_PRINTF?BYTE
      0200A482H   PUBLIC    XDATA    ---       ?_SPRINTF?BYTE
      01000C34H   PUBLIC    CODE     ---       _PRINTF
      01000C2EH   PUBLIC    CODE     ---       _SPRINTF

      ---         MODULE    ---      ---       LOG
      01002F37H   PUBLIC    CODE     ---       _LOG
      01002F33H   PUBLIC    CODE     ---       _LOG10

      ---         MODULE    ---      ---       POW
      0200A48CH   PUBLIC    XDATA    ---       ?_POW?BYTE
      010029C1H   PUBLIC    CODE     ---       _POW

      ---         MODULE    ---      ---       ?C?FPGETOPN
      0100048CH   PUBLIC    CODE     ---       ?C?FPGETOPN2
      010004C1H   PUBLIC    CODE     ---       ?C?FPNANRESULT
      010004CBH   PUBLIC    CODE     ---       ?C?FPOVERFLOW
      010004A3H   PUBLIC    CODE     ---       ?C?FPRESULT
      010004B7H   PUBLIC    CODE     ---       ?C?FPRESULT2
      010004C8H   PUBLIC    CODE     ---       ?C?FPUNDERFLOW

      ---         MODULE    ---      ---       ?C?CHKFLOAT
      010004D6H   PUBLIC    CODE     ---       ?C?CHKFLOAT

      ---         MODULE    ---      ---       ?C?FPNEG
      010004F0H   PUBLIC    CODE     ---       ?C?FPNEG

      ---         MODULE    ---      ---       ?C?FPROUND
      01000501H   PUBLIC    CODE     ---       ?C?FPROUND

      ---         MODULE    ---      ---       ?C?FPCONVERT
      0100053EH   PUBLIC    CODE     ---       ?C?FPCONVERT

      ---         MODULE    ---      ---       ?C?FPSERIES
      01000643H   PUBLIC    CODE     ---       ?C?FP2SERIES
      01000652H   PUBLIC    CODE     ---       ?C?FPSERIES

      ---         MODULE    ---      ---       EXP
      01003A10H   PUBLIC    CODE     ---       _EXP

      ---         MODULE    ---      ---       ?C?FTNPWR
      010006C0H   PUBLIC    CODE     ---       ?C?FTNPWR

      ---         MODULE    ---      ---       ?C_INIT
      01003993H   PUBLIC    CODE     ---       ?C_START

      ---         MODULE    ---      ---       ?C?COPY
      010007D0H   PUBLIC    CODE     ---       ?C?COPY

      ---         MODULE    ---      ---       ?C?CLDPTR
      010007F6H   PUBLIC    CODE     ---       ?C?CLDPTR

      ---         MODULE    ---      ---       ?C?CLDOPTR
      0100080FH   PUBLIC    CODE     ---       ?C?CLDOPTR

      ---         MODULE    ---      ---       ?C?CSTPTR
LX51 LINKER/LOCATER V4.66.93.0                                                        05/08/2025  10:05:08  PAGE 103


      0100083CH   PUBLIC    CODE     ---       ?C?CSTPTR

      ---         MODULE    ---      ---       ?C?CSTOPTR
      0100084EH   PUBLIC    CODE     ---       ?C?CSTOPTR

      ---         MODULE    ---      ---       ?C?IMUL
      01000870H   PUBLIC    CODE     ---       ?C?IMUL

      ---         MODULE    ---      ---       ?C?UIDIV
      01000882H   PUBLIC    CODE     ---       ?C?UIDIV

      ---         MODULE    ---      ---       ?C?SIDIV
      010008D7H   PUBLIC    CODE     ---       ?C?SIDIV

      ---         MODULE    ---      ---       ?C?IILDX
      0100090DH   PUBLIC    CODE     ---       ?C?IILDX

      ---         MODULE    ---      ---       ?C?ILDIX
      01000923H   PUBLIC    CODE     ---       ?C?ILDIX

      ---         MODULE    ---      ---       ?C?ILDPTR
      01000939H   PUBLIC    CODE     ---       ?C?ILDPTR

      ---         MODULE    ---      ---       ?C?ILDOPTR
      01000964H   PUBLIC    CODE     ---       ?C?ILDOPTR

      ---         MODULE    ---      ---       ?C?ISTPTR
      0100099CH   PUBLIC    CODE     ---       ?C?ISTPTR

      ---         MODULE    ---      ---       ?C?ISTOPTR
      010009BBH   PUBLIC    CODE     ---       ?C?ISTOPTR

      ---         MODULE    ---      ---       ?C?ULDIV
      01000A24H   PUBLIC    CODE     ---       ?C?ULDIV

      ---         MODULE    ---      ---       ?C?LNEG
      01000AB6H   PUBLIC    CODE     ---       ?C?LNEG

      ---         MODULE    ---      ---       ?C?ULCMP
      01000AC4H   PUBLIC    CODE     ---       ?C?ULCMP

      ---         MODULE    ---      ---       ?C?LSHL
      01000AD5H   PUBLIC    CODE     ---       ?C?LSHL

      ---         MODULE    ---      ---       ?C?LLDCODE
      01000AE8H   PUBLIC    CODE     ---       ?C?LLDCODE

      ---         MODULE    ---      ---       ?C?LLDXDATA0
      01000AF8H   PUBLIC    CODE     ---       ?C?LLDXDATA0

      ---         MODULE    ---      ---       ?C?LLDCODE0
      01000B04H   PUBLIC    CODE     ---       ?C?LLDCODE0

      ---         MODULE    ---      ---       ?C?LSTXDATA
      01000B14H   PUBLIC    CODE     ---       ?C?LSTXDATA

      ---         MODULE    ---      ---       ?C?LSTKXDATA
      01000B20H   PUBLIC    CODE     ---       ?C?LSTKXDATA

      ---         MODULE    ---      ---       ?C?PLDIXDATA
      01000B51H   PUBLIC    CODE     ---       ?C?PLDIXDATA

      ---         MODULE    ---      ---       ?C?PSTXDATA
      01000B68H   PUBLIC    CODE     ---       ?C?PSTXDATA

LX51 LINKER/LOCATER V4.66.93.0                                                        05/08/2025  10:05:08  PAGE 104


      ---         MODULE    ---      ---       ?C?CCASE
      01000B71H   PUBLIC    CODE     ---       ?C?CCASE

      ---         MODULE    ---      ---       ?C?ICALL
      01000B97H   PUBLIC    CODE     ---       ?C?ICALL
      01000B9BH   PUBLIC    CODE     ---       ?C?ICALL2

      ---         MODULE    ---      ---       ?C?MEMSET
      01000B9DH   PUBLIC    CODE     ---       ?C?MEMSET



*** WARNING L48: IGNORED RECURSIVE CALL
    CALLED:  _RX8130_WRIT_BYTE/I2C
    CALLER:  RX8130_STOP/I2C

*** WARNING L57: UNCALLED FUNCTION, IGNORED FOR OVERLAY PROCESS
    NAME:    UART2INIT/UART

*** WARNING L57: UNCALLED FUNCTION, IGNORED FOR OVERLAY PROCESS
    NAME:    UART3INIT/UART

*** WARNING L57: UNCALLED FUNCTION, IGNORED FOR OVERLAY PROCESS
    NAME:    _UART3SENDSTR/UART

*** WARNING L57: UNCALLED FUNCTION, IGNORED FOR OVERLAY PROCESS
    NAME:    _SETBLIGHT/HANDLE

*** WARNING L57: UNCALLED FUNCTION, IGNORED FOR OVERLAY PROCESS
    NAME:    _SETVOICE/HANDLE

*** WARNING L57: UNCALLED FUNCTION, IGNORED FOR OVERLAY PROCESS
    NAME:    INITUARTSEND/HANDLE

*** WARNING L57: UNCALLED FUNCTION, IGNORED FOR OVERLAY PROCESS
    NAME:    _JUMPPAGE/HANDLE

*** WARNING L57: UNCALLED FUNCTION, IGNORED FOR OVERLAY PROCESS
    NAME:    CHART_RUNNING/START_WIN

*** WARNING L57: UNCALLED FUNCTION, IGNORED FOR OVERLAY PROCESS
    NAME:    INTERACTIVE_INIT/INTERACTIVE

*** WARNING L57: UNCALLED FUNCTION, IGNORED FOR OVERLAY PROCESS
    NAME:    INTERACTIVE_RUNNING/INTERACTIVE

*** WARNING L57: UNCALLED FUNCTION, IGNORED FOR OVERLAY PROCESS
    NAME:    QRJ_INIT/QRJ

Program Size: data=15.1 xdata=9559 const=160 code=18062
LX51 RUN COMPLETE.  12 WARNING(S),  0 ERROR(S)
