LX51 LINKER/LOCATER V4.66.93.0                                                          04/30/2025  12:14:31  PAGE 1


LX51 LINKER/LOCATER V4.66.93.0, INVOKED BY:
D:\KEIL\KEIL_C51\C51\BIN\LX51.EXE .\Objects\STARTUP_M5.obj, .\Objects\main.obj, .\Objects\sys.obj, .\Objects\dgus.obj, .
>> \Objects\uart.obj, .\Objects\norflash.obj, .\Objects\timer.obj, .\Objects\handle.obj, .\Objects\crc16.obj, .\Objects\
>> i2c.obj, .\Objects\tof.obj, .\Objects\home.obj, .\Objects\qrj.obj, .\Objects\zx.obj, .\Objects\qy.obj, .\Objects\cxh.
>> obj, .\Objects\zl.obj, .\Objects\sd.obj, .\Objects\lj.obj, .\Objects\sz.obj TO .\Objects\T5L51 PRINT (.\Listings\T5L5
>> 1.map) CLASSES (XDATA (X:0X8000-X:0XFFFF), HDATA (X:0X8000-X:0XFFFF))




PROGRAM RECURSIONS REMOVED FROM CALL TREE
=========================================
+--> _RX8130_WRIT_BYTE/I2C
<--+ RX8130_STOP/I2C



CPU MODE:     8051 MODE
MEMORY MODEL: LARGE WITH FLOATING POINT ARITHMETIC


INPUT MODULES INCLUDED:
  .\Objects\STARTUP_M5.obj (?C_STARTUP)
         COMMENT TYPE 1: A51 / ASM51 Assembler
  .\Objects\main.obj (MAIN)
         COMMENT TYPE 0: C51 V9.59.0.0
  .\Objects\sys.obj (SYS)
         COMMENT TYPE 0: C51 V9.59.0.0
  .\Objects\dgus.obj (DGUS)
         COMMENT TYPE 0: C51 V9.59.0.0
  .\Objects\uart.obj (UART)
         COMMENT TYPE 0: C51 V9.59.0.0
  .\Objects\norflash.obj (NORFLASH)
         COMMENT TYPE 0: C51 V9.59.0.0
  .\Objects\timer.obj (TIMER)
         COMMENT TYPE 0: C51 V9.59.0.0
  .\Objects\handle.obj (HANDLE)
         COMMENT TYPE 0: C51 V9.59.0.0
  .\Objects\crc16.obj (CRC16)
         COMMENT TYPE 0: C51 V9.59.0.0
  .\Objects\i2c.obj (I2C)
         COMMENT TYPE 0: C51 V9.59.0.0
  .\Objects\tof.obj (TOF)
         COMMENT TYPE 0: C51 V9.59.0.0
  .\Objects\home.obj (HOME)
         COMMENT TYPE 0: C51 V9.59.0.0
  .\Objects\qrj.obj (QRJ)
         COMMENT TYPE 0: C51 V9.59.0.0
  .\Objects\zx.obj (ZX)
         COMMENT TYPE 0: C51 V9.59.0.0
  .\Objects\qy.obj (QY)
         COMMENT TYPE 0: C51 V9.59.0.0
  .\Objects\cxh.obj (CXH)
         COMMENT TYPE 0: C51 V9.59.0.0
  .\Objects\zl.obj (ZL)
         COMMENT TYPE 0: C51 V9.59.0.0
  .\Objects\sd.obj (SD)
         COMMENT TYPE 0: C51 V9.59.0.0
  .\Objects\lj.obj (LJ)
         COMMENT TYPE 0: C51 V9.59.0.0
  .\Objects\sz.obj (SZ)
         COMMENT TYPE 0: C51 V9.59.0.0
  D:\KEIL\KEIL_C51\C51\LIB\C51FPL.LIB (?C?FPADD)
         COMMENT TYPE 1: A51 / ASM51 Assembler
  D:\KEIL\KEIL_C51\C51\LIB\C51FPL.LIB (?C?FPMUL)
         COMMENT TYPE 1: A51 / ASM51 Assembler
LX51 LINKER/LOCATER V4.66.93.0                                                        04/30/2025  12:14:31  PAGE 2


  D:\KEIL\KEIL_C51\C51\LIB\C51FPL.LIB (?C?FPDIV)
         COMMENT TYPE 1: A51 / ASM51 Assembler
  D:\KEIL\KEIL_C51\C51\LIB\C51FPL.LIB (?C?FPCMP)
         COMMENT TYPE 1: A51 / ASM51 Assembler
  D:\KEIL\KEIL_C51\C51\LIB\C51FPL.LIB (?C?FCAST)
         COMMENT TYPE 1: A51 / ASM51 Assembler
  D:\KEIL\KEIL_C51\C51\LIB\C51FPL.LIB (?C?CASTF)
         COMMENT TYPE 1: A51 / ASM51 Assembler
  D:\KEIL\KEIL_C51\C51\LIB\C51FPL.LIB (POW)
         COMMENT TYPE 1: C51 Compiler
  D:\KEIL\KEIL_C51\C51\LIB\C51FPL.LIB (?C?FPGETOPN)
         COMMENT TYPE 1: A51 / ASM51 Assembler
  D:\KEIL\KEIL_C51\C51\LIB\C51FPL.LIB (?C?CHKFLOAT)
         COMMENT TYPE 1: A51 / ASM51 Assembler
  D:\KEIL\KEIL_C51\C51\LIB\C51FPL.LIB (?C?FPNEG)
         COMMENT TYPE 1: A51 / ASM51 Assembler
  D:\KEIL\KEIL_C51\C51\LIB\C51FPL.LIB (EXP)
         COMMENT TYPE 1: A51 / ASM51 Assembler
  D:\KEIL\KEIL_C51\C51\LIB\C51FPL.LIB (LOG)
         COMMENT TYPE 1: A51 / ASM51 Assembler
  D:\KEIL\KEIL_C51\C51\LIB\C51FPL.LIB (?C?FPSERIES)
         COMMENT TYPE 1: A51 / ASM51 Assembler
  D:\KEIL\KEIL_C51\C51\LIB\C51L.LIB (?C_INIT)
         COMMENT TYPE 1: A51 / ASM51 Assembler
  D:\KEIL\KEIL_C51\C51\LIB\C51L.LIB (?C?COPY)
         COMMENT TYPE 1: A51 / ASM51 Assembler
  D:\KEIL\KEIL_C51\C51\LIB\C51L.LIB (?C?CLDPTR)
         COMMENT TYPE 1: A51 / ASM51 Assembler
  D:\KEIL\KEIL_C51\C51\LIB\C51L.LIB (?C?CLDOPTR)
         COMMENT TYPE 1: A51 / ASM51 Assembler
  D:\KEIL\KEIL_C51\C51\LIB\C51L.LIB (?C?CSTPTR)
         COMMENT TYPE 1: A51 / ASM51 Assembler
  D:\KEIL\KEIL_C51\C51\LIB\C51L.LIB (?C?CSTOPTR)
         COMMENT TYPE 1: A51 / ASM51 Assembler
  D:\KEIL\KEIL_C51\C51\LIB\C51L.LIB (?C?IMUL)
         COMMENT TYPE 1: A51 / ASM51 Assembler
  D:\KEIL\KEIL_C51\C51\LIB\C51L.LIB (?C?UIDIV)
         COMMENT TYPE 1: A51 / ASM51 Assembler
  D:\KEIL\KEIL_C51\C51\LIB\C51L.LIB (?C?SIDIV)
         COMMENT TYPE 1: A51 / ASM51 Assembler
  D:\KEIL\KEIL_C51\C51\LIB\C51L.LIB (?C?IILDX)
         COMMENT TYPE 1: A51 / ASM51 Assembler
  D:\KEIL\KEIL_C51\C51\LIB\C51L.LIB (?C?ILDIX)
         COMMENT TYPE 1: A51 / ASM51 Assembler
  D:\KEIL\KEIL_C51\C51\LIB\C51L.LIB (?C?ISTPTR)
         COMMENT TYPE 1: A51 / ASM51 Assembler
  D:\KEIL\KEIL_C51\C51\LIB\C51L.LIB (?C?ULDIV)
         COMMENT TYPE 1: A51 / ASM51 Assembler
  D:\KEIL\KEIL_C51\C51\LIB\C51L.LIB (?C?LNEG)
         COMMENT TYPE 1: A51 / ASM51 Assembler
  D:\KEIL\KEIL_C51\C51\LIB\C51L.LIB (?C?ULCMP)
         COMMENT TYPE 1: A51 / ASM51 Assembler
  D:\KEIL\KEIL_C51\C51\LIB\C51L.LIB (?C?LSHL)
         COMMENT TYPE 1: A51 / ASM51 Assembler
  D:\KEIL\KEIL_C51\C51\LIB\C51L.LIB (?C?LLDCODE)
         COMMENT TYPE 1: A51 / ASM51 Assembler
  D:\KEIL\KEIL_C51\C51\LIB\C51L.LIB (?C?LLDXDATA0)
         COMMENT TYPE 1: A51 / ASM51 Assembler
  D:\KEIL\KEIL_C51\C51\LIB\C51L.LIB (?C?LLDCODE0)
         COMMENT TYPE 1: A51 / ASM51 Assembler
  D:\KEIL\KEIL_C51\C51\LIB\C51L.LIB (?C?LSTXDATA)
         COMMENT TYPE 1: A51 / ASM51 Assembler
  D:\KEIL\KEIL_C51\C51\LIB\C51L.LIB (?C?LSTKXDATA)
         COMMENT TYPE 1: A51 / ASM51 Assembler
  D:\KEIL\KEIL_C51\C51\LIB\C51L.LIB (?C?MEMSET)
LX51 LINKER/LOCATER V4.66.93.0                                                        04/30/2025  12:14:31  PAGE 3


         COMMENT TYPE 1: A51 / ASM51 Assembler


ACTIVE MEMORY CLASSES OF MODULE:  .\Objects\T5L51 (?C_STARTUP)

BASE        START       END         USED      MEMORY CLASS
==========================================================
X:000000H   X:008000H   X:00FFFFH   002500H   XDATA
X:000000H   X:008000H   X:00FFFFH             HDATA
C:000000H   C:000000H   C:00FFFFH   003577H   CODE
I:000000H   I:000000H   I:0000FFH   000001H   IDATA
C:000000H   C:000000H   C:00FFFFH   000080H   CONST
I:000020H.0 I:000020H.0 I:00002FH.7 000000H.1 BIT
I:000000H   I:000000H   I:00007FH   000008H   DATA


MEMORY MAP OF MODULE:  .\Objects\T5L51 (?C_STARTUP)


START     STOP      LENGTH    ALIGN  RELOC    MEMORY CLASS   SEGMENT NAME
=========================================================================

* * * * * * * * * * *   D A T A   M E M O R Y   * * * * * * * * * * * * *
000000H   000007H   000008H   ---    AT..     DATA           "REG BANK 0"
000008H.0 00001FH.7 000018H.0 ---    ---      **GAP**
000020H.0 000020H.0 000000H.1 BIT    UNIT     BIT            _BIT_GROUP_
000020H.1 000020H   000000H.7 ---    ---      **GAP**
000021H   000021H   000001H   BYTE   UNIT     IDATA          ?STACK

* * * * * * * * * * *   C O D E   M E M O R Y   * * * * * * * * * * * * *
000000H   000002H   000003H   ---    OFFS..   CODE           ?CO??C_STARTUP?0
000003H   000005H   000003H   BYTE   OFFS..   CODE           ?SYS?00003
000006H   00000AH   000005H   BYTE   UNIT     CODE           ?PR?EX0_ISR_PC?SYS
00000BH   00000DH   000003H   BYTE   OFFS..   CODE           ?TIMER?0000B
00000EH   000012H   000005H   BYTE   UNIT     CODE           ?PR?EX1_ISR_PC?SYS
000013H   000015H   000003H   BYTE   OFFS..   CODE           ?SYS?00013
000016H   000022H   00000DH   BYTE   UNIT     CODE           ?PR?RX8130_MACK?I2C
000023H   000025H   000003H   BYTE   OFFS..   CODE           ?UART?00023
000026H   000029H   000004H   BYTE   UNIT     CODE           ?PR?SDA_IN?I2C
00002AH   00002AH   000001H   BYTE   UNIT     CODE           ?PR?UART5_TX_ISR_PC?UART
00002BH   00002DH   000003H   BYTE   OFFS..   CODE           ?TIMER?0002B
00002EH   00005AH   00002DH   BYTE   UNIT     CODE           ?PR?RX8130_READ_BYTE?I2C
00005BH   000060H   000006H   BYTE   UNIT     CODE           ?PR?INITTIMER?TIMER
000061H   000061H   000001H   BYTE   UNIT     CODE           ?PR?QRJ_STOP?QRJ
000062H   000062H   000001H   ---    ---      **GAP**
000063H   000065H   000003H   BYTE   OFFS..   CODE           ?UART?00063
000066H   000069H   000004H   BYTE   UNIT     CODE           ?PR?SDA_OUT?I2C
00006AH   00006AH   000001H   ---    ---      **GAP**
00006BH   00006DH   000003H   BYTE   OFFS..   CODE           ?UART?0006B
00006EH   000082H   000015H   BYTE   UNIT     CODE           ?PR?UART5INIT?UART
000083H   000085H   000003H   BYTE   OFFS..   CODE           ?UART?00083
000086H   0000F0H   00006BH   BYTE   UNIT     CODE           ?PR?_RX8130_WRIT_BYTE?I2C
0000F1H   0000F6H   000006H   BYTE   UNIT     CODE           ?PR?GET_DATA1?HANDLE
0000F7H   0000F7H   000001H   ---    ---      **GAP**
0000F8H   0000FFH   000008H   ---    OFFS..   CODE           ?CO??C_STARTUP?1
000100H   00093AH   00083BH   BYTE   UNIT     CODE           ?C?LIB_CODE
00093BH   000CE0H   0003A6H   BYTE   UNIT     CODE           ?PR?PARSEBUFFER?HANDLE
000CE1H   000FD0H   0002F0H   BYTE   UNIT     CODE           ?PR?PREPARE_QRJ_ZX_QY?HOME
000FD1H   0012BAH   0002EAH   BYTE   UNIT     CODE           ?C_INITSEG
0012BBH   00155EH   0002A4H   BYTE   UNIT     CODE           ?PR?RTC_SET_IN?I2C
00155FH   0017BAH   00025CH   BYTE   UNIT     CODE           ?PR?_L_MM_TO_P_UW?HOME
0017BBH   001A0DH   000253H   BYTE   UNIT     CODE           ?PR?QRJ_ZX__QY_RUN?HOME
001A0EH   001C5AH   00024DH   BYTE   UNIT     CODE           ?PR?_WRITEDGUS?DGUS
001C5BH   001EA2H   000248H   BYTE   UNIT     CODE           ?PR?_READDGUS?DGUS
001EA3H   002052H   0001B0H   BYTE   UNIT     CODE           ?PR?RTC_SET_TIME?I2C
LX51 LINKER/LOCATER V4.66.93.0                                                        04/30/2025  12:14:31  PAGE 4


002053H   0021B8H   000166H   BYTE   UNIT     CODE           ?PR?_POW?POW
0021B9H   002315H   00015DH   BYTE   UNIT     CODE           ?PR?_RTC_GET_WEEK?I2C
002316H   002448H   000133H   BYTE   UNIT     CODE           ?PR?READ_TIME?I2C
002449H   002571H   000129H   BYTE   UNIT     CODE           ?PR?LOG?LOG
002572H   002678H   000107H   BYTE   UNIT     CODE           ?PR?QRJ_PREPARE?QRJ
002679H   002779H   000101H   BYTE   UNIT     CODE           ?PR?UART5_ISR?TOF
00277AH   002858H   0000DFH   BYTE   UNIT     CODE           ?PR?_FIND_DLT645_FRAME?HANDLE
002859H   002937H   0000DFH   BYTE   UNIT     CODE           ?PR?_QRJ_MM_TO_S?QRJ
002938H   0029E9H   0000B2H   BYTE   UNIT     CODE           ?PR?T0_ISR_PC?TIMER
0029EAH   002A8DH   0000A4H   BYTE   UNIT     CODE           ?PR?DLT645_HANDLE?HANDLE
002A8EH   002B2EH   0000A1H   BYTE   UNIT     CODE           ?C_C51STARTUP
002B2FH   002BC8H   00009AH   BYTE   UNIT     CODE           ?PR?EXP?EXP
002BC9H   002C5AH   000092H   BYTE   UNIT     CODE           ?PR?_SETVOICE?HANDLE
002C5BH   002CE3H   000089H   BYTE   UNIT     CODE           ?PR?UNLOCK_CURRENT_PAGE?HOME
002CE4H   002D67H   000084H   BYTE   UNIT     CODE           ?PR?TOUCHHANDLE?HANDLE
002D68H   002DE8H   000081H   BYTE   UNIT     CODE           ?PR?UART5_RX_ISR_PC?UART
002DE9H   002E64H   00007CH   BYTE   UNIT     CODE           ?PR?LOCK_CURRENT_PAGE?HOME
002E65H   002EDBH   000077H   BYTE   UNIT     CODE           ?PR?_PAGE_SET?HANDLE
002EDCH   002F3FH   000064H   BYTE   UNIT     CODE           ?PR?UART2_ISR_PC?UART
002F40H   002FA3H   000064H   BYTE   UNIT     CODE           ?PR?_JUMPPAGE?HANDLE
002FA4H   003003H   000060H   BYTE   UNIT     CODE           ?PR?UART3_ISR_PC?UART
003004H   003063H   000060H   BYTE   UNIT     CODE           ?PR?QRJ_RUN?QRJ
003064H   0030C1H   00005EH   BYTE   UNIT     CODE           ?PR?QRJ_HOME?QRJ
0030C2H   00311DH   00005CH   BYTE   UNIT     CODE           ?PR?QRJ_RESET?QRJ
00311EH   003177H   00005AH   BYTE   UNIT     CODE           ?PR?INIT_RTC?I2C
003178H   0031C3H   00004CH   BYTE   UNIT     CODE           ?PR?GETVALUE0F00?HANDLE
0031C4H   003204H   000041H   BYTE   UNIT     CODE           ?PR?_UART2SENDSTR?UART
003205H   003245H   000041H   BYTE   UNIT     CODE           ?PR?_UART3SENDSTR?UART
003246H   003286H   000041H   BYTE   UNIT     CODE           ?PR?_UART5SENDSTR?UART
003287H   0032C3H   00003DH   BYTE   UNIT     CODE           ?PR?READCURRENTPAGE_RUN?HOME
0032C4H   0032FAH   000037H   BYTE   UNIT     CODE           ?PR?_LOCK_CURRENT_PAGE_ZENGLIANG?HOME
0032FBH   003331H   000037H   BYTE   UNIT     CODE           ?PR?_UNLOCK_CURRENT_PAGE_ZENGLIANG?HOME
003332H   00335DH   00002CH   BYTE   UNIT     CODE           ?PR?_PARSE_DLT645_FRAME?HANDLE
00335EH   003382H   000025H   BYTE   UNIT     CODE           ?PR?UART2INIT?UART
003383H   0033A5H   000023H   BYTE   UNIT     CODE           ?PR?RX8130_CACK?I2C
0033A6H   0033C6H   000021H   BYTE   UNIT     CODE           ?PR?RX8130_STOP?I2C
0033C7H   0033E6H   000020H   BYTE   UNIT     CODE           ?PR?_DELAYMS?SYS
0033E7H   003404H   00001EH   BYTE   UNIT     CODE           ?PR?UART3INIT?UART
003405H   00341EH   00001AH   BYTE   UNIT     CODE           ?PR?_SETBLIGHT?HANDLE
00341FH   003438H   00001AH   BYTE   UNIT     CODE           ?PR?CLOCK?I2C
003439H   003452H   00001AH   BYTE   UNIT     CODE           ?PR?QRJ_INIT?QRJ
003453H   00346BH   000019H   BYTE   UNIT     CODE           ?PR?INITGPIO?SYS
00346CH   003482H   000017H   BYTE   UNIT     CODE           ?PR?DELAYUS?I2C
003483H   003498H   000016H   BYTE   UNIT     CODE           ?PR?QRJ_DONE?QRJ
003499H   0034ACH   000014H   BYTE   UNIT     CODE           ?PR?MAIN?MAIN
0034ADH   0034C0H   000014H   BYTE   UNIT     CODE           ?PR?T2_INIT?TIMER
0034C1H   0034D4H   000014H   BYTE   UNIT     CODE           ?PR?RX8130_START?I2C
0034D5H   0034E7H   000013H   BYTE   UNIT     CODE           ?PR?UART4INIT?UART
0034E8H   0034F8H   000011H   BYTE   UNIT     CODE           ?PR?INITCPU?SYS
0034F9H   003506H   00000EH   BYTE   UNIT     CODE           ?PR?_UART2SENDBYTE?UART
003507H   003514H   00000EH   BYTE   UNIT     CODE           ?PR?_UART3SENDBYTE?UART
003515H   003522H   00000EH   BYTE   UNIT     CODE           ?PR?T0_INIT?TIMER
003523H   003530H   00000EH   BYTE   UNIT     CODE           ?PR?PAGELOCK_INIT?HOME
003531H   00353CH   00000CH   BYTE   UNIT     CODE           ?PR?INITINT?SYS
00353DH   003548H   00000CH   BYTE   UNIT     CODE           ?PR?_UART5SENDBYTE?UART
003549H   003554H   00000CH   BYTE   UNIT     CODE           ?PR?HANDLEPROC?HANDLE
003555H   00355FH   00000BH   BYTE   UNIT     CODE           ?PR?INITUARTSEND?HANDLE
003560H   00356AH   00000BH   BYTE   UNIT     CODE           ?PR?RX8130_MNAK?I2C
00356BH   003573H   000009H   BYTE   UNIT     CODE           ?PR?INITUART?UART
003574H   003576H   000003H   BYTE   UNIT     CODE           ?PR?T2_ISR_PC?TIMER
003577H   003579H   000003H   BYTE   UNIT     CODE           ?PR?QRJ_SET?QRJ
00357AH   0035E2H   000069H   BYTE   UNIT     CONST          ?CO?HANDLE
0035E3H   0035F9H   000017H   BYTE   UNIT     CONST          ?CO?I2C

* * * * * * * * * * *  X D A T A   M E M O R Y  * * * * * * * * * * * * *
LX51 LINKER/LOCATER V4.66.93.0                                                        04/30/2025  12:14:31  PAGE 5


008000H   00A129H   00212AH   BYTE   UNIT     XDATA          ?XD?UART
00A12AH   00A42CH   000303H   BYTE   UNIT     XDATA          ?XD?HANDLE
00A42DH   00A47BH   00004FH   BYTE   UNIT     XDATA          ?XD?HOME
00A47CH   00A4B9H   00003EH   BYTE   UNIT     XDATA          _XDATA_GROUP_
00A4BAH   00A4CEH   000015H   BYTE   UNIT     XDATA          ?XD?TOF
00A4CFH   00A4E0H   000012H   BYTE   UNIT     XDATA          ?XD?QRJ
00A4E1H   00A4E9H   000009H   BYTE   UNIT     XDATA          ?XD?I2C
00A4EAH   00A4EFH   000006H   BYTE   UNIT     XDATA          ?XD?_JUMPPAGE?HANDLE
00A4F0H   00A4F4H   000005H   BYTE   UNIT     XDATA          ?XD?_SETVOICE?HANDLE
00A4F5H   00A4F8H   000004H   BYTE   UNIT     XDATA          ?XD?TIMER
00A4F9H   00A4FBH   000003H   BYTE   UNIT     XDATA          ?XD?_UART3SENDSTR?UART
00A4FCH   00A4FEH   000003H   BYTE   UNIT     XDATA          ?XD?_UART5SENDSTR?UART
00A4FFH   00A4FFH   000001H   BYTE   UNIT     XDATA          ?XD?_SETBLIGHT?HANDLE



OVERLAY MAP OF MODULE:   .\Objects\T5L51 (?C_STARTUP)


FUNCTION/MODULE                           BIT_GROUP   XDATA_GROUP
--> CALLED FUNCTION/MODULE               START  STOP  START  STOP
=================================================================
?C_C51STARTUP                            ----- -----  ----- -----
  +--> MAIN/MAIN
  +--> ?C_INITSEG

MAIN/MAIN                                ----- -----  ----- -----
  +--> INITCPU/SYS
  +--> INIT_RTC/I2C
  +--> PAGELOCK_INIT/HOME
  +--> HANDLEPROC/HANDLE
  +--> READCURRENTPAGE_RUN/HOME
  +--> CLOCK/I2C

INITCPU/SYS                              ----- -----  ----- -----
  +--> INITINT/SYS
  +--> INITGPIO/SYS
  +--> INITUART/UART
  +--> INITTIMER/TIMER

INITINT/SYS                              ----- -----  ----- -----

INITGPIO/SYS                             ----- -----  ----- -----

INITUART/UART                            ----- -----  ----- -----
  +--> UART2INIT/UART
  +--> UART4INIT/UART
  +--> UART5INIT/UART

UART2INIT/UART                           ----- -----  ----- -----

UART4INIT/UART                           ----- -----  ----- -----

UART5INIT/UART                           ----- -----  ----- -----

INITTIMER/TIMER                          ----- -----  ----- -----
  +--> T0_INIT/TIMER
  +--> T2_INIT/TIMER

T0_INIT/TIMER                            ----- -----  ----- -----

T2_INIT/TIMER                            ----- -----  ----- -----

INIT_RTC/I2C                             ----- -----  ----- -----
  +--> _RX8130_WRIT_BYTE/I2C
LX51 LINKER/LOCATER V4.66.93.0                                                        04/30/2025  12:14:31  PAGE 6


  +--> RX8130_STOP/I2C
  +--> RX8130_START/I2C
  +--> RX8130_READ_BYTE/I2C
  +--> RX8130_MACK/I2C
  +--> RX8130_MNAK/I2C

_RX8130_WRIT_BYTE/I2C                    ----- -----  ----- -----
  +--> RX8130_START/I2C
  +--> RX8130_STOP/I2C
  +--> SDA_OUT/I2C
  +--> DELAYUS/I2C
  +--> RX8130_CACK/I2C

RX8130_START/I2C                         ----- -----  ----- -----
  +--> SDA_OUT/I2C
  +--> DELAYUS/I2C

SDA_OUT/I2C                              ----- -----  ----- -----

DELAYUS/I2C                              ----- -----  ----- -----

RX8130_STOP/I2C                          ----- -----  ----- -----
  +--> _RX8130_WRIT_BYTE/I2C
  +--> SDA_OUT/I2C
  +--> DELAYUS/I2C
  +--> SDA_IN/I2C

SDA_IN/I2C                               ----- -----  ----- -----

RX8130_CACK/I2C                          ----- -----  ----- -----
  +--> SDA_IN/I2C
  +--> DELAYUS/I2C
  +--> SDA_OUT/I2C

RX8130_READ_BYTE/I2C                     ----- -----  ----- -----
  +--> SDA_IN/I2C
  +--> DELAYUS/I2C

RX8130_MACK/I2C                          ----- -----  ----- -----
  +--> SDA_OUT/I2C
  +--> DELAYUS/I2C

RX8130_MNAK/I2C                          ----- -----  ----- -----
  +--> SDA_OUT/I2C
  +--> DELAYUS/I2C

PAGELOCK_INIT/HOME                       ----- -----  ----- -----

HANDLEPROC/HANDLE                        ----- -----  ----- -----
  +--> GETVALUE0F00/HANDLE
  +--> TOUCHHANDLE/HANDLE
  +--> PARSEBUFFER/HANDLE

GETVALUE0F00/HANDLE                      ----- -----  A47CH A47FH
  +--> _READDGUS/DGUS
  +--> _WRITEDGUS/DGUS

_READDGUS/DGUS                           ----- -----  A4B3H A4B9H

_WRITEDGUS/DGUS                          ----- -----  A4B3H A4B9H

TOUCHHANDLE/HANDLE                       ----- -----  A47CH A491H
  +--> _READDGUS/DGUS
  +--> _PAGE_SET/HANDLE

LX51 LINKER/LOCATER V4.66.93.0                                                        04/30/2025  12:14:31  PAGE 7


_PAGE_SET/HANDLE                         ----- -----  ----- -----
  +--> GET_DATA1/HANDLE
  +--> RTC_SET_IN/I2C

GET_DATA1/HANDLE                         ----- -----  ----- -----

RTC_SET_IN/I2C                           ----- -----  A492H A4A3H
  +--> _READDGUS/DGUS
  +--> _WRITEDGUS/DGUS
  +--> RTC_SET_TIME/I2C

RTC_SET_TIME/I2C                         20H.0 20H.0  A4A4H A4B2H
  +--> _READDGUS/DGUS
  +--> _WRITEDGUS/DGUS
  +--> _RX8130_WRIT_BYTE/I2C
  +--> RX8130_STOP/I2C

PARSEBUFFER/HANDLE                       ----- -----  A47CH A48AH
  +--> _FIND_DLT645_FRAME/HANDLE
  +--> _PARSE_DLT645_FRAME/HANDLE
  +--> DLT645_HANDLE/HANDLE

_FIND_DLT645_FRAME/HANDLE                ----- -----  A48BH A499H

_PARSE_DLT645_FRAME/HANDLE               ----- -----  A48BH A496H

DLT645_HANDLE/HANDLE                     ----- -----  A48BH A48CH
  +--> _WRITEDGUS/DGUS
  +--> _READDGUS/DGUS
  +--> _UART2SENDSTR/UART

_UART2SENDSTR/UART                       ----- -----  A48DH A48FH
  +--> _UART2SENDBYTE/UART

_UART2SENDBYTE/UART                      ----- -----  ----- -----

READCURRENTPAGE_RUN/HOME                 ----- -----  ----- -----
  +--> _READDGUS/DGUS
  +--> QRJ_HOME/QRJ
  +--> PREPARE_QRJ_ZX_QY/HOME

QRJ_HOME/QRJ                             ----- -----  ----- -----
  +--> QRJ_SET/QRJ
  +--> QRJ_PREPARE/QRJ
  +--> QRJ_RUN/QRJ
  +--> QRJ_STOP/QRJ
  +--> QRJ_DONE/QRJ
  +--> QRJ_RESET/QRJ

QRJ_SET/QRJ                              ----- -----  ----- -----
  +--> UNLOCK_CURRENT_PAGE/HOME

UNLOCK_CURRENT_PAGE/HOME                 ----- -----  ----- -----
  +--> _UNLOCK_CURRENT_PAGE_ZENGLIANG/HOME
  +--> _WRITEDGUS/DGUS

_UNLOCK_CURRENT_PAGE_ZENGLIANG/HOME      ----- -----  ----- -----
  +--> _WRITEDGUS/DGUS

QRJ_PREPARE/QRJ                          ----- -----  A47CH A481H
  +--> _READDGUS/DGUS
  +--> _QRJ_MM_TO_S/QRJ
  +--> _WRITEDGUS/DGUS

_QRJ_MM_TO_S/QRJ                         ----- -----  A482H A485H
LX51 LINKER/LOCATER V4.66.93.0                                                        04/30/2025  12:14:31  PAGE 8



QRJ_RUN/QRJ                              ----- -----  ----- -----
  +--> QRJ_ZX__QY_RUN/HOME

QRJ_ZX__QY_RUN/HOME                      ----- -----  A47CH A47FH
  +--> _QRJ_MM_TO_S/QRJ
  +--> _WRITEDGUS/DGUS

QRJ_STOP/QRJ                             ----- -----  ----- -----

QRJ_DONE/QRJ                             ----- -----  ----- -----
  +--> _WRITEDGUS/DGUS

QRJ_RESET/QRJ                            ----- -----  ----- -----
  +--> _WRITEDGUS/DGUS

PREPARE_QRJ_ZX_QY/HOME                   ----- -----  ----- -----
  +--> _L_MM_TO_P_UW/HOME
  +--> _WRITEDGUS/DGUS
  +--> _POW/POW

_L_MM_TO_P_UW/HOME                       ----- -----  A47CH A489H
  +--> _POW/POW

_POW/POW                                 ----- -----  A48AH A493H
  +--> LOG/LOG
  +--> EXP/EXP

LOG/LOG                                  20H.0 20H.0  A494H A497H

EXP/EXP                                  ----- -----  ----- -----

CLOCK/I2C                                ----- -----  ----- -----
  +--> READ_TIME/I2C

READ_TIME/I2C                            ----- -----  A47CH A485H
  +--> _RX8130_WRIT_BYTE/I2C
  +--> RX8130_STOP/I2C
  +--> RX8130_START/I2C
  +--> RX8130_READ_BYTE/I2C
  +--> RX8130_MACK/I2C
  +--> RX8130_MNAK/I2C
  +--> _RTC_GET_WEEK/I2C
  +--> _WRITEDGUS/DGUS

_RTC_GET_WEEK/I2C                        ----- -----  A486H A48AH

?C_INITSEG                               ----- -----  ----- -----

*** NEW ROOT ***************************

EX0_ISR_PC/SYS                           ----- -----  ----- -----

*** NEW ROOT ***************************

EX1_ISR_PC/SYS                           ----- -----  ----- -----

*** NEW ROOT ***************************

UART2_ISR_PC/UART                        ----- -----  ----- -----

*** NEW ROOT ***************************

UART3_ISR_PC/UART                        ----- -----  ----- -----

LX51 LINKER/LOCATER V4.66.93.0                                                        04/30/2025  12:14:31  PAGE 9


*** NEW ROOT ***************************

UART5_TX_ISR_PC/UART                     ----- -----  ----- -----

*** NEW ROOT ***************************

UART5_RX_ISR_PC/UART                     ----- -----  ----- -----
  +--> UART5_ISR/TOF

UART5_ISR/TOF                            ----- -----  ----- -----

*** NEW ROOT ***************************

T0_ISR_PC/TIMER                          ----- -----  ----- -----

*** NEW ROOT ***************************

T2_ISR_PC/TIMER                          ----- -----  ----- -----



PUBLIC SYMBOLS OF MODULE:  .\Objects\T5L51 (?C_STARTUP)


      VALUE       CLASS    TYPE      PUBLIC SYMBOL NAME
      =================================================
      0200A48BH   XDATA    BYTE      ?_find_dlt645_frame?BYTE
      0200A48BH   XDATA    BYTE      ?_parse_dlt645_frame?BYTE
      0200A48AH   XDATA    ---       ?_pow?BYTE
      0200A4B3H   XDATA    BYTE      ?_ReadDGUS?BYTE
      0200A4B3H   XDATA    BYTE      ?_WriteDGUS?BYTE
      01000455H   CODE     ---       ?C?CASTF
      010004D6H   CODE     ---       ?C?CHKFLOAT
      0100065DH   CODE     ---       ?C?CLDOPTR
      01000644H   CODE     ---       ?C?CLDPTR
      00000000H   NUMBER   ---       ?C?CODESEG
      0100061EH   CODE     ---       ?C?COPY
      0100069CH   CODE     ---       ?C?CSTOPTR
      0100068AH   CODE     ---       ?C?CSTPTR
      01000421H   CODE     ---       ?C?FCASTC
      0100041CH   CODE     ---       ?C?FCASTI
      01000417H   CODE     ---       ?C?FCASTL
      01000501H   CODE     ---       ?C?FP2SERIES
      01000107H   CODE     ---       ?C?FPADD
      010003A0H   CODE     ---       ?C?FPCMP
      0100039EH   CODE     ---       ?C?FPCMP3
      01000301H   CODE     ---       ?C?FPDIV
      0100048CH   CODE     ---       ?C?FPGETOPN2
      010001F8H   CODE     ---       ?C?FPMUL
      010004C1H   CODE     ---       ?C?FPNANRESULT
      010004F0H   CODE     ---       ?C?FPNEG
      010004CBH   CODE     ---       ?C?FPOVERFLOW
      010004A3H   CODE     ---       ?C?FPRESULT
      010004B7H   CODE     ---       ?C?FPRESULT2
      01000510H   CODE     ---       ?C?FPSERIES
      01000103H   CODE     ---       ?C?FPSUB
      010004C8H   CODE     ---       ?C?FPUNDERFLOW
      0100075BH   CODE     ---       ?C?IILDX
      01000771H   CODE     ---       ?C?ILDIX
      010006BEH   CODE     ---       ?C?IMUL
      01000787H   CODE     ---       ?C?ISTPTR
      010008A6H   CODE     ---       ?C?LLDCODE
      010008C2H   CODE     ---       ?C?LLDCODE0
      010008B6H   CODE     ---       ?C?LLDXDATA0
      01000874H   CODE     ---       ?C?LNEG
LX51 LINKER/LOCATER V4.66.93.0                                                        04/30/2025  12:14:31  PAGE 10


      01000893H   CODE     ---       ?C?LSHL
      010008DEH   CODE     ---       ?C?LSTKXDATA
      010008D2H   CODE     ---       ?C?LSTXDATA
      0100090FH   CODE     ---       ?C?MEMSET
      01000725H   CODE     ---       ?C?SIDIV
      010006D0H   CODE     ---       ?C?UIDIV
      01000882H   CODE     ---       ?C?ULCMP
      010007E2H   CODE     ---       ?C?ULDIV
      00000000H   NUMBER   ---       ?C?XDATASEG
      01002AEAH   CODE     ---       ?C_START
      01000000H   CODE     ---       ?C_STARTUP
      010033C7H   CODE     ---       _DelayMs
      01002B67H   CODE     ---       _EXP
      0100277AH   CODE     ---       _find_dlt645_frame
      01002F40H   CODE     ---       _JumpPage
      0100155FH   CODE     ---       _L_mm_TO_P_uw
      010032C4H   CODE     ---       _Lock_current_page_zengliang
      0100247DH   CODE     ---       _LOG
      01002479H   CODE     ---       _LOG10
      01002E65H   CODE     ---       _page_set
      01003332H   CODE     ---       _parse_dlt645_frame
      01002053H   CODE     ---       _pow
      01002859H   CODE     ---       _QRJ_mm_to_s
      01001C5BH   CODE     ---       _ReadDGUS
      010021B9H   CODE     ---       _RTC_Get_Week
      010000C4H   CODE     ---       _Rx8130_Writ_Byte
      01003405H   CODE     ---       _SetBlight
      01002BC9H   CODE     ---       _SetVoice
      010034F9H   CODE     ---       _Uart2SendByte
      010031C4H   CODE     ---       _Uart2SendStr
      01003507H   CODE     ---       _Uart3SendByte
      01003205H   CODE     ---       _Uart3SendStr
      0100353DH   CODE     ---       _Uart5SendByte
      01003246H   CODE     ---       _Uart5SendStr
      010032FBH   CODE     ---       _Unlock_current_page_zengliang
      01001A0EH   CODE     ---       _WriteDGUS
*SFR* 000000D0H.6 DATA     BIT       AC
*SFR* 000000E0H   DATA     BYTE      ACC
*SFR* 000000D8H   DATA     BYTE      ADCON
*SFR* 000000F1H   DATA     BYTE      ADR_H
*SFR* 000000F4H   DATA     BYTE      ADR_INC
*SFR* 000000F3H   DATA     BYTE      ADR_L
*SFR* 000000F2H   DATA     BYTE      ADR_M
*SFR* 000000F8H.4 DATA     BIT       APP_ACK
*SFR* 000000F8H.0 DATA     BIT       APP_DATA0
*SFR* 000000F8H.1 DATA     BIT       APP_DATA1
*SFR* 000000F8H.2 DATA     BIT       APP_DATA2
*SFR* 000000F8H.3 DATA     BIT       APP_DATA3
*SFR* 000000F8H.6 DATA     BIT       APP_EN
*SFR* 000000F8H.7 DATA     BIT       APP_REQ
*SFR* 000000F8H.5 DATA     BIT       APP_RW
*SFR* 000000F0H   DATA     BYTE      B
      0200A46EH   XDATA    WORD      baifenbi_T
*SFR* 000000D9H   DATA     BYTE      BODE2_DIV_H
*SFR* 000000E7H   DATA     BYTE      BODE2_DIV_L
*SFR* 000000AEH   DATA     BYTE      BODE3_DIV_H
*SFR* 000000AFH   DATA     BYTE      BODE3_DIV_L
*SFR* 0000008FH   DATA     BYTE      CAN_CR
*SFR* 000000E8H   DATA     BYTE      CAN_ET
*SFR* 00000091H   DATA     BYTE      CAN_IR
      0200A462H   XDATA    FLOAT     change_P_uW_doing
*SFR* 0000008EH   DATA     BYTE      CKCON
      0100341FH   CODE     ---       Clock
      0200A45AH   XDATA    WORD      ControlPageLock_Adress
      0100357AH   CONST    ---       CUart2
LX51 LINKER/LOCATER V4.66.93.0                                                        04/30/2025  12:14:31  PAGE 11


      0100358FH   CONST    ---       CUart3
      010035A1H   CONST    ---       CUart4
      010035B3H   CONST    ---       CUart5
      0200A46CH   XDATA    WORD      Current_Lock
      0200A4E0H   XDATA    BYTE      current_st
      0200A441H   XDATA    ---       CurrentPageNum
*SFR* 000000D0H.7 DATA     BIT       CY
      0200A466H   XDATA    FLOAT     D
*SFR* 00000095H   DATA     BYTE      D_PAGESEL
*SFR* 000000FDH   DATA     BYTE      DATA0
*SFR* 000000FCH   DATA     BYTE      DATA1
*SFR* 000000FBH   DATA     BYTE      DATA2
*SFR* 000000FAH   DATA     BYTE      DATA3
      01003473H   CODE     ---       Delayus
*SFR* 000000E6H   DATA     BYTE      DIV_MODE
      010029EAH   CODE     ---       dlt645_handle
*SFR* 00000093H   DATA     BYTE      DPC
*SFR* 00000083H   DATA     BYTE      DPH
*SFR* 00000082H   DATA     BYTE      DPL
*SFR* 000000A8H.7 DATA     BIT       EA
*SFR* 000000B8H.1 DATA     BIT       ECAN
*SFR* 000000A8H.4 DATA     BIT       ES0
*SFR* 000000B8H.3 DATA     BIT       ES2R
*SFR* 000000B8H.2 DATA     BIT       ES2T
*SFR* 000000B8H.5 DATA     BIT       ES3R
*SFR* 000000B8H.4 DATA     BIT       ES3T
*SFR* 000000A8H.1 DATA     BIT       ET0
*SFR* 000000A8H.3 DATA     BIT       ET1
*SFR* 000000A8H.5 DATA     BIT       ET2
*SFR* 000000A8H.0 DATA     BIT       EX0
      01000006H   CODE     ---       EX0_ISR_PC
*SFR* 000000A8H.2 DATA     BIT       EX1
      0100000EH   CODE     ---       EX1_ISR_PC
*SFR* 000000FEH   DATA     BYTE      EXADR
*SFR* 000000FFH   DATA     BYTE      EXDATA
*SFR* 000000D0H.5 DATA     BIT       F0
*SFR* 000000D0H.1 DATA     BIT       F1
      0200A12AH   XDATA    ---       frame_buf
      0200A329H   XDATA    ---       frame_buf1
      010000F1H   CODE     ---       get_data1
      01003178H   CODE     ---       GetValue0F00
      0200A4BDH   XDATA    ---       GY53_Data
      01003549H   CODE     ---       HandleProc
      0200A4F5H   XDATA    DWORD     i
      0200A4D7H   XDATA    ---       icon
*SFR* 00000088H.1 DATA     BIT       IE0
*SFR* 00000088H.3 DATA     BIT       IE1
*SFR* 000000A8H   DATA     BYTE      IEN0
*SFR* 000000B8H   DATA     BYTE      IEN1
*SFR* 0000009AH   DATA     BYTE      IEN2
*SFR* 000000D1H   DATA     BYTE      IEN3
      0100311EH   CODE     ---       Init_Rtc
      010034E8H   CODE     ---       InitCPU
      01003453H   CODE     ---       InitGPIO
      01003531H   CODE     ---       InitInt
      0100005BH   CODE     ---       InitTimer
      0100356BH   CODE     ---       InitUart
      01003555H   CODE     ---       InitUartSend
*SFR* 000000A9H   DATA     BYTE      IP0
*SFR* 000000B9H   DATA     BYTE      IP1
*SFR* 000000C0H   DATA     BYTE      IRCON
*SFR* 000000BFH   DATA     BYTE      IRCON2
*SFR* 00000088H.0 DATA     BIT       IT0
*SFR* 00000088H.2 DATA     BIT       IT1
*SFR* 000000A0H.5 DATA     BIT       JIGUANG
LX51 LINKER/LOCATER V4.66.93.0                                                        04/30/2025  12:14:31  PAGE 12


      0200A4CDH   XDATA    WORD      L_int
      0200A474H   XDATA    FLOAT     L_M
      0200A451H   XDATA    FLOAT     L_m_D_V_S
      0200A4DFH   XDATA    BYTE      L_T_S_FLAG
      0200A459H   XDATA    BYTE      last_page
*SFR* 000000A0H.3 DATA     BIT       LED_B
*SFR* 000000A0H.1 DATA     BIT       LED_G
*SFR* 00000090H.7 DATA     BIT       LED_R
      01002DE9H   CODE     ---       Lock_current_page
*SFR* 000000E5H   DATA     BYTE      MAC_MODE
      01003499H   CODE     ---       main
      0200A455H   XDATA    FLOAT     mJ_doing
      0200A4BCH   XDATA    BYTE      MODE
      0200A44BH   XDATA    WORD      mode_close
      0200A460H   XDATA    WORD      mode_open
*SFR* 000000C9H   DATA     BYTE      MUX_SEL
*SFR* 000000D0H.2 DATA     BIT       OV
*SFR* 000000D0H.0 DATA     BIT       P
*SFR* 00000080H   DATA     BYTE      P0
*SFR* 00000080H.0 DATA     BIT       P0_0
*SFR* 000000B7H   DATA     BYTE      P0MDOUT
*SFR* 00000090H   DATA     BYTE      P1
*SFR* 00000090H.0 DATA     BIT       P1_0
*SFR* 00000090H.1 DATA     BIT       P1_1
*SFR* 000000BCH   DATA     BYTE      P1MDOUT
*SFR* 000000A0H   DATA     BYTE      P2
*SFR* 000000BDH   DATA     BYTE      P2MDOUT
*SFR* 000000B0H   DATA     BYTE      P3
*SFR* 000000B0H.1 DATA     BIT       P3_1
*SFR* 000000BEH   DATA     BYTE      P3MDOUT
      01003523H   CODE     ---       PageLock_Init
*SFR* 00000094H   DATA     BYTE      PAGESEL
      0200A46AH   XDATA    BYTE      PageSliding
      0200A45CH   XDATA    FLOAT     pai
      0100093BH   CODE     ---       ParseBuffer
*SFR* 00000087H   DATA     BYTE      PCON
*SFR* 000000F9H   DATA     BYTE      PORTDRV
      01000CE1H   CODE     ---       Prepare_qrj_zx_qy
*SFR* 000000D0H   DATA     BYTE      PSW
      0200A4CFH   XDATA    FLOAT     qirongjiao_j
      01003483H   CODE     ---       QRJ_done
      01003064H   CODE     ---       QRJ_Home
      01003439H   CODE     ---       QRJ_Init
      01002572H   CODE     ---       QRJ_prepare
      010030C2H   CODE     ---       QRJ_Reset
      01003004H   CODE     ---       QRJ_run
      01003577H   CODE     ---       QRJ_Set
      01000061H   CODE     ---       QRJ_stop
      010017BBH   CODE     ---       QRJ_ZX__QY_RUN
*SFR* 000000F8H   DATA     BYTE      RAMMODE
*SFR* 00000098H.2 DATA     BIT       RB80
      01002316H   CODE     ---       Read_Time
      01003287H   CODE     ---       ReadCurrentPage_run
*SFR* 00000098H.4 DATA     BIT       REN0
      0200A46BH   XDATA    BYTE      Returnkey
*SFR* 00000098H.0 DATA     BIT       RI0
*SFR* 000000D0H.3 DATA     BIT       RS0
*SFR* 000000D0H.4 DATA     BIT       RS1
*SFR* 000000B0H.2 DATA     BIT       RTC_SCL
*SFR* 000000B0H.3 DATA     BIT       RTC_SDA
      010012BBH   CODE     ---       RTC_SET_IN
      01001EA3H   CODE     ---       RTC_Set_Time
      01003383H   CODE     ---       Rx8130_Cack
      01000016H   CODE     ---       Rx8130_Mack
      01003560H   CODE     ---       Rx8130_Mnak
LX51 LINKER/LOCATER V4.66.93.0                                                        04/30/2025  12:14:31  PAGE 13


      0100002EH   CODE     ---       Rx8130_Read_Byte
      010034C1H   CODE     ---       Rx8130_Start
      010033B5H   CODE     ---       Rx8130_Stop
      0200A229H   XDATA    ---       s_dl_t_645_8283_body
*SFR* 00000099H   DATA     BYTE      SBUF0
*SFR* 0000009CH   DATA     BYTE      SBUF1
*SFR* 0000009FH   DATA     BYTE      SBUF2_RX
*SFR* 0000009EH   DATA     BYTE      SBUF2_TX
*SFR* 000000ADH   DATA     BYTE      SBUF3_RX
*SFR* 000000ACH   DATA     BYTE      SBUF3_TX
*SFR* 00000098H   DATA     BYTE      SCON0
*SFR* 0000009BH   DATA     BYTE      SCON1
*SFR* 00000097H   DATA     BYTE      SCON2R
*SFR* 00000096H   DATA     BYTE      SCON2T
*SFR* 000000ABH   DATA     BYTE      SCON3R
*SFR* 000000A7H   DATA     BYTE      SCON3T
      01000026H   CODE     ---       SDA_IN
      01000066H   CODE     ---       SDA_OUT
      0200A4E7H   XDATA    BYTE      Select_rtc
*SFR* 00000098H.7 DATA     BIT       SM0
*SFR* 00000098H.6 DATA     BIT       SM1
*SFR* 00000098H.5 DATA     BIT       SM2
*SFR* 00000081H   DATA     BYTE      SP
      0200A470H   XDATA    FLOAT     Square
*SFR* 000000BAH   DATA     BYTE      SREL0H
*SFR* 000000AAH   DATA     BYTE      SREL0L
*SFR* 000000BBH   DATA     BYTE      SREL1H
*SFR* 0000009DH   DATA     BYTE      SREL1L
      0200A4E8H   XDATA    WORD      SysTick_RTC
      01003515H   CODE     ---       T0_Init
      01002938H   CODE     ---       T0_ISR_PC
      010034ADH   CODE     ---       T2_Init
      01003574H   CODE     ---       T2_ISR_PC
*SFR* 000000C8H   DATA     BYTE      T2CON
      0200A431H   XDATA    FLOAT     Tan_zhongxin
      0200A443H   XDATA    FLOAT     Tanx
*SFR* 00000098H.3 DATA     BIT       TB80
*SFR* 00000088H   DATA     BYTE      TCON
*SFR* 00000088H.5 DATA     BIT       TF0
*SFR* 00000088H.7 DATA     BIT       TF1
*SFR* 000000C0H.6 DATA     BIT       TF2
*SFR* 0000008CH   DATA     BYTE      TH0
*SFR* 0000008DH   DATA     BYTE      TH1
*SFR* 000000CDH   DATA     BYTE      TH2
*SFR* 00000098H.1 DATA     BIT       TI0
      0200A435H   XDATA    DWORD     time_100ms
      0200A44DH   XDATA    DWORD     time_doing
      0200A4D3H   XDATA    FLOAT     TIME_static
*SFR* 0000008AH   DATA     BYTE      TL0
*SFR* 0000008BH   DATA     BYTE      TL1
*SFR* 000000CCH   DATA     BYTE      TL2
*SFR* 00000089H   DATA     BYTE      TMOD
      01002CE4H   CODE     ---       TouchHandle
*SFR* 00000088H.4 DATA     BIT       TR0
*SFR* 00000088H.6 DATA     BIT       TR1
*SFR* 000000C8H.0 DATA     BIT       TR2
*SFR* 000000CBH   DATA     BYTE      TRL2H
*SFR* 000000CAH   DATA     BYTE      TRL2L
*SFR* 000000C8H.7 DATA     BIT       TSF2
      02008080H   XDATA    BYTE      uart2_busy
      01002EDCH   CODE     ---       UART2_ISR_PC
      0200808AH   XDATA    ---       Uart2_Rx
      02008082H   XDATA    WORD      uart2_rx_count
      0100335EH   CODE     ---       Uart2Init
      02008081H   XDATA    BYTE      uart3_busy
LX51 LINKER/LOCATER V4.66.93.0                                                        04/30/2025  12:14:31  PAGE 14


      01002FA4H   CODE     ---       UART3_ISR_PC
      0200A02AH   XDATA    ---       Uart3_Rx
      02008084H   XDATA    WORD      uart3_rx_count
      010033E7H   CODE     ---       Uart3Init
      0200A0AAH   XDATA    ---       Uart4_Rx
      02008086H   XDATA    WORD      uart4_rx_count
      010034D5H   CODE     ---       Uart4Init
      01002679H   CODE     ---       UART5_isr
      02008000H   XDATA    ---       Uart5_Rx
      02008088H   XDATA    WORD      uart5_rx_count
      01002D68H   CODE     ---       UART5_RX_ISR_PC
      0100002AH   CODE     ---       UART5_TX_ISR_PC
      0100006EH   CODE     ---       Uart5Init
      01002C5BH   CODE     ---       Unlock_current_page
*SFR* 00000090H.5 DATA     BIT       UV
*SFR* 000000A0H.7 DATA     BIT       UV_St
      0200A429H   XDATA    ---       value0F00
      0200A478H   XDATA    FLOAT     Volume
      0200A428H   XDATA    BYTE      xp_status
      0200A447H   XDATA    FLOAT     zhongxin_35mm



SYMBOL TABLE OF MODULE:  .\Objects\T5L51 (?C_STARTUP)

      VALUE       REP       CLASS    TYPE      SYMBOL NAME
      ====================================================
      ---         MODULE    ---      ---       ?C_STARTUP
      01000000H   PUBLIC    CODE     ---       ?C_STARTUP
      000000E0H   SYMBOL    DATA     ---       ACC
      000000F0H   SYMBOL    DATA     ---       B
      0000008EH   SYMBOL    DATA     ---       CKCON
      00000094H   SYMBOL    DATA     ---       DAGESEL
      00000093H   SYMBOL    DATA     ---       DPC
      00000083H   SYMBOL    DATA     ---       DPH
      00000082H   SYMBOL    DATA     ---       DPL
      00000095H   SYMBOL    DATA     ---       D_PAGESEL
      00000000H   SYMBOL    NUMBER   ---       IBPSTACK
      00000100H   SYMBOL    NUMBER   ---       IBPSTACKTOP
      00000080H   SYMBOL    NUMBER   ---       IDATALEN
      01002AA6H   SYMBOL    CODE     ---       IDATALOOP
      000000C9H   SYMBOL    DATA     ---       MUX_SEL
      00000000H   SYMBOL    NUMBER   ---       PBPSTACK
      00000100H   SYMBOL    NUMBER   ---       PBPSTACKTOP
      00000000H   SYMBOL    NUMBER   ---       PDATALEN
      00000000H   SYMBOL    NUMBER   ---       PDATASTART
      00000000H   SYMBOL    NUMBER   ---       PPAGE
      00000000H   SYMBOL    NUMBER   ---       PPAGEENABLE
      000000A0H   SYMBOL    DATA     ---       PPAGE_SFR
      000000F8H   SYMBOL    DATA     ---       RAMMODE
      00000081H   SYMBOL    DATA     ---       SP
      01002A8EH   SYMBOL    CODE     ---       STARTUP1
      000000C8H   SYMBOL    DATA     ---       T2CON
      00000000H   SYMBOL    NUMBER   ---       XBPSTACK
      00000000H   SYMBOL    NUMBER   ---       XBPSTACKTOP
      00000000H   SYMBOL    NUMBER   ---       XDATALEN
      00000000H   SYMBOL    NUMBER   ---       XDATASTART
      01000000H   LINE      CODE     ---       #133
      01002A8EH   LINE      CODE     ---       #143
      01002A91H   LINE      CODE     ---       #144
      01002A94H   LINE      CODE     ---       #145
      01002A97H   LINE      CODE     ---       #146
      01002A9AH   LINE      CODE     ---       #147
      01002A9DH   LINE      CODE     ---       #148
      01002AA0H   LINE      CODE     ---       #149
LX51 LINKER/LOCATER V4.66.93.0                                                        04/30/2025  12:14:31  PAGE 15


      01002AA3H   LINE      CODE     ---       #152
      01002AA5H   LINE      CODE     ---       #153
      01002AA6H   LINE      CODE     ---       #154
      01002AA7H   LINE      CODE     ---       #155
      01002AA9H   LINE      CODE     ---       #204
      01002AACH   LINE      CODE     ---       #215

      ---         MODULE    ---      ---       MAIN
      01003499H   PUBLIC    CODE     ---       main
      00000098H.3 SFRSYM    DATA     BIT       TB80
      000000F1H   SFRSYM    DATA     BYTE      ADR_H
      00000080H   SFRSYM    DATA     BYTE      P0
      00000090H   SFRSYM    DATA     BYTE      P1
      000000A0H   SFRSYM    DATA     BYTE      P2
      000000B0H   SFRSYM    DATA     BYTE      P3
      000000D0H.6 SFRSYM    DATA     BIT       AC
      000000F3H   SFRSYM    DATA     BYTE      ADR_L
      00000094H   SFRSYM    DATA     BYTE      PAGESEL
      000000F2H   SFRSYM    DATA     BYTE      ADR_M
      000000A8H.7 SFRSYM    DATA     BIT       EA
      000000A0H.5 SFRSYM    DATA     BIT       JIGUANG
      00000090H.7 SFRSYM    DATA     BIT       LED_R
      000000F8H   SFRSYM    DATA     BYTE      RAMMODE
      000000B7H   SFRSYM    DATA     BYTE      P0MDOUT
      000000A8H   SFRSYM    DATA     BYTE      IEN0
      000000BCH   SFRSYM    DATA     BYTE      P1MDOUT
      000000B8H   SFRSYM    DATA     BYTE      IEN1
      000000BDH   SFRSYM    DATA     BYTE      P2MDOUT
      000000F8H.0 SFRSYM    DATA     BIT       APP_DATA0
      0000009AH   SFRSYM    DATA     BYTE      IEN2
      000000BEH   SFRSYM    DATA     BYTE      P3MDOUT
      000000F8H.1 SFRSYM    DATA     BIT       APP_DATA1
      000000D1H   SFRSYM    DATA     BYTE      IEN3
      00000080H.0 SFRSYM    DATA     BIT       P0_0
      000000F8H.2 SFRSYM    DATA     BIT       APP_DATA2
      00000090H.0 SFRSYM    DATA     BIT       P1_0
      000000F8H.3 SFRSYM    DATA     BIT       APP_DATA3
      00000090H.1 SFRSYM    DATA     BIT       P1_1
      000000F8H.4 SFRSYM    DATA     BIT       APP_ACK
      000000F4H   SFRSYM    DATA     BYTE      ADR_INC
      000000B0H.1 SFRSYM    DATA     BIT       P3_1
      00000098H.4 SFRSYM    DATA     BIT       REN0
      000000B8H.1 SFRSYM    DATA     BIT       ECAN
      000000D0H.7 SFRSYM    DATA     BIT       CY
      000000B8H.3 SFRSYM    DATA     BIT       ES2R
      000000B8H.5 SFRSYM    DATA     BIT       ES3R
      000000B8H.2 SFRSYM    DATA     BIT       ES2T
      000000B8H.4 SFRSYM    DATA     BIT       ES3T
      000000C8H.7 SFRSYM    DATA     BIT       TSF2
      000000B0H.3 SFRSYM    DATA     BIT       RTC_SDA
      00000081H   SFRSYM    DATA     BYTE      SP
      000000D0H.2 SFRSYM    DATA     BIT       OV
      00000095H   SFRSYM    DATA     BYTE      D_PAGESEL
      00000090H.5 SFRSYM    DATA     BIT       UV
      000000F8H.7 SFRSYM    DATA     BIT       APP_REQ
      000000B0H.2 SFRSYM    DATA     BIT       RTC_SCL
      000000BFH   SFRSYM    DATA     BYTE      IRCON2
      000000BAH   SFRSYM    DATA     BYTE      SREL0H
      000000BBH   SFRSYM    DATA     BYTE      SREL1H
      00000087H   SFRSYM    DATA     BYTE      PCON
      000000AAH   SFRSYM    DATA     BYTE      SREL0L
      000000F9H   SFRSYM    DATA     BYTE      PORTDRV
      0000009DH   SFRSYM    DATA     BYTE      SREL1L
      00000089H   SFRSYM    DATA     BYTE      TMOD
      00000088H   SFRSYM    DATA     BYTE      TCON
LX51 LINKER/LOCATER V4.66.93.0                                                        04/30/2025  12:14:31  PAGE 16


      00000097H   SFRSYM    DATA     BYTE      SCON2R
      000000FFH   SFRSYM    DATA     BYTE      EXDATA
      000000ABH   SFRSYM    DATA     BYTE      SCON3R
      000000D9H   SFRSYM    DATA     BYTE      BODE2_DIV_H
      000000AEH   SFRSYM    DATA     BYTE      BODE3_DIV_H
      00000096H   SFRSYM    DATA     BYTE      SCON2T
      000000A7H   SFRSYM    DATA     BYTE      SCON3T
      000000E7H   SFRSYM    DATA     BYTE      BODE2_DIV_L
      00000088H.1 SFRSYM    DATA     BIT       IE0
      000000AFH   SFRSYM    DATA     BYTE      BODE3_DIV_L
      00000088H.3 SFRSYM    DATA     BIT       IE1
      000000C9H   SFRSYM    DATA     BYTE      MUX_SEL
      000000F0H   SFRSYM    DATA     BYTE      B
      000000E0H   SFRSYM    DATA     BYTE      ACC
      000000A8H.4 SFRSYM    DATA     BIT       ES0
      0000008FH   SFRSYM    DATA     BYTE      CAN_CR
      000000A8H.1 SFRSYM    DATA     BIT       ET0
      000000A9H   SFRSYM    DATA     BYTE      IP0
      000000A8H.3 SFRSYM    DATA     BIT       ET1
      00000088H.5 SFRSYM    DATA     BIT       TF0
      000000B9H   SFRSYM    DATA     BYTE      IP1
      000000A8H.5 SFRSYM    DATA     BIT       ET2
      00000098H.0 SFRSYM    DATA     BIT       RI0
      00000088H.7 SFRSYM    DATA     BIT       TF1
      000000FDH   SFRSYM    DATA     BYTE      DATA0
      000000C0H.6 SFRSYM    DATA     BIT       TF2
      000000E8H   SFRSYM    DATA     BYTE      CAN_ET
      000000FCH   SFRSYM    DATA     BYTE      DATA1
      0000008CH   SFRSYM    DATA     BYTE      TH0
      000000A8H.0 SFRSYM    DATA     BIT       EX0
      00000098H.1 SFRSYM    DATA     BIT       TI0
      00000088H.0 SFRSYM    DATA     BIT       IT0
      000000FBH   SFRSYM    DATA     BYTE      DATA2
      0000008DH   SFRSYM    DATA     BYTE      TH1
      000000A8H.2 SFRSYM    DATA     BIT       EX1
      00000091H   SFRSYM    DATA     BYTE      CAN_IR
      000000CDH   SFRSYM    DATA     BYTE      TH2
      00000088H.2 SFRSYM    DATA     BIT       IT1
      000000FAH   SFRSYM    DATA     BYTE      DATA3
      000000D0H.0 SFRSYM    DATA     BIT       P
      00000098H.7 SFRSYM    DATA     BIT       SM0
      0000008AH   SFRSYM    DATA     BYTE      TL0
      00000098H.6 SFRSYM    DATA     BIT       SM1
      0000008BH   SFRSYM    DATA     BYTE      TL1
      00000098H.5 SFRSYM    DATA     BIT       SM2
      000000CCH   SFRSYM    DATA     BYTE      TL2
      000000A0H.7 SFRSYM    DATA     BIT       UV_St
      000000D0H.3 SFRSYM    DATA     BIT       RS0
      000000F8H.6 SFRSYM    DATA     BIT       APP_EN
      000000D0H.4 SFRSYM    DATA     BIT       RS1
      00000088H.4 SFRSYM    DATA     BIT       TR0
      00000088H.6 SFRSYM    DATA     BIT       TR1
      00000093H   SFRSYM    DATA     BYTE      DPC
      000000C8H.0 SFRSYM    DATA     BIT       TR2
      000000E5H   SFRSYM    DATA     BYTE      MAC_MODE
      00000083H   SFRSYM    DATA     BYTE      DPH
      00000082H   SFRSYM    DATA     BYTE      DPL
      00000099H   SFRSYM    DATA     BYTE      SBUF0
      0000009CH   SFRSYM    DATA     BYTE      SBUF1
      00000098H   SFRSYM    DATA     BYTE      SCON0
      0000009BH   SFRSYM    DATA     BYTE      SCON1
      000000D8H   SFRSYM    DATA     BYTE      ADCON
      000000C8H   SFRSYM    DATA     BYTE      T2CON
      000000E6H   SFRSYM    DATA     BYTE      DIV_MODE
      000000F8H.5 SFRSYM    DATA     BIT       APP_RW
LX51 LINKER/LOCATER V4.66.93.0                                                        04/30/2025  12:14:31  PAGE 17


      000000CBH   SFRSYM    DATA     BYTE      TRL2H
      0000009FH   SFRSYM    DATA     BYTE      SBUF2_RX
      000000ADH   SFRSYM    DATA     BYTE      SBUF3_RX
      0000008EH   SFRSYM    DATA     BYTE      CKCON
      0000009EH   SFRSYM    DATA     BYTE      SBUF2_TX
      000000ACH   SFRSYM    DATA     BYTE      SBUF3_TX
      000000CAH   SFRSYM    DATA     BYTE      TRL2L
      000000D0H.5 SFRSYM    DATA     BIT       F0
      000000FEH   SFRSYM    DATA     BYTE      EXADR
      000000D0H.1 SFRSYM    DATA     BIT       F1
      000000A0H.3 SFRSYM    DATA     BIT       LED_B
      000000D0H   SFRSYM    DATA     BYTE      PSW
      000000A0H.1 SFRSYM    DATA     BIT       LED_G
      000000C0H   SFRSYM    DATA     BYTE      IRCON
      00000098H.2 SFRSYM    DATA     BIT       RB80

      01003499H   BLOCK     CODE     ---       LVL=0
      01003499H   LINE      CODE     ---       #48
      01003499H   LINE      CODE     ---       #49
      01003499H   LINE      CODE     ---       #50
      0100349CH   LINE      CODE     ---       #54
      0100349FH   LINE      CODE     ---       #56
      010034A2H   LINE      CODE     ---       #58
      010034A2H   LINE      CODE     ---       #59
      010034A2H   LINE      CODE     ---       #64
      010034A5H   LINE      CODE     ---       #65
      010034A8H   LINE      CODE     ---       #67
      010034ABH   LINE      CODE     ---       #72
      ---         BLOCKEND  ---      ---       LVL=0

      ---         MODULE    ---      ---       SYS
      010034E8H   PUBLIC    CODE     ---       InitCPU
      0100000EH   PUBLIC    CODE     ---       EX1_ISR_PC
      01000006H   PUBLIC    CODE     ---       EX0_ISR_PC
      01003453H   PUBLIC    CODE     ---       InitGPIO
      01003531H   PUBLIC    CODE     ---       InitInt
      010033C7H   PUBLIC    CODE     ---       _DelayMs
      00000098H.3 SFRSYM    DATA     BIT       TB80
      000000F1H   SFRSYM    DATA     BYTE      ADR_H
      00000080H   SFRSYM    DATA     BYTE      P0
      00000090H   SFRSYM    DATA     BYTE      P1
      000000A0H   SFRSYM    DATA     BYTE      P2
      000000B0H   SFRSYM    DATA     BYTE      P3
      000000D0H.6 SFRSYM    DATA     BIT       AC
      000000F3H   SFRSYM    DATA     BYTE      ADR_L
      00000094H   SFRSYM    DATA     BYTE      PAGESEL
      000000F2H   SFRSYM    DATA     BYTE      ADR_M
      000000A8H.7 SFRSYM    DATA     BIT       EA
      000000A0H.5 SFRSYM    DATA     BIT       JIGUANG
      00000090H.7 SFRSYM    DATA     BIT       LED_R
      000000F8H   SFRSYM    DATA     BYTE      RAMMODE
      000000B7H   SFRSYM    DATA     BYTE      P0MDOUT
      000000A8H   SFRSYM    DATA     BYTE      IEN0
      000000BCH   SFRSYM    DATA     BYTE      P1MDOUT
      000000B8H   SFRSYM    DATA     BYTE      IEN1
      000000BDH   SFRSYM    DATA     BYTE      P2MDOUT
      000000F8H.0 SFRSYM    DATA     BIT       APP_DATA0
      0000009AH   SFRSYM    DATA     BYTE      IEN2
      000000BEH   SFRSYM    DATA     BYTE      P3MDOUT
      000000F8H.1 SFRSYM    DATA     BIT       APP_DATA1
      000000D1H   SFRSYM    DATA     BYTE      IEN3
      00000080H.0 SFRSYM    DATA     BIT       P0_0
      000000F8H.2 SFRSYM    DATA     BIT       APP_DATA2
      00000090H.0 SFRSYM    DATA     BIT       P1_0
      000000F8H.3 SFRSYM    DATA     BIT       APP_DATA3
LX51 LINKER/LOCATER V4.66.93.0                                                        04/30/2025  12:14:31  PAGE 18


      00000090H.1 SFRSYM    DATA     BIT       P1_1
      000000F8H.4 SFRSYM    DATA     BIT       APP_ACK
      000000F4H   SFRSYM    DATA     BYTE      ADR_INC
      000000B0H.1 SFRSYM    DATA     BIT       P3_1
      00000098H.4 SFRSYM    DATA     BIT       REN0
      000000B8H.1 SFRSYM    DATA     BIT       ECAN
      000000D0H.7 SFRSYM    DATA     BIT       CY
      000000B8H.3 SFRSYM    DATA     BIT       ES2R
      000000B8H.5 SFRSYM    DATA     BIT       ES3R
      000000B8H.2 SFRSYM    DATA     BIT       ES2T
      000000B8H.4 SFRSYM    DATA     BIT       ES3T
      000000C8H.7 SFRSYM    DATA     BIT       TSF2
      000000B0H.3 SFRSYM    DATA     BIT       RTC_SDA
      00000081H   SFRSYM    DATA     BYTE      SP
      000000D0H.2 SFRSYM    DATA     BIT       OV
      00000095H   SFRSYM    DATA     BYTE      D_PAGESEL
      00000090H.5 SFRSYM    DATA     BIT       UV
      000000F8H.7 SFRSYM    DATA     BIT       APP_REQ
      000000B0H.2 SFRSYM    DATA     BIT       RTC_SCL
      000000BFH   SFRSYM    DATA     BYTE      IRCON2
      000000BAH   SFRSYM    DATA     BYTE      SREL0H
      000000BBH   SFRSYM    DATA     BYTE      SREL1H
      00000087H   SFRSYM    DATA     BYTE      PCON
      000000AAH   SFRSYM    DATA     BYTE      SREL0L
      000000F9H   SFRSYM    DATA     BYTE      PORTDRV
      0000009DH   SFRSYM    DATA     BYTE      SREL1L
      00000089H   SFRSYM    DATA     BYTE      TMOD
      00000088H   SFRSYM    DATA     BYTE      TCON
      00000097H   SFRSYM    DATA     BYTE      SCON2R
      000000FFH   SFRSYM    DATA     BYTE      EXDATA
      000000ABH   SFRSYM    DATA     BYTE      SCON3R
      000000D9H   SFRSYM    DATA     BYTE      BODE2_DIV_H
      000000AEH   SFRSYM    DATA     BYTE      BODE3_DIV_H
      00000096H   SFRSYM    DATA     BYTE      SCON2T
      000000A7H   SFRSYM    DATA     BYTE      SCON3T
      000000E7H   SFRSYM    DATA     BYTE      BODE2_DIV_L
      00000088H.1 SFRSYM    DATA     BIT       IE0
      000000AFH   SFRSYM    DATA     BYTE      BODE3_DIV_L
      00000088H.3 SFRSYM    DATA     BIT       IE1
      000000C9H   SFRSYM    DATA     BYTE      MUX_SEL
      000000F0H   SFRSYM    DATA     BYTE      B
      000000E0H   SFRSYM    DATA     BYTE      ACC
      000000A8H.4 SFRSYM    DATA     BIT       ES0
      0000008FH   SFRSYM    DATA     BYTE      CAN_CR
      000000A8H.1 SFRSYM    DATA     BIT       ET0
      000000A9H   SFRSYM    DATA     BYTE      IP0
      000000A8H.3 SFRSYM    DATA     BIT       ET1
      00000088H.5 SFRSYM    DATA     BIT       TF0
      000000B9H   SFRSYM    DATA     BYTE      IP1
      000000A8H.5 SFRSYM    DATA     BIT       ET2
      00000098H.0 SFRSYM    DATA     BIT       RI0
      00000088H.7 SFRSYM    DATA     BIT       TF1
      000000FDH   SFRSYM    DATA     BYTE      DATA0
      000000C0H.6 SFRSYM    DATA     BIT       TF2
      000000E8H   SFRSYM    DATA     BYTE      CAN_ET
      000000FCH   SFRSYM    DATA     BYTE      DATA1
      0000008CH   SFRSYM    DATA     BYTE      TH0
      000000A8H.0 SFRSYM    DATA     BIT       EX0
      00000098H.1 SFRSYM    DATA     BIT       TI0
      00000088H.0 SFRSYM    DATA     BIT       IT0
      000000FBH   SFRSYM    DATA     BYTE      DATA2
      0000008DH   SFRSYM    DATA     BYTE      TH1
      000000A8H.2 SFRSYM    DATA     BIT       EX1
      00000091H   SFRSYM    DATA     BYTE      CAN_IR
      000000CDH   SFRSYM    DATA     BYTE      TH2
LX51 LINKER/LOCATER V4.66.93.0                                                        04/30/2025  12:14:31  PAGE 19


      00000088H.2 SFRSYM    DATA     BIT       IT1
      000000FAH   SFRSYM    DATA     BYTE      DATA3
      000000D0H.0 SFRSYM    DATA     BIT       P
      00000098H.7 SFRSYM    DATA     BIT       SM0
      0000008AH   SFRSYM    DATA     BYTE      TL0
      00000098H.6 SFRSYM    DATA     BIT       SM1
      0000008BH   SFRSYM    DATA     BYTE      TL1
      00000098H.5 SFRSYM    DATA     BIT       SM2
      000000CCH   SFRSYM    DATA     BYTE      TL2
      000000A0H.7 SFRSYM    DATA     BIT       UV_St
      000000D0H.3 SFRSYM    DATA     BIT       RS0
      000000F8H.6 SFRSYM    DATA     BIT       APP_EN
      000000D0H.4 SFRSYM    DATA     BIT       RS1
      00000088H.4 SFRSYM    DATA     BIT       TR0
      00000088H.6 SFRSYM    DATA     BIT       TR1
      00000093H   SFRSYM    DATA     BYTE      DPC
      000000C8H.0 SFRSYM    DATA     BIT       TR2
      000000E5H   SFRSYM    DATA     BYTE      MAC_MODE
      00000083H   SFRSYM    DATA     BYTE      DPH
      00000082H   SFRSYM    DATA     BYTE      DPL
      00000099H   SFRSYM    DATA     BYTE      SBUF0
      0000009CH   SFRSYM    DATA     BYTE      SBUF1
      00000098H   SFRSYM    DATA     BYTE      SCON0
      0000009BH   SFRSYM    DATA     BYTE      SCON1
      000000D8H   SFRSYM    DATA     BYTE      ADCON
      000000C8H   SFRSYM    DATA     BYTE      T2CON
      000000E6H   SFRSYM    DATA     BYTE      DIV_MODE
      000000F8H.5 SFRSYM    DATA     BIT       APP_RW
      000000CBH   SFRSYM    DATA     BYTE      TRL2H
      0000009FH   SFRSYM    DATA     BYTE      SBUF2_RX
      000000ADH   SFRSYM    DATA     BYTE      SBUF3_RX
      0000008EH   SFRSYM    DATA     BYTE      CKCON
      0000009EH   SFRSYM    DATA     BYTE      SBUF2_TX
      000000ACH   SFRSYM    DATA     BYTE      SBUF3_TX
      000000CAH   SFRSYM    DATA     BYTE      TRL2L
      000000D0H.5 SFRSYM    DATA     BIT       F0
      000000FEH   SFRSYM    DATA     BYTE      EXADR
      000000D0H.1 SFRSYM    DATA     BIT       F1
      000000A0H.3 SFRSYM    DATA     BIT       LED_B
      000000D0H   SFRSYM    DATA     BYTE      PSW
      000000A0H.1 SFRSYM    DATA     BIT       LED_G
      000000C0H   SFRSYM    DATA     BYTE      IRCON
      00000098H.2 SFRSYM    DATA     BIT       RB80

      010033C7H   BLOCK     CODE     ---       LVL=0
      00000006H   SYMBOL    DATA     WORD      n
      010033C7H   BLOCK     CODE     NEAR LAB  LVL=1
      00000004H   SYMBOL    DATA     WORD      i
      00000002H   SYMBOL    DATA     WORD      j
      ---         BLOCKEND  ---      ---       LVL=1
      010033C7H   LINE      CODE     ---       #35
      010033C7H   LINE      CODE     ---       #36
      010033C7H   LINE      CODE     ---       #38
      010033D1H   LINE      CODE     ---       #39
      010033E6H   LINE      CODE     ---       #40
      ---         BLOCKEND  ---      ---       LVL=0

      01003531H   BLOCK     CODE     ---       LVL=0
      01003531H   LINE      CODE     ---       #60
      01003531H   LINE      CODE     ---       #61
      01003531H   LINE      CODE     ---       #62
      01003534H   LINE      CODE     ---       #63
      01003536H   LINE      CODE     ---       #64
      01003538H   LINE      CODE     ---       #65
      0100353AH   LINE      CODE     ---       #66
LX51 LINKER/LOCATER V4.66.93.0                                                        04/30/2025  12:14:31  PAGE 20


      0100353CH   LINE      CODE     ---       #67
      ---         BLOCKEND  ---      ---       LVL=0

      01003453H   BLOCK     CODE     ---       LVL=0
      01003453H   LINE      CODE     ---       #70
      01003453H   LINE      CODE     ---       #71
      01003453H   LINE      CODE     ---       #72
      01003456H   LINE      CODE     ---       #73
      01003459H   LINE      CODE     ---       #74
      0100345CH   LINE      CODE     ---       #77
      0100345FH   LINE      CODE     ---       #78
      01003462H   LINE      CODE     ---       #79
      01003465H   LINE      CODE     ---       #80
      01003467H   LINE      CODE     ---       #81
      01003469H   LINE      CODE     ---       #82
      0100346BH   LINE      CODE     ---       #83
      ---         BLOCKEND  ---      ---       LVL=0

      01000006H   BLOCK     CODE     ---       LVL=0
      01000006H   LINE      CODE     ---       #84
      01000006H   LINE      CODE     ---       #86
      01000008H   LINE      CODE     ---       #88
      0100000AH   LINE      CODE     ---       #89
      ---         BLOCKEND  ---      ---       LVL=0

      0100000EH   BLOCK     CODE     ---       LVL=0
      0100000EH   LINE      CODE     ---       #90
      0100000EH   LINE      CODE     ---       #92
      01000010H   LINE      CODE     ---       #94
      01000012H   LINE      CODE     ---       #95
      ---         BLOCKEND  ---      ---       LVL=0

      010034E8H   BLOCK     CODE     ---       LVL=0
      010034E8H   LINE      CODE     ---       #98
      010034E8H   LINE      CODE     ---       #99
      010034E8H   LINE      CODE     ---       #100
      010034EAH   LINE      CODE     ---       #102
      010034EDH   LINE      CODE     ---       #103
      010034F0H   LINE      CODE     ---       #104
      010034F3H   LINE      CODE     ---       #105
      010034F6H   LINE      CODE     ---       #107
      010034F8H   LINE      CODE     ---       #108
      ---         BLOCKEND  ---      ---       LVL=0

      ---         MODULE    ---      ---       DGUS
      0200A4B3H   PUBLIC    XDATA    BYTE      ?_WriteDGUS?BYTE
      01001A0EH   PUBLIC    CODE     ---       _WriteDGUS
      0200A4B3H   PUBLIC    XDATA    BYTE      ?_ReadDGUS?BYTE
      01001C5BH   PUBLIC    CODE     ---       _ReadDGUS
      00000098H.3 SFRSYM    DATA     BIT       TB80
      000000F1H   SFRSYM    DATA     BYTE      ADR_H
      00000080H   SFRSYM    DATA     BYTE      P0
      00000090H   SFRSYM    DATA     BYTE      P1
      000000A0H   SFRSYM    DATA     BYTE      P2
      000000B0H   SFRSYM    DATA     BYTE      P3
      000000D0H.6 SFRSYM    DATA     BIT       AC
      000000F3H   SFRSYM    DATA     BYTE      ADR_L
      00000094H   SFRSYM    DATA     BYTE      PAGESEL
      000000F2H   SFRSYM    DATA     BYTE      ADR_M
      000000A8H.7 SFRSYM    DATA     BIT       EA
      000000A0H.5 SFRSYM    DATA     BIT       JIGUANG
      00000090H.7 SFRSYM    DATA     BIT       LED_R
      000000F8H   SFRSYM    DATA     BYTE      RAMMODE
      000000B7H   SFRSYM    DATA     BYTE      P0MDOUT
      000000A8H   SFRSYM    DATA     BYTE      IEN0
LX51 LINKER/LOCATER V4.66.93.0                                                        04/30/2025  12:14:31  PAGE 21


      000000BCH   SFRSYM    DATA     BYTE      P1MDOUT
      000000B8H   SFRSYM    DATA     BYTE      IEN1
      000000BDH   SFRSYM    DATA     BYTE      P2MDOUT
      000000F8H.0 SFRSYM    DATA     BIT       APP_DATA0
      0000009AH   SFRSYM    DATA     BYTE      IEN2
      000000BEH   SFRSYM    DATA     BYTE      P3MDOUT
      000000F8H.1 SFRSYM    DATA     BIT       APP_DATA1
      000000D1H   SFRSYM    DATA     BYTE      IEN3
      00000080H.0 SFRSYM    DATA     BIT       P0_0
      000000F8H.2 SFRSYM    DATA     BIT       APP_DATA2
      00000090H.0 SFRSYM    DATA     BIT       P1_0
      000000F8H.3 SFRSYM    DATA     BIT       APP_DATA3
      00000090H.1 SFRSYM    DATA     BIT       P1_1
      000000F8H.4 SFRSYM    DATA     BIT       APP_ACK
      000000F4H   SFRSYM    DATA     BYTE      ADR_INC
      000000B0H.1 SFRSYM    DATA     BIT       P3_1
      00000098H.4 SFRSYM    DATA     BIT       REN0
      000000B8H.1 SFRSYM    DATA     BIT       ECAN
      000000D0H.7 SFRSYM    DATA     BIT       CY
      000000B8H.3 SFRSYM    DATA     BIT       ES2R
      000000B8H.5 SFRSYM    DATA     BIT       ES3R
      000000B8H.2 SFRSYM    DATA     BIT       ES2T
      000000B8H.4 SFRSYM    DATA     BIT       ES3T
      000000C8H.7 SFRSYM    DATA     BIT       TSF2
      000000B0H.3 SFRSYM    DATA     BIT       RTC_SDA
      00000081H   SFRSYM    DATA     BYTE      SP
      000000D0H.2 SFRSYM    DATA     BIT       OV
      00000095H   SFRSYM    DATA     BYTE      D_PAGESEL
      00000090H.5 SFRSYM    DATA     BIT       UV
      000000F8H.7 SFRSYM    DATA     BIT       APP_REQ
      000000B0H.2 SFRSYM    DATA     BIT       RTC_SCL
      000000BFH   SFRSYM    DATA     BYTE      IRCON2
      000000BAH   SFRSYM    DATA     BYTE      SREL0H
      000000BBH   SFRSYM    DATA     BYTE      SREL1H
      00000087H   SFRSYM    DATA     BYTE      PCON
      000000AAH   SFRSYM    DATA     BYTE      SREL0L
      000000F9H   SFRSYM    DATA     BYTE      PORTDRV
      0000009DH   SFRSYM    DATA     BYTE      SREL1L
      00000089H   SFRSYM    DATA     BYTE      TMOD
      00000088H   SFRSYM    DATA     BYTE      TCON
      00000097H   SFRSYM    DATA     BYTE      SCON2R
      000000FFH   SFRSYM    DATA     BYTE      EXDATA
      000000ABH   SFRSYM    DATA     BYTE      SCON3R
      000000D9H   SFRSYM    DATA     BYTE      BODE2_DIV_H
      000000AEH   SFRSYM    DATA     BYTE      BODE3_DIV_H
      00000096H   SFRSYM    DATA     BYTE      SCON2T
      000000A7H   SFRSYM    DATA     BYTE      SCON3T
      000000E7H   SFRSYM    DATA     BYTE      BODE2_DIV_L
      00000088H.1 SFRSYM    DATA     BIT       IE0
      000000AFH   SFRSYM    DATA     BYTE      BODE3_DIV_L
      00000088H.3 SFRSYM    DATA     BIT       IE1
      000000C9H   SFRSYM    DATA     BYTE      MUX_SEL
      000000F0H   SFRSYM    DATA     BYTE      B
      000000E0H   SFRSYM    DATA     BYTE      ACC
      000000A8H.4 SFRSYM    DATA     BIT       ES0
      0000008FH   SFRSYM    DATA     BYTE      CAN_CR
      000000A8H.1 SFRSYM    DATA     BIT       ET0
      000000A9H   SFRSYM    DATA     BYTE      IP0
      000000A8H.3 SFRSYM    DATA     BIT       ET1
      00000088H.5 SFRSYM    DATA     BIT       TF0
      000000B9H   SFRSYM    DATA     BYTE      IP1
      000000A8H.5 SFRSYM    DATA     BIT       ET2
      00000098H.0 SFRSYM    DATA     BIT       RI0
      00000088H.7 SFRSYM    DATA     BIT       TF1
      000000FDH   SFRSYM    DATA     BYTE      DATA0
LX51 LINKER/LOCATER V4.66.93.0                                                        04/30/2025  12:14:31  PAGE 22


      000000C0H.6 SFRSYM    DATA     BIT       TF2
      000000E8H   SFRSYM    DATA     BYTE      CAN_ET
      000000FCH   SFRSYM    DATA     BYTE      DATA1
      0000008CH   SFRSYM    DATA     BYTE      TH0
      000000A8H.0 SFRSYM    DATA     BIT       EX0
      00000098H.1 SFRSYM    DATA     BIT       TI0
      00000088H.0 SFRSYM    DATA     BIT       IT0
      000000FBH   SFRSYM    DATA     BYTE      DATA2
      0000008DH   SFRSYM    DATA     BYTE      TH1
      000000A8H.2 SFRSYM    DATA     BIT       EX1
      00000091H   SFRSYM    DATA     BYTE      CAN_IR
      000000CDH   SFRSYM    DATA     BYTE      TH2
      00000088H.2 SFRSYM    DATA     BIT       IT1
      000000FAH   SFRSYM    DATA     BYTE      DATA3
      000000D0H.0 SFRSYM    DATA     BIT       P
      00000098H.7 SFRSYM    DATA     BIT       SM0
      0000008AH   SFRSYM    DATA     BYTE      TL0
      00000098H.6 SFRSYM    DATA     BIT       SM1
      0000008BH   SFRSYM    DATA     BYTE      TL1
      00000098H.5 SFRSYM    DATA     BIT       SM2
      000000CCH   SFRSYM    DATA     BYTE      TL2
      000000A0H.7 SFRSYM    DATA     BIT       UV_St
      000000D0H.3 SFRSYM    DATA     BIT       RS0
      000000F8H.6 SFRSYM    DATA     BIT       APP_EN
      000000D0H.4 SFRSYM    DATA     BIT       RS1
      00000088H.4 SFRSYM    DATA     BIT       TR0
      00000088H.6 SFRSYM    DATA     BIT       TR1
      00000093H   SFRSYM    DATA     BYTE      DPC
      000000C8H.0 SFRSYM    DATA     BIT       TR2
      000000E5H   SFRSYM    DATA     BYTE      MAC_MODE
      00000083H   SFRSYM    DATA     BYTE      DPH
      00000082H   SFRSYM    DATA     BYTE      DPL
      00000099H   SFRSYM    DATA     BYTE      SBUF0
      0000009CH   SFRSYM    DATA     BYTE      SBUF1
      00000098H   SFRSYM    DATA     BYTE      SCON0
      0000009BH   SFRSYM    DATA     BYTE      SCON1
      000000D8H   SFRSYM    DATA     BYTE      ADCON
      000000C8H   SFRSYM    DATA     BYTE      T2CON
      000000E6H   SFRSYM    DATA     BYTE      DIV_MODE
      000000F8H.5 SFRSYM    DATA     BIT       APP_RW
      000000CBH   SFRSYM    DATA     BYTE      TRL2H
      0000009FH   SFRSYM    DATA     BYTE      SBUF2_RX
      000000ADH   SFRSYM    DATA     BYTE      SBUF3_RX
      0000008EH   SFRSYM    DATA     BYTE      CKCON
      0000009EH   SFRSYM    DATA     BYTE      SBUF2_TX
      000000ACH   SFRSYM    DATA     BYTE      SBUF3_TX
      000000CAH   SFRSYM    DATA     BYTE      TRL2L
      000000D0H.5 SFRSYM    DATA     BIT       F0
      000000FEH   SFRSYM    DATA     BYTE      EXADR
      000000D0H.1 SFRSYM    DATA     BIT       F1
      000000A0H.3 SFRSYM    DATA     BIT       LED_B
      000000D0H   SFRSYM    DATA     BYTE      PSW
      000000A0H.1 SFRSYM    DATA     BIT       LED_G
      000000C0H   SFRSYM    DATA     BYTE      IRCON
      00000098H.2 SFRSYM    DATA     BIT       RB80

      01001C5BH   BLOCK     CODE     ---       LVL=0
      00000004H   SYMBOL    DATA     WORD      Addr
      0200A4B5H   SYMBOL    XDATA    ---       pBuf
      0200A4B8H   SYMBOL    XDATA    WORD      Len
      01001C6AH   BLOCK     CODE     NEAR LAB  LVL=1
      00000003H   SYMBOL    DATA     BYTE      Aoffset
      ---         BLOCKEND  ---      ---       LVL=1
      01001C5BH   LINE      CODE     ---       #31
      01001C6AH   LINE      CODE     ---       #32
LX51 LINKER/LOCATER V4.66.93.0                                                        04/30/2025  12:14:31  PAGE 23


      01001C6AH   LINE      CODE     ---       #34
      01001C7BH   LINE      CODE     ---       #35
      01001C87H   LINE      CODE     ---       #36
      01001C9EH   LINE      CODE     ---       #37
      01001CA0H   LINE      CODE     ---       #38
      01001CA4H   LINE      CODE     ---       #39
      01001CABH   LINE      CODE     ---       #40
      01001CB8H   LINE      CODE     ---       #41
      01001CBBH   LINE      CODE     ---       #42
      01001CBFH   LINE      CODE     ---       #43
      01001CC2H   LINE      CODE     ---       #44
      01001CC5H   LINE      CODE     ---       #45
      01001CC7H   LINE      CODE     ---       #46
      01001CCAH   LINE      CODE     ---       #47
      01001CCCH   LINE      CODE     ---       #49
      01001CD1H   LINE      CODE     ---       #50
      01001CD1H   LINE      CODE     ---       #51
      01001CE7H   LINE      CODE     ---       #52
      01001CEFH   LINE      CODE     ---       #53
      01001CF1H   LINE      CODE     ---       #54
      01001CF4H   LINE      CODE     ---       #55
      01001D1EH   LINE      CODE     ---       #56
      01001D4BH   LINE      CODE     ---       #57
      01001D4EH   LINE      CODE     ---       #58
      01001D4EH   LINE      CODE     ---       #59
      01001D4EH   LINE      CODE     ---       #60
      01001D5CH   LINE      CODE     ---       #61
      01001D68H   LINE      CODE     ---       #62
      01001D68H   LINE      CODE     ---       #63
      01001D75H   LINE      CODE     ---       #64
      01001D75H   LINE      CODE     ---       #65
      01001D7FH   LINE      CODE     ---       #66
      01001D85H   LINE      CODE     ---       #67
      01001D8DH   LINE      CODE     ---       #68
      01001D8DH   LINE      CODE     ---       #69
      01001D8FH   LINE      CODE     ---       #70
      01001D92H   LINE      CODE     ---       #71
      01001DADH   LINE      CODE     ---       #72
      01001DADH   LINE      CODE     ---       #73
      01001DEBH   LINE      CODE     ---       #74
      01001E14H   LINE      CODE     ---       #75
      01001E2BH   LINE      CODE     ---       #76
      01001E2BH   LINE      CODE     ---       #77
      01001E2BH   LINE      CODE     ---       #78
      01001E2BH   LINE      CODE     ---       #80
      01001E2BH   LINE      CODE     ---       #81
      01001E33H   LINE      CODE     ---       #82
      01001E35H   LINE      CODE     ---       #83
      01001E38H   LINE      CODE     ---       #84
      01001E8CH   LINE      CODE     ---       #85
      01001E9AH   LINE      CODE     ---       #86
      01001E9AH   LINE      CODE     ---       #87
      01001E9DH   LINE      CODE     ---       #89
      01001EA0H   LINE      CODE     ---       #90
      01001EA2H   LINE      CODE     ---       #91
      ---         BLOCKEND  ---      ---       LVL=0

      01001A0EH   BLOCK     CODE     ---       LVL=0
      00000004H   SYMBOL    DATA     WORD      Addr
      0200A4B5H   SYMBOL    XDATA    ---       pBuf
      0200A4B8H   SYMBOL    XDATA    WORD      Len
      01001A1DH   BLOCK     CODE     NEAR LAB  LVL=1
      00000003H   SYMBOL    DATA     BYTE      Aoffset
      ---         BLOCKEND  ---      ---       LVL=1
      01001A0EH   LINE      CODE     ---       #107
LX51 LINKER/LOCATER V4.66.93.0                                                        04/30/2025  12:14:31  PAGE 24


      01001A1DH   LINE      CODE     ---       #108
      01001A1DH   LINE      CODE     ---       #110
      01001A2EH   LINE      CODE     ---       #111
      01001A3AH   LINE      CODE     ---       #112
      01001A51H   LINE      CODE     ---       #113
      01001A53H   LINE      CODE     ---       #114
      01001A57H   LINE      CODE     ---       #115
      01001A5EH   LINE      CODE     ---       #116
      01001A6BH   LINE      CODE     ---       #117
      01001A6EH   LINE      CODE     ---       #118
      01001A72H   LINE      CODE     ---       #119
      01001A75H   LINE      CODE     ---       #120
      01001A78H   LINE      CODE     ---       #121
      01001A7AH   LINE      CODE     ---       #122
      01001A7DH   LINE      CODE     ---       #123
      01001A7FH   LINE      CODE     ---       #125
      01001A84H   LINE      CODE     ---       #126
      01001A84H   LINE      CODE     ---       #127
      01001A9BH   LINE      CODE     ---       #128
      01001AA3H   LINE      CODE     ---       #129
      01001AC6H   LINE      CODE     ---       #130
      01001AFBH   LINE      CODE     ---       #131
      01001AFDH   LINE      CODE     ---       #132
      01001B00H   LINE      CODE     ---       #133
      01001B00H   LINE      CODE     ---       #134
      01001B00H   LINE      CODE     ---       #135
      01001B00H   LINE      CODE     ---       #136
      01001B0EH   LINE      CODE     ---       #137
      01001B1AH   LINE      CODE     ---       #138
      01001B1AH   LINE      CODE     ---       #139
      01001B27H   LINE      CODE     ---       #140
      01001B27H   LINE      CODE     ---       #141
      01001B31H   LINE      CODE     ---       #142
      01001B37H   LINE      CODE     ---       #143
      01001B3FH   LINE      CODE     ---       #144
      01001B3FH   LINE      CODE     ---       #145
      01001B5AH   LINE      CODE     ---       #146
      01001B5AH   LINE      CODE     ---       #147
      01001B9BH   LINE      CODE     ---       #148
      01001BC7H   LINE      CODE     ---       #149
      01001BDCH   LINE      CODE     ---       #150
      01001BDCH   LINE      CODE     ---       #151
      01001BDEH   LINE      CODE     ---       #152
      01001BE3H   LINE      CODE     ---       #153
      01001BE3H   LINE      CODE     ---       #154
      01001BE3H   LINE      CODE     ---       #156
      01001BE3H   LINE      CODE     ---       #157
      01001BEBH   LINE      CODE     ---       #158
      01001C3FH   LINE      CODE     ---       #159
      01001C41H   LINE      CODE     ---       #160
      01001C44H   LINE      CODE     ---       #161
      01001C52H   LINE      CODE     ---       #162
      01001C52H   LINE      CODE     ---       #163
      01001C55H   LINE      CODE     ---       #165
      01001C58H   LINE      CODE     ---       #166
      01001C5AH   LINE      CODE     ---       #167
      ---         BLOCKEND  ---      ---       LVL=0

      ---         MODULE    ---      ---       UART
      0200A0AAH   PUBLIC    XDATA    ---       Uart4_Rx
      0200A02AH   PUBLIC    XDATA    ---       Uart3_Rx
      0200808AH   PUBLIC    XDATA    ---       Uart2_Rx
      02008088H   PUBLIC    XDATA    WORD      uart5_rx_count
      02008086H   PUBLIC    XDATA    WORD      uart4_rx_count
      02008084H   PUBLIC    XDATA    WORD      uart3_rx_count
LX51 LINKER/LOCATER V4.66.93.0                                                        04/30/2025  12:14:31  PAGE 25


      02008082H   PUBLIC    XDATA    WORD      uart2_rx_count
      02008081H   PUBLIC    XDATA    BYTE      uart3_busy
      02008080H   PUBLIC    XDATA    BYTE      uart2_busy
      02008000H   PUBLIC    XDATA    ---       Uart5_Rx
      0100356BH   PUBLIC    CODE     ---       InitUart
      01002D68H   PUBLIC    CODE     ---       UART5_RX_ISR_PC
      0100002AH   PUBLIC    CODE     ---       UART5_TX_ISR_PC
      01003246H   PUBLIC    CODE     ---       _Uart5SendStr
      0100353DH   PUBLIC    CODE     ---       _Uart5SendByte
      0100006EH   PUBLIC    CODE     ---       Uart5Init
      010034D5H   PUBLIC    CODE     ---       Uart4Init
      01002FA4H   PUBLIC    CODE     ---       UART3_ISR_PC
      01003205H   PUBLIC    CODE     ---       _Uart3SendStr
      01003507H   PUBLIC    CODE     ---       _Uart3SendByte
      010033E7H   PUBLIC    CODE     ---       Uart3Init
      01002EDCH   PUBLIC    CODE     ---       UART2_ISR_PC
      010031C4H   PUBLIC    CODE     ---       _Uart2SendStr
      010034F9H   PUBLIC    CODE     ---       _Uart2SendByte
      0100335EH   PUBLIC    CODE     ---       Uart2Init
      00000098H.3 SFRSYM    DATA     BIT       TB80
      000000F1H   SFRSYM    DATA     BYTE      ADR_H
      00000080H   SFRSYM    DATA     BYTE      P0
      00000090H   SFRSYM    DATA     BYTE      P1
      000000A0H   SFRSYM    DATA     BYTE      P2
      000000B0H   SFRSYM    DATA     BYTE      P3
      000000D0H.6 SFRSYM    DATA     BIT       AC
      000000F3H   SFRSYM    DATA     BYTE      ADR_L
      00000094H   SFRSYM    DATA     BYTE      PAGESEL
      000000F2H   SFRSYM    DATA     BYTE      ADR_M
      000000A8H.7 SFRSYM    DATA     BIT       EA
      000000A0H.5 SFRSYM    DATA     BIT       JIGUANG
      00000090H.7 SFRSYM    DATA     BIT       LED_R
      000000F8H   SFRSYM    DATA     BYTE      RAMMODE
      000000B7H   SFRSYM    DATA     BYTE      P0MDOUT
      000000A8H   SFRSYM    DATA     BYTE      IEN0
      000000BCH   SFRSYM    DATA     BYTE      P1MDOUT
      000000B8H   SFRSYM    DATA     BYTE      IEN1
      000000BDH   SFRSYM    DATA     BYTE      P2MDOUT
      000000F8H.0 SFRSYM    DATA     BIT       APP_DATA0
      0000009AH   SFRSYM    DATA     BYTE      IEN2
      000000BEH   SFRSYM    DATA     BYTE      P3MDOUT
      000000F8H.1 SFRSYM    DATA     BIT       APP_DATA1
      000000D1H   SFRSYM    DATA     BYTE      IEN3
      00000080H.0 SFRSYM    DATA     BIT       P0_0
      000000F8H.2 SFRSYM    DATA     BIT       APP_DATA2
      00000090H.0 SFRSYM    DATA     BIT       P1_0
      000000F8H.3 SFRSYM    DATA     BIT       APP_DATA3
      00000090H.1 SFRSYM    DATA     BIT       P1_1
      000000F8H.4 SFRSYM    DATA     BIT       APP_ACK
      000000F4H   SFRSYM    DATA     BYTE      ADR_INC
      000000B0H.1 SFRSYM    DATA     BIT       P3_1
      00000098H.4 SFRSYM    DATA     BIT       REN0
      000000B8H.1 SFRSYM    DATA     BIT       ECAN
      000000D0H.7 SFRSYM    DATA     BIT       CY
      000000B8H.3 SFRSYM    DATA     BIT       ES2R
      000000B8H.5 SFRSYM    DATA     BIT       ES3R
      000000B8H.2 SFRSYM    DATA     BIT       ES2T
      000000B8H.4 SFRSYM    DATA     BIT       ES3T
      000000C8H.7 SFRSYM    DATA     BIT       TSF2
      000000B0H.3 SFRSYM    DATA     BIT       RTC_SDA
      00000081H   SFRSYM    DATA     BYTE      SP
      000000D0H.2 SFRSYM    DATA     BIT       OV
      00000095H   SFRSYM    DATA     BYTE      D_PAGESEL
      00000090H.5 SFRSYM    DATA     BIT       UV
      000000F8H.7 SFRSYM    DATA     BIT       APP_REQ
LX51 LINKER/LOCATER V4.66.93.0                                                        04/30/2025  12:14:31  PAGE 26


      000000B0H.2 SFRSYM    DATA     BIT       RTC_SCL
      000000BFH   SFRSYM    DATA     BYTE      IRCON2
      000000BAH   SFRSYM    DATA     BYTE      SREL0H
      000000BBH   SFRSYM    DATA     BYTE      SREL1H
      00000087H   SFRSYM    DATA     BYTE      PCON
      000000AAH   SFRSYM    DATA     BYTE      SREL0L
      000000F9H   SFRSYM    DATA     BYTE      PORTDRV
      0000009DH   SFRSYM    DATA     BYTE      SREL1L
      00000089H   SFRSYM    DATA     BYTE      TMOD
      00000088H   SFRSYM    DATA     BYTE      TCON
      00000097H   SFRSYM    DATA     BYTE      SCON2R
      000000FFH   SFRSYM    DATA     BYTE      EXDATA
      000000ABH   SFRSYM    DATA     BYTE      SCON3R
      000000D9H   SFRSYM    DATA     BYTE      BODE2_DIV_H
      000000AEH   SFRSYM    DATA     BYTE      BODE3_DIV_H
      00000096H   SFRSYM    DATA     BYTE      SCON2T
      000000A7H   SFRSYM    DATA     BYTE      SCON3T
      000000E7H   SFRSYM    DATA     BYTE      BODE2_DIV_L
      00000088H.1 SFRSYM    DATA     BIT       IE0
      000000AFH   SFRSYM    DATA     BYTE      BODE3_DIV_L
      00000088H.3 SFRSYM    DATA     BIT       IE1
      000000C9H   SFRSYM    DATA     BYTE      MUX_SEL
      000000F0H   SFRSYM    DATA     BYTE      B
      000000E0H   SFRSYM    DATA     BYTE      ACC
      000000A8H.4 SFRSYM    DATA     BIT       ES0
      0000008FH   SFRSYM    DATA     BYTE      CAN_CR
      000000A8H.1 SFRSYM    DATA     BIT       ET0
      000000A9H   SFRSYM    DATA     BYTE      IP0
      000000A8H.3 SFRSYM    DATA     BIT       ET1
      00000088H.5 SFRSYM    DATA     BIT       TF0
      000000B9H   SFRSYM    DATA     BYTE      IP1
      000000A8H.5 SFRSYM    DATA     BIT       ET2
      00000098H.0 SFRSYM    DATA     BIT       RI0
      00000088H.7 SFRSYM    DATA     BIT       TF1
      000000FDH   SFRSYM    DATA     BYTE      DATA0
      000000C0H.6 SFRSYM    DATA     BIT       TF2
      000000E8H   SFRSYM    DATA     BYTE      CAN_ET
      000000FCH   SFRSYM    DATA     BYTE      DATA1
      0000008CH   SFRSYM    DATA     BYTE      TH0
      000000A8H.0 SFRSYM    DATA     BIT       EX0
      00000098H.1 SFRSYM    DATA     BIT       TI0
      00000088H.0 SFRSYM    DATA     BIT       IT0
      000000FBH   SFRSYM    DATA     BYTE      DATA2
      0000008DH   SFRSYM    DATA     BYTE      TH1
      000000A8H.2 SFRSYM    DATA     BIT       EX1
      00000091H   SFRSYM    DATA     BYTE      CAN_IR
      000000CDH   SFRSYM    DATA     BYTE      TH2
      00000088H.2 SFRSYM    DATA     BIT       IT1
      000000FAH   SFRSYM    DATA     BYTE      DATA3
      000000D0H.0 SFRSYM    DATA     BIT       P
      00000098H.7 SFRSYM    DATA     BIT       SM0
      0000008AH   SFRSYM    DATA     BYTE      TL0
      00000098H.6 SFRSYM    DATA     BIT       SM1
      0000008BH   SFRSYM    DATA     BYTE      TL1
      00000098H.5 SFRSYM    DATA     BIT       SM2
      000000CCH   SFRSYM    DATA     BYTE      TL2
      000000A0H.7 SFRSYM    DATA     BIT       UV_St
      000000D0H.3 SFRSYM    DATA     BIT       RS0
      000000F8H.6 SFRSYM    DATA     BIT       APP_EN
      000000D0H.4 SFRSYM    DATA     BIT       RS1
      00000088H.4 SFRSYM    DATA     BIT       TR0
      00000088H.6 SFRSYM    DATA     BIT       TR1
      00000093H   SFRSYM    DATA     BYTE      DPC
      000000C8H.0 SFRSYM    DATA     BIT       TR2
      000000E5H   SFRSYM    DATA     BYTE      MAC_MODE
LX51 LINKER/LOCATER V4.66.93.0                                                        04/30/2025  12:14:31  PAGE 27


      00000083H   SFRSYM    DATA     BYTE      DPH
      00000082H   SFRSYM    DATA     BYTE      DPL
      00000099H   SFRSYM    DATA     BYTE      SBUF0
      0000009CH   SFRSYM    DATA     BYTE      SBUF1
      00000098H   SFRSYM    DATA     BYTE      SCON0
      0000009BH   SFRSYM    DATA     BYTE      SCON1
      000000D8H   SFRSYM    DATA     BYTE      ADCON
      000000C8H   SFRSYM    DATA     BYTE      T2CON
      000000E6H   SFRSYM    DATA     BYTE      DIV_MODE
      000000F8H.5 SFRSYM    DATA     BIT       APP_RW
      000000CBH   SFRSYM    DATA     BYTE      TRL2H
      0000009FH   SFRSYM    DATA     BYTE      SBUF2_RX
      000000ADH   SFRSYM    DATA     BYTE      SBUF3_RX
      0000008EH   SFRSYM    DATA     BYTE      CKCON
      0000009EH   SFRSYM    DATA     BYTE      SBUF2_TX
      000000ACH   SFRSYM    DATA     BYTE      SBUF3_TX
      000000CAH   SFRSYM    DATA     BYTE      TRL2L
      000000D0H.5 SFRSYM    DATA     BIT       F0
      000000FEH   SFRSYM    DATA     BYTE      EXADR
      000000D0H.1 SFRSYM    DATA     BIT       F1
      000000A0H.3 SFRSYM    DATA     BIT       LED_B
      000000D0H   SFRSYM    DATA     BYTE      PSW
      000000A0H.1 SFRSYM    DATA     BIT       LED_G
      000000C0H   SFRSYM    DATA     BYTE      IRCON
      00000098H.2 SFRSYM    DATA     BIT       RB80

      0100335EH   BLOCK     CODE     ---       LVL=0
      0100335EH   LINE      CODE     ---       #40
      0100335EH   LINE      CODE     ---       #41
      0100335EH   LINE      CODE     ---       #42
      01003361H   LINE      CODE     ---       #43
      01003364H   LINE      CODE     ---       #44
      01003369H   LINE      CODE     ---       #45
      0100336FH   LINE      CODE     ---       #46
      01003372H   LINE      CODE     ---       #47
      01003375H   LINE      CODE     ---       #48
      01003378H   LINE      CODE     ---       #49
      0100337BH   LINE      CODE     ---       #50
      0100337EH   LINE      CODE     ---       #51
      01003380H   LINE      CODE     ---       #52
      01003382H   LINE      CODE     ---       #53
      ---         BLOCKEND  ---      ---       LVL=0

      010034F9H   BLOCK     CODE     ---       LVL=0
      00000007H   SYMBOL    DATA     BYTE      dat
      010034F9H   LINE      CODE     ---       #56
      010034F9H   LINE      CODE     ---       #57
      010034F9H   LINE      CODE     ---       #58
      01003501H   LINE      CODE     ---       #59
      01003504H   LINE      CODE     ---       #60
      01003506H   LINE      CODE     ---       #61
      ---         BLOCKEND  ---      ---       LVL=0

      010031C4H   BLOCK     CODE     ---       LVL=0
      0200A48DH   SYMBOL    XDATA    ---       pstr
      00000005H   SYMBOL    DATA     BYTE      strlen
      010031C4H   LINE      CODE     ---       #64
      010031CFH   LINE      CODE     ---       #65
      010031CFH   LINE      CODE     ---       #66
      010031E0H   LINE      CODE     ---       #67
      010031E0H   LINE      CODE     ---       #69
      010031E0H   LINE      CODE     ---       #70
      010031E6H   LINE      CODE     ---       #71
      010031E6H   LINE      CODE     ---       #72
      010031F8H   LINE      CODE     ---       #73
LX51 LINKER/LOCATER V4.66.93.0                                                        04/30/2025  12:14:31  PAGE 28


      01003202H   LINE      CODE     ---       #74
      01003204H   LINE      CODE     ---       #75
      ---         BLOCKEND  ---      ---       LVL=0

      01002EDCH   BLOCK     CODE     ---       LVL=0
      01002EEBH   BLOCK     CODE     NEAR LAB  LVL=1
      00000007H   SYMBOL    DATA     BYTE      res
      ---         BLOCKEND  ---      ---       LVL=1
      01002EDCH   LINE      CODE     ---       #78
      01002EEBH   LINE      CODE     ---       #80
      01002EEBH   LINE      CODE     ---       #81
      01002EEDH   LINE      CODE     ---       #84
      01002EF0H   LINE      CODE     ---       #85
      01002EF0H   LINE      CODE     ---       #86
      01002EF2H   LINE      CODE     ---       #87
      01002F04H   LINE      CODE     ---       #88
      01002F12H   LINE      CODE     ---       #89
      01002F21H   LINE      CODE     ---       #91
      01002F25H   LINE      CODE     ---       #92
      01002F25H   LINE      CODE     ---       #93
      01002F27H   LINE      CODE     ---       #94
      01002F27H   LINE      CODE     ---       #95
      01002F2AH   LINE      CODE     ---       #96
      01002F2AH   LINE      CODE     ---       #97
      01002F2CH   LINE      CODE     ---       #98
      01002F31H   LINE      CODE     ---       #99
      01002F31H   LINE      CODE     ---       #101
      01002F33H   LINE      CODE     ---       #102
      ---         BLOCKEND  ---      ---       LVL=0

      010033E7H   BLOCK     CODE     ---       LVL=0
      010033E7H   LINE      CODE     ---       #108
      010033E7H   LINE      CODE     ---       #109
      010033E7H   LINE      CODE     ---       #110
      010033EAH   LINE      CODE     ---       #111
      010033EDH   LINE      CODE     ---       #112
      010033F2H   LINE      CODE     ---       #113
      010033F8H   LINE      CODE     ---       #114
      010033FBH   LINE      CODE     ---       #115
      010033FEH   LINE      CODE     ---       #116
      01003401H   LINE      CODE     ---       #117
      01003404H   LINE      CODE     ---       #118
      ---         BLOCKEND  ---      ---       LVL=0

      01003507H   BLOCK     CODE     ---       LVL=0
      00000007H   SYMBOL    DATA     BYTE      dat
      01003507H   LINE      CODE     ---       #121
      01003507H   LINE      CODE     ---       #122
      01003507H   LINE      CODE     ---       #123
      0100350FH   LINE      CODE     ---       #124
      01003512H   LINE      CODE     ---       #125
      01003514H   LINE      CODE     ---       #126
      ---         BLOCKEND  ---      ---       LVL=0

      01003205H   BLOCK     CODE     ---       LVL=0
      0200A4F9H   SYMBOL    XDATA    ---       pstr
      00000005H   SYMBOL    DATA     BYTE      strlen
      01003205H   LINE      CODE     ---       #136
      01003210H   LINE      CODE     ---       #137
      01003210H   LINE      CODE     ---       #138
      01003221H   LINE      CODE     ---       #139
      01003221H   LINE      CODE     ---       #141
      01003221H   LINE      CODE     ---       #142
      01003227H   LINE      CODE     ---       #143
      01003227H   LINE      CODE     ---       #144
LX51 LINKER/LOCATER V4.66.93.0                                                        04/30/2025  12:14:31  PAGE 29


      01003239H   LINE      CODE     ---       #145
      01003243H   LINE      CODE     ---       #146
      01003245H   LINE      CODE     ---       #147
      ---         BLOCKEND  ---      ---       LVL=0

      01002FA4H   BLOCK     CODE     ---       LVL=0
      01002FB3H   BLOCK     CODE     NEAR LAB  LVL=1
      00000007H   SYMBOL    DATA     BYTE      res
      ---         BLOCKEND  ---      ---       LVL=1
      01002FA4H   LINE      CODE     ---       #150
      01002FB3H   LINE      CODE     ---       #152
      01002FB3H   LINE      CODE     ---       #153
      01002FB5H   LINE      CODE     ---       #154
      01002FBAH   LINE      CODE     ---       #155
      01002FBAH   LINE      CODE     ---       #156
      01002FBCH   LINE      CODE     ---       #157
      01002FCEH   LINE      CODE     ---       #158
      01002FDCH   LINE      CODE     ---       #159
      01002FDFH   LINE      CODE     ---       #160
      01002FE2H   LINE      CODE     ---       #161
      01002FE2H   LINE      CODE     ---       #162
      01002FE7H   LINE      CODE     ---       #163
      01002FE7H   LINE      CODE     ---       #164
      01002FEAH   LINE      CODE     ---       #165
      01002FEDH   LINE      CODE     ---       #166
      01002FF2H   LINE      CODE     ---       #167
      01002FF2H   LINE      CODE     ---       #168
      01002FF5H   LINE      CODE     ---       #169
      01002FF7H   LINE      CODE     ---       #170
      ---         BLOCKEND  ---      ---       LVL=0

      010034D5H   BLOCK     CODE     ---       LVL=0
      010034D5H   LINE      CODE     ---       #174
      010034D5H   LINE      CODE     ---       #175
      010034D5H   LINE      CODE     ---       #176
      010034DCH   LINE      CODE     ---       #177
      010034DFH   LINE      CODE     ---       #178
      010034E2H   LINE      CODE     ---       #179
      010034E4H   LINE      CODE     ---       #180
      010034E7H   LINE      CODE     ---       #183
      ---         BLOCKEND  ---      ---       LVL=0

      0100006EH   BLOCK     CODE     ---       LVL=0
      0100006EH   LINE      CODE     ---       #238
      0100006EH   LINE      CODE     ---       #239
      0100006EH   LINE      CODE     ---       #240
      01000075H   LINE      CODE     ---       #241
      01000078H   LINE      CODE     ---       #242
      0100007BH   LINE      CODE     ---       #243
      0100007DH   LINE      CODE     ---       #244
      01000080H   LINE      CODE     ---       #246
      01000082H   LINE      CODE     ---       #247
      ---         BLOCKEND  ---      ---       LVL=0

      0100353DH   BLOCK     CODE     ---       LVL=0
      00000007H   SYMBOL    DATA     BYTE      dat
      0100353DH   LINE      CODE     ---       #252
      0100353DH   LINE      CODE     ---       #253
      0100353DH   LINE      CODE     ---       #254
      0100353FH   LINE      CODE     ---       #255
      01003545H   LINE      CODE     ---       #256
      01003548H   LINE      CODE     ---       #257
      ---         BLOCKEND  ---      ---       LVL=0

      01003246H   BLOCK     CODE     ---       LVL=0
LX51 LINKER/LOCATER V4.66.93.0                                                        04/30/2025  12:14:31  PAGE 30


      0200A4FCH   SYMBOL    XDATA    ---       pstr
      00000005H   SYMBOL    DATA     BYTE      strlen
      01003246H   LINE      CODE     ---       #263
      01003251H   LINE      CODE     ---       #264
      01003251H   LINE      CODE     ---       #265
      01003262H   LINE      CODE     ---       #266
      01003262H   LINE      CODE     ---       #268
      01003262H   LINE      CODE     ---       #269
      01003268H   LINE      CODE     ---       #270
      01003268H   LINE      CODE     ---       #271
      0100327AH   LINE      CODE     ---       #272
      01003284H   LINE      CODE     ---       #273
      01003286H   LINE      CODE     ---       #274
      ---         BLOCKEND  ---      ---       LVL=0

      0100002AH   BLOCK     CODE     ---       LVL=0
      0100002AH   LINE      CODE     ---       #279
      0100002AH   LINE      CODE     ---       #281
      ---         BLOCKEND  ---      ---       LVL=0

      01002D68H   BLOCK     CODE     ---       LVL=0
      01002D85H   BLOCK     CODE     NEAR LAB  LVL=1
      00000007H   SYMBOL    DATA     BYTE      res
      ---         BLOCKEND  ---      ---       LVL=1
      01002D68H   LINE      CODE     ---       #286
      01002D85H   LINE      CODE     ---       #288
      01002D87H   LINE      CODE     ---       #289
      01002D89H   LINE      CODE     ---       #290
      01002D91H   LINE      CODE     ---       #291
      01002D91H   LINE      CODE     ---       #292
      01002D94H   LINE      CODE     ---       #293
      01002D96H   LINE      CODE     ---       #294
      01002DA8H   LINE      CODE     ---       #295
      01002DB6H   LINE      CODE     ---       #296
      01002DB9H   LINE      CODE     ---       #297
      01002DC8H   LINE      CODE     ---       #299
      01002DCCH   LINE      CODE     ---       #300
      01002DCCH   LINE      CODE     ---       #301
      01002DCCH   LINE      CODE     ---       #305
      01002DCEH   LINE      CODE     ---       #306
      ---         BLOCKEND  ---      ---       LVL=0

      0100356BH   BLOCK     CODE     ---       LVL=0
      0100356BH   LINE      CODE     ---       #310
      0100356BH   LINE      CODE     ---       #311
      0100356BH   LINE      CODE     ---       #312
      0100356EH   LINE      CODE     ---       #314
      01003571H   LINE      CODE     ---       #315
      ---         BLOCKEND  ---      ---       LVL=0

      ---         MODULE    ---      ---       NORFLASH
      00000098H.3 SFRSYM    DATA     BIT       TB80
      000000F1H   SFRSYM    DATA     BYTE      ADR_H
      00000080H   SFRSYM    DATA     BYTE      P0
      00000090H   SFRSYM    DATA     BYTE      P1
      000000A0H   SFRSYM    DATA     BYTE      P2
      000000B0H   SFRSYM    DATA     BYTE      P3
      000000D0H.6 SFRSYM    DATA     BIT       AC
      000000F3H   SFRSYM    DATA     BYTE      ADR_L
      00000094H   SFRSYM    DATA     BYTE      PAGESEL
      000000F2H   SFRSYM    DATA     BYTE      ADR_M
      000000A8H.7 SFRSYM    DATA     BIT       EA
      000000A0H.5 SFRSYM    DATA     BIT       JIGUANG
      00000090H.7 SFRSYM    DATA     BIT       LED_R
      000000F8H   SFRSYM    DATA     BYTE      RAMMODE
LX51 LINKER/LOCATER V4.66.93.0                                                        04/30/2025  12:14:31  PAGE 31


      000000B7H   SFRSYM    DATA     BYTE      P0MDOUT
      000000A8H   SFRSYM    DATA     BYTE      IEN0
      000000BCH   SFRSYM    DATA     BYTE      P1MDOUT
      000000B8H   SFRSYM    DATA     BYTE      IEN1
      000000BDH   SFRSYM    DATA     BYTE      P2MDOUT
      000000F8H.0 SFRSYM    DATA     BIT       APP_DATA0
      0000009AH   SFRSYM    DATA     BYTE      IEN2
      000000BEH   SFRSYM    DATA     BYTE      P3MDOUT
      000000F8H.1 SFRSYM    DATA     BIT       APP_DATA1
      000000D1H   SFRSYM    DATA     BYTE      IEN3
      00000080H.0 SFRSYM    DATA     BIT       P0_0
      000000F8H.2 SFRSYM    DATA     BIT       APP_DATA2
      00000090H.0 SFRSYM    DATA     BIT       P1_0
      000000F8H.3 SFRSYM    DATA     BIT       APP_DATA3
      00000090H.1 SFRSYM    DATA     BIT       P1_1
      000000F8H.4 SFRSYM    DATA     BIT       APP_ACK
      000000F4H   SFRSYM    DATA     BYTE      ADR_INC
      000000B0H.1 SFRSYM    DATA     BIT       P3_1
      00000098H.4 SFRSYM    DATA     BIT       REN0
      000000B8H.1 SFRSYM    DATA     BIT       ECAN
      000000D0H.7 SFRSYM    DATA     BIT       CY
      000000B8H.3 SFRSYM    DATA     BIT       ES2R
      000000B8H.5 SFRSYM    DATA     BIT       ES3R
      000000B8H.2 SFRSYM    DATA     BIT       ES2T
      000000B8H.4 SFRSYM    DATA     BIT       ES3T
      000000C8H.7 SFRSYM    DATA     BIT       TSF2
      000000B0H.3 SFRSYM    DATA     BIT       RTC_SDA
      00000081H   SFRSYM    DATA     BYTE      SP
      000000D0H.2 SFRSYM    DATA     BIT       OV
      00000095H   SFRSYM    DATA     BYTE      D_PAGESEL
      00000090H.5 SFRSYM    DATA     BIT       UV
      000000F8H.7 SFRSYM    DATA     BIT       APP_REQ
      000000B0H.2 SFRSYM    DATA     BIT       RTC_SCL
      000000BFH   SFRSYM    DATA     BYTE      IRCON2
      000000BAH   SFRSYM    DATA     BYTE      SREL0H
      000000BBH   SFRSYM    DATA     BYTE      SREL1H
      00000087H   SFRSYM    DATA     BYTE      PCON
      000000AAH   SFRSYM    DATA     BYTE      SREL0L
      000000F9H   SFRSYM    DATA     BYTE      PORTDRV
      0000009DH   SFRSYM    DATA     BYTE      SREL1L
      00000089H   SFRSYM    DATA     BYTE      TMOD
      00000088H   SFRSYM    DATA     BYTE      TCON
      00000097H   SFRSYM    DATA     BYTE      SCON2R
      000000FFH   SFRSYM    DATA     BYTE      EXDATA
      000000ABH   SFRSYM    DATA     BYTE      SCON3R
      000000D9H   SFRSYM    DATA     BYTE      BODE2_DIV_H
      000000AEH   SFRSYM    DATA     BYTE      BODE3_DIV_H
      00000096H   SFRSYM    DATA     BYTE      SCON2T
      000000A7H   SFRSYM    DATA     BYTE      SCON3T
      000000E7H   SFRSYM    DATA     BYTE      BODE2_DIV_L
      00000088H.1 SFRSYM    DATA     BIT       IE0
      000000AFH   SFRSYM    DATA     BYTE      BODE3_DIV_L
      00000088H.3 SFRSYM    DATA     BIT       IE1
      000000C9H   SFRSYM    DATA     BYTE      MUX_SEL
      000000F0H   SFRSYM    DATA     BYTE      B
      000000E0H   SFRSYM    DATA     BYTE      ACC
      000000A8H.4 SFRSYM    DATA     BIT       ES0
      0000008FH   SFRSYM    DATA     BYTE      CAN_CR
      000000A8H.1 SFRSYM    DATA     BIT       ET0
      000000A9H   SFRSYM    DATA     BYTE      IP0
      000000A8H.3 SFRSYM    DATA     BIT       ET1
      00000088H.5 SFRSYM    DATA     BIT       TF0
      000000B9H   SFRSYM    DATA     BYTE      IP1
      000000A8H.5 SFRSYM    DATA     BIT       ET2
      00000098H.0 SFRSYM    DATA     BIT       RI0
LX51 LINKER/LOCATER V4.66.93.0                                                        04/30/2025  12:14:31  PAGE 32


      00000088H.7 SFRSYM    DATA     BIT       TF1
      000000FDH   SFRSYM    DATA     BYTE      DATA0
      000000C0H.6 SFRSYM    DATA     BIT       TF2
      000000E8H   SFRSYM    DATA     BYTE      CAN_ET
      000000FCH   SFRSYM    DATA     BYTE      DATA1
      0000008CH   SFRSYM    DATA     BYTE      TH0
      000000A8H.0 SFRSYM    DATA     BIT       EX0
      00000098H.1 SFRSYM    DATA     BIT       TI0
      00000088H.0 SFRSYM    DATA     BIT       IT0
      000000FBH   SFRSYM    DATA     BYTE      DATA2
      0000008DH   SFRSYM    DATA     BYTE      TH1
      000000A8H.2 SFRSYM    DATA     BIT       EX1
      00000091H   SFRSYM    DATA     BYTE      CAN_IR
      000000CDH   SFRSYM    DATA     BYTE      TH2
      00000088H.2 SFRSYM    DATA     BIT       IT1
      000000FAH   SFRSYM    DATA     BYTE      DATA3
      000000D0H.0 SFRSYM    DATA     BIT       P
      00000098H.7 SFRSYM    DATA     BIT       SM0
      0000008AH   SFRSYM    DATA     BYTE      TL0
      00000098H.6 SFRSYM    DATA     BIT       SM1
      0000008BH   SFRSYM    DATA     BYTE      TL1
      00000098H.5 SFRSYM    DATA     BIT       SM2
      000000CCH   SFRSYM    DATA     BYTE      TL2
      000000A0H.7 SFRSYM    DATA     BIT       UV_St
      000000D0H.3 SFRSYM    DATA     BIT       RS0
      000000F8H.6 SFRSYM    DATA     BIT       APP_EN
      000000D0H.4 SFRSYM    DATA     BIT       RS1
      00000088H.4 SFRSYM    DATA     BIT       TR0
      00000088H.6 SFRSYM    DATA     BIT       TR1
      00000093H   SFRSYM    DATA     BYTE      DPC
      000000C8H.0 SFRSYM    DATA     BIT       TR2
      000000E5H   SFRSYM    DATA     BYTE      MAC_MODE
      00000083H   SFRSYM    DATA     BYTE      DPH
      00000082H   SFRSYM    DATA     BYTE      DPL
      00000099H   SFRSYM    DATA     BYTE      SBUF0
      0000009CH   SFRSYM    DATA     BYTE      SBUF1
      00000098H   SFRSYM    DATA     BYTE      SCON0
      0000009BH   SFRSYM    DATA     BYTE      SCON1
      000000D8H   SFRSYM    DATA     BYTE      ADCON
      000000C8H   SFRSYM    DATA     BYTE      T2CON
      000000E6H   SFRSYM    DATA     BYTE      DIV_MODE
      000000F8H.5 SFRSYM    DATA     BIT       APP_RW
      000000CBH   SFRSYM    DATA     BYTE      TRL2H
      0000009FH   SFRSYM    DATA     BYTE      SBUF2_RX
      000000ADH   SFRSYM    DATA     BYTE      SBUF3_RX
      0000008EH   SFRSYM    DATA     BYTE      CKCON
      0000009EH   SFRSYM    DATA     BYTE      SBUF2_TX
      000000ACH   SFRSYM    DATA     BYTE      SBUF3_TX
      000000CAH   SFRSYM    DATA     BYTE      TRL2L
      000000D0H.5 SFRSYM    DATA     BIT       F0
      000000FEH   SFRSYM    DATA     BYTE      EXADR
      000000D0H.1 SFRSYM    DATA     BIT       F1
      000000A0H.3 SFRSYM    DATA     BIT       LED_B
      000000D0H   SFRSYM    DATA     BYTE      PSW
      000000A0H.1 SFRSYM    DATA     BIT       LED_G
      000000C0H   SFRSYM    DATA     BYTE      IRCON
      00000098H.2 SFRSYM    DATA     BIT       RB80

      ---         MODULE    ---      ---       TIMER
      0200A4F5H   PUBLIC    XDATA    DWORD     i
      0100005BH   PUBLIC    CODE     ---       InitTimer
      01003574H   PUBLIC    CODE     ---       T2_ISR_PC
      010034ADH   PUBLIC    CODE     ---       T2_Init
      01002938H   PUBLIC    CODE     ---       T0_ISR_PC
      01003515H   PUBLIC    CODE     ---       T0_Init
LX51 LINKER/LOCATER V4.66.93.0                                                        04/30/2025  12:14:31  PAGE 33


      00000098H.3 SFRSYM    DATA     BIT       TB80
      000000F1H   SFRSYM    DATA     BYTE      ADR_H
      00000080H   SFRSYM    DATA     BYTE      P0
      00000090H   SFRSYM    DATA     BYTE      P1
      000000A0H   SFRSYM    DATA     BYTE      P2
      000000B0H   SFRSYM    DATA     BYTE      P3
      000000D0H.6 SFRSYM    DATA     BIT       AC
      000000F3H   SFRSYM    DATA     BYTE      ADR_L
      00000094H   SFRSYM    DATA     BYTE      PAGESEL
      000000F2H   SFRSYM    DATA     BYTE      ADR_M
      000000A8H.7 SFRSYM    DATA     BIT       EA
      000000A0H.5 SFRSYM    DATA     BIT       JIGUANG
      00000090H.7 SFRSYM    DATA     BIT       LED_R
      000000F8H   SFRSYM    DATA     BYTE      RAMMODE
      000000B7H   SFRSYM    DATA     BYTE      P0MDOUT
      000000A8H   SFRSYM    DATA     BYTE      IEN0
      000000BCH   SFRSYM    DATA     BYTE      P1MDOUT
      000000B8H   SFRSYM    DATA     BYTE      IEN1
      000000BDH   SFRSYM    DATA     BYTE      P2MDOUT
      000000F8H.0 SFRSYM    DATA     BIT       APP_DATA0
      0000009AH   SFRSYM    DATA     BYTE      IEN2
      000000BEH   SFRSYM    DATA     BYTE      P3MDOUT
      000000F8H.1 SFRSYM    DATA     BIT       APP_DATA1
      000000D1H   SFRSYM    DATA     BYTE      IEN3
      00000080H.0 SFRSYM    DATA     BIT       P0_0
      000000F8H.2 SFRSYM    DATA     BIT       APP_DATA2
      00000090H.0 SFRSYM    DATA     BIT       P1_0
      000000F8H.3 SFRSYM    DATA     BIT       APP_DATA3
      00000090H.1 SFRSYM    DATA     BIT       P1_1
      000000F8H.4 SFRSYM    DATA     BIT       APP_ACK
      000000F4H   SFRSYM    DATA     BYTE      ADR_INC
      000000B0H.1 SFRSYM    DATA     BIT       P3_1
      00000098H.4 SFRSYM    DATA     BIT       REN0
      000000B8H.1 SFRSYM    DATA     BIT       ECAN
      000000D0H.7 SFRSYM    DATA     BIT       CY
      000000B8H.3 SFRSYM    DATA     BIT       ES2R
      000000B8H.5 SFRSYM    DATA     BIT       ES3R
      000000B8H.2 SFRSYM    DATA     BIT       ES2T
      000000B8H.4 SFRSYM    DATA     BIT       ES3T
      000000C8H.7 SFRSYM    DATA     BIT       TSF2
      000000B0H.3 SFRSYM    DATA     BIT       RTC_SDA
      00000081H   SFRSYM    DATA     BYTE      SP
      000000D0H.2 SFRSYM    DATA     BIT       OV
      00000095H   SFRSYM    DATA     BYTE      D_PAGESEL
      00000090H.5 SFRSYM    DATA     BIT       UV
      000000F8H.7 SFRSYM    DATA     BIT       APP_REQ
      000000B0H.2 SFRSYM    DATA     BIT       RTC_SCL
      000000BFH   SFRSYM    DATA     BYTE      IRCON2
      000000BAH   SFRSYM    DATA     BYTE      SREL0H
      000000BBH   SFRSYM    DATA     BYTE      SREL1H
      00000087H   SFRSYM    DATA     BYTE      PCON
      000000AAH   SFRSYM    DATA     BYTE      SREL0L
      000000F9H   SFRSYM    DATA     BYTE      PORTDRV
      0000009DH   SFRSYM    DATA     BYTE      SREL1L
      00000089H   SFRSYM    DATA     BYTE      TMOD
      00000088H   SFRSYM    DATA     BYTE      TCON
      00000097H   SFRSYM    DATA     BYTE      SCON2R
      000000FFH   SFRSYM    DATA     BYTE      EXDATA
      000000ABH   SFRSYM    DATA     BYTE      SCON3R
      000000D9H   SFRSYM    DATA     BYTE      BODE2_DIV_H
      000000AEH   SFRSYM    DATA     BYTE      BODE3_DIV_H
      00000096H   SFRSYM    DATA     BYTE      SCON2T
      000000A7H   SFRSYM    DATA     BYTE      SCON3T
      000000E7H   SFRSYM    DATA     BYTE      BODE2_DIV_L
      00000088H.1 SFRSYM    DATA     BIT       IE0
LX51 LINKER/LOCATER V4.66.93.0                                                        04/30/2025  12:14:31  PAGE 34


      000000AFH   SFRSYM    DATA     BYTE      BODE3_DIV_L
      00000088H.3 SFRSYM    DATA     BIT       IE1
      000000C9H   SFRSYM    DATA     BYTE      MUX_SEL
      000000F0H   SFRSYM    DATA     BYTE      B
      000000E0H   SFRSYM    DATA     BYTE      ACC
      000000A8H.4 SFRSYM    DATA     BIT       ES0
      0000008FH   SFRSYM    DATA     BYTE      CAN_CR
      000000A8H.1 SFRSYM    DATA     BIT       ET0
      000000A9H   SFRSYM    DATA     BYTE      IP0
      000000A8H.3 SFRSYM    DATA     BIT       ET1
      00000088H.5 SFRSYM    DATA     BIT       TF0
      000000B9H   SFRSYM    DATA     BYTE      IP1
      000000A8H.5 SFRSYM    DATA     BIT       ET2
      00000098H.0 SFRSYM    DATA     BIT       RI0
      00000088H.7 SFRSYM    DATA     BIT       TF1
      000000FDH   SFRSYM    DATA     BYTE      DATA0
      000000C0H.6 SFRSYM    DATA     BIT       TF2
      000000E8H   SFRSYM    DATA     BYTE      CAN_ET
      000000FCH   SFRSYM    DATA     BYTE      DATA1
      0000008CH   SFRSYM    DATA     BYTE      TH0
      000000A8H.0 SFRSYM    DATA     BIT       EX0
      00000098H.1 SFRSYM    DATA     BIT       TI0
      00000088H.0 SFRSYM    DATA     BIT       IT0
      000000FBH   SFRSYM    DATA     BYTE      DATA2
      0000008DH   SFRSYM    DATA     BYTE      TH1
      000000A8H.2 SFRSYM    DATA     BIT       EX1
      00000091H   SFRSYM    DATA     BYTE      CAN_IR
      000000CDH   SFRSYM    DATA     BYTE      TH2
      00000088H.2 SFRSYM    DATA     BIT       IT1
      000000FAH   SFRSYM    DATA     BYTE      DATA3
      000000D0H.0 SFRSYM    DATA     BIT       P
      00000098H.7 SFRSYM    DATA     BIT       SM0
      0000008AH   SFRSYM    DATA     BYTE      TL0
      00000098H.6 SFRSYM    DATA     BIT       SM1
      0000008BH   SFRSYM    DATA     BYTE      TL1
      00000098H.5 SFRSYM    DATA     BIT       SM2
      000000CCH   SFRSYM    DATA     BYTE      TL2
      000000A0H.7 SFRSYM    DATA     BIT       UV_St
      000000D0H.3 SFRSYM    DATA     BIT       RS0
      000000F8H.6 SFRSYM    DATA     BIT       APP_EN
      000000D0H.4 SFRSYM    DATA     BIT       RS1
      00000088H.4 SFRSYM    DATA     BIT       TR0
      00000088H.6 SFRSYM    DATA     BIT       TR1
      00000093H   SFRSYM    DATA     BYTE      DPC
      000000C8H.0 SFRSYM    DATA     BIT       TR2
      000000E5H   SFRSYM    DATA     BYTE      MAC_MODE
      00000083H   SFRSYM    DATA     BYTE      DPH
      00000082H   SFRSYM    DATA     BYTE      DPL
      00000099H   SFRSYM    DATA     BYTE      SBUF0
      0000009CH   SFRSYM    DATA     BYTE      SBUF1
      00000098H   SFRSYM    DATA     BYTE      SCON0
      0000009BH   SFRSYM    DATA     BYTE      SCON1
      000000D8H   SFRSYM    DATA     BYTE      ADCON
      000000C8H   SFRSYM    DATA     BYTE      T2CON
      000000E6H   SFRSYM    DATA     BYTE      DIV_MODE
      000000F8H.5 SFRSYM    DATA     BIT       APP_RW
      000000CBH   SFRSYM    DATA     BYTE      TRL2H
      0000009FH   SFRSYM    DATA     BYTE      SBUF2_RX
      000000ADH   SFRSYM    DATA     BYTE      SBUF3_RX
      0000008EH   SFRSYM    DATA     BYTE      CKCON
      0000009EH   SFRSYM    DATA     BYTE      SBUF2_TX
      000000ACH   SFRSYM    DATA     BYTE      SBUF3_TX
      000000CAH   SFRSYM    DATA     BYTE      TRL2L
      000000D0H.5 SFRSYM    DATA     BIT       F0
      000000FEH   SFRSYM    DATA     BYTE      EXADR
LX51 LINKER/LOCATER V4.66.93.0                                                        04/30/2025  12:14:31  PAGE 35


      000000D0H.1 SFRSYM    DATA     BIT       F1
      000000A0H.3 SFRSYM    DATA     BIT       LED_B
      000000D0H   SFRSYM    DATA     BYTE      PSW
      000000A0H.1 SFRSYM    DATA     BIT       LED_G
      000000C0H   SFRSYM    DATA     BYTE      IRCON
      00000098H.2 SFRSYM    DATA     BIT       RB80

      01003515H   BLOCK     CODE     ---       LVL=0
      01003515H   LINE      CODE     ---       #24
      01003515H   LINE      CODE     ---       #25
      01003515H   LINE      CODE     ---       #26
      01003518H   LINE      CODE     ---       #27
      0100351BH   LINE      CODE     ---       #28
      0100351EH   LINE      CODE     ---       #29
      01003520H   LINE      CODE     ---       #30
      01003522H   LINE      CODE     ---       #31
      ---         BLOCKEND  ---      ---       LVL=0

      01002938H   BLOCK     CODE     ---       LVL=0
      01002938H   LINE      CODE     ---       #34
      01002955H   LINE      CODE     ---       #36
      01002957H   LINE      CODE     ---       #37
      0100295AH   LINE      CODE     ---       #38
      0100295DH   LINE      CODE     ---       #41
      0100296BH   LINE      CODE     ---       #42
      0100298AH   LINE      CODE     ---       #43
      010029A4H   LINE      CODE     ---       #44
      010029A4H   LINE      CODE     ---       #45
      010029C3H   LINE      CODE     ---       #46
      010029CDH   LINE      CODE     ---       #47
      010029CDH   LINE      CODE     ---       #51
      010029CFH   LINE      CODE     ---       #52
      ---         BLOCKEND  ---      ---       LVL=0

      010034ADH   BLOCK     CODE     ---       LVL=0
      010034ADH   LINE      CODE     ---       #57
      010034ADH   LINE      CODE     ---       #58
      010034ADH   LINE      CODE     ---       #59
      010034B0H   LINE      CODE     ---       #60
      010034B3H   LINE      CODE     ---       #61
      010034B5H   LINE      CODE     ---       #62
      010034B8H   LINE      CODE     ---       #63
      010034BBH   LINE      CODE     ---       #64
      010034BEH   LINE      CODE     ---       #65
      010034C0H   LINE      CODE     ---       #66
      ---         BLOCKEND  ---      ---       LVL=0

      01003574H   BLOCK     CODE     ---       LVL=0
      01003574H   LINE      CODE     ---       #67
      01003574H   LINE      CODE     ---       #69
      01003576H   LINE      CODE     ---       #73
      ---         BLOCKEND  ---      ---       LVL=0

      0100005BH   BLOCK     CODE     ---       LVL=0
      0100005BH   LINE      CODE     ---       #78
      0100005BH   LINE      CODE     ---       #79
      0100005BH   LINE      CODE     ---       #80
      0100005EH   LINE      CODE     ---       #81
      ---         BLOCKEND  ---      ---       LVL=0

      ---         MODULE    ---      ---       HANDLE
      0200A429H   PUBLIC    XDATA    ---       value0F00
      0200A428H   PUBLIC    XDATA    BYTE      xp_status
      0200A329H   PUBLIC    XDATA    ---       frame_buf1
      0200A229H   PUBLIC    XDATA    ---       s_dl_t_645_8283_body
LX51 LINKER/LOCATER V4.66.93.0                                                        04/30/2025  12:14:31  PAGE 36


      0200A12AH   PUBLIC    XDATA    ---       frame_buf
      010035B3H   PUBLIC    CONST    ---       CUart5
      010035A1H   PUBLIC    CONST    ---       CUart4
      0100358FH   PUBLIC    CONST    ---       CUart3
      0100357AH   PUBLIC    CONST    ---       CUart2
      01003549H   PUBLIC    CODE     ---       HandleProc
      0100093BH   PUBLIC    CODE     ---       ParseBuffer
      0200A48BH   PUBLIC    XDATA    BYTE      ?_find_dlt645_frame?BYTE
      0100277AH   PUBLIC    CODE     ---       _find_dlt645_frame
      0200A48BH   PUBLIC    XDATA    BYTE      ?_parse_dlt645_frame?BYTE
      01003332H   PUBLIC    CODE     ---       _parse_dlt645_frame
      010029EAH   PUBLIC    CODE     ---       dlt645_handle
      01002CE4H   PUBLIC    CODE     ---       TouchHandle
      01002E65H   PUBLIC    CODE     ---       _page_set
      01002F40H   PUBLIC    CODE     ---       _JumpPage
      01003555H   PUBLIC    CODE     ---       InitUartSend
      01003178H   PUBLIC    CODE     ---       GetValue0F00
      01002BC9H   PUBLIC    CODE     ---       _SetVoice
      01003405H   PUBLIC    CODE     ---       _SetBlight
      010000F1H   PUBLIC    CODE     ---       get_data1
      00000098H.3 SFRSYM    DATA     BIT       TB80
      000000F1H   SFRSYM    DATA     BYTE      ADR_H
      00000080H   SFRSYM    DATA     BYTE      P0
      00000090H   SFRSYM    DATA     BYTE      P1
      000000A0H   SFRSYM    DATA     BYTE      P2
      000000B0H   SFRSYM    DATA     BYTE      P3
      000000D0H.6 SFRSYM    DATA     BIT       AC
      000000F3H   SFRSYM    DATA     BYTE      ADR_L
      00000094H   SFRSYM    DATA     BYTE      PAGESEL
      000000F2H   SFRSYM    DATA     BYTE      ADR_M
      000000A8H.7 SFRSYM    DATA     BIT       EA
      000000A0H.5 SFRSYM    DATA     BIT       JIGUANG
      00000090H.7 SFRSYM    DATA     BIT       LED_R
      000000F8H   SFRSYM    DATA     BYTE      RAMMODE
      000000B7H   SFRSYM    DATA     BYTE      P0MDOUT
      000000A8H   SFRSYM    DATA     BYTE      IEN0
      000000BCH   SFRSYM    DATA     BYTE      P1MDOUT
      000000B8H   SFRSYM    DATA     BYTE      IEN1
      000000BDH   SFRSYM    DATA     BYTE      P2MDOUT
      000000F8H.0 SFRSYM    DATA     BIT       APP_DATA0
      0000009AH   SFRSYM    DATA     BYTE      IEN2
      000000BEH   SFRSYM    DATA     BYTE      P3MDOUT
      000000F8H.1 SFRSYM    DATA     BIT       APP_DATA1
      000000D1H   SFRSYM    DATA     BYTE      IEN3
      00000080H.0 SFRSYM    DATA     BIT       P0_0
      000000F8H.2 SFRSYM    DATA     BIT       APP_DATA2
      00000090H.0 SFRSYM    DATA     BIT       P1_0
      000000F8H.3 SFRSYM    DATA     BIT       APP_DATA3
      00000090H.1 SFRSYM    DATA     BIT       P1_1
      000000F8H.4 SFRSYM    DATA     BIT       APP_ACK
      000000F4H   SFRSYM    DATA     BYTE      ADR_INC
      000000B0H.1 SFRSYM    DATA     BIT       P3_1
      00000098H.4 SFRSYM    DATA     BIT       REN0
      000000B8H.1 SFRSYM    DATA     BIT       ECAN
      000000D0H.7 SFRSYM    DATA     BIT       CY
      000000B8H.3 SFRSYM    DATA     BIT       ES2R
      000000B8H.5 SFRSYM    DATA     BIT       ES3R
      000000B8H.2 SFRSYM    DATA     BIT       ES2T
      000000B8H.4 SFRSYM    DATA     BIT       ES3T
      000000C8H.7 SFRSYM    DATA     BIT       TSF2
      000000B0H.3 SFRSYM    DATA     BIT       RTC_SDA
      00000081H   SFRSYM    DATA     BYTE      SP
      000000D0H.2 SFRSYM    DATA     BIT       OV
      00000095H   SFRSYM    DATA     BYTE      D_PAGESEL
      00000090H.5 SFRSYM    DATA     BIT       UV
LX51 LINKER/LOCATER V4.66.93.0                                                        04/30/2025  12:14:31  PAGE 37


      000000F8H.7 SFRSYM    DATA     BIT       APP_REQ
      000000B0H.2 SFRSYM    DATA     BIT       RTC_SCL
      000000BFH   SFRSYM    DATA     BYTE      IRCON2
      000000BAH   SFRSYM    DATA     BYTE      SREL0H
      000000BBH   SFRSYM    DATA     BYTE      SREL1H
      00000087H   SFRSYM    DATA     BYTE      PCON
      000000AAH   SFRSYM    DATA     BYTE      SREL0L
      000000F9H   SFRSYM    DATA     BYTE      PORTDRV
      0000009DH   SFRSYM    DATA     BYTE      SREL1L
      00000089H   SFRSYM    DATA     BYTE      TMOD
      00000088H   SFRSYM    DATA     BYTE      TCON
      00000097H   SFRSYM    DATA     BYTE      SCON2R
      000000FFH   SFRSYM    DATA     BYTE      EXDATA
      000000ABH   SFRSYM    DATA     BYTE      SCON3R
      000000D9H   SFRSYM    DATA     BYTE      BODE2_DIV_H
      000000AEH   SFRSYM    DATA     BYTE      BODE3_DIV_H
      00000096H   SFRSYM    DATA     BYTE      SCON2T
      000000A7H   SFRSYM    DATA     BYTE      SCON3T
      000000E7H   SFRSYM    DATA     BYTE      BODE2_DIV_L
      00000088H.1 SFRSYM    DATA     BIT       IE0
      000000AFH   SFRSYM    DATA     BYTE      BODE3_DIV_L
      00000088H.3 SFRSYM    DATA     BIT       IE1
      000000C9H   SFRSYM    DATA     BYTE      MUX_SEL
      000000F0H   SFRSYM    DATA     BYTE      B
      000000E0H   SFRSYM    DATA     BYTE      ACC
      000000A8H.4 SFRSYM    DATA     BIT       ES0
      0000008FH   SFRSYM    DATA     BYTE      CAN_CR
      000000A8H.1 SFRSYM    DATA     BIT       ET0
      000000A9H   SFRSYM    DATA     BYTE      IP0
      000000A8H.3 SFRSYM    DATA     BIT       ET1
      00000088H.5 SFRSYM    DATA     BIT       TF0
      000000B9H   SFRSYM    DATA     BYTE      IP1
      000000A8H.5 SFRSYM    DATA     BIT       ET2
      00000098H.0 SFRSYM    DATA     BIT       RI0
      00000088H.7 SFRSYM    DATA     BIT       TF1
      000000FDH   SFRSYM    DATA     BYTE      DATA0
      000000C0H.6 SFRSYM    DATA     BIT       TF2
      000000E8H   SFRSYM    DATA     BYTE      CAN_ET
      000000FCH   SFRSYM    DATA     BYTE      DATA1
      0000008CH   SFRSYM    DATA     BYTE      TH0
      000000A8H.0 SFRSYM    DATA     BIT       EX0
      00000098H.1 SFRSYM    DATA     BIT       TI0
      00000088H.0 SFRSYM    DATA     BIT       IT0
      000000FBH   SFRSYM    DATA     BYTE      DATA2
      0000008DH   SFRSYM    DATA     BYTE      TH1
      000000A8H.2 SFRSYM    DATA     BIT       EX1
      00000091H   SFRSYM    DATA     BYTE      CAN_IR
      000000CDH   SFRSYM    DATA     BYTE      TH2
      00000088H.2 SFRSYM    DATA     BIT       IT1
      000000FAH   SFRSYM    DATA     BYTE      DATA3
      000000D0H.0 SFRSYM    DATA     BIT       P
      00000098H.7 SFRSYM    DATA     BIT       SM0
      0000008AH   SFRSYM    DATA     BYTE      TL0
      00000098H.6 SFRSYM    DATA     BIT       SM1
      0000008BH   SFRSYM    DATA     BYTE      TL1
      00000098H.5 SFRSYM    DATA     BIT       SM2
      000000CCH   SFRSYM    DATA     BYTE      TL2
      000000A0H.7 SFRSYM    DATA     BIT       UV_St
      000000D0H.3 SFRSYM    DATA     BIT       RS0
      000000F8H.6 SFRSYM    DATA     BIT       APP_EN
      000000D0H.4 SFRSYM    DATA     BIT       RS1
      00000088H.4 SFRSYM    DATA     BIT       TR0
      00000088H.6 SFRSYM    DATA     BIT       TR1
      00000093H   SFRSYM    DATA     BYTE      DPC
      000000C8H.0 SFRSYM    DATA     BIT       TR2
LX51 LINKER/LOCATER V4.66.93.0                                                        04/30/2025  12:14:31  PAGE 38


      000000E5H   SFRSYM    DATA     BYTE      MAC_MODE
      00000083H   SFRSYM    DATA     BYTE      DPH
      00000082H   SFRSYM    DATA     BYTE      DPL
      00000099H   SFRSYM    DATA     BYTE      SBUF0
      0000009CH   SFRSYM    DATA     BYTE      SBUF1
      00000098H   SFRSYM    DATA     BYTE      SCON0
      0000009BH   SFRSYM    DATA     BYTE      SCON1
      000000D8H   SFRSYM    DATA     BYTE      ADCON
      000000C8H   SFRSYM    DATA     BYTE      T2CON
      000000E6H   SFRSYM    DATA     BYTE      DIV_MODE
      000000F8H.5 SFRSYM    DATA     BIT       APP_RW
      000000CBH   SFRSYM    DATA     BYTE      TRL2H
      0000009FH   SFRSYM    DATA     BYTE      SBUF2_RX
      000000ADH   SFRSYM    DATA     BYTE      SBUF3_RX
      0000008EH   SFRSYM    DATA     BYTE      CKCON
      0000009EH   SFRSYM    DATA     BYTE      SBUF2_TX
      000000ACH   SFRSYM    DATA     BYTE      SBUF3_TX
      000000CAH   SFRSYM    DATA     BYTE      TRL2L
      000000D0H.5 SFRSYM    DATA     BIT       F0
      000000FEH   SFRSYM    DATA     BYTE      EXADR
      000000D0H.1 SFRSYM    DATA     BIT       F1
      000000A0H.3 SFRSYM    DATA     BIT       LED_B
      000000D0H   SFRSYM    DATA     BYTE      PSW
      000000A0H.1 SFRSYM    DATA     BIT       LED_G
      000000C0H   SFRSYM    DATA     BYTE      IRCON
      00000098H.2 SFRSYM    DATA     BIT       RB80
      010035C5H   SYMBOL    CONST    ---       _?ix1000
      010035C9H   SYMBOL    CONST    ---       _?ix1001
      010035CDH   SYMBOL    CONST    ---       _?ix1002
      010035D1H   SYMBOL    CONST    ---       _?ix1003
      010035E1H   SYMBOL    CONST    ---       _?ix1004

      010000F1H   BLOCK     CODE     ---       LVL=0
      010000F1H   LINE      CODE     ---       #42
      010000F1H   LINE      CODE     ---       #43
      010000F6H   LINE      CODE     ---       #44
      ---         BLOCKEND  ---      ---       LVL=0

      01003405H   BLOCK     CODE     ---       LVL=0
      0200A4FFH   SYMBOL    XDATA    BYTE      n
      01003405H   LINE      CODE     ---       #83
      0100340AH   LINE      CODE     ---       #84
      0100340AH   LINE      CODE     ---       #86
      ---         BLOCKEND  ---      ---       LVL=0

      01002BC9H   BLOCK     CODE     ---       LVL=0
      0200A4F0H   SYMBOL    XDATA    CHAR      status
      01002BCEH   BLOCK     CODE     NEAR LAB  LVL=1
      0200A4F1H   SYMBOL    XDATA    ---       temp
      ---         BLOCKEND  ---      ---       LVL=1
      01002BC9H   LINE      CODE     ---       #95
      01002BCEH   LINE      CODE     ---       #96
      01002BCEH   LINE      CODE     ---       #97
      01002BE1H   LINE      CODE     ---       #98
      01002BF7H   LINE      CODE     ---       #99
      01002BFDH   LINE      CODE     ---       #100
      01002C15H   LINE      CODE     ---       #101
      01002C22H   LINE      CODE     ---       #102
      01002C22H   LINE      CODE     ---       #103
      01002C38H   LINE      CODE     ---       #105
      01002C38H   LINE      CODE     ---       #106
      01002C3FH   LINE      CODE     ---       #107
      01002C54H   LINE      CODE     ---       #108
      01002C5AH   LINE      CODE     ---       #109
      ---         BLOCKEND  ---      ---       LVL=0
LX51 LINKER/LOCATER V4.66.93.0                                                        04/30/2025  12:14:31  PAGE 39



      01003178H   BLOCK     CODE     ---       LVL=0
      01003178H   BLOCK     CODE     NEAR LAB  LVL=1
      0200A47CH   SYMBOL    XDATA    ---       cleanData
      ---         BLOCKEND  ---      ---       LVL=1
      01003178H   LINE      CODE     ---       #116
      01003178H   LINE      CODE     ---       #117
      01003178H   LINE      CODE     ---       #118
      0100318BH   LINE      CODE     ---       #119
      010031A1H   LINE      CODE     ---       #120
      010031A9H   LINE      CODE     ---       #121
      010031A9H   LINE      CODE     ---       #122
      010031BEH   LINE      CODE     ---       #123
      010031C1H   LINE      CODE     ---       #124
      010031C1H   LINE      CODE     ---       #125
      010031C3H   LINE      CODE     ---       #126
      ---         BLOCKEND  ---      ---       LVL=0

      01003555H   BLOCK     CODE     ---       LVL=0
      01003555H   LINE      CODE     ---       #129
      01003555H   LINE      CODE     ---       #130
      01003555H   LINE      CODE     ---       #131
      ---         BLOCKEND  ---      ---       LVL=0

      01002F40H   BLOCK     CODE     ---       LVL=0
      0200A4EAH   SYMBOL    XDATA    WORD      pageId
      01002F48H   BLOCK     CODE     NEAR LAB  LVL=1
      0200A4ECH   SYMBOL    XDATA    ---       temp
      ---         BLOCKEND  ---      ---       LVL=1
      01002F40H   LINE      CODE     ---       #140
      01002F48H   LINE      CODE     ---       #141
      01002F48H   LINE      CODE     ---       #142
      01002F5BH   LINE      CODE     ---       #143
      01002F68H   LINE      CODE     ---       #144
      01002F6BH   LINE      CODE     ---       #145
      01002F81H   LINE      CODE     ---       #147
      01002F81H   LINE      CODE     ---       #148
      01002F88H   LINE      CODE     ---       #149
      01002F9DH   LINE      CODE     ---       #150
      01002FA3H   LINE      CODE     ---       #151
      ---         BLOCKEND  ---      ---       LVL=0

      01002E65H   BLOCK     CODE     ---       LVL=0
      00000004H   SYMBOL    DATA     WORD      getDar
      01002E65H   LINE      CODE     ---       #157
      01002E69H   LINE      CODE     ---       #158
      01002E69H   LINE      CODE     ---       #165
      01002E75H   LINE      CODE     ---       #166
      01002E75H   LINE      CODE     ---       #167
      01002E75H   LINE      CODE     ---       #168
      01002E75H   LINE      CODE     ---       #171
      01002E75H   LINE      CODE     ---       #172
      01002E75H   LINE      CODE     ---       #174
      01002E75H   LINE      CODE     ---       #175
      01002E75H   LINE      CODE     ---       #176
      01002E7FH   LINE      CODE     ---       #177
      01002E7FH   LINE      CODE     ---       #179
      01002E87H   LINE      CODE     ---       #180
      01002E87H   LINE      CODE     ---       #181
      01002E8FH   LINE      CODE     ---       #182
      01002E8FH   LINE      CODE     ---       #183
      01002E92H   LINE      CODE     ---       #184
      01002E93H   LINE      CODE     ---       #185
      01002E99H   LINE      CODE     ---       #186
      01002E9AH   LINE      CODE     ---       #187
LX51 LINKER/LOCATER V4.66.93.0                                                        04/30/2025  12:14:31  PAGE 40


      01002EA3H   LINE      CODE     ---       #188
      01002EA3H   LINE      CODE     ---       #189
      01002EA6H   LINE      CODE     ---       #190
      01002EA7H   LINE      CODE     ---       #191
      01002EAAH   LINE      CODE     ---       #193
      01002EABH   LINE      CODE     ---       #194
      01002EB5H   LINE      CODE     ---       #195
      01002EB5H   LINE      CODE     ---       #196
      01002EBBH   LINE      CODE     ---       #198
      01002EBBH   LINE      CODE     ---       #201
      01002EBCH   LINE      CODE     ---       #202
      01002EBCH   LINE      CODE     ---       #204
      01002EBCH   LINE      CODE     ---       #205
      01002EBCH   LINE      CODE     ---       #209
      01002EBCH   LINE      CODE     ---       #210
      01002EBCH   LINE      CODE     ---       #212
      01002EBCH   LINE      CODE     ---       #213
      01002EBCH   LINE      CODE     ---       #217
      01002EBCH   LINE      CODE     ---       #218
      01002EBCH   LINE      CODE     ---       #221
      01002EBCH   LINE      CODE     ---       #222
      01002EBCH   LINE      CODE     ---       #224
      01002EBCH   LINE      CODE     ---       #225
      01002EBCH   LINE      CODE     ---       #228
      01002EBCH   LINE      CODE     ---       #229
      01002EBCH   LINE      CODE     ---       #230
      01002EBCH   LINE      CODE     ---       #231
      01002EBCH   LINE      CODE     ---       #234
      01002EBCH   LINE      CODE     ---       #235
      01002EBCH   LINE      CODE     ---       #237
      01002EBCH   LINE      CODE     ---       #238
      01002EBCH   LINE      CODE     ---       #240
      01002EBCH   LINE      CODE     ---       #241
      01002EBCH   LINE      CODE     ---       #243
      01002EBCH   LINE      CODE     ---       #244
      01002EBCH   LINE      CODE     ---       #247
      01002EBCH   LINE      CODE     ---       #248
      01002EBCH   LINE      CODE     ---       #249
      01002ED0H   LINE      CODE     ---       #250
      01002ED0H   LINE      CODE     ---       #252
      01002ED0H   LINE      CODE     ---       #253
      01002ED8H   LINE      CODE     ---       #254
      01002ED8H   LINE      CODE     ---       #255
      01002EDBH   LINE      CODE     ---       #256
      01002EDBH   LINE      CODE     ---       #257
      01002EDBH   LINE      CODE     ---       #258
      01002EDBH   LINE      CODE     ---       #260
      01002EDBH   LINE      CODE     ---       #261
      01002EDBH   LINE      CODE     ---       #262
      01002EDBH   LINE      CODE     ---       #264
      01002EDBH   LINE      CODE     ---       #265
      01002EDBH   LINE      CODE     ---       #266
      01002EDBH   LINE      CODE     ---       #268
      01002EDBH   LINE      CODE     ---       #269
      01002EDBH   LINE      CODE     ---       #270
      01002EDBH   LINE      CODE     ---       #272
      01002EDBH   LINE      CODE     ---       #273
      01002EDBH   LINE      CODE     ---       #275
      01002EDBH   LINE      CODE     ---       #276
      01002EDBH   LINE      CODE     ---       #278
      01002EDBH   LINE      CODE     ---       #279
      01002EDBH   LINE      CODE     ---       #280
      01002EDBH   LINE      CODE     ---       #281
      01002EDBH   LINE      CODE     ---       #282
      01002EDBH   LINE      CODE     ---       #283
LX51 LINKER/LOCATER V4.66.93.0                                                        04/30/2025  12:14:31  PAGE 41


      01002EDBH   LINE      CODE     ---       #285
      01002EDBH   LINE      CODE     ---       #286
      01002EDBH   LINE      CODE     ---       #288
      01002EDBH   LINE      CODE     ---       #295
      ---         BLOCKEND  ---      ---       LVL=0

      01002CE4H   BLOCK     CODE     ---       LVL=0
      01002CE4H   BLOCK     CODE     NEAR LAB  LVL=1
      0200A47CH   SYMBOL    XDATA    ---       temp
      0200A48CH   SYMBOL    XDATA    WORD      flag
      0200A48EH   SYMBOL    XDATA    WORD      iconid
      0200A490H   SYMBOL    XDATA    WORD      getDar
      ---         BLOCKEND  ---      ---       LVL=1
      01002CE4H   LINE      CODE     ---       #300
      01002CE4H   LINE      CODE     ---       #301
      01002CE4H   LINE      CODE     ---       #302
      01002CF7H   LINE      CODE     ---       #303
      01002CFEH   LINE      CODE     ---       #304
      01002D02H   LINE      CODE     ---       #305
      01002D06H   LINE      CODE     ---       #306
      01002D1CH   LINE      CODE     ---       #307
      01002D1CH   LINE      CODE     ---       #309
      01002D22H   LINE      CODE     ---       #310
      01002D26H   LINE      CODE     ---       #311
      01002D33H   LINE      CODE     ---       #312
      01002D37H   LINE      CODE     ---       #313
      01002D3AH   LINE      CODE     ---       #314
      01002D3DH   LINE      CODE     ---       #315
      01002D5DH   LINE      CODE     ---       #318
      ---         BLOCKEND  ---      ---       LVL=0

      010029EAH   BLOCK     CODE     ---       LVL=0
      010029EAH   BLOCK     CODE     NEAR LAB  LVL=1
      0200A48BH   SYMBOL    XDATA    WORD      ADDR
      ---         BLOCKEND  ---      ---       LVL=1
      010029EAH   LINE      CODE     ---       #334
      010029EAH   LINE      CODE     ---       #335
      010029EAH   LINE      CODE     ---       #336
      010029F1H   LINE      CODE     ---       #338
      01002A03H   LINE      CODE     ---       #340
      01002A0BH   LINE      CODE     ---       #341
      01002A0BH   LINE      CODE     ---       #342
      01002A2DH   LINE      CODE     ---       #343
      01002A33H   LINE      CODE     ---       #344
      01002A39H   LINE      CODE     ---       #345
      01002A3DH   LINE      CODE     ---       #346
      01002A46H   LINE      CODE     ---       #347
      01002A48H   LINE      CODE     ---       #348
      01002A50H   LINE      CODE     ---       #349
      01002A50H   LINE      CODE     ---       #350
      01002A73H   LINE      CODE     ---       #351
      01002A80H   LINE      CODE     ---       #352
      01002A8DH   LINE      CODE     ---       #353
      01002A8DH   LINE      CODE     ---       #355
      ---         BLOCKEND  ---      ---       LVL=0

      01003332H   BLOCK     CODE     ---       LVL=0
      00000001H   SYMBOL    DATA     ---       p_frame
      00000004H   SYMBOL    DATA     WORD      frame_len
      0200A490H   SYMBOL    XDATA    ---       sframe_body
      01003332H   BLOCK     CODE     NEAR LAB  LVL=1
      0200A493H   SYMBOL    XDATA    WORD      temp16_t
      0200A495H   SYMBOL    XDATA    WORD      i
      ---         BLOCKEND  ---      ---       LVL=1
      01003332H   LINE      CODE     ---       #358
LX51 LINKER/LOCATER V4.66.93.0                                                        04/30/2025  12:14:31  PAGE 42


      01003332H   LINE      CODE     ---       #359
      01003332H   LINE      CODE     ---       #360
      01003339H   LINE      CODE     ---       #361
      0100333DH   LINE      CODE     ---       #363
      0100333DH   LINE      CODE     ---       #364
      0100335BH   LINE      CODE     ---       #365
      0100335DH   LINE      CODE     ---       #366
      0100335DH   LINE      CODE     ---       #368
      ---         BLOCKEND  ---      ---       LVL=0

      0100277AH   BLOCK     CODE     ---       LVL=0
      0200A48BH   SYMBOL    XDATA    ---       line
      0200A48EH   SYMBOL    XDATA    ---       out
      0200A491H   SYMBOL    XDATA    ---       frame_len
      0200A494H   SYMBOL    XDATA    WORD      line_len
      01002785H   BLOCK     CODE     NEAR LAB  LVL=1
      0200A496H   SYMBOL    XDATA    WORD      frame_length
      0200A498H   SYMBOL    XDATA    WORD      temp_len
      ---         BLOCKEND  ---      ---       LVL=1
      0100277AH   LINE      CODE     ---       #378
      01002785H   LINE      CODE     ---       #379
      0100278CH   LINE      CODE     ---       #380
      01002790H   LINE      CODE     ---       #382
      0100279FH   LINE      CODE     ---       #383
      010027A2H   LINE      CODE     ---       #384
      010027A2H   LINE      CODE     ---       #386
      010027B4H   LINE      CODE     ---       #387
      010027B7H   LINE      CODE     ---       #388
      010027B7H   LINE      CODE     ---       #389
      010027C1H   LINE      CODE     ---       #390
      010027C4H   LINE      CODE     ---       #391
      010027C4H   LINE      CODE     ---       #392
      010027D7H   LINE      CODE     ---       #394
      010027E4H   LINE      CODE     ---       #396
      010027FFH   LINE      CODE     ---       #397
      01002821H   LINE      CODE     ---       #398
      0100282BH   LINE      CODE     ---       #399
      0100283BH   LINE      CODE     ---       #400
      01002853H   LINE      CODE     ---       #401
      01002856H   LINE      CODE     ---       #402
      01002856H   LINE      CODE     ---       #404
      01002858H   LINE      CODE     ---       #405
      01002858H   LINE      CODE     ---       #406
      ---         BLOCKEND  ---      ---       LVL=0

      0100093BH   BLOCK     CODE     ---       LVL=0
      0100093BH   BLOCK     CODE     NEAR LAB  LVL=1
      0200A47CH   SYMBOL    XDATA    WORD      frame_length
      0200A47EH   SYMBOL    XDATA    WORD      i
      0200A480H   SYMBOL    XDATA    WORD      temp_len
      0200A482H   SYMBOL    XDATA    BYTE      has_content
      0200A483H   SYMBOL    XDATA    BYTE      frame_error
      0200A484H   SYMBOL    XDATA    ---       p_buf
      0200A487H   SYMBOL    XDATA    BYTE      protl_type
      0200A488H   SYMBOL    XDATA    BYTE      find_frame_re
      0200A489H   SYMBOL    XDATA    ---       frame_results
      ---         BLOCKEND  ---      ---       LVL=1
      0100093BH   LINE      CODE     ---       #410
      0100093BH   LINE      CODE     ---       #411
      0100093BH   LINE      CODE     ---       #412
      01000942H   LINE      CODE     ---       #413
      0100094AH   LINE      CODE     ---       #414
      0100094CH   LINE      CODE     ---       #415
      0100094EH   LINE      CODE     ---       #416
      01000959H   LINE      CODE     ---       #417
LX51 LINKER/LOCATER V4.66.93.0                                                        04/30/2025  12:14:31  PAGE 43


      0100095CH   LINE      CODE     ---       #418
      0100095EH   LINE      CODE     ---       #423
      01000970H   LINE      CODE     ---       #425
      01000988H   LINE      CODE     ---       #426
      01000991H   LINE      CODE     ---       #427
      0100099FH   LINE      CODE     ---       #429
      010009DFH   LINE      CODE     ---       #430
      010009E9H   LINE      CODE     ---       #431
      010009EBH   LINE      CODE     ---       #432
      01000A1FH   LINE      CODE     ---       #434
      01000A25H   LINE      CODE     ---       #435
      01000A26H   LINE      CODE     ---       #436
      01000A26H   LINE      CODE     ---       #438
      01000A49H   LINE      CODE     ---       #441
      01000A58H   LINE      CODE     ---       #442
      01000A58H   LINE      CODE     ---       #443
      01000A67H   LINE      CODE     ---       #444
      01000A6CH   LINE      CODE     ---       #445
      01000A70H   LINE      CODE     ---       #446
      01000A76H   LINE      CODE     ---       #447
      01000A8AH   LINE      CODE     ---       #448
      01000A96H   LINE      CODE     ---       #449
      01000AA6H   LINE      CODE     ---       #451
      01000AA6H   LINE      CODE     ---       #452
      01000AE2H   LINE      CODE     ---       #454
      01000AE4H   LINE      CODE     ---       #455
      01000AE8H   LINE      CODE     ---       #456
      01000B0DH   LINE      CODE     ---       #458
      01000B10H   LINE      CODE     ---       #459
      01000B1FH   LINE      CODE     ---       #460
      01000B1FH   LINE      CODE     ---       #461
      01000B22H   LINE      CODE     ---       #462
      01000B22H   LINE      CODE     ---       #464
      01000B22H   LINE      CODE     ---       #468
      01000B22H   LINE      CODE     ---       #469
      01000B2DH   LINE      CODE     ---       #472
      01000B32H   LINE      CODE     ---       #474
      01000B72H   LINE      CODE     ---       #475
      01000B7CH   LINE      CODE     ---       #476
      01000B7EH   LINE      CODE     ---       #478
      01000BB2H   LINE      CODE     ---       #480
      01000BB8H   LINE      CODE     ---       #481
      01000BBAH   LINE      CODE     ---       #482
      01000BBAH   LINE      CODE     ---       #485
      01000BC0H   LINE      CODE     ---       #486
      01000BC0H   LINE      CODE     ---       #487
      01000BC0H   LINE      CODE     ---       #488
      01000BC0H   LINE      CODE     ---       #492
      01000BD1H   LINE      CODE     ---       #494
      01000C04H   LINE      CODE     ---       #495
      01000C0CH   LINE      CODE     ---       #497
      01000C29H   LINE      CODE     ---       #498
      01000C58H   LINE      CODE     ---       #499
      01000C5CH   LINE      CODE     ---       #500
      01000C6CH   LINE      CODE     ---       #501
      01000C72H   LINE      CODE     ---       #502
      01000C74H   LINE      CODE     ---       #504
      01000CA5H   LINE      CODE     ---       #505
      01000CB1H   LINE      CODE     ---       #506
      01000CC1H   LINE      CODE     ---       #507
      01000CC6H   LINE      CODE     ---       #508
      01000CC6H   LINE      CODE     ---       #509
      01000CD5H   LINE      CODE     ---       #510
      01000CD8H   LINE      CODE     ---       #511
      01000CDDH   LINE      CODE     ---       #512
LX51 LINKER/LOCATER V4.66.93.0                                                        04/30/2025  12:14:31  PAGE 44


      01000CDDH   LINE      CODE     ---       #513
      01000CE0H   LINE      CODE     ---       #514
      ---         BLOCKEND  ---      ---       LVL=0

      01003549H   BLOCK     CODE     ---       LVL=0
      01003549H   LINE      CODE     ---       #519
      01003549H   LINE      CODE     ---       #520
      01003549H   LINE      CODE     ---       #521
      0100354FH   LINE      CODE     ---       #522
      0100354FH   LINE      CODE     ---       #523
      01003552H   LINE      CODE     ---       #524
      01003552H   LINE      CODE     ---       #525
      ---         BLOCKEND  ---      ---       LVL=0

      ---         MODULE    ---      ---       CRC16
      00000098H.3 SFRSYM    DATA     BIT       TB80
      000000F1H   SFRSYM    DATA     BYTE      ADR_H
      00000080H   SFRSYM    DATA     BYTE      P0
      00000090H   SFRSYM    DATA     BYTE      P1
      000000A0H   SFRSYM    DATA     BYTE      P2
      000000B0H   SFRSYM    DATA     BYTE      P3
      000000D0H.6 SFRSYM    DATA     BIT       AC
      000000F3H   SFRSYM    DATA     BYTE      ADR_L
      00000094H   SFRSYM    DATA     BYTE      PAGESEL
      000000F2H   SFRSYM    DATA     BYTE      ADR_M
      000000A8H.7 SFRSYM    DATA     BIT       EA
      000000A0H.5 SFRSYM    DATA     BIT       JIGUANG
      00000090H.7 SFRSYM    DATA     BIT       LED_R
      000000F8H   SFRSYM    DATA     BYTE      RAMMODE
      000000B7H   SFRSYM    DATA     BYTE      P0MDOUT
      000000A8H   SFRSYM    DATA     BYTE      IEN0
      000000BCH   SFRSYM    DATA     BYTE      P1MDOUT
      000000B8H   SFRSYM    DATA     BYTE      IEN1
      000000BDH   SFRSYM    DATA     BYTE      P2MDOUT
      000000F8H.0 SFRSYM    DATA     BIT       APP_DATA0
      0000009AH   SFRSYM    DATA     BYTE      IEN2
      000000BEH   SFRSYM    DATA     BYTE      P3MDOUT
      000000F8H.1 SFRSYM    DATA     BIT       APP_DATA1
      000000D1H   SFRSYM    DATA     BYTE      IEN3
      00000080H.0 SFRSYM    DATA     BIT       P0_0
      000000F8H.2 SFRSYM    DATA     BIT       APP_DATA2
      00000090H.0 SFRSYM    DATA     BIT       P1_0
      000000F8H.3 SFRSYM    DATA     BIT       APP_DATA3
      00000090H.1 SFRSYM    DATA     BIT       P1_1
      000000F8H.4 SFRSYM    DATA     BIT       APP_ACK
      000000F4H   SFRSYM    DATA     BYTE      ADR_INC
      000000B0H.1 SFRSYM    DATA     BIT       P3_1
      00000098H.4 SFRSYM    DATA     BIT       REN0
      000000B8H.1 SFRSYM    DATA     BIT       ECAN
      000000D0H.7 SFRSYM    DATA     BIT       CY
      000000B8H.3 SFRSYM    DATA     BIT       ES2R
      000000B8H.5 SFRSYM    DATA     BIT       ES3R
      000000B8H.2 SFRSYM    DATA     BIT       ES2T
      000000B8H.4 SFRSYM    DATA     BIT       ES3T
      000000C8H.7 SFRSYM    DATA     BIT       TSF2
      000000B0H.3 SFRSYM    DATA     BIT       RTC_SDA
      00000081H   SFRSYM    DATA     BYTE      SP
      000000D0H.2 SFRSYM    DATA     BIT       OV
      00000095H   SFRSYM    DATA     BYTE      D_PAGESEL
      00000090H.5 SFRSYM    DATA     BIT       UV
      000000F8H.7 SFRSYM    DATA     BIT       APP_REQ
      000000B0H.2 SFRSYM    DATA     BIT       RTC_SCL
      000000BFH   SFRSYM    DATA     BYTE      IRCON2
      000000BAH   SFRSYM    DATA     BYTE      SREL0H
      000000BBH   SFRSYM    DATA     BYTE      SREL1H
LX51 LINKER/LOCATER V4.66.93.0                                                        04/30/2025  12:14:31  PAGE 45


      00000087H   SFRSYM    DATA     BYTE      PCON
      000000AAH   SFRSYM    DATA     BYTE      SREL0L
      000000F9H   SFRSYM    DATA     BYTE      PORTDRV
      0000009DH   SFRSYM    DATA     BYTE      SREL1L
      00000089H   SFRSYM    DATA     BYTE      TMOD
      00000088H   SFRSYM    DATA     BYTE      TCON
      00000097H   SFRSYM    DATA     BYTE      SCON2R
      000000FFH   SFRSYM    DATA     BYTE      EXDATA
      000000ABH   SFRSYM    DATA     BYTE      SCON3R
      000000D9H   SFRSYM    DATA     BYTE      BODE2_DIV_H
      000000AEH   SFRSYM    DATA     BYTE      BODE3_DIV_H
      00000096H   SFRSYM    DATA     BYTE      SCON2T
      000000A7H   SFRSYM    DATA     BYTE      SCON3T
      000000E7H   SFRSYM    DATA     BYTE      BODE2_DIV_L
      00000088H.1 SFRSYM    DATA     BIT       IE0
      000000AFH   SFRSYM    DATA     BYTE      BODE3_DIV_L
      00000088H.3 SFRSYM    DATA     BIT       IE1
      000000C9H   SFRSYM    DATA     BYTE      MUX_SEL
      000000F0H   SFRSYM    DATA     BYTE      B
      000000E0H   SFRSYM    DATA     BYTE      ACC
      000000A8H.4 SFRSYM    DATA     BIT       ES0
      0000008FH   SFRSYM    DATA     BYTE      CAN_CR
      000000A8H.1 SFRSYM    DATA     BIT       ET0
      000000A9H   SFRSYM    DATA     BYTE      IP0
      000000A8H.3 SFRSYM    DATA     BIT       ET1
      00000088H.5 SFRSYM    DATA     BIT       TF0
      000000B9H   SFRSYM    DATA     BYTE      IP1
      000000A8H.5 SFRSYM    DATA     BIT       ET2
      00000098H.0 SFRSYM    DATA     BIT       RI0
      00000088H.7 SFRSYM    DATA     BIT       TF1
      000000FDH   SFRSYM    DATA     BYTE      DATA0
      000000C0H.6 SFRSYM    DATA     BIT       TF2
      000000E8H   SFRSYM    DATA     BYTE      CAN_ET
      000000FCH   SFRSYM    DATA     BYTE      DATA1
      0000008CH   SFRSYM    DATA     BYTE      TH0
      000000A8H.0 SFRSYM    DATA     BIT       EX0
      00000098H.1 SFRSYM    DATA     BIT       TI0
      00000088H.0 SFRSYM    DATA     BIT       IT0
      000000FBH   SFRSYM    DATA     BYTE      DATA2
      0000008DH   SFRSYM    DATA     BYTE      TH1
      000000A8H.2 SFRSYM    DATA     BIT       EX1
      00000091H   SFRSYM    DATA     BYTE      CAN_IR
      000000CDH   SFRSYM    DATA     BYTE      TH2
      00000088H.2 SFRSYM    DATA     BIT       IT1
      000000FAH   SFRSYM    DATA     BYTE      DATA3
      000000D0H.0 SFRSYM    DATA     BIT       P
      00000098H.7 SFRSYM    DATA     BIT       SM0
      0000008AH   SFRSYM    DATA     BYTE      TL0
      00000098H.6 SFRSYM    DATA     BIT       SM1
      0000008BH   SFRSYM    DATA     BYTE      TL1
      00000098H.5 SFRSYM    DATA     BIT       SM2
      000000CCH   SFRSYM    DATA     BYTE      TL2
      000000A0H.7 SFRSYM    DATA     BIT       UV_St
      000000D0H.3 SFRSYM    DATA     BIT       RS0
      000000F8H.6 SFRSYM    DATA     BIT       APP_EN
      000000D0H.4 SFRSYM    DATA     BIT       RS1
      00000088H.4 SFRSYM    DATA     BIT       TR0
      00000088H.6 SFRSYM    DATA     BIT       TR1
      00000093H   SFRSYM    DATA     BYTE      DPC
      000000C8H.0 SFRSYM    DATA     BIT       TR2
      000000E5H   SFRSYM    DATA     BYTE      MAC_MODE
      00000083H   SFRSYM    DATA     BYTE      DPH
      00000082H   SFRSYM    DATA     BYTE      DPL
      00000099H   SFRSYM    DATA     BYTE      SBUF0
      0000009CH   SFRSYM    DATA     BYTE      SBUF1
LX51 LINKER/LOCATER V4.66.93.0                                                        04/30/2025  12:14:31  PAGE 46


      00000098H   SFRSYM    DATA     BYTE      SCON0
      0000009BH   SFRSYM    DATA     BYTE      SCON1
      000000D8H   SFRSYM    DATA     BYTE      ADCON
      000000C8H   SFRSYM    DATA     BYTE      T2CON
      000000E6H   SFRSYM    DATA     BYTE      DIV_MODE
      000000F8H.5 SFRSYM    DATA     BIT       APP_RW
      000000CBH   SFRSYM    DATA     BYTE      TRL2H
      0000009FH   SFRSYM    DATA     BYTE      SBUF2_RX
      000000ADH   SFRSYM    DATA     BYTE      SBUF3_RX
      0000008EH   SFRSYM    DATA     BYTE      CKCON
      0000009EH   SFRSYM    DATA     BYTE      SBUF2_TX
      000000ACH   SFRSYM    DATA     BYTE      SBUF3_TX
      000000CAH   SFRSYM    DATA     BYTE      TRL2L
      000000D0H.5 SFRSYM    DATA     BIT       F0
      000000FEH   SFRSYM    DATA     BYTE      EXADR
      000000D0H.1 SFRSYM    DATA     BIT       F1
      000000A0H.3 SFRSYM    DATA     BIT       LED_B
      000000D0H   SFRSYM    DATA     BYTE      PSW
      000000A0H.1 SFRSYM    DATA     BIT       LED_G
      000000C0H   SFRSYM    DATA     BYTE      IRCON
      00000098H.2 SFRSYM    DATA     BIT       RB80

      ---         MODULE    ---      ---       I2C
      0200A4E8H   PUBLIC    XDATA    WORD      SysTick_RTC
      0200A4E7H   PUBLIC    XDATA    BYTE      Select_rtc
      0100341FH   PUBLIC    CODE     ---       Clock
      01001EA3H   PUBLIC    CODE     ---       RTC_Set_Time
      0100311EH   PUBLIC    CODE     ---       Init_Rtc
      01002316H   PUBLIC    CODE     ---       Read_Time
      010021B9H   PUBLIC    CODE     ---       _RTC_Get_Week
      0100002EH   PUBLIC    CODE     ---       Rx8130_Read_Byte
      010000C4H   PUBLIC    CODE     ---       _Rx8130_Writ_Byte
      01003383H   PUBLIC    CODE     ---       Rx8130_Cack
      01003560H   PUBLIC    CODE     ---       Rx8130_Mnak
      01000016H   PUBLIC    CODE     ---       Rx8130_Mack
      010033B5H   PUBLIC    CODE     ---       Rx8130_Stop
      010034C1H   PUBLIC    CODE     ---       Rx8130_Start
      010012BBH   PUBLIC    CODE     ---       RTC_SET_IN
      01000066H   PUBLIC    CODE     ---       SDA_OUT
      01000026H   PUBLIC    CODE     ---       SDA_IN
      01003473H   PUBLIC    CODE     ---       Delayus
      00000098H.3 SFRSYM    DATA     BIT       TB80
      000000F1H   SFRSYM    DATA     BYTE      ADR_H
      00000080H   SFRSYM    DATA     BYTE      P0
      00000090H   SFRSYM    DATA     BYTE      P1
      000000A0H   SFRSYM    DATA     BYTE      P2
      000000B0H   SFRSYM    DATA     BYTE      P3
      000000D0H.6 SFRSYM    DATA     BIT       AC
      000000F3H   SFRSYM    DATA     BYTE      ADR_L
      00000094H   SFRSYM    DATA     BYTE      PAGESEL
      000000F2H   SFRSYM    DATA     BYTE      ADR_M
      000000A8H.7 SFRSYM    DATA     BIT       EA
      000000A0H.5 SFRSYM    DATA     BIT       JIGUANG
      00000090H.7 SFRSYM    DATA     BIT       LED_R
      000000F8H   SFRSYM    DATA     BYTE      RAMMODE
      000000B7H   SFRSYM    DATA     BYTE      P0MDOUT
      000000A8H   SFRSYM    DATA     BYTE      IEN0
      000000BCH   SFRSYM    DATA     BYTE      P1MDOUT
      000000B8H   SFRSYM    DATA     BYTE      IEN1
      000000BDH   SFRSYM    DATA     BYTE      P2MDOUT
      000000F8H.0 SFRSYM    DATA     BIT       APP_DATA0
      0000009AH   SFRSYM    DATA     BYTE      IEN2
      000000BEH   SFRSYM    DATA     BYTE      P3MDOUT
      000000F8H.1 SFRSYM    DATA     BIT       APP_DATA1
      000000D1H   SFRSYM    DATA     BYTE      IEN3
LX51 LINKER/LOCATER V4.66.93.0                                                        04/30/2025  12:14:31  PAGE 47


      00000080H.0 SFRSYM    DATA     BIT       P0_0
      000000F8H.2 SFRSYM    DATA     BIT       APP_DATA2
      00000090H.0 SFRSYM    DATA     BIT       P1_0
      000000F8H.3 SFRSYM    DATA     BIT       APP_DATA3
      00000090H.1 SFRSYM    DATA     BIT       P1_1
      000000F8H.4 SFRSYM    DATA     BIT       APP_ACK
      000000F4H   SFRSYM    DATA     BYTE      ADR_INC
      000000B0H.1 SFRSYM    DATA     BIT       P3_1
      00000098H.4 SFRSYM    DATA     BIT       REN0
      000000B8H.1 SFRSYM    DATA     BIT       ECAN
      000000D0H.7 SFRSYM    DATA     BIT       CY
      000000B8H.3 SFRSYM    DATA     BIT       ES2R
      000000B8H.5 SFRSYM    DATA     BIT       ES3R
      000000B8H.2 SFRSYM    DATA     BIT       ES2T
      000000B8H.4 SFRSYM    DATA     BIT       ES3T
      000000C8H.7 SFRSYM    DATA     BIT       TSF2
      000000B0H.3 SFRSYM    DATA     BIT       RTC_SDA
      00000081H   SFRSYM    DATA     BYTE      SP
      000000D0H.2 SFRSYM    DATA     BIT       OV
      00000095H   SFRSYM    DATA     BYTE      D_PAGESEL
      00000090H.5 SFRSYM    DATA     BIT       UV
      000000F8H.7 SFRSYM    DATA     BIT       APP_REQ
      000000B0H.2 SFRSYM    DATA     BIT       RTC_SCL
      000000BFH   SFRSYM    DATA     BYTE      IRCON2
      000000BAH   SFRSYM    DATA     BYTE      SREL0H
      000000BBH   SFRSYM    DATA     BYTE      SREL1H
      00000087H   SFRSYM    DATA     BYTE      PCON
      000000AAH   SFRSYM    DATA     BYTE      SREL0L
      000000F9H   SFRSYM    DATA     BYTE      PORTDRV
      0000009DH   SFRSYM    DATA     BYTE      SREL1L
      00000089H   SFRSYM    DATA     BYTE      TMOD
      00000088H   SFRSYM    DATA     BYTE      TCON
      00000097H   SFRSYM    DATA     BYTE      SCON2R
      000000FFH   SFRSYM    DATA     BYTE      EXDATA
      000000ABH   SFRSYM    DATA     BYTE      SCON3R
      000000D9H   SFRSYM    DATA     BYTE      BODE2_DIV_H
      000000AEH   SFRSYM    DATA     BYTE      BODE3_DIV_H
      00000096H   SFRSYM    DATA     BYTE      SCON2T
      000000A7H   SFRSYM    DATA     BYTE      SCON3T
      000000E7H   SFRSYM    DATA     BYTE      BODE2_DIV_L
      00000088H.1 SFRSYM    DATA     BIT       IE0
      000000AFH   SFRSYM    DATA     BYTE      BODE3_DIV_L
      00000088H.3 SFRSYM    DATA     BIT       IE1
      000000C9H   SFRSYM    DATA     BYTE      MUX_SEL
      000000F0H   SFRSYM    DATA     BYTE      B
      000000E0H   SFRSYM    DATA     BYTE      ACC
      000000A8H.4 SFRSYM    DATA     BIT       ES0
      0000008FH   SFRSYM    DATA     BYTE      CAN_CR
      000000A8H.1 SFRSYM    DATA     BIT       ET0
      000000A9H   SFRSYM    DATA     BYTE      IP0
      000000A8H.3 SFRSYM    DATA     BIT       ET1
      00000088H.5 SFRSYM    DATA     BIT       TF0
      000000B9H   SFRSYM    DATA     BYTE      IP1
      000000A8H.5 SFRSYM    DATA     BIT       ET2
      00000098H.0 SFRSYM    DATA     BIT       RI0
      00000088H.7 SFRSYM    DATA     BIT       TF1
      000000FDH   SFRSYM    DATA     BYTE      DATA0
      000000C0H.6 SFRSYM    DATA     BIT       TF2
      000000E8H   SFRSYM    DATA     BYTE      CAN_ET
      000000FCH   SFRSYM    DATA     BYTE      DATA1
      0000008CH   SFRSYM    DATA     BYTE      TH0
      000000A8H.0 SFRSYM    DATA     BIT       EX0
      00000098H.1 SFRSYM    DATA     BIT       TI0
      00000088H.0 SFRSYM    DATA     BIT       IT0
      000000FBH   SFRSYM    DATA     BYTE      DATA2
LX51 LINKER/LOCATER V4.66.93.0                                                        04/30/2025  12:14:31  PAGE 48


      0000008DH   SFRSYM    DATA     BYTE      TH1
      000000A8H.2 SFRSYM    DATA     BIT       EX1
      00000091H   SFRSYM    DATA     BYTE      CAN_IR
      000000CDH   SFRSYM    DATA     BYTE      TH2
      00000088H.2 SFRSYM    DATA     BIT       IT1
      000000FAH   SFRSYM    DATA     BYTE      DATA3
      000000D0H.0 SFRSYM    DATA     BIT       P
      00000098H.7 SFRSYM    DATA     BIT       SM0
      0000008AH   SFRSYM    DATA     BYTE      TL0
      00000098H.6 SFRSYM    DATA     BIT       SM1
      0000008BH   SFRSYM    DATA     BYTE      TL1
      00000098H.5 SFRSYM    DATA     BIT       SM2
      000000CCH   SFRSYM    DATA     BYTE      TL2
      000000A0H.7 SFRSYM    DATA     BIT       UV_St
      000000D0H.3 SFRSYM    DATA     BIT       RS0
      000000F8H.6 SFRSYM    DATA     BIT       APP_EN
      000000D0H.4 SFRSYM    DATA     BIT       RS1
      00000088H.4 SFRSYM    DATA     BIT       TR0
      00000088H.6 SFRSYM    DATA     BIT       TR1
      00000093H   SFRSYM    DATA     BYTE      DPC
      000000C8H.0 SFRSYM    DATA     BIT       TR2
      000000E5H   SFRSYM    DATA     BYTE      MAC_MODE
      00000083H   SFRSYM    DATA     BYTE      DPH
      00000082H   SFRSYM    DATA     BYTE      DPL
      00000099H   SFRSYM    DATA     BYTE      SBUF0
      0000009CH   SFRSYM    DATA     BYTE      SBUF1
      00000098H   SFRSYM    DATA     BYTE      SCON0
      0000009BH   SFRSYM    DATA     BYTE      SCON1
      000000D8H   SFRSYM    DATA     BYTE      ADCON
      000000C8H   SFRSYM    DATA     BYTE      T2CON
      000000E6H   SFRSYM    DATA     BYTE      DIV_MODE
      000000F8H.5 SFRSYM    DATA     BIT       APP_RW
      000000CBH   SFRSYM    DATA     BYTE      TRL2H
      0000009FH   SFRSYM    DATA     BYTE      SBUF2_RX
      000000ADH   SFRSYM    DATA     BYTE      SBUF3_RX
      0000008EH   SFRSYM    DATA     BYTE      CKCON
      0000009EH   SFRSYM    DATA     BYTE      SBUF2_TX
      000000ACH   SFRSYM    DATA     BYTE      SBUF3_TX
      000000CAH   SFRSYM    DATA     BYTE      TRL2L
      000000D0H.5 SFRSYM    DATA     BIT       F0
      000000FEH   SFRSYM    DATA     BYTE      EXADR
      000000D0H.1 SFRSYM    DATA     BIT       F1
      000000A0H.3 SFRSYM    DATA     BIT       LED_B
      000000D0H   SFRSYM    DATA     BYTE      PSW
      000000A0H.1 SFRSYM    DATA     BIT       LED_G
      000000C0H   SFRSYM    DATA     BYTE      IRCON
      00000098H.2 SFRSYM    DATA     BIT       RB80
      010035E3H   SYMBOL    CONST    ---       _?ix1000
      010035E9H   SYMBOL    CONST    ---       _?ix1001
      010035F1H   SYMBOL    CONST    ---       _?ix1002
      010035F3H   SYMBOL    CONST    ---       _?ix1003

      0100346CH   BLOCK     CODE     ---       LVL=0
      ---         BLOCKEND  ---      ---       LVL=0

      01003473H   BLOCK     CODE     ---       LVL=0
      00000007H   SYMBOL    DATA     BYTE      i
      01003473H   BLOCK     CODE     NEAR LAB  LVL=1
      00000007H   SYMBOL    DATA     BYTE      i
      ---         BLOCKEND  ---      ---       LVL=1
      01003473H   LINE      CODE     ---       #24
      ---         BLOCKEND  ---      ---       LVL=0

      01000026H   BLOCK     CODE     ---       LVL=0
      01000026H   LINE      CODE     ---       #26
LX51 LINKER/LOCATER V4.66.93.0                                                        04/30/2025  12:14:31  PAGE 49


      ---         BLOCKEND  ---      ---       LVL=0

      01000066H   BLOCK     CODE     ---       LVL=0
      01000066H   LINE      CODE     ---       #28
      ---         BLOCKEND  ---      ---       LVL=0

      010012BBH   BLOCK     CODE     ---       LVL=0
      010012BBH   BLOCK     CODE     NEAR LAB  LVL=1
      0200A492H   SYMBOL    XDATA    ---       RTC_H
      0200A496H   SYMBOL    XDATA    ---       RTC_L
      0200A49AH   SYMBOL    XDATA    ---       RTC_6
      0200A4E1H   SYMBOL    XDATA    ---       RTC_9C
      0200A4A0H   SYMBOL    XDATA    DWORD     RTC_H_HEX
      0200A4E3H   SYMBOL    XDATA    DWORD     RTC_L_HEX
      ---         BLOCKEND  ---      ---       LVL=1
      010012BBH   LINE      CODE     ---       #36
      010012BBH   LINE      CODE     ---       #37
      010012BBH   LINE      CODE     ---       #43
      010012CEH   LINE      CODE     ---       #49
      010012E4H   LINE      CODE     ---       #50
      010012FAH   LINE      CODE     ---       #69
      0100136EH   LINE      CODE     ---       #70
      010013E2H   LINE      CODE     ---       #74
      010013FEH   LINE      CODE     ---       #75
      01001423H   LINE      CODE     ---       #76
      01001449H   LINE      CODE     ---       #77
      01001465H   LINE      CODE     ---       #78
      0100148AH   LINE      CODE     ---       #79
      010014B0H   LINE      CODE     ---       #82
      010014C6H   LINE      CODE     ---       #83
      010014C6H   LINE      CODE     ---       #84
      010014DAH   LINE      CODE     ---       #85
      010014DAH   LINE      CODE     ---       #86
      010014ECH   LINE      CODE     ---       #87
      010014ECH   LINE      CODE     ---       #88
      010014FEH   LINE      CODE     ---       #89
      010014FEH   LINE      CODE     ---       #90
      01001510H   LINE      CODE     ---       #91
      01001510H   LINE      CODE     ---       #92
      01001515H   LINE      CODE     ---       #93
      0100151CH   LINE      CODE     ---       #94
      01001523H   LINE      CODE     ---       #95
      01001525H   LINE      CODE     ---       #96
      01001528H   LINE      CODE     ---       #97
      0100152AH   LINE      CODE     ---       #98
      01001530H   LINE      CODE     ---       #100
      01001546H   LINE      CODE     ---       #101
      0100155CH   LINE      CODE     ---       #105
      ---         BLOCKEND  ---      ---       LVL=0

      010034C1H   BLOCK     CODE     ---       LVL=0
      010034C1H   LINE      CODE     ---       #109
      010034C1H   LINE      CODE     ---       #110
      010034C1H   LINE      CODE     ---       #111
      010034C4H   LINE      CODE     ---       #112
      010034C6H   LINE      CODE     ---       #113
      010034C8H   LINE      CODE     ---       #114
      010034CBH   LINE      CODE     ---       #115
      010034CDH   LINE      CODE     ---       #116
      010034D0H   LINE      CODE     ---       #117
      010034D2H   LINE      CODE     ---       #118
      ---         BLOCKEND  ---      ---       LVL=0

      010033A6H   BLOCK     CODE     ---       LVL=0
      ---         BLOCKEND  ---      ---       LVL=0
LX51 LINKER/LOCATER V4.66.93.0                                                        04/30/2025  12:14:31  PAGE 50



      010033B5H   BLOCK     CODE     ---       LVL=0
      010033B5H   LINE      CODE     ---       #121
      010033B5H   LINE      CODE     ---       #122
      010033B5H   LINE      CODE     ---       #123
      010033B8H   LINE      CODE     ---       #124
      010033BAH   LINE      CODE     ---       #125
      010033BCH   LINE      CODE     ---       #126
      010033BFH   LINE      CODE     ---       #127
      010033C1H   LINE      CODE     ---       #128
      010033C4H   LINE      CODE     ---       #129
      ---         BLOCKEND  ---      ---       LVL=0

      01000016H   BLOCK     CODE     ---       LVL=0
      01000016H   LINE      CODE     ---       #132
      01000016H   LINE      CODE     ---       #133
      01000016H   LINE      CODE     ---       #134
      01000019H   LINE      CODE     ---       #135
      0100001BH   LINE      CODE     ---       #136
      0100001BH   LINE      CODE     ---       #137
      0100001BH   LINE      CODE     ---       #138
      0100001EH   LINE      CODE     ---       #139
      01000020H   LINE      CODE     ---       #140
      ---         BLOCKEND  ---      ---       LVL=0

      01003560H   BLOCK     CODE     ---       LVL=0
      01003560H   LINE      CODE     ---       #143
      01003560H   LINE      CODE     ---       #144
      01003560H   LINE      CODE     ---       #145
      01003563H   LINE      CODE     ---       #146
      01003563H   LINE      CODE     ---       #147
      01003563H   LINE      CODE     ---       #148
      01003563H   LINE      CODE     ---       #149
      01003566H   LINE      CODE     ---       #150
      01003568H   LINE      CODE     ---       #151
      ---         BLOCKEND  ---      ---       LVL=0

      01003383H   BLOCK     CODE     ---       LVL=0
      01003383H   BLOCK     CODE     NEAR LAB  LVL=1
      00000006H   SYMBOL    DATA     BYTE      i
      ---         BLOCKEND  ---      ---       LVL=1
      01003383H   LINE      CODE     ---       #154
      01003383H   LINE      CODE     ---       #155
      01003383H   LINE      CODE     ---       #157
      01003386H   LINE      CODE     ---       #158
      01003386H   LINE      CODE     ---       #159
      01003386H   LINE      CODE     ---       #160
      01003386H   LINE      CODE     ---       #161
      01003389H   LINE      CODE     ---       #162
      01003395H   LINE      CODE     ---       #163
      01003395H   LINE      CODE     ---       #164
      01003398H   LINE      CODE     ---       #165
      0100339BH   LINE      CODE     ---       #166
      0100339EH   LINE      CODE     ---       #167
      010033A0H   LINE      CODE     ---       #168
      010033A3H   LINE      CODE     ---       #169
      ---         BLOCKEND  ---      ---       LVL=0

      01000086H   BLOCK     CODE     ---       LVL=0
      ---         BLOCKEND  ---      ---       LVL=0

      010000C4H   BLOCK     CODE     ---       LVL=0
      00000006H   SYMBOL    DATA     BYTE      dat
      00000005H   SYMBOL    DATA     BYTE      i
      010000C6H   BLOCK     CODE     NEAR LAB  LVL=1
LX51 LINKER/LOCATER V4.66.93.0                                                        04/30/2025  12:14:31  PAGE 51


      00000005H   SYMBOL    DATA     BYTE      i
      ---         BLOCKEND  ---      ---       LVL=1
      010000C4H   LINE      CODE     ---       #172
      010000C6H   LINE      CODE     ---       #173
      010000C6H   LINE      CODE     ---       #175
      010000C9H   LINE      CODE     ---       #176
      010000D5H   LINE      CODE     ---       #177
      010000D5H   LINE      CODE     ---       #178
      010000DDH   LINE      CODE     ---       #179
      010000DFH   LINE      CODE     ---       #180
      010000E3H   LINE      CODE     ---       #181
      010000E3H   LINE      CODE     ---       #182
      010000E3H   LINE      CODE     ---       #183
      010000E6H   LINE      CODE     ---       #184
      010000E8H   LINE      CODE     ---       #185
      010000EBH   LINE      CODE     ---       #186
      010000EEH   LINE      CODE     ---       #187
      ---         BLOCKEND  ---      ---       LVL=0

      0100002EH   BLOCK     CODE     ---       LVL=0
      0100002EH   BLOCK     CODE     NEAR LAB  LVL=1
      00000005H   SYMBOL    DATA     BYTE      i
      00000006H   SYMBOL    DATA     BYTE      Dat
      ---         BLOCKEND  ---      ---       LVL=1
      0100002EH   LINE      CODE     ---       #190
      0100002EH   LINE      CODE     ---       #191
      0100002EH   LINE      CODE     ---       #194
      01000031H   LINE      CODE     ---       #195
      0100003DH   LINE      CODE     ---       #196
      0100003DH   LINE      CODE     ---       #197
      0100003DH   LINE      CODE     ---       #198
      0100003DH   LINE      CODE     ---       #199
      01000040H   LINE      CODE     ---       #200
      01000044H   LINE      CODE     ---       #201
      0100004CH   LINE      CODE     ---       #202
      01000050H   LINE      CODE     ---       #203
      01000052H   LINE      CODE     ---       #204
      01000055H   LINE      CODE     ---       #205
      01000058H   LINE      CODE     ---       #206
      0100005AH   LINE      CODE     ---       #207
      ---         BLOCKEND  ---      ---       LVL=0

      010021B9H   BLOCK     CODE     ---       LVL=0
      00000007H   SYMBOL    DATA     BYTE      years
      0200A486H   SYMBOL    XDATA    BYTE      month
      0200A487H   SYMBOL    XDATA    BYTE      day
      010021C3H   BLOCK     CODE     NEAR LAB  LVL=1
      0200A488H   SYMBOL    XDATA    BYTE      weak
      0200A489H   SYMBOL    XDATA    WORD      year
      ---         BLOCKEND  ---      ---       LVL=1
      010021B9H   LINE      CODE     ---       #209
      010021C3H   LINE      CODE     ---       #210
      010021C3H   LINE      CODE     ---       #213
      010021D1H   LINE      CODE     ---       #214
      010021DCH   LINE      CODE     ---       #215
      010021DCH   LINE      CODE     ---       #216
      010021F1H   LINE      CODE     ---       #217
      010021F1H   LINE      CODE     ---       #218
      01002235H   LINE      CODE     ---       #219
      01002235H   LINE      CODE     ---       #220
      01002285H   LINE      CODE     ---       #221
      01002287H   LINE      CODE     ---       #223
      01002287H   LINE      CODE     ---       #224
      01002310H   LINE      CODE     ---       #225
      01002310H   LINE      CODE     ---       #226
LX51 LINKER/LOCATER V4.66.93.0                                                        04/30/2025  12:14:31  PAGE 52


      01002315H   LINE      CODE     ---       #227
      ---         BLOCKEND  ---      ---       LVL=0

      01002316H   BLOCK     CODE     ---       LVL=0
      01002316H   BLOCK     CODE     NEAR LAB  LVL=1
      00000004H   SYMBOL    DATA     BYTE      i
      0200A47CH   SYMBOL    XDATA    BYTE      N
      0200A47DH   SYMBOL    XDATA    BYTE      M
      0200A47EH   SYMBOL    XDATA    ---       Rtcdata
      ---         BLOCKEND  ---      ---       LVL=1
      01002316H   LINE      CODE     ---       #229
      01002316H   LINE      CODE     ---       #230
      01002316H   LINE      CODE     ---       #232
      01002329H   LINE      CODE     ---       #233
      01002329H   LINE      CODE     ---       #234
      0100232CH   LINE      CODE     ---       #235
      0100232CH   LINE      CODE     ---       #236
      0100232FH   LINE      CODE     ---       #237
      01002332H   LINE      CODE     ---       #238
      01002337H   LINE      CODE     ---       #239
      01002343H   LINE      CODE     ---       #240
      01002343H   LINE      CODE     ---       #241
      01002352H   LINE      CODE     ---       #242
      01002355H   LINE      CODE     ---       #243
      01002358H   LINE      CODE     ---       #244
      01002363H   LINE      CODE     ---       #245
      01002366H   LINE      CODE     ---       #246
      01002372H   LINE      CODE     ---       #247
      01002372H   LINE      CODE     ---       #248
      01002386H   LINE      CODE     ---       #249
      0100238CH   LINE      CODE     ---       #250
      0100239FH   LINE      CODE     ---       #251
      010023A2H   LINE      CODE     ---       #252
      010023AEH   LINE      CODE     ---       #253
      010023AEH   LINE      CODE     ---       #254
      010023C2H   LINE      CODE     ---       #255
      010023C8H   LINE      CODE     ---       #256
      010023DBH   LINE      CODE     ---       #257
      010023DEH   LINE      CODE     ---       #258
      010023F1H   LINE      CODE     ---       #259
      01002407H   LINE      CODE     ---       #260
      0100241DH   LINE      CODE     ---       #261
      01002433H   LINE      CODE     ---       #262
      ---         BLOCKEND  ---      ---       LVL=0

      0100311EH   BLOCK     CODE     ---       LVL=0
      0100311EH   BLOCK     CODE     NEAR LAB  LVL=1
      00000004H   SYMBOL    DATA     BYTE      i
      ---         BLOCKEND  ---      ---       LVL=1
      0100311EH   LINE      CODE     ---       #265
      0100311EH   LINE      CODE     ---       #266
      0100311EH   LINE      CODE     ---       #268
      0100311EH   LINE      CODE     ---       #269
      01003121H   LINE      CODE     ---       #270
      01003126H   LINE      CODE     ---       #271
      01003129H   LINE      CODE     ---       #272
      0100312CH   LINE      CODE     ---       #273
      01003131H   LINE      CODE     ---       #274
      01003136H   LINE      CODE     ---       #275
      01003139H   LINE      CODE     ---       #276
      0100313CH   LINE      CODE     ---       #277
      0100313FH   LINE      CODE     ---       #278
      01003142H   LINE      CODE     ---       #279
      01003149H   LINE      CODE     ---       #280
      01003149H   LINE      CODE     ---       #282
LX51 LINKER/LOCATER V4.66.93.0                                                        04/30/2025  12:14:31  PAGE 53


      01003149H   LINE      CODE     ---       #283
      01003149H   LINE      CODE     ---       #284
      01003149H   LINE      CODE     ---       #285
      01003149H   LINE      CODE     ---       #286
      01003149H   LINE      CODE     ---       #287
      01003149H   LINE      CODE     ---       #288
      01003149H   LINE      CODE     ---       #289
      01003149H   LINE      CODE     ---       #290
      01003149H   LINE      CODE     ---       #291
      01003149H   LINE      CODE     ---       #292
      01003149H   LINE      CODE     ---       #293
      01003149H   LINE      CODE     ---       #294
      01003149H   LINE      CODE     ---       #295
      01003149H   LINE      CODE     ---       #296
      0100314CH   LINE      CODE     ---       #297
      01003151H   LINE      CODE     ---       #298
      01003156H   LINE      CODE     ---       #299
      0100315BH   LINE      CODE     ---       #300
      01003160H   LINE      CODE     ---       #301
      01003165H   LINE      CODE     ---       #302
      0100316AH   LINE      CODE     ---       #303
      0100316FH   LINE      CODE     ---       #304
      01003171H   LINE      CODE     ---       #305
      01003171H   LINE      CODE     ---       #306
      01003171H   LINE      CODE     ---       #307
      01003174H   LINE      CODE     ---       #308
      01003174H   LINE      CODE     ---       #309
      01003174H   LINE      CODE     ---       #310
      01003174H   LINE      CODE     ---       #311
      01003177H   LINE      CODE     ---       #312
      01003177H   LINE      CODE     ---       #313
      ---         BLOCKEND  ---      ---       LVL=0

      01001EA3H   BLOCK     CODE     ---       LVL=0
      01001EA3H   BLOCK     CODE     NEAR LAB  LVL=1
      0200A4A4H   SYMBOL    XDATA    WORD      Va
      0200A4A6H   SYMBOL    XDATA    ---       zero
      01001EDDH   BLOCK     CODE     NEAR LAB  LVL=2
      0200A4A8H   SYMBOL    XDATA    BYTE      N
      0200A4A9H   SYMBOL    XDATA    BYTE      S
      00000020H.0 SYMBOL    BIT      BIT       Flog
      0200A4AAH   SYMBOL    XDATA    ---       TimeS
      0200A4B1H   SYMBOL    XDATA    WORD      V1
      ---         BLOCKEND  ---      ---       LVL=2
      ---         BLOCKEND  ---      ---       LVL=1
      01001EA3H   LINE      CODE     ---       #315
      01001EA3H   LINE      CODE     ---       #316
      01001EA3H   LINE      CODE     ---       #320
      01001EB6H   LINE      CODE     ---       #321
      01001ECCH   LINE      CODE     ---       #322
      01001EDDH   LINE      CODE     ---       #323
      01001EDDH   LINE      CODE     ---       #324
      01001EE3H   LINE      CODE     ---       #325
      01001EE5H   LINE      CODE     ---       #326
      01001EF7H   LINE      CODE     ---       #328
      01001F0DH   LINE      CODE     ---       #329
      01001F30H   LINE      CODE     ---       #330
      01001F4BH   LINE      CODE     ---       #331
      01001F61H   LINE      CODE     ---       #332
      01001F84H   LINE      CODE     ---       #333
      01001F9FH   LINE      CODE     ---       #334
      01001FB5H   LINE      CODE     ---       #335
      01001FD8H   LINE      CODE     ---       #336
      01001FF3H   LINE      CODE     ---       #339
      01002008H   LINE      CODE     ---       #340
LX51 LINKER/LOCATER V4.66.93.0                                                        04/30/2025  12:14:31  PAGE 54


      0100200BH   LINE      CODE     ---       #341
      0100200BH   LINE      CODE     ---       #342
      0100200BH   LINE      CODE     ---       #343
      0100200BH   LINE      CODE     ---       #344
      0100200BH   LINE      CODE     ---       #345
      0100200BH   LINE      CODE     ---       #346
      0100200BH   LINE      CODE     ---       #347
      0100200BH   LINE      CODE     ---       #348
      0100200BH   LINE      CODE     ---       #349
      0100200BH   LINE      CODE     ---       #350
      0100200BH   LINE      CODE     ---       #351
      0100200BH   LINE      CODE     ---       #352
      0100200BH   LINE      CODE     ---       #353
      0100200BH   LINE      CODE     ---       #354
      0100200BH   LINE      CODE     ---       #355
      0100200BH   LINE      CODE     ---       #356
      0100200EH   LINE      CODE     ---       #357
      01002013H   LINE      CODE     ---       #358
      0100201BH   LINE      CODE     ---       #359
      01002023H   LINE      CODE     ---       #360
      0100202BH   LINE      CODE     ---       #361
      01002033H   LINE      CODE     ---       #362
      0100203BH   LINE      CODE     ---       #363
      01002043H   LINE      CODE     ---       #364
      01002048H   LINE      CODE     ---       #365
      01002048H   LINE      CODE     ---       #366
      01002048H   LINE      CODE     ---       #367
      0100204BH   LINE      CODE     ---       #368
      0100204BH   LINE      CODE     ---       #369
      0100204BH   LINE      CODE     ---       #370
      0100204BH   LINE      CODE     ---       #371
      0100204EH   LINE      CODE     ---       #372
      01002050H   LINE      CODE     ---       #373
      01002052H   LINE      CODE     ---       #374
      01002052H   LINE      CODE     ---       #375
      ---         BLOCKEND  ---      ---       LVL=0

      0100341FH   BLOCK     CODE     ---       LVL=0
      0100341FH   LINE      CODE     ---       #393
      0100341FH   LINE      CODE     ---       #394
      0100341FH   LINE      CODE     ---       #396
      0100342EH   LINE      CODE     ---       #397
      0100342EH   LINE      CODE     ---       #398
      01003431H   LINE      CODE     ---       #399
      01003438H   LINE      CODE     ---       #400
      01003438H   LINE      CODE     ---       #402
      ---         BLOCKEND  ---      ---       LVL=0

      ---         MODULE    ---      ---       TOF
      0200A4CDH   PUBLIC    XDATA    WORD      L_int
      0200A4BDH   PUBLIC    XDATA    ---       GY53_Data
      0200A4BCH   PUBLIC    XDATA    BYTE      MODE
      01002679H   PUBLIC    CODE     ---       UART5_isr
      00000098H.3 SFRSYM    DATA     BIT       TB80
      000000F1H   SFRSYM    DATA     BYTE      ADR_H
      00000080H   SFRSYM    DATA     BYTE      P0
      00000090H   SFRSYM    DATA     BYTE      P1
      000000A0H   SFRSYM    DATA     BYTE      P2
      000000B0H   SFRSYM    DATA     BYTE      P3
      000000D0H.6 SFRSYM    DATA     BIT       AC
      000000F3H   SFRSYM    DATA     BYTE      ADR_L
      00000094H   SFRSYM    DATA     BYTE      PAGESEL
      000000F2H   SFRSYM    DATA     BYTE      ADR_M
      000000A8H.7 SFRSYM    DATA     BIT       EA
      000000A0H.5 SFRSYM    DATA     BIT       JIGUANG
LX51 LINKER/LOCATER V4.66.93.0                                                        04/30/2025  12:14:31  PAGE 55


      00000090H.7 SFRSYM    DATA     BIT       LED_R
      000000F8H   SFRSYM    DATA     BYTE      RAMMODE
      000000B7H   SFRSYM    DATA     BYTE      P0MDOUT
      000000A8H   SFRSYM    DATA     BYTE      IEN0
      000000BCH   SFRSYM    DATA     BYTE      P1MDOUT
      000000B8H   SFRSYM    DATA     BYTE      IEN1
      000000BDH   SFRSYM    DATA     BYTE      P2MDOUT
      000000F8H.0 SFRSYM    DATA     BIT       APP_DATA0
      0000009AH   SFRSYM    DATA     BYTE      IEN2
      000000BEH   SFRSYM    DATA     BYTE      P3MDOUT
      000000F8H.1 SFRSYM    DATA     BIT       APP_DATA1
      000000D1H   SFRSYM    DATA     BYTE      IEN3
      00000080H.0 SFRSYM    DATA     BIT       P0_0
      000000F8H.2 SFRSYM    DATA     BIT       APP_DATA2
      00000090H.0 SFRSYM    DATA     BIT       P1_0
      000000F8H.3 SFRSYM    DATA     BIT       APP_DATA3
      00000090H.1 SFRSYM    DATA     BIT       P1_1
      000000F8H.4 SFRSYM    DATA     BIT       APP_ACK
      000000F4H   SFRSYM    DATA     BYTE      ADR_INC
      000000B0H.1 SFRSYM    DATA     BIT       P3_1
      00000098H.4 SFRSYM    DATA     BIT       REN0
      000000B8H.1 SFRSYM    DATA     BIT       ECAN
      000000D0H.7 SFRSYM    DATA     BIT       CY
      000000B8H.3 SFRSYM    DATA     BIT       ES2R
      000000B8H.5 SFRSYM    DATA     BIT       ES3R
      000000B8H.2 SFRSYM    DATA     BIT       ES2T
      000000B8H.4 SFRSYM    DATA     BIT       ES3T
      000000C8H.7 SFRSYM    DATA     BIT       TSF2
      000000B0H.3 SFRSYM    DATA     BIT       RTC_SDA
      00000081H   SFRSYM    DATA     BYTE      SP
      000000D0H.2 SFRSYM    DATA     BIT       OV
      00000095H   SFRSYM    DATA     BYTE      D_PAGESEL
      00000090H.5 SFRSYM    DATA     BIT       UV
      000000F8H.7 SFRSYM    DATA     BIT       APP_REQ
      000000B0H.2 SFRSYM    DATA     BIT       RTC_SCL
      000000BFH   SFRSYM    DATA     BYTE      IRCON2
      000000BAH   SFRSYM    DATA     BYTE      SREL0H
      000000BBH   SFRSYM    DATA     BYTE      SREL1H
      00000087H   SFRSYM    DATA     BYTE      PCON
      000000AAH   SFRSYM    DATA     BYTE      SREL0L
      000000F9H   SFRSYM    DATA     BYTE      PORTDRV
      0000009DH   SFRSYM    DATA     BYTE      SREL1L
      00000089H   SFRSYM    DATA     BYTE      TMOD
      00000088H   SFRSYM    DATA     BYTE      TCON
      00000097H   SFRSYM    DATA     BYTE      SCON2R
      000000FFH   SFRSYM    DATA     BYTE      EXDATA
      000000ABH   SFRSYM    DATA     BYTE      SCON3R
      000000D9H   SFRSYM    DATA     BYTE      BODE2_DIV_H
      000000AEH   SFRSYM    DATA     BYTE      BODE3_DIV_H
      00000096H   SFRSYM    DATA     BYTE      SCON2T
      000000A7H   SFRSYM    DATA     BYTE      SCON3T
      000000E7H   SFRSYM    DATA     BYTE      BODE2_DIV_L
      00000088H.1 SFRSYM    DATA     BIT       IE0
      000000AFH   SFRSYM    DATA     BYTE      BODE3_DIV_L
      00000088H.3 SFRSYM    DATA     BIT       IE1
      000000C9H   SFRSYM    DATA     BYTE      MUX_SEL
      000000F0H   SFRSYM    DATA     BYTE      B
      000000E0H   SFRSYM    DATA     BYTE      ACC
      000000A8H.4 SFRSYM    DATA     BIT       ES0
      0000008FH   SFRSYM    DATA     BYTE      CAN_CR
      000000A8H.1 SFRSYM    DATA     BIT       ET0
      000000A9H   SFRSYM    DATA     BYTE      IP0
      000000A8H.3 SFRSYM    DATA     BIT       ET1
      00000088H.5 SFRSYM    DATA     BIT       TF0
      000000B9H   SFRSYM    DATA     BYTE      IP1
LX51 LINKER/LOCATER V4.66.93.0                                                        04/30/2025  12:14:31  PAGE 56


      000000A8H.5 SFRSYM    DATA     BIT       ET2
      00000098H.0 SFRSYM    DATA     BIT       RI0
      00000088H.7 SFRSYM    DATA     BIT       TF1
      000000FDH   SFRSYM    DATA     BYTE      DATA0
      000000C0H.6 SFRSYM    DATA     BIT       TF2
      000000E8H   SFRSYM    DATA     BYTE      CAN_ET
      000000FCH   SFRSYM    DATA     BYTE      DATA1
      0000008CH   SFRSYM    DATA     BYTE      TH0
      000000A8H.0 SFRSYM    DATA     BIT       EX0
      00000098H.1 SFRSYM    DATA     BIT       TI0
      00000088H.0 SFRSYM    DATA     BIT       IT0
      000000FBH   SFRSYM    DATA     BYTE      DATA2
      0000008DH   SFRSYM    DATA     BYTE      TH1
      000000A8H.2 SFRSYM    DATA     BIT       EX1
      00000091H   SFRSYM    DATA     BYTE      CAN_IR
      000000CDH   SFRSYM    DATA     BYTE      TH2
      00000088H.2 SFRSYM    DATA     BIT       IT1
      000000FAH   SFRSYM    DATA     BYTE      DATA3
      000000D0H.0 SFRSYM    DATA     BIT       P
      00000098H.7 SFRSYM    DATA     BIT       SM0
      0000008AH   SFRSYM    DATA     BYTE      TL0
      00000098H.6 SFRSYM    DATA     BIT       SM1
      0000008BH   SFRSYM    DATA     BYTE      TL1
      00000098H.5 SFRSYM    DATA     BIT       SM2
      000000CCH   SFRSYM    DATA     BYTE      TL2
      000000A0H.7 SFRSYM    DATA     BIT       UV_St
      000000D0H.3 SFRSYM    DATA     BIT       RS0
      000000F8H.6 SFRSYM    DATA     BIT       APP_EN
      000000D0H.4 SFRSYM    DATA     BIT       RS1
      00000088H.4 SFRSYM    DATA     BIT       TR0
      00000088H.6 SFRSYM    DATA     BIT       TR1
      00000093H   SFRSYM    DATA     BYTE      DPC
      000000C8H.0 SFRSYM    DATA     BIT       TR2
      000000E5H   SFRSYM    DATA     BYTE      MAC_MODE
      00000083H   SFRSYM    DATA     BYTE      DPH
      00000082H   SFRSYM    DATA     BYTE      DPL
      00000099H   SFRSYM    DATA     BYTE      SBUF0
      0000009CH   SFRSYM    DATA     BYTE      SBUF1
      00000098H   SFRSYM    DATA     BYTE      SCON0
      0000009BH   SFRSYM    DATA     BYTE      SCON1
      000000D8H   SFRSYM    DATA     BYTE      ADCON
      000000C8H   SFRSYM    DATA     BYTE      T2CON
      000000E6H   SFRSYM    DATA     BYTE      DIV_MODE
      000000F8H.5 SFRSYM    DATA     BIT       APP_RW
      000000CBH   SFRSYM    DATA     BYTE      TRL2H
      0000009FH   SFRSYM    DATA     BYTE      SBUF2_RX
      000000ADH   SFRSYM    DATA     BYTE      SBUF3_RX
      0000008EH   SFRSYM    DATA     BYTE      CKCON
      0000009EH   SFRSYM    DATA     BYTE      SBUF2_TX
      000000ACH   SFRSYM    DATA     BYTE      SBUF3_TX
      000000CAH   SFRSYM    DATA     BYTE      TRL2L
      000000D0H.5 SFRSYM    DATA     BIT       F0
      000000FEH   SFRSYM    DATA     BYTE      EXADR
      000000D0H.1 SFRSYM    DATA     BIT       F1
      000000A0H.3 SFRSYM    DATA     BIT       LED_B
      000000D0H   SFRSYM    DATA     BYTE      PSW
      000000A0H.1 SFRSYM    DATA     BIT       LED_G
      000000C0H   SFRSYM    DATA     BYTE      IRCON
      00000098H.2 SFRSYM    DATA     BIT       RB80

      01002679H   BLOCK     CODE     ---       LVL=0
      01002679H   BLOCK     CODE     NEAR LAB  LVL=1
      00000007H   SYMBOL    DATA     BYTE      DATA15
      0200A4BAH   SYMBOL    XDATA    WORD      UART5_FLAG
      00000006H   SYMBOL    DATA     BYTE      Dat
LX51 LINKER/LOCATER V4.66.93.0                                                        04/30/2025  12:14:31  PAGE 57


      ---         BLOCKEND  ---      ---       LVL=1
      01002679H   LINE      CODE     ---       #15
      01002679H   LINE      CODE     ---       #16
      01002679H   LINE      CODE     ---       #17
      01002679H   LINE      CODE     ---       #20
      0100267BH   LINE      CODE     ---       #24
      0100268DH   LINE      CODE     ---       #25
      0100268DH   LINE      CODE     ---       #26
      0100268DH   LINE      CODE     ---       #27
      0100268DH   LINE      CODE     ---       #28
      01002695H   LINE      CODE     ---       #29
      01002695H   LINE      CODE     ---       #30
      010026A1H   LINE      CODE     ---       #31
      010026A9H   LINE      CODE     ---       #32
      010026A9H   LINE      CODE     ---       #33
      010026AAH   LINE      CODE     ---       #34
      010026AAH   LINE      CODE     ---       #35
      010026AAH   LINE      CODE     ---       #36
      010026AAH   LINE      CODE     ---       #37
      010026ADH   LINE      CODE     ---       #38
      010026ADH   LINE      CODE     ---       #39
      010026BFH   LINE      CODE     ---       #40
      010026C8H   LINE      CODE     ---       #41
      010026C9H   LINE      CODE     ---       #43
      010026C9H   LINE      CODE     ---       #44
      010026D0H   LINE      CODE     ---       #45
      010026D0H   LINE      CODE     ---       #46
      010026D1H   LINE      CODE     ---       #47
      010026D1H   LINE      CODE     ---       #48
      010026D1H   LINE      CODE     ---       #49
      010026D1H   LINE      CODE     ---       #50
      010026E3H   LINE      CODE     ---       #51
      010026F1H   LINE      CODE     ---       #52
      01002700H   LINE      CODE     ---       #53
      01002700H   LINE      CODE     ---       #55
      01002704H   LINE      CODE     ---       #56
      01002747H   LINE      CODE     ---       #59
      0100274CH   LINE      CODE     ---       #60
      0100274CH   LINE      CODE     ---       #64
      0100274FH   LINE      CODE     ---       #65
      0100274FH   LINE      CODE     ---       #67
      01002779H   LINE      CODE     ---       #77
      01002779H   LINE      CODE     ---       #85
      01002779H   LINE      CODE     ---       #86
      01002779H   LINE      CODE     ---       #87
      01002779H   LINE      CODE     ---       #88
      01002779H   LINE      CODE     ---       #89
      01002779H   LINE      CODE     ---       #90
      ---         BLOCKEND  ---      ---       LVL=0

      ---         MODULE    ---      ---       HOME
      0200A478H   PUBLIC    XDATA    FLOAT     Volume
      0200A474H   PUBLIC    XDATA    FLOAT     L_M
      0200A470H   PUBLIC    XDATA    FLOAT     Square
      0200A46EH   PUBLIC    XDATA    WORD      baifenbi_T
      0200A46CH   PUBLIC    XDATA    WORD      Current_Lock
      0200A46BH   PUBLIC    XDATA    BYTE      Returnkey
      0200A46AH   PUBLIC    XDATA    BYTE      PageSliding
      0200A466H   PUBLIC    XDATA    FLOAT     D
      0200A462H   PUBLIC    XDATA    FLOAT     change_P_uW_doing
      0200A460H   PUBLIC    XDATA    WORD      mode_open
      0200A45CH   PUBLIC    XDATA    FLOAT     pai
      0200A45AH   PUBLIC    XDATA    WORD      ControlPageLock_Adress
      0200A459H   PUBLIC    XDATA    BYTE      last_page
      0200A455H   PUBLIC    XDATA    FLOAT     mJ_doing
LX51 LINKER/LOCATER V4.66.93.0                                                        04/30/2025  12:14:31  PAGE 58


      0200A451H   PUBLIC    XDATA    FLOAT     L_m_D_V_S
      0200A44DH   PUBLIC    XDATA    DWORD     time_doing
      0200A44BH   PUBLIC    XDATA    WORD      mode_close
      0200A447H   PUBLIC    XDATA    FLOAT     zhongxin_35mm
      0200A443H   PUBLIC    XDATA    FLOAT     Tanx
      0200A441H   PUBLIC    XDATA    ---       CurrentPageNum
      0200A435H   PUBLIC    XDATA    DWORD     time_100ms
      0200A431H   PUBLIC    XDATA    FLOAT     Tan_zhongxin
      010032FBH   PUBLIC    CODE     ---       _Unlock_current_page_zengliang
      010032C4H   PUBLIC    CODE     ---       _Lock_current_page_zengliang
      01002C5BH   PUBLIC    CODE     ---       Unlock_current_page
      01002DE9H   PUBLIC    CODE     ---       Lock_current_page
      01003523H   PUBLIC    CODE     ---       PageLock_Init
      010017BBH   PUBLIC    CODE     ---       QRJ_ZX__QY_RUN
      01000CE1H   PUBLIC    CODE     ---       Prepare_qrj_zx_qy
      0100155FH   PUBLIC    CODE     ---       _L_mm_TO_P_uw
      01003287H   PUBLIC    CODE     ---       ReadCurrentPage_run
      00000098H.3 SFRSYM    DATA     BIT       TB80
      000000F1H   SFRSYM    DATA     BYTE      ADR_H
      00000080H   SFRSYM    DATA     BYTE      P0
      00000090H   SFRSYM    DATA     BYTE      P1
      000000A0H   SFRSYM    DATA     BYTE      P2
      000000B0H   SFRSYM    DATA     BYTE      P3
      000000D0H.6 SFRSYM    DATA     BIT       AC
      000000F3H   SFRSYM    DATA     BYTE      ADR_L
      00000094H   SFRSYM    DATA     BYTE      PAGESEL
      000000F2H   SFRSYM    DATA     BYTE      ADR_M
      000000A8H.7 SFRSYM    DATA     BIT       EA
      000000A0H.5 SFRSYM    DATA     BIT       JIGUANG
      00000090H.7 SFRSYM    DATA     BIT       LED_R
      000000F8H   SFRSYM    DATA     BYTE      RAMMODE
      000000B7H   SFRSYM    DATA     BYTE      P0MDOUT
      000000A8H   SFRSYM    DATA     BYTE      IEN0
      000000BCH   SFRSYM    DATA     BYTE      P1MDOUT
      000000B8H   SFRSYM    DATA     BYTE      IEN1
      000000BDH   SFRSYM    DATA     BYTE      P2MDOUT
      000000F8H.0 SFRSYM    DATA     BIT       APP_DATA0
      0000009AH   SFRSYM    DATA     BYTE      IEN2
      000000BEH   SFRSYM    DATA     BYTE      P3MDOUT
      000000F8H.1 SFRSYM    DATA     BIT       APP_DATA1
      000000D1H   SFRSYM    DATA     BYTE      IEN3
      00000080H.0 SFRSYM    DATA     BIT       P0_0
      000000F8H.2 SFRSYM    DATA     BIT       APP_DATA2
      00000090H.0 SFRSYM    DATA     BIT       P1_0
      000000F8H.3 SFRSYM    DATA     BIT       APP_DATA3
      00000090H.1 SFRSYM    DATA     BIT       P1_1
      000000F8H.4 SFRSYM    DATA     BIT       APP_ACK
      000000F4H   SFRSYM    DATA     BYTE      ADR_INC
      000000B0H.1 SFRSYM    DATA     BIT       P3_1
      00000098H.4 SFRSYM    DATA     BIT       REN0
      000000B8H.1 SFRSYM    DATA     BIT       ECAN
      000000D0H.7 SFRSYM    DATA     BIT       CY
      000000B8H.3 SFRSYM    DATA     BIT       ES2R
      000000B8H.5 SFRSYM    DATA     BIT       ES3R
      000000B8H.2 SFRSYM    DATA     BIT       ES2T
      000000B8H.4 SFRSYM    DATA     BIT       ES3T
      000000C8H.7 SFRSYM    DATA     BIT       TSF2
      000000B0H.3 SFRSYM    DATA     BIT       RTC_SDA
      00000081H   SFRSYM    DATA     BYTE      SP
      000000D0H.2 SFRSYM    DATA     BIT       OV
      00000095H   SFRSYM    DATA     BYTE      D_PAGESEL
      00000090H.5 SFRSYM    DATA     BIT       UV
      000000F8H.7 SFRSYM    DATA     BIT       APP_REQ
      000000B0H.2 SFRSYM    DATA     BIT       RTC_SCL
      000000BFH   SFRSYM    DATA     BYTE      IRCON2
LX51 LINKER/LOCATER V4.66.93.0                                                        04/30/2025  12:14:31  PAGE 59


      000000BAH   SFRSYM    DATA     BYTE      SREL0H
      000000BBH   SFRSYM    DATA     BYTE      SREL1H
      00000087H   SFRSYM    DATA     BYTE      PCON
      000000AAH   SFRSYM    DATA     BYTE      SREL0L
      000000F9H   SFRSYM    DATA     BYTE      PORTDRV
      0000009DH   SFRSYM    DATA     BYTE      SREL1L
      00000089H   SFRSYM    DATA     BYTE      TMOD
      00000088H   SFRSYM    DATA     BYTE      TCON
      00000097H   SFRSYM    DATA     BYTE      SCON2R
      000000FFH   SFRSYM    DATA     BYTE      EXDATA
      000000ABH   SFRSYM    DATA     BYTE      SCON3R
      000000D9H   SFRSYM    DATA     BYTE      BODE2_DIV_H
      000000AEH   SFRSYM    DATA     BYTE      BODE3_DIV_H
      00000096H   SFRSYM    DATA     BYTE      SCON2T
      000000A7H   SFRSYM    DATA     BYTE      SCON3T
      000000E7H   SFRSYM    DATA     BYTE      BODE2_DIV_L
      00000088H.1 SFRSYM    DATA     BIT       IE0
      000000AFH   SFRSYM    DATA     BYTE      BODE3_DIV_L
      00000088H.3 SFRSYM    DATA     BIT       IE1
      000000C9H   SFRSYM    DATA     BYTE      MUX_SEL
      000000F0H   SFRSYM    DATA     BYTE      B
      000000E0H   SFRSYM    DATA     BYTE      ACC
      000000A8H.4 SFRSYM    DATA     BIT       ES0
      0000008FH   SFRSYM    DATA     BYTE      CAN_CR
      000000A8H.1 SFRSYM    DATA     BIT       ET0
      000000A9H   SFRSYM    DATA     BYTE      IP0
      000000A8H.3 SFRSYM    DATA     BIT       ET1
      00000088H.5 SFRSYM    DATA     BIT       TF0
      000000B9H   SFRSYM    DATA     BYTE      IP1
      000000A8H.5 SFRSYM    DATA     BIT       ET2
      00000098H.0 SFRSYM    DATA     BIT       RI0
      00000088H.7 SFRSYM    DATA     BIT       TF1
      000000FDH   SFRSYM    DATA     BYTE      DATA0
      000000C0H.6 SFRSYM    DATA     BIT       TF2
      000000E8H   SFRSYM    DATA     BYTE      CAN_ET
      000000FCH   SFRSYM    DATA     BYTE      DATA1
      0000008CH   SFRSYM    DATA     BYTE      TH0
      000000A8H.0 SFRSYM    DATA     BIT       EX0
      00000098H.1 SFRSYM    DATA     BIT       TI0
      00000088H.0 SFRSYM    DATA     BIT       IT0
      000000FBH   SFRSYM    DATA     BYTE      DATA2
      0000008DH   SFRSYM    DATA     BYTE      TH1
      000000A8H.2 SFRSYM    DATA     BIT       EX1
      00000091H   SFRSYM    DATA     BYTE      CAN_IR
      000000CDH   SFRSYM    DATA     BYTE      TH2
      00000088H.2 SFRSYM    DATA     BIT       IT1
      000000FAH   SFRSYM    DATA     BYTE      DATA3
      000000D0H.0 SFRSYM    DATA     BIT       P
      00000098H.7 SFRSYM    DATA     BIT       SM0
      0000008AH   SFRSYM    DATA     BYTE      TL0
      00000098H.6 SFRSYM    DATA     BIT       SM1
      0000008BH   SFRSYM    DATA     BYTE      TL1
      00000098H.5 SFRSYM    DATA     BIT       SM2
      000000CCH   SFRSYM    DATA     BYTE      TL2
      000000A0H.7 SFRSYM    DATA     BIT       UV_St
      000000D0H.3 SFRSYM    DATA     BIT       RS0
      000000F8H.6 SFRSYM    DATA     BIT       APP_EN
      000000D0H.4 SFRSYM    DATA     BIT       RS1
      00000088H.4 SFRSYM    DATA     BIT       TR0
      00000088H.6 SFRSYM    DATA     BIT       TR1
      00000093H   SFRSYM    DATA     BYTE      DPC
      000000C8H.0 SFRSYM    DATA     BIT       TR2
      000000E5H   SFRSYM    DATA     BYTE      MAC_MODE
      00000083H   SFRSYM    DATA     BYTE      DPH
      00000082H   SFRSYM    DATA     BYTE      DPL
LX51 LINKER/LOCATER V4.66.93.0                                                        04/30/2025  12:14:31  PAGE 60


      00000099H   SFRSYM    DATA     BYTE      SBUF0
      0000009CH   SFRSYM    DATA     BYTE      SBUF1
      00000098H   SFRSYM    DATA     BYTE      SCON0
      0000009BH   SFRSYM    DATA     BYTE      SCON1
      000000D8H   SFRSYM    DATA     BYTE      ADCON
      000000C8H   SFRSYM    DATA     BYTE      T2CON
      000000E6H   SFRSYM    DATA     BYTE      DIV_MODE
      000000F8H.5 SFRSYM    DATA     BIT       APP_RW
      000000CBH   SFRSYM    DATA     BYTE      TRL2H
      0000009FH   SFRSYM    DATA     BYTE      SBUF2_RX
      000000ADH   SFRSYM    DATA     BYTE      SBUF3_RX
      0000008EH   SFRSYM    DATA     BYTE      CKCON
      0000009EH   SFRSYM    DATA     BYTE      SBUF2_TX
      000000ACH   SFRSYM    DATA     BYTE      SBUF3_TX
      000000CAH   SFRSYM    DATA     BYTE      TRL2L
      000000D0H.5 SFRSYM    DATA     BIT       F0
      000000FEH   SFRSYM    DATA     BYTE      EXADR
      000000D0H.1 SFRSYM    DATA     BIT       F1
      000000A0H.3 SFRSYM    DATA     BIT       LED_B
      000000D0H   SFRSYM    DATA     BYTE      PSW
      000000A0H.1 SFRSYM    DATA     BIT       LED_G
      000000C0H   SFRSYM    DATA     BYTE      IRCON
      00000098H.2 SFRSYM    DATA     BIT       RB80
      0200A439H   SYMBOL    XDATA    ---       PageLock

      01003287H   BLOCK     CODE     ---       LVL=0
      01003287H   LINE      CODE     ---       #34
      01003287H   LINE      CODE     ---       #35
      01003287H   LINE      CODE     ---       #38
      0100329DH   LINE      CODE     ---       #39
      010032AFH   LINE      CODE     ---       #40
      010032AFH   LINE      CODE     ---       #41
      010032AFH   LINE      CODE     ---       #42
      010032AFH   LINE      CODE     ---       #43
      010032B4H   LINE      CODE     ---       #44
      010032BAH   LINE      CODE     ---       #45
      010032BBH   LINE      CODE     ---       #46
      010032BBH   LINE      CODE     ---       #48
      010032BBH   LINE      CODE     ---       #49
      010032BBH   LINE      CODE     ---       #54
      010032BEH   LINE      CODE     ---       #55
      010032BEH   LINE      CODE     ---       #57
      010032C0H   LINE      CODE     ---       #58
      010032C0H   LINE      CODE     ---       #60
      010032C0H   LINE      CODE     ---       #61
      010032C0H   LINE      CODE     ---       #63
      010032C0H   LINE      CODE     ---       #66
      010032C0H   LINE      CODE     ---       #67
      010032C0H   LINE      CODE     ---       #69
      010032C3H   LINE      CODE     ---       #74
      010032C3H   LINE      CODE     ---       #75
      010032C3H   LINE      CODE     ---       #78
      010032C3H   LINE      CODE     ---       #79
      010032C3H   LINE      CODE     ---       #81
      010032C3H   LINE      CODE     ---       #82
      010032C3H   LINE      CODE     ---       #85
      010032C3H   LINE      CODE     ---       #86
      010032C3H   LINE      CODE     ---       #87
      010032C3H   LINE      CODE     ---       #88
      010032C3H   LINE      CODE     ---       #91
      010032C3H   LINE      CODE     ---       #92
      010032C3H   LINE      CODE     ---       #94
      010032C3H   LINE      CODE     ---       #95
      010032C3H   LINE      CODE     ---       #97
      010032C3H   LINE      CODE     ---       #98
LX51 LINKER/LOCATER V4.66.93.0                                                        04/30/2025  12:14:31  PAGE 61


      010032C3H   LINE      CODE     ---       #100
      010032C3H   LINE      CODE     ---       #101
      010032C3H   LINE      CODE     ---       #104
      010032C3H   LINE      CODE     ---       #105
      010032C3H   LINE      CODE     ---       #107
      010032C3H   LINE      CODE     ---       #108
      010032C3H   LINE      CODE     ---       #110
      010032C3H   LINE      CODE     ---       #111
      010032C3H   LINE      CODE     ---       #113
      010032C3H   LINE      CODE     ---       #114
      010032C3H   LINE      CODE     ---       #116
      010032C3H   LINE      CODE     ---       #117
      010032C3H   LINE      CODE     ---       #118
      010032C3H   LINE      CODE     ---       #119
      010032C3H   LINE      CODE     ---       #120
      010032C3H   LINE      CODE     ---       #121
      010032C3H   LINE      CODE     ---       #123
      010032C3H   LINE      CODE     ---       #124
      010032C3H   LINE      CODE     ---       #126
      010032C3H   LINE      CODE     ---       #128
      ---         BLOCKEND  ---      ---       LVL=0

      0100155FH   BLOCK     CODE     ---       LVL=0
      00000002H   SYMBOL    DATA     WORD      L_mm_TO_P
      0200A47CH   SYMBOL    XDATA    BYTE      current_page
      01001568H   BLOCK     CODE     NEAR LAB  LVL=1
      0200A47DH   SYMBOL    XDATA    BYTE      L_mm_TO_P_uw_FLAG
      0200A47EH   SYMBOL    XDATA    FLOAT     BEISHU
      0200A482H   SYMBOL    XDATA    FLOAT     L_CM
      0200A486H   SYMBOL    XDATA    FLOAT     mihanshu
      ---         BLOCKEND  ---      ---       LVL=1
      0100155FH   LINE      CODE     ---       #162
      01001568H   LINE      CODE     ---       #163
      01001568H   LINE      CODE     ---       #164
      0100156BH   LINE      CODE     ---       #165
      01001573H   LINE      CODE     ---       #167
      0100157DH   LINE      CODE     ---       #170
      01001596H   LINE      CODE     ---       #172
      010015D5H   LINE      CODE     ---       #173
      01001616H   LINE      CODE     ---       #174
      01001656H   LINE      CODE     ---       #175
      01001696H   LINE      CODE     ---       #176
      0100169CH   LINE      CODE     ---       #179
      010016B4H   LINE      CODE     ---       #180
      010016B4H   LINE      CODE     ---       #181
      010016B4H   LINE      CODE     ---       #182
      010016B4H   LINE      CODE     ---       #183
      010016D5H   LINE      CODE     ---       #184
      010016DBH   LINE      CODE     ---       #185
      010016DBH   LINE      CODE     ---       #186
      010016DDH   LINE      CODE     ---       #187
      010016DDH   LINE      CODE     ---       #190
      010016DDH   LINE      CODE     ---       #191
      010016DDH   LINE      CODE     ---       #192
      010016FEH   LINE      CODE     ---       #193
      01001704H   LINE      CODE     ---       #194
      01001704H   LINE      CODE     ---       #195
      01001706H   LINE      CODE     ---       #196
      01001706H   LINE      CODE     ---       #198
      01001706H   LINE      CODE     ---       #199
      01001706H   LINE      CODE     ---       #200
      01001727H   LINE      CODE     ---       #201
      0100172FH   LINE      CODE     ---       #202
      0100172FH   LINE      CODE     ---       #203
      01001731H   LINE      CODE     ---       #204
LX51 LINKER/LOCATER V4.66.93.0                                                        04/30/2025  12:14:31  PAGE 62


      01001731H   LINE      CODE     ---       #206
      01001731H   LINE      CODE     ---       #207
      01001731H   LINE      CODE     ---       #208
      01001752H   LINE      CODE     ---       #209
      01001771H   LINE      CODE     ---       #210
      01001785H   LINE      CODE     ---       #211
      01001787H   LINE      CODE     ---       #212
      01001787H   LINE      CODE     ---       #214
      01001787H   LINE      CODE     ---       #215
      01001787H   LINE      CODE     ---       #216
      0100178DH   LINE      CODE     ---       #217
      0100178DH   LINE      CODE     ---       #218
      0100178DH   LINE      CODE     ---       #220
      0100179BH   LINE      CODE     ---       #221
      0100179BH   LINE      CODE     ---       #222
      010017BAH   LINE      CODE     ---       #223
      010017BAH   LINE      CODE     ---       #229
      ---         BLOCKEND  ---      ---       LVL=0

      01000CE1H   BLOCK     CODE     ---       LVL=0
      01000CE1H   LINE      CODE     ---       #236
      01000CE1H   LINE      CODE     ---       #237
      01000CE1H   LINE      CODE     ---       #240
      01000CF1H   LINE      CODE     ---       #241
      01000D07H   LINE      CODE     ---       #242
      01000D23H   LINE      CODE     ---       #244
      01000D2EH   LINE      CODE     ---       #245
      01000D2EH   LINE      CODE     ---       #246
      01000D5BH   LINE      CODE     ---       #247
      01000D89H   LINE      CODE     ---       #248
      01000DDCH   LINE      CODE     ---       #249
      01000E0BH   LINE      CODE     ---       #250
      01000E11H   LINE      CODE     ---       #253
      01000E14H   LINE      CODE     ---       #254
      01000E1FH   LINE      CODE     ---       #255
      01000E1FH   LINE      CODE     ---       #257
      01000E4CH   LINE      CODE     ---       #258
      01000E7AH   LINE      CODE     ---       #259
      01000ECDH   LINE      CODE     ---       #261
      01000ED3H   LINE      CODE     ---       #264
      01000ED6H   LINE      CODE     ---       #265
      01000EE1H   LINE      CODE     ---       #266
      01000EE1H   LINE      CODE     ---       #267
      01000F0EH   LINE      CODE     ---       #268
      01000F3CH   LINE      CODE     ---       #269
      01000F8FH   LINE      CODE     ---       #271
      01000FA5H   LINE      CODE     ---       #274
      01000FA5H   LINE      CODE     ---       #276
      01000FBBH   LINE      CODE     ---       #277
      ---         BLOCKEND  ---      ---       LVL=0

      010017BBH   BLOCK     CODE     ---       LVL=0
      010017BBH   BLOCK     CODE     NEAR LAB  LVL=1
      0200A47CH   SYMBOL    XDATA    WORD      ResTime_sec
      0200A47EH   SYMBOL    XDATA    WORD      ResTime_min
      0200A42DH   SYMBOL    XDATA    DWORD     t_1
      ---         BLOCKEND  ---      ---       LVL=1
      010017BBH   LINE      CODE     ---       #292
      010017BBH   LINE      CODE     ---       #293
      010017BBH   LINE      CODE     ---       #297
      010017D2H   LINE      CODE     ---       #298
      010017D2H   LINE      CODE     ---       #299
      010017DCH   LINE      CODE     ---       #302
      0100181BH   LINE      CODE     ---       #303
      0100183AH   LINE      CODE     ---       #304
LX51 LINKER/LOCATER V4.66.93.0                                                        04/30/2025  12:14:31  PAGE 63


      01001854H   LINE      CODE     ---       #305
      01001854H   LINE      CODE     ---       #306
      0100185EH   LINE      CODE     ---       #309
      0100187DH   LINE      CODE     ---       #315
      0100187DH   LINE      CODE     ---       #317
      01001888H   LINE      CODE     ---       #319
      010018ACH   LINE      CODE     ---       #320
      010018BFH   LINE      CODE     ---       #322
      010018D5H   LINE      CODE     ---       #323
      010018EBH   LINE      CODE     ---       #326
      01001924H   LINE      CODE     ---       #327
      01001937H   LINE      CODE     ---       #328
      0100194DH   LINE      CODE     ---       #329
      01001963H   LINE      CODE     ---       #334
      01001979H   LINE      CODE     ---       #336
      010019C2H   LINE      CODE     ---       #337
      010019F7H   LINE      CODE     ---       #338
      01001A0DH   LINE      CODE     ---       #340
      01001A0DH   LINE      CODE     ---       #345
      ---         BLOCKEND  ---      ---       LVL=0

      01003523H   BLOCK     CODE     ---       LVL=0
      01003523H   LINE      CODE     ---       #379
      01003523H   LINE      CODE     ---       #380
      01003523H   LINE      CODE     ---       #381
      0100352DH   LINE      CODE     ---       #382
      01003530H   LINE      CODE     ---       #383
      ---         BLOCKEND  ---      ---       LVL=0

      01002DE9H   BLOCK     CODE     ---       LVL=0
      01002DE9H   LINE      CODE     ---       #398
      01002DE9H   LINE      CODE     ---       #399
      01002DE9H   LINE      CODE     ---       #400
      01002DF1H   LINE      CODE     ---       #401
      01002DF1H   LINE      CODE     ---       #402
      01002DF8H   LINE      CODE     ---       #404
      01002DF8H   LINE      CODE     ---       #426
      01002E00H   LINE      CODE     ---       #427
      01002E03H   LINE      CODE     ---       #428
      01002E0BH   LINE      CODE     ---       #429
      01002E1AH   LINE      CODE     ---       #431
      01002E34H   LINE      CODE     ---       #439
      01002E3AH   LINE      CODE     ---       #440
      01002E42H   LINE      CODE     ---       #441
      01002E5CH   LINE      CODE     ---       #443
      01002E64H   LINE      CODE     ---       #445
      ---         BLOCKEND  ---      ---       LVL=0

      01002C5BH   BLOCK     CODE     ---       LVL=0
      01002C5BH   LINE      CODE     ---       #447
      01002C5BH   LINE      CODE     ---       #448
      01002C5BH   LINE      CODE     ---       #450
      01002C67H   LINE      CODE     ---       #451
      01002C67H   LINE      CODE     ---       #452
      01002C6FH   LINE      CODE     ---       #453
      01002C6FH   LINE      CODE     ---       #455
      01002C76H   LINE      CODE     ---       #456
      01002C76H   LINE      CODE     ---       #478
      01002C7EH   LINE      CODE     ---       #479
      01002C8DH   LINE      CODE     ---       #480
      01002C95H   LINE      CODE     ---       #481
      01002C9BH   LINE      CODE     ---       #482
      01002CB5H   LINE      CODE     ---       #484
      01002CBDH   LINE      CODE     ---       #485
      01002CC2H   LINE      CODE     ---       #486
LX51 LINKER/LOCATER V4.66.93.0                                                        04/30/2025  12:14:31  PAGE 64


      01002CDCH   LINE      CODE     ---       #488
      01002CE3H   LINE      CODE     ---       #490
      01002CE3H   LINE      CODE     ---       #493
      ---         BLOCKEND  ---      ---       LVL=0

      010032C4H   BLOCK     CODE     ---       LVL=0
      00000007H   SYMBOL    DATA     BYTE      id_1
      00000005H   SYMBOL    DATA     BYTE      daima_1
      010032C4H   LINE      CODE     ---       #496
      010032C4H   LINE      CODE     ---       #497
      010032C4H   LINE      CODE     ---       #499
      010032CCH   LINE      CODE     ---       #500
      010032CFH   LINE      CODE     ---       #501
      010032D2H   LINE      CODE     ---       #502
      010032E1H   LINE      CODE     ---       #504
      ---         BLOCKEND  ---      ---       LVL=0

      010032FBH   BLOCK     CODE     ---       LVL=0
      00000007H   SYMBOL    DATA     BYTE      id_1
      00000005H   SYMBOL    DATA     BYTE      daima_1
      010032FBH   LINE      CODE     ---       #511
      010032FBH   LINE      CODE     ---       #512
      010032FBH   LINE      CODE     ---       #514
      01003303H   LINE      CODE     ---       #515
      01003306H   LINE      CODE     ---       #516
      01003309H   LINE      CODE     ---       #517
      01003318H   LINE      CODE     ---       #518
      ---         BLOCKEND  ---      ---       LVL=0

      ---         MODULE    ---      ---       QRJ
      0200A4E0H   PUBLIC    XDATA    BYTE      current_st
      0200A4DFH   PUBLIC    XDATA    BYTE      L_T_S_FLAG
      0200A4D7H   PUBLIC    XDATA    ---       icon
      0200A4D3H   PUBLIC    XDATA    FLOAT     TIME_static
      0200A4CFH   PUBLIC    XDATA    FLOAT     qirongjiao_j
      01003064H   PUBLIC    CODE     ---       QRJ_Home
      01000061H   PUBLIC    CODE     ---       QRJ_stop
      01002859H   PUBLIC    CODE     ---       _QRJ_mm_to_s
      01002572H   PUBLIC    CODE     ---       QRJ_prepare
      010030C2H   PUBLIC    CODE     ---       QRJ_Reset
      01003577H   PUBLIC    CODE     ---       QRJ_Set
      01003439H   PUBLIC    CODE     ---       QRJ_Init
      01003004H   PUBLIC    CODE     ---       QRJ_run
      01003483H   PUBLIC    CODE     ---       QRJ_done
      00000098H.3 SFRSYM    DATA     BIT       TB80
      000000F1H   SFRSYM    DATA     BYTE      ADR_H
      00000080H   SFRSYM    DATA     BYTE      P0
      00000090H   SFRSYM    DATA     BYTE      P1
      000000A0H   SFRSYM    DATA     BYTE      P2
      000000B0H   SFRSYM    DATA     BYTE      P3
      000000D0H.6 SFRSYM    DATA     BIT       AC
      000000F3H   SFRSYM    DATA     BYTE      ADR_L
      00000094H   SFRSYM    DATA     BYTE      PAGESEL
      000000F2H   SFRSYM    DATA     BYTE      ADR_M
      000000A8H.7 SFRSYM    DATA     BIT       EA
      000000A0H.5 SFRSYM    DATA     BIT       JIGUANG
      00000090H.7 SFRSYM    DATA     BIT       LED_R
      000000F8H   SFRSYM    DATA     BYTE      RAMMODE
      000000B7H   SFRSYM    DATA     BYTE      P0MDOUT
      000000A8H   SFRSYM    DATA     BYTE      IEN0
      000000BCH   SFRSYM    DATA     BYTE      P1MDOUT
      000000B8H   SFRSYM    DATA     BYTE      IEN1
      000000BDH   SFRSYM    DATA     BYTE      P2MDOUT
      000000F8H.0 SFRSYM    DATA     BIT       APP_DATA0
      0000009AH   SFRSYM    DATA     BYTE      IEN2
LX51 LINKER/LOCATER V4.66.93.0                                                        04/30/2025  12:14:31  PAGE 65


      000000BEH   SFRSYM    DATA     BYTE      P3MDOUT
      000000F8H.1 SFRSYM    DATA     BIT       APP_DATA1
      000000D1H   SFRSYM    DATA     BYTE      IEN3
      00000080H.0 SFRSYM    DATA     BIT       P0_0
      000000F8H.2 SFRSYM    DATA     BIT       APP_DATA2
      00000090H.0 SFRSYM    DATA     BIT       P1_0
      000000F8H.3 SFRSYM    DATA     BIT       APP_DATA3
      00000090H.1 SFRSYM    DATA     BIT       P1_1
      000000F8H.4 SFRSYM    DATA     BIT       APP_ACK
      000000F4H   SFRSYM    DATA     BYTE      ADR_INC
      000000B0H.1 SFRSYM    DATA     BIT       P3_1
      00000098H.4 SFRSYM    DATA     BIT       REN0
      000000B8H.1 SFRSYM    DATA     BIT       ECAN
      000000D0H.7 SFRSYM    DATA     BIT       CY
      000000B8H.3 SFRSYM    DATA     BIT       ES2R
      000000B8H.5 SFRSYM    DATA     BIT       ES3R
      000000B8H.2 SFRSYM    DATA     BIT       ES2T
      000000B8H.4 SFRSYM    DATA     BIT       ES3T
      000000C8H.7 SFRSYM    DATA     BIT       TSF2
      000000B0H.3 SFRSYM    DATA     BIT       RTC_SDA
      00000081H   SFRSYM    DATA     BYTE      SP
      000000D0H.2 SFRSYM    DATA     BIT       OV
      00000095H   SFRSYM    DATA     BYTE      D_PAGESEL
      00000090H.5 SFRSYM    DATA     BIT       UV
      000000F8H.7 SFRSYM    DATA     BIT       APP_REQ
      000000B0H.2 SFRSYM    DATA     BIT       RTC_SCL
      000000BFH   SFRSYM    DATA     BYTE      IRCON2
      000000BAH   SFRSYM    DATA     BYTE      SREL0H
      000000BBH   SFRSYM    DATA     BYTE      SREL1H
      00000087H   SFRSYM    DATA     BYTE      PCON
      000000AAH   SFRSYM    DATA     BYTE      SREL0L
      000000F9H   SFRSYM    DATA     BYTE      PORTDRV
      0000009DH   SFRSYM    DATA     BYTE      SREL1L
      00000089H   SFRSYM    DATA     BYTE      TMOD
      00000088H   SFRSYM    DATA     BYTE      TCON
      00000097H   SFRSYM    DATA     BYTE      SCON2R
      000000FFH   SFRSYM    DATA     BYTE      EXDATA
      000000ABH   SFRSYM    DATA     BYTE      SCON3R
      000000D9H   SFRSYM    DATA     BYTE      BODE2_DIV_H
      000000AEH   SFRSYM    DATA     BYTE      BODE3_DIV_H
      00000096H   SFRSYM    DATA     BYTE      SCON2T
      000000A7H   SFRSYM    DATA     BYTE      SCON3T
      000000E7H   SFRSYM    DATA     BYTE      BODE2_DIV_L
      00000088H.1 SFRSYM    DATA     BIT       IE0
      000000AFH   SFRSYM    DATA     BYTE      BODE3_DIV_L
      00000088H.3 SFRSYM    DATA     BIT       IE1
      000000C9H   SFRSYM    DATA     BYTE      MUX_SEL
      000000F0H   SFRSYM    DATA     BYTE      B
      000000E0H   SFRSYM    DATA     BYTE      ACC
      000000A8H.4 SFRSYM    DATA     BIT       ES0
      0000008FH   SFRSYM    DATA     BYTE      CAN_CR
      000000A8H.1 SFRSYM    DATA     BIT       ET0
      000000A9H   SFRSYM    DATA     BYTE      IP0
      000000A8H.3 SFRSYM    DATA     BIT       ET1
      00000088H.5 SFRSYM    DATA     BIT       TF0
      000000B9H   SFRSYM    DATA     BYTE      IP1
      000000A8H.5 SFRSYM    DATA     BIT       ET2
      00000098H.0 SFRSYM    DATA     BIT       RI0
      00000088H.7 SFRSYM    DATA     BIT       TF1
      000000FDH   SFRSYM    DATA     BYTE      DATA0
      000000C0H.6 SFRSYM    DATA     BIT       TF2
      000000E8H   SFRSYM    DATA     BYTE      CAN_ET
      000000FCH   SFRSYM    DATA     BYTE      DATA1
      0000008CH   SFRSYM    DATA     BYTE      TH0
      000000A8H.0 SFRSYM    DATA     BIT       EX0
LX51 LINKER/LOCATER V4.66.93.0                                                        04/30/2025  12:14:31  PAGE 66


      00000098H.1 SFRSYM    DATA     BIT       TI0
      00000088H.0 SFRSYM    DATA     BIT       IT0
      000000FBH   SFRSYM    DATA     BYTE      DATA2
      0000008DH   SFRSYM    DATA     BYTE      TH1
      000000A8H.2 SFRSYM    DATA     BIT       EX1
      00000091H   SFRSYM    DATA     BYTE      CAN_IR
      000000CDH   SFRSYM    DATA     BYTE      TH2
      00000088H.2 SFRSYM    DATA     BIT       IT1
      000000FAH   SFRSYM    DATA     BYTE      DATA3
      000000D0H.0 SFRSYM    DATA     BIT       P
      00000098H.7 SFRSYM    DATA     BIT       SM0
      0000008AH   SFRSYM    DATA     BYTE      TL0
      00000098H.6 SFRSYM    DATA     BIT       SM1
      0000008BH   SFRSYM    DATA     BYTE      TL1
      00000098H.5 SFRSYM    DATA     BIT       SM2
      000000CCH   SFRSYM    DATA     BYTE      TL2
      000000A0H.7 SFRSYM    DATA     BIT       UV_St
      000000D0H.3 SFRSYM    DATA     BIT       RS0
      000000F8H.6 SFRSYM    DATA     BIT       APP_EN
      000000D0H.4 SFRSYM    DATA     BIT       RS1
      00000088H.4 SFRSYM    DATA     BIT       TR0
      00000088H.6 SFRSYM    DATA     BIT       TR1
      00000093H   SFRSYM    DATA     BYTE      DPC
      000000C8H.0 SFRSYM    DATA     BIT       TR2
      000000E5H   SFRSYM    DATA     BYTE      MAC_MODE
      00000083H   SFRSYM    DATA     BYTE      DPH
      00000082H   SFRSYM    DATA     BYTE      DPL
      00000099H   SFRSYM    DATA     BYTE      SBUF0
      0000009CH   SFRSYM    DATA     BYTE      SBUF1
      00000098H   SFRSYM    DATA     BYTE      SCON0
      0000009BH   SFRSYM    DATA     BYTE      SCON1
      000000D8H   SFRSYM    DATA     BYTE      ADCON
      000000C8H   SFRSYM    DATA     BYTE      T2CON
      000000E6H   SFRSYM    DATA     BYTE      DIV_MODE
      000000F8H.5 SFRSYM    DATA     BIT       APP_RW
      000000CBH   SFRSYM    DATA     BYTE      TRL2H
      0000009FH   SFRSYM    DATA     BYTE      SBUF2_RX
      000000ADH   SFRSYM    DATA     BYTE      SBUF3_RX
      0000008EH   SFRSYM    DATA     BYTE      CKCON
      0000009EH   SFRSYM    DATA     BYTE      SBUF2_TX
      000000ACH   SFRSYM    DATA     BYTE      SBUF3_TX
      000000CAH   SFRSYM    DATA     BYTE      TRL2L
      000000D0H.5 SFRSYM    DATA     BIT       F0
      000000FEH   SFRSYM    DATA     BYTE      EXADR
      000000D0H.1 SFRSYM    DATA     BIT       F1
      000000A0H.3 SFRSYM    DATA     BIT       LED_B
      000000D0H   SFRSYM    DATA     BYTE      PSW
      000000A0H.1 SFRSYM    DATA     BIT       LED_G
      000000C0H   SFRSYM    DATA     BYTE      IRCON
      00000098H.2 SFRSYM    DATA     BIT       RB80

      01003483H   BLOCK     CODE     ---       LVL=0
      01003483H   LINE      CODE     ---       #20
      01003483H   LINE      CODE     ---       #21
      01003483H   LINE      CODE     ---       #22
      ---         BLOCKEND  ---      ---       LVL=0

      01003004H   BLOCK     CODE     ---       LVL=0
      01003004H   LINE      CODE     ---       #26
      01003004H   LINE      CODE     ---       #27
      01003004H   LINE      CODE     ---       #28
      01003007H   LINE      CODE     ---       #32
      0100305DH   LINE      CODE     ---       #33
      0100305DH   LINE      CODE     ---       #37
      01003063H   LINE      CODE     ---       #38
LX51 LINKER/LOCATER V4.66.93.0                                                        04/30/2025  12:14:31  PAGE 67


      01003063H   LINE      CODE     ---       #40
      ---         BLOCKEND  ---      ---       LVL=0

      01003439H   BLOCK     CODE     ---       LVL=0
      01003439H   LINE      CODE     ---       #44
      01003439H   LINE      CODE     ---       #45
      01003439H   LINE      CODE     ---       #46
      0100343EH   LINE      CODE     ---       #47
      ---         BLOCKEND  ---      ---       LVL=0

      01003577H   BLOCK     CODE     ---       LVL=0
      01003577H   LINE      CODE     ---       #54
      01003577H   LINE      CODE     ---       #55
      01003577H   LINE      CODE     ---       #56
      ---         BLOCKEND  ---      ---       LVL=0

      010030C2H   BLOCK     CODE     ---       LVL=0
      010030C2H   LINE      CODE     ---       #60
      010030C2H   LINE      CODE     ---       #61
      010030C2H   LINE      CODE     ---       #63
      010030CCH   LINE      CODE     ---       #64
      010030E2H   LINE      CODE     ---       #66
      010030E9H   LINE      CODE     ---       #67
      010030FEH   LINE      CODE     ---       #69
      01003108H   LINE      CODE     ---       #71
      ---         BLOCKEND  ---      ---       LVL=0

      01002572H   BLOCK     CODE     ---       LVL=0
      01002572H   BLOCK     CODE     NEAR LAB  LVL=1
      0200A47CH   SYMBOL    XDATA    WORD      ResTime_sec
      0200A47EH   SYMBOL    XDATA    WORD      ResTime_min
      0200A480H   SYMBOL    XDATA    WORD      QRJ_mj
      ---         BLOCKEND  ---      ---       LVL=1
      01002572H   LINE      CODE     ---       #80
      01002572H   LINE      CODE     ---       #81
      01002572H   LINE      CODE     ---       #87
      01002588H   LINE      CODE     ---       #88
      010025A5H   LINE      CODE     ---       #89
      010025A5H   LINE      CODE     ---       #90
      010025A5H   LINE      CODE     ---       #91
      010025A5H   LINE      CODE     ---       #92
      010025AFH   LINE      CODE     ---       #93
      010025B1H   LINE      CODE     ---       #94
      010025B1H   LINE      CODE     ---       #95
      010025B1H   LINE      CODE     ---       #96
      010025B1H   LINE      CODE     ---       #97
      010025BBH   LINE      CODE     ---       #98
      010025BDH   LINE      CODE     ---       #99
      010025BDH   LINE      CODE     ---       #100
      010025BDH   LINE      CODE     ---       #101
      010025BDH   LINE      CODE     ---       #102
      010025C7H   LINE      CODE     ---       #103
      010025C9H   LINE      CODE     ---       #104
      010025C9H   LINE      CODE     ---       #105
      010025C9H   LINE      CODE     ---       #106
      010025C9H   LINE      CODE     ---       #107
      010025D3H   LINE      CODE     ---       #108
      010025D5H   LINE      CODE     ---       #109
      010025D5H   LINE      CODE     ---       #110
      010025D5H   LINE      CODE     ---       #111
      010025D5H   LINE      CODE     ---       #112
      010025DFH   LINE      CODE     ---       #113
      010025DFH   LINE      CODE     ---       #114
      010025DFH   LINE      CODE     ---       #115
      010025DFH   LINE      CODE     ---       #117
LX51 LINKER/LOCATER V4.66.93.0                                                        04/30/2025  12:14:31  PAGE 68


      010025EAH   LINE      CODE     ---       #119
      0100260EH   LINE      CODE     ---       #120
      01002621H   LINE      CODE     ---       #121
      01002637H   LINE      CODE     ---       #122
      0100264DH   LINE      CODE     ---       #123
      01002663H   LINE      CODE     ---       #124
      ---         BLOCKEND  ---      ---       LVL=0

      01002859H   BLOCK     CODE     ---       LVL=0
      00000006H   SYMBOL    DATA     WORD      L_T
      01002859H   BLOCK     CODE     NEAR LAB  LVL=1
      0200A482H   SYMBOL    XDATA    FLOAT     L_CM
      ---         BLOCKEND  ---      ---       LVL=1
      01002859H   LINE      CODE     ---       #133
      01002859H   LINE      CODE     ---       #134
      01002859H   LINE      CODE     ---       #136
      01002871H   LINE      CODE     ---       #137
      010028AFH   LINE      CODE     ---       #138
      010028B5H   LINE      CODE     ---       #140
      010028BDH   LINE      CODE     ---       #141
      010028BDH   LINE      CODE     ---       #142
      010028C4H   LINE      CODE     ---       #143
      010028C4H   LINE      CODE     ---       #144
      010028C4H   LINE      CODE     ---       #145
      010028C4H   LINE      CODE     ---       #146
      010028E0H   LINE      CODE     ---       #147
      010028E2H   LINE      CODE     ---       #148
      010028E2H   LINE      CODE     ---       #150
      010028E2H   LINE      CODE     ---       #155
      010028E2H   LINE      CODE     ---       #156
      010028E2H   LINE      CODE     ---       #157
      010028E2H   LINE      CODE     ---       #161
      010028E2H   LINE      CODE     ---       #163
      010028E9H   LINE      CODE     ---       #164
      010028E9H   LINE      CODE     ---       #165
      010028E9H   LINE      CODE     ---       #166
      010028E9H   LINE      CODE     ---       #168
      01002931H   LINE      CODE     ---       #169
      01002931H   LINE      CODE     ---       #170
      01002931H   LINE      CODE     ---       #172
      01002931H   LINE      CODE     ---       #173
      01002931H   LINE      CODE     ---       #174
      01002937H   LINE      CODE     ---       #176
      01002937H   LINE      CODE     ---       #177
      01002937H   LINE      CODE     ---       #178
      01002937H   LINE      CODE     ---       #183
      01002937H   LINE      CODE     ---       #186
      ---         BLOCKEND  ---      ---       LVL=0

      01000061H   BLOCK     CODE     ---       LVL=0
      01000061H   LINE      CODE     ---       #192
      01000061H   LINE      CODE     ---       #193
      01000061H   LINE      CODE     ---       #195
      ---         BLOCKEND  ---      ---       LVL=0

      01003064H   BLOCK     CODE     ---       LVL=0
      01003064H   LINE      CODE     ---       #201
      01003064H   LINE      CODE     ---       #202
      01003064H   LINE      CODE     ---       #204
      01003070H   LINE      CODE     ---       #205
      01003070H   LINE      CODE     ---       #206
      01003072H   LINE      CODE     ---       #207
      01003078H   LINE      CODE     ---       #208
      01003078H   LINE      CODE     ---       #214
      0100309DH   LINE      CODE     ---       #215
LX51 LINKER/LOCATER V4.66.93.0                                                        04/30/2025  12:14:31  PAGE 69


      0100309DH   LINE      CODE     ---       #216
      0100309DH   LINE      CODE     ---       #217
      0100309DH   LINE      CODE     ---       #218
      010030A3H   LINE      CODE     ---       #220
      010030A3H   LINE      CODE     ---       #222
      010030A3H   LINE      CODE     ---       #223
      010030A3H   LINE      CODE     ---       #224
      010030A9H   LINE      CODE     ---       #225
      010030ACH   LINE      CODE     ---       #228
      010030ACH   LINE      CODE     ---       #230
      010030ACH   LINE      CODE     ---       #231
      010030ACH   LINE      CODE     ---       #232
      010030AFH   LINE      CODE     ---       #233
      010030AFH   LINE      CODE     ---       #234
      010030AFH   LINE      CODE     ---       #236
      010030AFH   LINE      CODE     ---       #237
      010030AFH   LINE      CODE     ---       #239
      010030B2H   LINE      CODE     ---       #240
      010030B2H   LINE      CODE     ---       #241
      010030B2H   LINE      CODE     ---       #243
      010030B2H   LINE      CODE     ---       #244
      010030B2H   LINE      CODE     ---       #245
      010030B5H   LINE      CODE     ---       #246
      010030B5H   LINE      CODE     ---       #247
      010030B5H   LINE      CODE     ---       #249
      010030B5H   LINE      CODE     ---       #250
      010030B5H   LINE      CODE     ---       #251
      010030B8H   LINE      CODE     ---       #252
      010030B8H   LINE      CODE     ---       #253
      010030B8H   LINE      CODE     ---       #254
      010030B8H   LINE      CODE     ---       #255
      010030B8H   LINE      CODE     ---       #257
      010030BBH   LINE      CODE     ---       #258
      010030C1H   LINE      CODE     ---       #259
      010030C1H   LINE      CODE     ---       #260
      010030C1H   LINE      CODE     ---       #262
      010030C1H   LINE      CODE     ---       #263
      010030C1H   LINE      CODE     ---       #264
      010030C1H   LINE      CODE     ---       #265
      010030C1H   LINE      CODE     ---       #267
      010030C1H   LINE      CODE     ---       #270
      ---         BLOCKEND  ---      ---       LVL=0

      ---         MODULE    ---      ---       ZX
      00000098H.3 SFRSYM    DATA     BIT       TB80
      000000F1H   SFRSYM    DATA     BYTE      ADR_H
      00000080H   SFRSYM    DATA     BYTE      P0
      00000090H   SFRSYM    DATA     BYTE      P1
      000000A0H   SFRSYM    DATA     BYTE      P2
      000000B0H   SFRSYM    DATA     BYTE      P3
      000000D0H.6 SFRSYM    DATA     BIT       AC
      000000F3H   SFRSYM    DATA     BYTE      ADR_L
      00000094H   SFRSYM    DATA     BYTE      PAGESEL
      000000F2H   SFRSYM    DATA     BYTE      ADR_M
      000000A8H.7 SFRSYM    DATA     BIT       EA
      000000A0H.5 SFRSYM    DATA     BIT       JIGUANG
      00000090H.7 SFRSYM    DATA     BIT       LED_R
      000000F8H   SFRSYM    DATA     BYTE      RAMMODE
      000000B7H   SFRSYM    DATA     BYTE      P0MDOUT
      000000A8H   SFRSYM    DATA     BYTE      IEN0
      000000BCH   SFRSYM    DATA     BYTE      P1MDOUT
      000000B8H   SFRSYM    DATA     BYTE      IEN1
      000000BDH   SFRSYM    DATA     BYTE      P2MDOUT
      000000F8H.0 SFRSYM    DATA     BIT       APP_DATA0
      0000009AH   SFRSYM    DATA     BYTE      IEN2
LX51 LINKER/LOCATER V4.66.93.0                                                        04/30/2025  12:14:31  PAGE 70


      000000BEH   SFRSYM    DATA     BYTE      P3MDOUT
      000000F8H.1 SFRSYM    DATA     BIT       APP_DATA1
      000000D1H   SFRSYM    DATA     BYTE      IEN3
      00000080H.0 SFRSYM    DATA     BIT       P0_0
      000000F8H.2 SFRSYM    DATA     BIT       APP_DATA2
      00000090H.0 SFRSYM    DATA     BIT       P1_0
      000000F8H.3 SFRSYM    DATA     BIT       APP_DATA3
      00000090H.1 SFRSYM    DATA     BIT       P1_1
      000000F8H.4 SFRSYM    DATA     BIT       APP_ACK
      000000F4H   SFRSYM    DATA     BYTE      ADR_INC
      000000B0H.1 SFRSYM    DATA     BIT       P3_1
      00000098H.4 SFRSYM    DATA     BIT       REN0
      000000B8H.1 SFRSYM    DATA     BIT       ECAN
      000000D0H.7 SFRSYM    DATA     BIT       CY
      000000B8H.3 SFRSYM    DATA     BIT       ES2R
      000000B8H.5 SFRSYM    DATA     BIT       ES3R
      000000B8H.2 SFRSYM    DATA     BIT       ES2T
      000000B8H.4 SFRSYM    DATA     BIT       ES3T
      000000C8H.7 SFRSYM    DATA     BIT       TSF2
      000000B0H.3 SFRSYM    DATA     BIT       RTC_SDA
      00000081H   SFRSYM    DATA     BYTE      SP
      000000D0H.2 SFRSYM    DATA     BIT       OV
      00000095H   SFRSYM    DATA     BYTE      D_PAGESEL
      00000090H.5 SFRSYM    DATA     BIT       UV
      000000F8H.7 SFRSYM    DATA     BIT       APP_REQ
      000000B0H.2 SFRSYM    DATA     BIT       RTC_SCL
      000000BFH   SFRSYM    DATA     BYTE      IRCON2
      000000BAH   SFRSYM    DATA     BYTE      SREL0H
      000000BBH   SFRSYM    DATA     BYTE      SREL1H
      00000087H   SFRSYM    DATA     BYTE      PCON
      000000AAH   SFRSYM    DATA     BYTE      SREL0L
      000000F9H   SFRSYM    DATA     BYTE      PORTDRV
      0000009DH   SFRSYM    DATA     BYTE      SREL1L
      00000089H   SFRSYM    DATA     BYTE      TMOD
      00000088H   SFRSYM    DATA     BYTE      TCON
      00000097H   SFRSYM    DATA     BYTE      SCON2R
      000000FFH   SFRSYM    DATA     BYTE      EXDATA
      000000ABH   SFRSYM    DATA     BYTE      SCON3R
      000000D9H   SFRSYM    DATA     BYTE      BODE2_DIV_H
      000000AEH   SFRSYM    DATA     BYTE      BODE3_DIV_H
      00000096H   SFRSYM    DATA     BYTE      SCON2T
      000000A7H   SFRSYM    DATA     BYTE      SCON3T
      000000E7H   SFRSYM    DATA     BYTE      BODE2_DIV_L
      00000088H.1 SFRSYM    DATA     BIT       IE0
      000000AFH   SFRSYM    DATA     BYTE      BODE3_DIV_L
      00000088H.3 SFRSYM    DATA     BIT       IE1
      000000C9H   SFRSYM    DATA     BYTE      MUX_SEL
      000000F0H   SFRSYM    DATA     BYTE      B
      000000E0H   SFRSYM    DATA     BYTE      ACC
      000000A8H.4 SFRSYM    DATA     BIT       ES0
      0000008FH   SFRSYM    DATA     BYTE      CAN_CR
      000000A8H.1 SFRSYM    DATA     BIT       ET0
      000000A9H   SFRSYM    DATA     BYTE      IP0
      000000A8H.3 SFRSYM    DATA     BIT       ET1
      00000088H.5 SFRSYM    DATA     BIT       TF0
      000000B9H   SFRSYM    DATA     BYTE      IP1
      000000A8H.5 SFRSYM    DATA     BIT       ET2
      00000098H.0 SFRSYM    DATA     BIT       RI0
      00000088H.7 SFRSYM    DATA     BIT       TF1
      000000FDH   SFRSYM    DATA     BYTE      DATA0
      000000C0H.6 SFRSYM    DATA     BIT       TF2
      000000E8H   SFRSYM    DATA     BYTE      CAN_ET
      000000FCH   SFRSYM    DATA     BYTE      DATA1
      0000008CH   SFRSYM    DATA     BYTE      TH0
      000000A8H.0 SFRSYM    DATA     BIT       EX0
LX51 LINKER/LOCATER V4.66.93.0                                                        04/30/2025  12:14:31  PAGE 71


      00000098H.1 SFRSYM    DATA     BIT       TI0
      00000088H.0 SFRSYM    DATA     BIT       IT0
      000000FBH   SFRSYM    DATA     BYTE      DATA2
      0000008DH   SFRSYM    DATA     BYTE      TH1
      000000A8H.2 SFRSYM    DATA     BIT       EX1
      00000091H   SFRSYM    DATA     BYTE      CAN_IR
      000000CDH   SFRSYM    DATA     BYTE      TH2
      00000088H.2 SFRSYM    DATA     BIT       IT1
      000000FAH   SFRSYM    DATA     BYTE      DATA3
      000000D0H.0 SFRSYM    DATA     BIT       P
      00000098H.7 SFRSYM    DATA     BIT       SM0
      0000008AH   SFRSYM    DATA     BYTE      TL0
      00000098H.6 SFRSYM    DATA     BIT       SM1
      0000008BH   SFRSYM    DATA     BYTE      TL1
      00000098H.5 SFRSYM    DATA     BIT       SM2
      000000CCH   SFRSYM    DATA     BYTE      TL2
      000000A0H.7 SFRSYM    DATA     BIT       UV_St
      000000D0H.3 SFRSYM    DATA     BIT       RS0
      000000F8H.6 SFRSYM    DATA     BIT       APP_EN
      000000D0H.4 SFRSYM    DATA     BIT       RS1
      00000088H.4 SFRSYM    DATA     BIT       TR0
      00000088H.6 SFRSYM    DATA     BIT       TR1
      00000093H   SFRSYM    DATA     BYTE      DPC
      000000C8H.0 SFRSYM    DATA     BIT       TR2
      000000E5H   SFRSYM    DATA     BYTE      MAC_MODE
      00000083H   SFRSYM    DATA     BYTE      DPH
      00000082H   SFRSYM    DATA     BYTE      DPL
      00000099H   SFRSYM    DATA     BYTE      SBUF0
      0000009CH   SFRSYM    DATA     BYTE      SBUF1
      00000098H   SFRSYM    DATA     BYTE      SCON0
      0000009BH   SFRSYM    DATA     BYTE      SCON1
      000000D8H   SFRSYM    DATA     BYTE      ADCON
      000000C8H   SFRSYM    DATA     BYTE      T2CON
      000000E6H   SFRSYM    DATA     BYTE      DIV_MODE
      000000F8H.5 SFRSYM    DATA     BIT       APP_RW
      000000CBH   SFRSYM    DATA     BYTE      TRL2H
      0000009FH   SFRSYM    DATA     BYTE      SBUF2_RX
      000000ADH   SFRSYM    DATA     BYTE      SBUF3_RX
      0000008EH   SFRSYM    DATA     BYTE      CKCON
      0000009EH   SFRSYM    DATA     BYTE      SBUF2_TX
      000000ACH   SFRSYM    DATA     BYTE      SBUF3_TX
      000000CAH   SFRSYM    DATA     BYTE      TRL2L
      000000D0H.5 SFRSYM    DATA     BIT       F0
      000000FEH   SFRSYM    DATA     BYTE      EXADR
      000000D0H.1 SFRSYM    DATA     BIT       F1
      000000A0H.3 SFRSYM    DATA     BIT       LED_B
      000000D0H   SFRSYM    DATA     BYTE      PSW
      000000A0H.1 SFRSYM    DATA     BIT       LED_G
      000000C0H   SFRSYM    DATA     BYTE      IRCON
      00000098H.2 SFRSYM    DATA     BIT       RB80

      ---         MODULE    ---      ---       QY
      00000098H.3 SFRSYM    DATA     BIT       TB80
      000000F1H   SFRSYM    DATA     BYTE      ADR_H
      00000080H   SFRSYM    DATA     BYTE      P0
      00000090H   SFRSYM    DATA     BYTE      P1
      000000A0H   SFRSYM    DATA     BYTE      P2
      000000B0H   SFRSYM    DATA     BYTE      P3
      000000D0H.6 SFRSYM    DATA     BIT       AC
      000000F3H   SFRSYM    DATA     BYTE      ADR_L
      00000094H   SFRSYM    DATA     BYTE      PAGESEL
      000000F2H   SFRSYM    DATA     BYTE      ADR_M
      000000A8H.7 SFRSYM    DATA     BIT       EA
      000000A0H.5 SFRSYM    DATA     BIT       JIGUANG
      00000090H.7 SFRSYM    DATA     BIT       LED_R
LX51 LINKER/LOCATER V4.66.93.0                                                        04/30/2025  12:14:31  PAGE 72


      000000F8H   SFRSYM    DATA     BYTE      RAMMODE
      000000B7H   SFRSYM    DATA     BYTE      P0MDOUT
      000000A8H   SFRSYM    DATA     BYTE      IEN0
      000000BCH   SFRSYM    DATA     BYTE      P1MDOUT
      000000B8H   SFRSYM    DATA     BYTE      IEN1
      000000BDH   SFRSYM    DATA     BYTE      P2MDOUT
      000000F8H.0 SFRSYM    DATA     BIT       APP_DATA0
      0000009AH   SFRSYM    DATA     BYTE      IEN2
      000000BEH   SFRSYM    DATA     BYTE      P3MDOUT
      000000F8H.1 SFRSYM    DATA     BIT       APP_DATA1
      000000D1H   SFRSYM    DATA     BYTE      IEN3
      00000080H.0 SFRSYM    DATA     BIT       P0_0
      000000F8H.2 SFRSYM    DATA     BIT       APP_DATA2
      00000090H.0 SFRSYM    DATA     BIT       P1_0
      000000F8H.3 SFRSYM    DATA     BIT       APP_DATA3
      00000090H.1 SFRSYM    DATA     BIT       P1_1
      000000F8H.4 SFRSYM    DATA     BIT       APP_ACK
      000000F4H   SFRSYM    DATA     BYTE      ADR_INC
      000000B0H.1 SFRSYM    DATA     BIT       P3_1
      00000098H.4 SFRSYM    DATA     BIT       REN0
      000000B8H.1 SFRSYM    DATA     BIT       ECAN
      000000D0H.7 SFRSYM    DATA     BIT       CY
      000000B8H.3 SFRSYM    DATA     BIT       ES2R
      000000B8H.5 SFRSYM    DATA     BIT       ES3R
      000000B8H.2 SFRSYM    DATA     BIT       ES2T
      000000B8H.4 SFRSYM    DATA     BIT       ES3T
      000000C8H.7 SFRSYM    DATA     BIT       TSF2
      000000B0H.3 SFRSYM    DATA     BIT       RTC_SDA
      00000081H   SFRSYM    DATA     BYTE      SP
      000000D0H.2 SFRSYM    DATA     BIT       OV
      00000095H   SFRSYM    DATA     BYTE      D_PAGESEL
      00000090H.5 SFRSYM    DATA     BIT       UV
      000000F8H.7 SFRSYM    DATA     BIT       APP_REQ
      000000B0H.2 SFRSYM    DATA     BIT       RTC_SCL
      000000BFH   SFRSYM    DATA     BYTE      IRCON2
      000000BAH   SFRSYM    DATA     BYTE      SREL0H
      000000BBH   SFRSYM    DATA     BYTE      SREL1H
      00000087H   SFRSYM    DATA     BYTE      PCON
      000000AAH   SFRSYM    DATA     BYTE      SREL0L
      000000F9H   SFRSYM    DATA     BYTE      PORTDRV
      0000009DH   SFRSYM    DATA     BYTE      SREL1L
      00000089H   SFRSYM    DATA     BYTE      TMOD
      00000088H   SFRSYM    DATA     BYTE      TCON
      00000097H   SFRSYM    DATA     BYTE      SCON2R
      000000FFH   SFRSYM    DATA     BYTE      EXDATA
      000000ABH   SFRSYM    DATA     BYTE      SCON3R
      000000D9H   SFRSYM    DATA     BYTE      BODE2_DIV_H
      000000AEH   SFRSYM    DATA     BYTE      BODE3_DIV_H
      00000096H   SFRSYM    DATA     BYTE      SCON2T
      000000A7H   SFRSYM    DATA     BYTE      SCON3T
      000000E7H   SFRSYM    DATA     BYTE      BODE2_DIV_L
      00000088H.1 SFRSYM    DATA     BIT       IE0
      000000AFH   SFRSYM    DATA     BYTE      BODE3_DIV_L
      00000088H.3 SFRSYM    DATA     BIT       IE1
      000000C9H   SFRSYM    DATA     BYTE      MUX_SEL
      000000F0H   SFRSYM    DATA     BYTE      B
      000000E0H   SFRSYM    DATA     BYTE      ACC
      000000A8H.4 SFRSYM    DATA     BIT       ES0
      0000008FH   SFRSYM    DATA     BYTE      CAN_CR
      000000A8H.1 SFRSYM    DATA     BIT       ET0
      000000A9H   SFRSYM    DATA     BYTE      IP0
      000000A8H.3 SFRSYM    DATA     BIT       ET1
      00000088H.5 SFRSYM    DATA     BIT       TF0
      000000B9H   SFRSYM    DATA     BYTE      IP1
      000000A8H.5 SFRSYM    DATA     BIT       ET2
LX51 LINKER/LOCATER V4.66.93.0                                                        04/30/2025  12:14:31  PAGE 73


      00000098H.0 SFRSYM    DATA     BIT       RI0
      00000088H.7 SFRSYM    DATA     BIT       TF1
      000000FDH   SFRSYM    DATA     BYTE      DATA0
      000000C0H.6 SFRSYM    DATA     BIT       TF2
      000000E8H   SFRSYM    DATA     BYTE      CAN_ET
      000000FCH   SFRSYM    DATA     BYTE      DATA1
      0000008CH   SFRSYM    DATA     BYTE      TH0
      000000A8H.0 SFRSYM    DATA     BIT       EX0
      00000098H.1 SFRSYM    DATA     BIT       TI0
      00000088H.0 SFRSYM    DATA     BIT       IT0
      000000FBH   SFRSYM    DATA     BYTE      DATA2
      0000008DH   SFRSYM    DATA     BYTE      TH1
      000000A8H.2 SFRSYM    DATA     BIT       EX1
      00000091H   SFRSYM    DATA     BYTE      CAN_IR
      000000CDH   SFRSYM    DATA     BYTE      TH2
      00000088H.2 SFRSYM    DATA     BIT       IT1
      000000FAH   SFRSYM    DATA     BYTE      DATA3
      000000D0H.0 SFRSYM    DATA     BIT       P
      00000098H.7 SFRSYM    DATA     BIT       SM0
      0000008AH   SFRSYM    DATA     BYTE      TL0
      00000098H.6 SFRSYM    DATA     BIT       SM1
      0000008BH   SFRSYM    DATA     BYTE      TL1
      00000098H.5 SFRSYM    DATA     BIT       SM2
      000000CCH   SFRSYM    DATA     BYTE      TL2
      000000A0H.7 SFRSYM    DATA     BIT       UV_St
      000000D0H.3 SFRSYM    DATA     BIT       RS0
      000000F8H.6 SFRSYM    DATA     BIT       APP_EN
      000000D0H.4 SFRSYM    DATA     BIT       RS1
      00000088H.4 SFRSYM    DATA     BIT       TR0
      00000088H.6 SFRSYM    DATA     BIT       TR1
      00000093H   SFRSYM    DATA     BYTE      DPC
      000000C8H.0 SFRSYM    DATA     BIT       TR2
      000000E5H   SFRSYM    DATA     BYTE      MAC_MODE
      00000083H   SFRSYM    DATA     BYTE      DPH
      00000082H   SFRSYM    DATA     BYTE      DPL
      00000099H   SFRSYM    DATA     BYTE      SBUF0
      0000009CH   SFRSYM    DATA     BYTE      SBUF1
      00000098H   SFRSYM    DATA     BYTE      SCON0
      0000009BH   SFRSYM    DATA     BYTE      SCON1
      000000D8H   SFRSYM    DATA     BYTE      ADCON
      000000C8H   SFRSYM    DATA     BYTE      T2CON
      000000E6H   SFRSYM    DATA     BYTE      DIV_MODE
      000000F8H.5 SFRSYM    DATA     BIT       APP_RW
      000000CBH   SFRSYM    DATA     BYTE      TRL2H
      0000009FH   SFRSYM    DATA     BYTE      SBUF2_RX
      000000ADH   SFRSYM    DATA     BYTE      SBUF3_RX
      0000008EH   SFRSYM    DATA     BYTE      CKCON
      0000009EH   SFRSYM    DATA     BYTE      SBUF2_TX
      000000ACH   SFRSYM    DATA     BYTE      SBUF3_TX
      000000CAH   SFRSYM    DATA     BYTE      TRL2L
      000000D0H.5 SFRSYM    DATA     BIT       F0
      000000FEH   SFRSYM    DATA     BYTE      EXADR
      000000D0H.1 SFRSYM    DATA     BIT       F1
      000000A0H.3 SFRSYM    DATA     BIT       LED_B
      000000D0H   SFRSYM    DATA     BYTE      PSW
      000000A0H.1 SFRSYM    DATA     BIT       LED_G
      000000C0H   SFRSYM    DATA     BYTE      IRCON
      00000098H.2 SFRSYM    DATA     BIT       RB80

      ---         MODULE    ---      ---       CXH
      00000098H.3 SFRSYM    DATA     BIT       TB80
      000000F1H   SFRSYM    DATA     BYTE      ADR_H
      00000080H   SFRSYM    DATA     BYTE      P0
      00000090H   SFRSYM    DATA     BYTE      P1
      000000A0H   SFRSYM    DATA     BYTE      P2
LX51 LINKER/LOCATER V4.66.93.0                                                        04/30/2025  12:14:31  PAGE 74


      000000B0H   SFRSYM    DATA     BYTE      P3
      000000D0H.6 SFRSYM    DATA     BIT       AC
      000000F3H   SFRSYM    DATA     BYTE      ADR_L
      00000094H   SFRSYM    DATA     BYTE      PAGESEL
      000000F2H   SFRSYM    DATA     BYTE      ADR_M
      000000A8H.7 SFRSYM    DATA     BIT       EA
      000000A0H.5 SFRSYM    DATA     BIT       JIGUANG
      00000090H.7 SFRSYM    DATA     BIT       LED_R
      000000F8H   SFRSYM    DATA     BYTE      RAMMODE
      000000B7H   SFRSYM    DATA     BYTE      P0MDOUT
      000000A8H   SFRSYM    DATA     BYTE      IEN0
      000000BCH   SFRSYM    DATA     BYTE      P1MDOUT
      000000B8H   SFRSYM    DATA     BYTE      IEN1
      000000BDH   SFRSYM    DATA     BYTE      P2MDOUT
      000000F8H.0 SFRSYM    DATA     BIT       APP_DATA0
      0000009AH   SFRSYM    DATA     BYTE      IEN2
      000000BEH   SFRSYM    DATA     BYTE      P3MDOUT
      000000F8H.1 SFRSYM    DATA     BIT       APP_DATA1
      000000D1H   SFRSYM    DATA     BYTE      IEN3
      00000080H.0 SFRSYM    DATA     BIT       P0_0
      000000F8H.2 SFRSYM    DATA     BIT       APP_DATA2
      00000090H.0 SFRSYM    DATA     BIT       P1_0
      000000F8H.3 SFRSYM    DATA     BIT       APP_DATA3
      00000090H.1 SFRSYM    DATA     BIT       P1_1
      000000F8H.4 SFRSYM    DATA     BIT       APP_ACK
      000000F4H   SFRSYM    DATA     BYTE      ADR_INC
      000000B0H.1 SFRSYM    DATA     BIT       P3_1
      00000098H.4 SFRSYM    DATA     BIT       REN0
      000000B8H.1 SFRSYM    DATA     BIT       ECAN
      000000D0H.7 SFRSYM    DATA     BIT       CY
      000000B8H.3 SFRSYM    DATA     BIT       ES2R
      000000B8H.5 SFRSYM    DATA     BIT       ES3R
      000000B8H.2 SFRSYM    DATA     BIT       ES2T
      000000B8H.4 SFRSYM    DATA     BIT       ES3T
      000000C8H.7 SFRSYM    DATA     BIT       TSF2
      000000B0H.3 SFRSYM    DATA     BIT       RTC_SDA
      00000081H   SFRSYM    DATA     BYTE      SP
      000000D0H.2 SFRSYM    DATA     BIT       OV
      00000095H   SFRSYM    DATA     BYTE      D_PAGESEL
      00000090H.5 SFRSYM    DATA     BIT       UV
      000000F8H.7 SFRSYM    DATA     BIT       APP_REQ
      000000B0H.2 SFRSYM    DATA     BIT       RTC_SCL
      000000BFH   SFRSYM    DATA     BYTE      IRCON2
      000000BAH   SFRSYM    DATA     BYTE      SREL0H
      000000BBH   SFRSYM    DATA     BYTE      SREL1H
      00000087H   SFRSYM    DATA     BYTE      PCON
      000000AAH   SFRSYM    DATA     BYTE      SREL0L
      000000F9H   SFRSYM    DATA     BYTE      PORTDRV
      0000009DH   SFRSYM    DATA     BYTE      SREL1L
      00000089H   SFRSYM    DATA     BYTE      TMOD
      00000088H   SFRSYM    DATA     BYTE      TCON
      00000097H   SFRSYM    DATA     BYTE      SCON2R
      000000FFH   SFRSYM    DATA     BYTE      EXDATA
      000000ABH   SFRSYM    DATA     BYTE      SCON3R
      000000D9H   SFRSYM    DATA     BYTE      BODE2_DIV_H
      000000AEH   SFRSYM    DATA     BYTE      BODE3_DIV_H
      00000096H   SFRSYM    DATA     BYTE      SCON2T
      000000A7H   SFRSYM    DATA     BYTE      SCON3T
      000000E7H   SFRSYM    DATA     BYTE      BODE2_DIV_L
      00000088H.1 SFRSYM    DATA     BIT       IE0
      000000AFH   SFRSYM    DATA     BYTE      BODE3_DIV_L
      00000088H.3 SFRSYM    DATA     BIT       IE1
      000000C9H   SFRSYM    DATA     BYTE      MUX_SEL
      000000F0H   SFRSYM    DATA     BYTE      B
      000000E0H   SFRSYM    DATA     BYTE      ACC
LX51 LINKER/LOCATER V4.66.93.0                                                        04/30/2025  12:14:31  PAGE 75


      000000A8H.4 SFRSYM    DATA     BIT       ES0
      0000008FH   SFRSYM    DATA     BYTE      CAN_CR
      000000A8H.1 SFRSYM    DATA     BIT       ET0
      000000A9H   SFRSYM    DATA     BYTE      IP0
      000000A8H.3 SFRSYM    DATA     BIT       ET1
      00000088H.5 SFRSYM    DATA     BIT       TF0
      000000B9H   SFRSYM    DATA     BYTE      IP1
      000000A8H.5 SFRSYM    DATA     BIT       ET2
      00000098H.0 SFRSYM    DATA     BIT       RI0
      00000088H.7 SFRSYM    DATA     BIT       TF1
      000000FDH   SFRSYM    DATA     BYTE      DATA0
      000000C0H.6 SFRSYM    DATA     BIT       TF2
      000000E8H   SFRSYM    DATA     BYTE      CAN_ET
      000000FCH   SFRSYM    DATA     BYTE      DATA1
      0000008CH   SFRSYM    DATA     BYTE      TH0
      000000A8H.0 SFRSYM    DATA     BIT       EX0
      00000098H.1 SFRSYM    DATA     BIT       TI0
      00000088H.0 SFRSYM    DATA     BIT       IT0
      000000FBH   SFRSYM    DATA     BYTE      DATA2
      0000008DH   SFRSYM    DATA     BYTE      TH1
      000000A8H.2 SFRSYM    DATA     BIT       EX1
      00000091H   SFRSYM    DATA     BYTE      CAN_IR
      000000CDH   SFRSYM    DATA     BYTE      TH2
      00000088H.2 SFRSYM    DATA     BIT       IT1
      000000FAH   SFRSYM    DATA     BYTE      DATA3
      000000D0H.0 SFRSYM    DATA     BIT       P
      00000098H.7 SFRSYM    DATA     BIT       SM0
      0000008AH   SFRSYM    DATA     BYTE      TL0
      00000098H.6 SFRSYM    DATA     BIT       SM1
      0000008BH   SFRSYM    DATA     BYTE      TL1
      00000098H.5 SFRSYM    DATA     BIT       SM2
      000000CCH   SFRSYM    DATA     BYTE      TL2
      000000A0H.7 SFRSYM    DATA     BIT       UV_St
      000000D0H.3 SFRSYM    DATA     BIT       RS0
      000000F8H.6 SFRSYM    DATA     BIT       APP_EN
      000000D0H.4 SFRSYM    DATA     BIT       RS1
      00000088H.4 SFRSYM    DATA     BIT       TR0
      00000088H.6 SFRSYM    DATA     BIT       TR1
      00000093H   SFRSYM    DATA     BYTE      DPC
      000000C8H.0 SFRSYM    DATA     BIT       TR2
      000000E5H   SFRSYM    DATA     BYTE      MAC_MODE
      00000083H   SFRSYM    DATA     BYTE      DPH
      00000082H   SFRSYM    DATA     BYTE      DPL
      00000099H   SFRSYM    DATA     BYTE      SBUF0
      0000009CH   SFRSYM    DATA     BYTE      SBUF1
      00000098H   SFRSYM    DATA     BYTE      SCON0
      0000009BH   SFRSYM    DATA     BYTE      SCON1
      000000D8H   SFRSYM    DATA     BYTE      ADCON
      000000C8H   SFRSYM    DATA     BYTE      T2CON
      000000E6H   SFRSYM    DATA     BYTE      DIV_MODE
      000000F8H.5 SFRSYM    DATA     BIT       APP_RW
      000000CBH   SFRSYM    DATA     BYTE      TRL2H
      0000009FH   SFRSYM    DATA     BYTE      SBUF2_RX
      000000ADH   SFRSYM    DATA     BYTE      SBUF3_RX
      0000008EH   SFRSYM    DATA     BYTE      CKCON
      0000009EH   SFRSYM    DATA     BYTE      SBUF2_TX
      000000ACH   SFRSYM    DATA     BYTE      SBUF3_TX
      000000CAH   SFRSYM    DATA     BYTE      TRL2L
      000000D0H.5 SFRSYM    DATA     BIT       F0
      000000FEH   SFRSYM    DATA     BYTE      EXADR
      000000D0H.1 SFRSYM    DATA     BIT       F1
      000000A0H.3 SFRSYM    DATA     BIT       LED_B
      000000D0H   SFRSYM    DATA     BYTE      PSW
      000000A0H.1 SFRSYM    DATA     BIT       LED_G
      000000C0H   SFRSYM    DATA     BYTE      IRCON
LX51 LINKER/LOCATER V4.66.93.0                                                        04/30/2025  12:14:31  PAGE 76


      00000098H.2 SFRSYM    DATA     BIT       RB80

      ---         MODULE    ---      ---       ZL
      00000098H.3 SFRSYM    DATA     BIT       TB80
      000000F1H   SFRSYM    DATA     BYTE      ADR_H
      00000080H   SFRSYM    DATA     BYTE      P0
      00000090H   SFRSYM    DATA     BYTE      P1
      000000A0H   SFRSYM    DATA     BYTE      P2
      000000B0H   SFRSYM    DATA     BYTE      P3
      000000D0H.6 SFRSYM    DATA     BIT       AC
      000000F3H   SFRSYM    DATA     BYTE      ADR_L
      00000094H   SFRSYM    DATA     BYTE      PAGESEL
      000000F2H   SFRSYM    DATA     BYTE      ADR_M
      000000A8H.7 SFRSYM    DATA     BIT       EA
      000000A0H.5 SFRSYM    DATA     BIT       JIGUANG
      00000090H.7 SFRSYM    DATA     BIT       LED_R
      000000F8H   SFRSYM    DATA     BYTE      RAMMODE
      000000B7H   SFRSYM    DATA     BYTE      P0MDOUT
      000000A8H   SFRSYM    DATA     BYTE      IEN0
      000000BCH   SFRSYM    DATA     BYTE      P1MDOUT
      000000B8H   SFRSYM    DATA     BYTE      IEN1
      000000BDH   SFRSYM    DATA     BYTE      P2MDOUT
      000000F8H.0 SFRSYM    DATA     BIT       APP_DATA0
      0000009AH   SFRSYM    DATA     BYTE      IEN2
      000000BEH   SFRSYM    DATA     BYTE      P3MDOUT
      000000F8H.1 SFRSYM    DATA     BIT       APP_DATA1
      000000D1H   SFRSYM    DATA     BYTE      IEN3
      00000080H.0 SFRSYM    DATA     BIT       P0_0
      000000F8H.2 SFRSYM    DATA     BIT       APP_DATA2
      00000090H.0 SFRSYM    DATA     BIT       P1_0
      000000F8H.3 SFRSYM    DATA     BIT       APP_DATA3
      00000090H.1 SFRSYM    DATA     BIT       P1_1
      000000F8H.4 SFRSYM    DATA     BIT       APP_ACK
      000000F4H   SFRSYM    DATA     BYTE      ADR_INC
      000000B0H.1 SFRSYM    DATA     BIT       P3_1
      00000098H.4 SFRSYM    DATA     BIT       REN0
      000000B8H.1 SFRSYM    DATA     BIT       ECAN
      000000D0H.7 SFRSYM    DATA     BIT       CY
      000000B8H.3 SFRSYM    DATA     BIT       ES2R
      000000B8H.5 SFRSYM    DATA     BIT       ES3R
      000000B8H.2 SFRSYM    DATA     BIT       ES2T
      000000B8H.4 SFRSYM    DATA     BIT       ES3T
      000000C8H.7 SFRSYM    DATA     BIT       TSF2
      000000B0H.3 SFRSYM    DATA     BIT       RTC_SDA
      00000081H   SFRSYM    DATA     BYTE      SP
      000000D0H.2 SFRSYM    DATA     BIT       OV
      00000095H   SFRSYM    DATA     BYTE      D_PAGESEL
      00000090H.5 SFRSYM    DATA     BIT       UV
      000000F8H.7 SFRSYM    DATA     BIT       APP_REQ
      000000B0H.2 SFRSYM    DATA     BIT       RTC_SCL
      000000BFH   SFRSYM    DATA     BYTE      IRCON2
      000000BAH   SFRSYM    DATA     BYTE      SREL0H
      000000BBH   SFRSYM    DATA     BYTE      SREL1H
      00000087H   SFRSYM    DATA     BYTE      PCON
      000000AAH   SFRSYM    DATA     BYTE      SREL0L
      000000F9H   SFRSYM    DATA     BYTE      PORTDRV
      0000009DH   SFRSYM    DATA     BYTE      SREL1L
      00000089H   SFRSYM    DATA     BYTE      TMOD
      00000088H   SFRSYM    DATA     BYTE      TCON
      00000097H   SFRSYM    DATA     BYTE      SCON2R
      000000FFH   SFRSYM    DATA     BYTE      EXDATA
      000000ABH   SFRSYM    DATA     BYTE      SCON3R
      000000D9H   SFRSYM    DATA     BYTE      BODE2_DIV_H
      000000AEH   SFRSYM    DATA     BYTE      BODE3_DIV_H
      00000096H   SFRSYM    DATA     BYTE      SCON2T
LX51 LINKER/LOCATER V4.66.93.0                                                        04/30/2025  12:14:31  PAGE 77


      000000A7H   SFRSYM    DATA     BYTE      SCON3T
      000000E7H   SFRSYM    DATA     BYTE      BODE2_DIV_L
      00000088H.1 SFRSYM    DATA     BIT       IE0
      000000AFH   SFRSYM    DATA     BYTE      BODE3_DIV_L
      00000088H.3 SFRSYM    DATA     BIT       IE1
      000000C9H   SFRSYM    DATA     BYTE      MUX_SEL
      000000F0H   SFRSYM    DATA     BYTE      B
      000000E0H   SFRSYM    DATA     BYTE      ACC
      000000A8H.4 SFRSYM    DATA     BIT       ES0
      0000008FH   SFRSYM    DATA     BYTE      CAN_CR
      000000A8H.1 SFRSYM    DATA     BIT       ET0
      000000A9H   SFRSYM    DATA     BYTE      IP0
      000000A8H.3 SFRSYM    DATA     BIT       ET1
      00000088H.5 SFRSYM    DATA     BIT       TF0
      000000B9H   SFRSYM    DATA     BYTE      IP1
      000000A8H.5 SFRSYM    DATA     BIT       ET2
      00000098H.0 SFRSYM    DATA     BIT       RI0
      00000088H.7 SFRSYM    DATA     BIT       TF1
      000000FDH   SFRSYM    DATA     BYTE      DATA0
      000000C0H.6 SFRSYM    DATA     BIT       TF2
      000000E8H   SFRSYM    DATA     BYTE      CAN_ET
      000000FCH   SFRSYM    DATA     BYTE      DATA1
      0000008CH   SFRSYM    DATA     BYTE      TH0
      000000A8H.0 SFRSYM    DATA     BIT       EX0
      00000098H.1 SFRSYM    DATA     BIT       TI0
      00000088H.0 SFRSYM    DATA     BIT       IT0
      000000FBH   SFRSYM    DATA     BYTE      DATA2
      0000008DH   SFRSYM    DATA     BYTE      TH1
      000000A8H.2 SFRSYM    DATA     BIT       EX1
      00000091H   SFRSYM    DATA     BYTE      CAN_IR
      000000CDH   SFRSYM    DATA     BYTE      TH2
      00000088H.2 SFRSYM    DATA     BIT       IT1
      000000FAH   SFRSYM    DATA     BYTE      DATA3
      000000D0H.0 SFRSYM    DATA     BIT       P
      00000098H.7 SFRSYM    DATA     BIT       SM0
      0000008AH   SFRSYM    DATA     BYTE      TL0
      00000098H.6 SFRSYM    DATA     BIT       SM1
      0000008BH   SFRSYM    DATA     BYTE      TL1
      00000098H.5 SFRSYM    DATA     BIT       SM2
      000000CCH   SFRSYM    DATA     BYTE      TL2
      000000A0H.7 SFRSYM    DATA     BIT       UV_St
      000000D0H.3 SFRSYM    DATA     BIT       RS0
      000000F8H.6 SFRSYM    DATA     BIT       APP_EN
      000000D0H.4 SFRSYM    DATA     BIT       RS1
      00000088H.4 SFRSYM    DATA     BIT       TR0
      00000088H.6 SFRSYM    DATA     BIT       TR1
      00000093H   SFRSYM    DATA     BYTE      DPC
      000000C8H.0 SFRSYM    DATA     BIT       TR2
      000000E5H   SFRSYM    DATA     BYTE      MAC_MODE
      00000083H   SFRSYM    DATA     BYTE      DPH
      00000082H   SFRSYM    DATA     BYTE      DPL
      00000099H   SFRSYM    DATA     BYTE      SBUF0
      0000009CH   SFRSYM    DATA     BYTE      SBUF1
      00000098H   SFRSYM    DATA     BYTE      SCON0
      0000009BH   SFRSYM    DATA     BYTE      SCON1
      000000D8H   SFRSYM    DATA     BYTE      ADCON
      000000C8H   SFRSYM    DATA     BYTE      T2CON
      000000E6H   SFRSYM    DATA     BYTE      DIV_MODE
      000000F8H.5 SFRSYM    DATA     BIT       APP_RW
      000000CBH   SFRSYM    DATA     BYTE      TRL2H
      0000009FH   SFRSYM    DATA     BYTE      SBUF2_RX
      000000ADH   SFRSYM    DATA     BYTE      SBUF3_RX
      0000008EH   SFRSYM    DATA     BYTE      CKCON
      0000009EH   SFRSYM    DATA     BYTE      SBUF2_TX
      000000ACH   SFRSYM    DATA     BYTE      SBUF3_TX
LX51 LINKER/LOCATER V4.66.93.0                                                        04/30/2025  12:14:31  PAGE 78


      000000CAH   SFRSYM    DATA     BYTE      TRL2L
      000000D0H.5 SFRSYM    DATA     BIT       F0
      000000FEH   SFRSYM    DATA     BYTE      EXADR
      000000D0H.1 SFRSYM    DATA     BIT       F1
      000000A0H.3 SFRSYM    DATA     BIT       LED_B
      000000D0H   SFRSYM    DATA     BYTE      PSW
      000000A0H.1 SFRSYM    DATA     BIT       LED_G
      000000C0H   SFRSYM    DATA     BYTE      IRCON
      00000098H.2 SFRSYM    DATA     BIT       RB80

      ---         MODULE    ---      ---       SD
      00000098H.3 SFRSYM    DATA     BIT       TB80
      000000F1H   SFRSYM    DATA     BYTE      ADR_H
      00000080H   SFRSYM    DATA     BYTE      P0
      00000090H   SFRSYM    DATA     BYTE      P1
      000000A0H   SFRSYM    DATA     BYTE      P2
      000000B0H   SFRSYM    DATA     BYTE      P3
      000000D0H.6 SFRSYM    DATA     BIT       AC
      000000F3H   SFRSYM    DATA     BYTE      ADR_L
      00000094H   SFRSYM    DATA     BYTE      PAGESEL
      000000F2H   SFRSYM    DATA     BYTE      ADR_M
      000000A8H.7 SFRSYM    DATA     BIT       EA
      000000A0H.5 SFRSYM    DATA     BIT       JIGUANG
      00000090H.7 SFRSYM    DATA     BIT       LED_R
      000000F8H   SFRSYM    DATA     BYTE      RAMMODE
      000000B7H   SFRSYM    DATA     BYTE      P0MDOUT
      000000A8H   SFRSYM    DATA     BYTE      IEN0
      000000BCH   SFRSYM    DATA     BYTE      P1MDOUT
      000000B8H   SFRSYM    DATA     BYTE      IEN1
      000000BDH   SFRSYM    DATA     BYTE      P2MDOUT
      000000F8H.0 SFRSYM    DATA     BIT       APP_DATA0
      0000009AH   SFRSYM    DATA     BYTE      IEN2
      000000BEH   SFRSYM    DATA     BYTE      P3MDOUT
      000000F8H.1 SFRSYM    DATA     BIT       APP_DATA1
      000000D1H   SFRSYM    DATA     BYTE      IEN3
      00000080H.0 SFRSYM    DATA     BIT       P0_0
      000000F8H.2 SFRSYM    DATA     BIT       APP_DATA2
      00000090H.0 SFRSYM    DATA     BIT       P1_0
      000000F8H.3 SFRSYM    DATA     BIT       APP_DATA3
      00000090H.1 SFRSYM    DATA     BIT       P1_1
      000000F8H.4 SFRSYM    DATA     BIT       APP_ACK
      000000F4H   SFRSYM    DATA     BYTE      ADR_INC
      000000B0H.1 SFRSYM    DATA     BIT       P3_1
      00000098H.4 SFRSYM    DATA     BIT       REN0
      000000B8H.1 SFRSYM    DATA     BIT       ECAN
      000000D0H.7 SFRSYM    DATA     BIT       CY
      000000B8H.3 SFRSYM    DATA     BIT       ES2R
      000000B8H.5 SFRSYM    DATA     BIT       ES3R
      000000B8H.2 SFRSYM    DATA     BIT       ES2T
      000000B8H.4 SFRSYM    DATA     BIT       ES3T
      000000C8H.7 SFRSYM    DATA     BIT       TSF2
      000000B0H.3 SFRSYM    DATA     BIT       RTC_SDA
      00000081H   SFRSYM    DATA     BYTE      SP
      000000D0H.2 SFRSYM    DATA     BIT       OV
      00000095H   SFRSYM    DATA     BYTE      D_PAGESEL
      00000090H.5 SFRSYM    DATA     BIT       UV
      000000F8H.7 SFRSYM    DATA     BIT       APP_REQ
      000000B0H.2 SFRSYM    DATA     BIT       RTC_SCL
      000000BFH   SFRSYM    DATA     BYTE      IRCON2
      000000BAH   SFRSYM    DATA     BYTE      SREL0H
      000000BBH   SFRSYM    DATA     BYTE      SREL1H
      00000087H   SFRSYM    DATA     BYTE      PCON
      000000AAH   SFRSYM    DATA     BYTE      SREL0L
      000000F9H   SFRSYM    DATA     BYTE      PORTDRV
      0000009DH   SFRSYM    DATA     BYTE      SREL1L
LX51 LINKER/LOCATER V4.66.93.0                                                        04/30/2025  12:14:31  PAGE 79


      00000089H   SFRSYM    DATA     BYTE      TMOD
      00000088H   SFRSYM    DATA     BYTE      TCON
      00000097H   SFRSYM    DATA     BYTE      SCON2R
      000000FFH   SFRSYM    DATA     BYTE      EXDATA
      000000ABH   SFRSYM    DATA     BYTE      SCON3R
      000000D9H   SFRSYM    DATA     BYTE      BODE2_DIV_H
      000000AEH   SFRSYM    DATA     BYTE      BODE3_DIV_H
      00000096H   SFRSYM    DATA     BYTE      SCON2T
      000000A7H   SFRSYM    DATA     BYTE      SCON3T
      000000E7H   SFRSYM    DATA     BYTE      BODE2_DIV_L
      00000088H.1 SFRSYM    DATA     BIT       IE0
      000000AFH   SFRSYM    DATA     BYTE      BODE3_DIV_L
      00000088H.3 SFRSYM    DATA     BIT       IE1
      000000C9H   SFRSYM    DATA     BYTE      MUX_SEL
      000000F0H   SFRSYM    DATA     BYTE      B
      000000E0H   SFRSYM    DATA     BYTE      ACC
      000000A8H.4 SFRSYM    DATA     BIT       ES0
      0000008FH   SFRSYM    DATA     BYTE      CAN_CR
      000000A8H.1 SFRSYM    DATA     BIT       ET0
      000000A9H   SFRSYM    DATA     BYTE      IP0
      000000A8H.3 SFRSYM    DATA     BIT       ET1
      00000088H.5 SFRSYM    DATA     BIT       TF0
      000000B9H   SFRSYM    DATA     BYTE      IP1
      000000A8H.5 SFRSYM    DATA     BIT       ET2
      00000098H.0 SFRSYM    DATA     BIT       RI0
      00000088H.7 SFRSYM    DATA     BIT       TF1
      000000FDH   SFRSYM    DATA     BYTE      DATA0
      000000C0H.6 SFRSYM    DATA     BIT       TF2
      000000E8H   SFRSYM    DATA     BYTE      CAN_ET
      000000FCH   SFRSYM    DATA     BYTE      DATA1
      0000008CH   SFRSYM    DATA     BYTE      TH0
      000000A8H.0 SFRSYM    DATA     BIT       EX0
      00000098H.1 SFRSYM    DATA     BIT       TI0
      00000088H.0 SFRSYM    DATA     BIT       IT0
      000000FBH   SFRSYM    DATA     BYTE      DATA2
      0000008DH   SFRSYM    DATA     BYTE      TH1
      000000A8H.2 SFRSYM    DATA     BIT       EX1
      00000091H   SFRSYM    DATA     BYTE      CAN_IR
      000000CDH   SFRSYM    DATA     BYTE      TH2
      00000088H.2 SFRSYM    DATA     BIT       IT1
      000000FAH   SFRSYM    DATA     BYTE      DATA3
      000000D0H.0 SFRSYM    DATA     BIT       P
      00000098H.7 SFRSYM    DATA     BIT       SM0
      0000008AH   SFRSYM    DATA     BYTE      TL0
      00000098H.6 SFRSYM    DATA     BIT       SM1
      0000008BH   SFRSYM    DATA     BYTE      TL1
      00000098H.5 SFRSYM    DATA     BIT       SM2
      000000CCH   SFRSYM    DATA     BYTE      TL2
      000000A0H.7 SFRSYM    DATA     BIT       UV_St
      000000D0H.3 SFRSYM    DATA     BIT       RS0
      000000F8H.6 SFRSYM    DATA     BIT       APP_EN
      000000D0H.4 SFRSYM    DATA     BIT       RS1
      00000088H.4 SFRSYM    DATA     BIT       TR0
      00000088H.6 SFRSYM    DATA     BIT       TR1
      00000093H   SFRSYM    DATA     BYTE      DPC
      000000C8H.0 SFRSYM    DATA     BIT       TR2
      000000E5H   SFRSYM    DATA     BYTE      MAC_MODE
      00000083H   SFRSYM    DATA     BYTE      DPH
      00000082H   SFRSYM    DATA     BYTE      DPL
      00000099H   SFRSYM    DATA     BYTE      SBUF0
      0000009CH   SFRSYM    DATA     BYTE      SBUF1
      00000098H   SFRSYM    DATA     BYTE      SCON0
      0000009BH   SFRSYM    DATA     BYTE      SCON1
      000000D8H   SFRSYM    DATA     BYTE      ADCON
      000000C8H   SFRSYM    DATA     BYTE      T2CON
LX51 LINKER/LOCATER V4.66.93.0                                                        04/30/2025  12:14:31  PAGE 80


      000000E6H   SFRSYM    DATA     BYTE      DIV_MODE
      000000F8H.5 SFRSYM    DATA     BIT       APP_RW
      000000CBH   SFRSYM    DATA     BYTE      TRL2H
      0000009FH   SFRSYM    DATA     BYTE      SBUF2_RX
      000000ADH   SFRSYM    DATA     BYTE      SBUF3_RX
      0000008EH   SFRSYM    DATA     BYTE      CKCON
      0000009EH   SFRSYM    DATA     BYTE      SBUF2_TX
      000000ACH   SFRSYM    DATA     BYTE      SBUF3_TX
      000000CAH   SFRSYM    DATA     BYTE      TRL2L
      000000D0H.5 SFRSYM    DATA     BIT       F0
      000000FEH   SFRSYM    DATA     BYTE      EXADR
      000000D0H.1 SFRSYM    DATA     BIT       F1
      000000A0H.3 SFRSYM    DATA     BIT       LED_B
      000000D0H   SFRSYM    DATA     BYTE      PSW
      000000A0H.1 SFRSYM    DATA     BIT       LED_G
      000000C0H   SFRSYM    DATA     BYTE      IRCON
      00000098H.2 SFRSYM    DATA     BIT       RB80

      ---         MODULE    ---      ---       LJ
      00000098H.3 SFRSYM    DATA     BIT       TB80
      000000F1H   SFRSYM    DATA     BYTE      ADR_H
      00000080H   SFRSYM    DATA     BYTE      P0
      00000090H   SFRSYM    DATA     BYTE      P1
      000000A0H   SFRSYM    DATA     BYTE      P2
      000000B0H   SFRSYM    DATA     BYTE      P3
      000000D0H.6 SFRSYM    DATA     BIT       AC
      000000F3H   SFRSYM    DATA     BYTE      ADR_L
      00000094H   SFRSYM    DATA     BYTE      PAGESEL
      000000F2H   SFRSYM    DATA     BYTE      ADR_M
      000000A8H.7 SFRSYM    DATA     BIT       EA
      000000A0H.5 SFRSYM    DATA     BIT       JIGUANG
      00000090H.7 SFRSYM    DATA     BIT       LED_R
      000000F8H   SFRSYM    DATA     BYTE      RAMMODE
      000000B7H   SFRSYM    DATA     BYTE      P0MDOUT
      000000A8H   SFRSYM    DATA     BYTE      IEN0
      000000BCH   SFRSYM    DATA     BYTE      P1MDOUT
      000000B8H   SFRSYM    DATA     BYTE      IEN1
      000000BDH   SFRSYM    DATA     BYTE      P2MDOUT
      000000F8H.0 SFRSYM    DATA     BIT       APP_DATA0
      0000009AH   SFRSYM    DATA     BYTE      IEN2
      000000BEH   SFRSYM    DATA     BYTE      P3MDOUT
      000000F8H.1 SFRSYM    DATA     BIT       APP_DATA1
      000000D1H   SFRSYM    DATA     BYTE      IEN3
      00000080H.0 SFRSYM    DATA     BIT       P0_0
      000000F8H.2 SFRSYM    DATA     BIT       APP_DATA2
      00000090H.0 SFRSYM    DATA     BIT       P1_0
      000000F8H.3 SFRSYM    DATA     BIT       APP_DATA3
      00000090H.1 SFRSYM    DATA     BIT       P1_1
      000000F8H.4 SFRSYM    DATA     BIT       APP_ACK
      000000F4H   SFRSYM    DATA     BYTE      ADR_INC
      000000B0H.1 SFRSYM    DATA     BIT       P3_1
      00000098H.4 SFRSYM    DATA     BIT       REN0
      000000B8H.1 SFRSYM    DATA     BIT       ECAN
      000000D0H.7 SFRSYM    DATA     BIT       CY
      000000B8H.3 SFRSYM    DATA     BIT       ES2R
      000000B8H.5 SFRSYM    DATA     BIT       ES3R
      000000B8H.2 SFRSYM    DATA     BIT       ES2T
      000000B8H.4 SFRSYM    DATA     BIT       ES3T
      000000C8H.7 SFRSYM    DATA     BIT       TSF2
      000000B0H.3 SFRSYM    DATA     BIT       RTC_SDA
      00000081H   SFRSYM    DATA     BYTE      SP
      000000D0H.2 SFRSYM    DATA     BIT       OV
      00000095H   SFRSYM    DATA     BYTE      D_PAGESEL
      00000090H.5 SFRSYM    DATA     BIT       UV
      000000F8H.7 SFRSYM    DATA     BIT       APP_REQ
LX51 LINKER/LOCATER V4.66.93.0                                                        04/30/2025  12:14:31  PAGE 81


      000000B0H.2 SFRSYM    DATA     BIT       RTC_SCL
      000000BFH   SFRSYM    DATA     BYTE      IRCON2
      000000BAH   SFRSYM    DATA     BYTE      SREL0H
      000000BBH   SFRSYM    DATA     BYTE      SREL1H
      00000087H   SFRSYM    DATA     BYTE      PCON
      000000AAH   SFRSYM    DATA     BYTE      SREL0L
      000000F9H   SFRSYM    DATA     BYTE      PORTDRV
      0000009DH   SFRSYM    DATA     BYTE      SREL1L
      00000089H   SFRSYM    DATA     BYTE      TMOD
      00000088H   SFRSYM    DATA     BYTE      TCON
      00000097H   SFRSYM    DATA     BYTE      SCON2R
      000000FFH   SFRSYM    DATA     BYTE      EXDATA
      000000ABH   SFRSYM    DATA     BYTE      SCON3R
      000000D9H   SFRSYM    DATA     BYTE      BODE2_DIV_H
      000000AEH   SFRSYM    DATA     BYTE      BODE3_DIV_H
      00000096H   SFRSYM    DATA     BYTE      SCON2T
      000000A7H   SFRSYM    DATA     BYTE      SCON3T
      000000E7H   SFRSYM    DATA     BYTE      BODE2_DIV_L
      00000088H.1 SFRSYM    DATA     BIT       IE0
      000000AFH   SFRSYM    DATA     BYTE      BODE3_DIV_L
      00000088H.3 SFRSYM    DATA     BIT       IE1
      000000C9H   SFRSYM    DATA     BYTE      MUX_SEL
      000000F0H   SFRSYM    DATA     BYTE      B
      000000E0H   SFRSYM    DATA     BYTE      ACC
      000000A8H.4 SFRSYM    DATA     BIT       ES0
      0000008FH   SFRSYM    DATA     BYTE      CAN_CR
      000000A8H.1 SFRSYM    DATA     BIT       ET0
      000000A9H   SFRSYM    DATA     BYTE      IP0
      000000A8H.3 SFRSYM    DATA     BIT       ET1
      00000088H.5 SFRSYM    DATA     BIT       TF0
      000000B9H   SFRSYM    DATA     BYTE      IP1
      000000A8H.5 SFRSYM    DATA     BIT       ET2
      00000098H.0 SFRSYM    DATA     BIT       RI0
      00000088H.7 SFRSYM    DATA     BIT       TF1
      000000FDH   SFRSYM    DATA     BYTE      DATA0
      000000C0H.6 SFRSYM    DATA     BIT       TF2
      000000E8H   SFRSYM    DATA     BYTE      CAN_ET
      000000FCH   SFRSYM    DATA     BYTE      DATA1
      0000008CH   SFRSYM    DATA     BYTE      TH0
      000000A8H.0 SFRSYM    DATA     BIT       EX0
      00000098H.1 SFRSYM    DATA     BIT       TI0
      00000088H.0 SFRSYM    DATA     BIT       IT0
      000000FBH   SFRSYM    DATA     BYTE      DATA2
      0000008DH   SFRSYM    DATA     BYTE      TH1
      000000A8H.2 SFRSYM    DATA     BIT       EX1
      00000091H   SFRSYM    DATA     BYTE      CAN_IR
      000000CDH   SFRSYM    DATA     BYTE      TH2
      00000088H.2 SFRSYM    DATA     BIT       IT1
      000000FAH   SFRSYM    DATA     BYTE      DATA3
      000000D0H.0 SFRSYM    DATA     BIT       P
      00000098H.7 SFRSYM    DATA     BIT       SM0
      0000008AH   SFRSYM    DATA     BYTE      TL0
      00000098H.6 SFRSYM    DATA     BIT       SM1
      0000008BH   SFRSYM    DATA     BYTE      TL1
      00000098H.5 SFRSYM    DATA     BIT       SM2
      000000CCH   SFRSYM    DATA     BYTE      TL2
      000000A0H.7 SFRSYM    DATA     BIT       UV_St
      000000D0H.3 SFRSYM    DATA     BIT       RS0
      000000F8H.6 SFRSYM    DATA     BIT       APP_EN
      000000D0H.4 SFRSYM    DATA     BIT       RS1
      00000088H.4 SFRSYM    DATA     BIT       TR0
      00000088H.6 SFRSYM    DATA     BIT       TR1
      00000093H   SFRSYM    DATA     BYTE      DPC
      000000C8H.0 SFRSYM    DATA     BIT       TR2
      000000E5H   SFRSYM    DATA     BYTE      MAC_MODE
LX51 LINKER/LOCATER V4.66.93.0                                                        04/30/2025  12:14:31  PAGE 82


      00000083H   SFRSYM    DATA     BYTE      DPH
      00000082H   SFRSYM    DATA     BYTE      DPL
      00000099H   SFRSYM    DATA     BYTE      SBUF0
      0000009CH   SFRSYM    DATA     BYTE      SBUF1
      00000098H   SFRSYM    DATA     BYTE      SCON0
      0000009BH   SFRSYM    DATA     BYTE      SCON1
      000000D8H   SFRSYM    DATA     BYTE      ADCON
      000000C8H   SFRSYM    DATA     BYTE      T2CON
      000000E6H   SFRSYM    DATA     BYTE      DIV_MODE
      000000F8H.5 SFRSYM    DATA     BIT       APP_RW
      000000CBH   SFRSYM    DATA     BYTE      TRL2H
      0000009FH   SFRSYM    DATA     BYTE      SBUF2_RX
      000000ADH   SFRSYM    DATA     BYTE      SBUF3_RX
      0000008EH   SFRSYM    DATA     BYTE      CKCON
      0000009EH   SFRSYM    DATA     BYTE      SBUF2_TX
      000000ACH   SFRSYM    DATA     BYTE      SBUF3_TX
      000000CAH   SFRSYM    DATA     BYTE      TRL2L
      000000D0H.5 SFRSYM    DATA     BIT       F0
      000000FEH   SFRSYM    DATA     BYTE      EXADR
      000000D0H.1 SFRSYM    DATA     BIT       F1
      000000A0H.3 SFRSYM    DATA     BIT       LED_B
      000000D0H   SFRSYM    DATA     BYTE      PSW
      000000A0H.1 SFRSYM    DATA     BIT       LED_G
      000000C0H   SFRSYM    DATA     BYTE      IRCON
      00000098H.2 SFRSYM    DATA     BIT       RB80

      ---         MODULE    ---      ---       SZ
      00000098H.3 SFRSYM    DATA     BIT       TB80
      000000F1H   SFRSYM    DATA     BYTE      ADR_H
      00000080H   SFRSYM    DATA     BYTE      P0
      00000090H   SFRSYM    DATA     BYTE      P1
      000000A0H   SFRSYM    DATA     BYTE      P2
      000000B0H   SFRSYM    DATA     BYTE      P3
      000000D0H.6 SFRSYM    DATA     BIT       AC
      000000F3H   SFRSYM    DATA     BYTE      ADR_L
      00000094H   SFRSYM    DATA     BYTE      PAGESEL
      000000F2H   SFRSYM    DATA     BYTE      ADR_M
      000000A8H.7 SFRSYM    DATA     BIT       EA
      000000A0H.5 SFRSYM    DATA     BIT       JIGUANG
      00000090H.7 SFRSYM    DATA     BIT       LED_R
      000000F8H   SFRSYM    DATA     BYTE      RAMMODE
      000000B7H   SFRSYM    DATA     BYTE      P0MDOUT
      000000A8H   SFRSYM    DATA     BYTE      IEN0
      000000BCH   SFRSYM    DATA     BYTE      P1MDOUT
      000000B8H   SFRSYM    DATA     BYTE      IEN1
      000000BDH   SFRSYM    DATA     BYTE      P2MDOUT
      000000F8H.0 SFRSYM    DATA     BIT       APP_DATA0
      0000009AH   SFRSYM    DATA     BYTE      IEN2
      000000BEH   SFRSYM    DATA     BYTE      P3MDOUT
      000000F8H.1 SFRSYM    DATA     BIT       APP_DATA1
      000000D1H   SFRSYM    DATA     BYTE      IEN3
      00000080H.0 SFRSYM    DATA     BIT       P0_0
      000000F8H.2 SFRSYM    DATA     BIT       APP_DATA2
      00000090H.0 SFRSYM    DATA     BIT       P1_0
      000000F8H.3 SFRSYM    DATA     BIT       APP_DATA3
      00000090H.1 SFRSYM    DATA     BIT       P1_1
      000000F8H.4 SFRSYM    DATA     BIT       APP_ACK
      000000F4H   SFRSYM    DATA     BYTE      ADR_INC
      000000B0H.1 SFRSYM    DATA     BIT       P3_1
      00000098H.4 SFRSYM    DATA     BIT       REN0
      000000B8H.1 SFRSYM    DATA     BIT       ECAN
      000000D0H.7 SFRSYM    DATA     BIT       CY
      000000B8H.3 SFRSYM    DATA     BIT       ES2R
      000000B8H.5 SFRSYM    DATA     BIT       ES3R
      000000B8H.2 SFRSYM    DATA     BIT       ES2T
LX51 LINKER/LOCATER V4.66.93.0                                                        04/30/2025  12:14:31  PAGE 83


      000000B8H.4 SFRSYM    DATA     BIT       ES3T
      000000C8H.7 SFRSYM    DATA     BIT       TSF2
      000000B0H.3 SFRSYM    DATA     BIT       RTC_SDA
      00000081H   SFRSYM    DATA     BYTE      SP
      000000D0H.2 SFRSYM    DATA     BIT       OV
      00000095H   SFRSYM    DATA     BYTE      D_PAGESEL
      00000090H.5 SFRSYM    DATA     BIT       UV
      000000F8H.7 SFRSYM    DATA     BIT       APP_REQ
      000000B0H.2 SFRSYM    DATA     BIT       RTC_SCL
      000000BFH   SFRSYM    DATA     BYTE      IRCON2
      000000BAH   SFRSYM    DATA     BYTE      SREL0H
      000000BBH   SFRSYM    DATA     BYTE      SREL1H
      00000087H   SFRSYM    DATA     BYTE      PCON
      000000AAH   SFRSYM    DATA     BYTE      SREL0L
      000000F9H   SFRSYM    DATA     BYTE      PORTDRV
      0000009DH   SFRSYM    DATA     BYTE      SREL1L
      00000089H   SFRSYM    DATA     BYTE      TMOD
      00000088H   SFRSYM    DATA     BYTE      TCON
      00000097H   SFRSYM    DATA     BYTE      SCON2R
      000000FFH   SFRSYM    DATA     BYTE      EXDATA
      000000ABH   SFRSYM    DATA     BYTE      SCON3R
      000000D9H   SFRSYM    DATA     BYTE      BODE2_DIV_H
      000000AEH   SFRSYM    DATA     BYTE      BODE3_DIV_H
      00000096H   SFRSYM    DATA     BYTE      SCON2T
      000000A7H   SFRSYM    DATA     BYTE      SCON3T
      000000E7H   SFRSYM    DATA     BYTE      BODE2_DIV_L
      00000088H.1 SFRSYM    DATA     BIT       IE0
      000000AFH   SFRSYM    DATA     BYTE      BODE3_DIV_L
      00000088H.3 SFRSYM    DATA     BIT       IE1
      000000C9H   SFRSYM    DATA     BYTE      MUX_SEL
      000000F0H   SFRSYM    DATA     BYTE      B
      000000E0H   SFRSYM    DATA     BYTE      ACC
      000000A8H.4 SFRSYM    DATA     BIT       ES0
      0000008FH   SFRSYM    DATA     BYTE      CAN_CR
      000000A8H.1 SFRSYM    DATA     BIT       ET0
      000000A9H   SFRSYM    DATA     BYTE      IP0
      000000A8H.3 SFRSYM    DATA     BIT       ET1
      00000088H.5 SFRSYM    DATA     BIT       TF0
      000000B9H   SFRSYM    DATA     BYTE      IP1
      000000A8H.5 SFRSYM    DATA     BIT       ET2
      00000098H.0 SFRSYM    DATA     BIT       RI0
      00000088H.7 SFRSYM    DATA     BIT       TF1
      000000FDH   SFRSYM    DATA     BYTE      DATA0
      000000C0H.6 SFRSYM    DATA     BIT       TF2
      000000E8H   SFRSYM    DATA     BYTE      CAN_ET
      000000FCH   SFRSYM    DATA     BYTE      DATA1
      0000008CH   SFRSYM    DATA     BYTE      TH0
      000000A8H.0 SFRSYM    DATA     BIT       EX0
      00000098H.1 SFRSYM    DATA     BIT       TI0
      00000088H.0 SFRSYM    DATA     BIT       IT0
      000000FBH   SFRSYM    DATA     BYTE      DATA2
      0000008DH   SFRSYM    DATA     BYTE      TH1
      000000A8H.2 SFRSYM    DATA     BIT       EX1
      00000091H   SFRSYM    DATA     BYTE      CAN_IR
      000000CDH   SFRSYM    DATA     BYTE      TH2
      00000088H.2 SFRSYM    DATA     BIT       IT1
      000000FAH   SFRSYM    DATA     BYTE      DATA3
      000000D0H.0 SFRSYM    DATA     BIT       P
      00000098H.7 SFRSYM    DATA     BIT       SM0
      0000008AH   SFRSYM    DATA     BYTE      TL0
      00000098H.6 SFRSYM    DATA     BIT       SM1
      0000008BH   SFRSYM    DATA     BYTE      TL1
      00000098H.5 SFRSYM    DATA     BIT       SM2
      000000CCH   SFRSYM    DATA     BYTE      TL2
      000000A0H.7 SFRSYM    DATA     BIT       UV_St
LX51 LINKER/LOCATER V4.66.93.0                                                        04/30/2025  12:14:31  PAGE 84


      000000D0H.3 SFRSYM    DATA     BIT       RS0
      000000F8H.6 SFRSYM    DATA     BIT       APP_EN
      000000D0H.4 SFRSYM    DATA     BIT       RS1
      00000088H.4 SFRSYM    DATA     BIT       TR0
      00000088H.6 SFRSYM    DATA     BIT       TR1
      00000093H   SFRSYM    DATA     BYTE      DPC
      000000C8H.0 SFRSYM    DATA     BIT       TR2
      000000E5H   SFRSYM    DATA     BYTE      MAC_MODE
      00000083H   SFRSYM    DATA     BYTE      DPH
      00000082H   SFRSYM    DATA     BYTE      DPL
      00000099H   SFRSYM    DATA     BYTE      SBUF0
      0000009CH   SFRSYM    DATA     BYTE      SBUF1
      00000098H   SFRSYM    DATA     BYTE      SCON0
      0000009BH   SFRSYM    DATA     BYTE      SCON1
      000000D8H   SFRSYM    DATA     BYTE      ADCON
      000000C8H   SFRSYM    DATA     BYTE      T2CON
      000000E6H   SFRSYM    DATA     BYTE      DIV_MODE
      000000F8H.5 SFRSYM    DATA     BIT       APP_RW
      000000CBH   SFRSYM    DATA     BYTE      TRL2H
      0000009FH   SFRSYM    DATA     BYTE      SBUF2_RX
      000000ADH   SFRSYM    DATA     BYTE      SBUF3_RX
      0000008EH   SFRSYM    DATA     BYTE      CKCON
      0000009EH   SFRSYM    DATA     BYTE      SBUF2_TX
      000000ACH   SFRSYM    DATA     BYTE      SBUF3_TX
      000000CAH   SFRSYM    DATA     BYTE      TRL2L
      000000D0H.5 SFRSYM    DATA     BIT       F0
      000000FEH   SFRSYM    DATA     BYTE      EXADR
      000000D0H.1 SFRSYM    DATA     BIT       F1
      000000A0H.3 SFRSYM    DATA     BIT       LED_B
      000000D0H   SFRSYM    DATA     BYTE      PSW
      000000A0H.1 SFRSYM    DATA     BIT       LED_G
      000000C0H   SFRSYM    DATA     BYTE      IRCON
      00000098H.2 SFRSYM    DATA     BIT       RB80

      ---         MODULE    ---      ---       ?C?FPADD
      01000107H   PUBLIC    CODE     ---       ?C?FPADD
      01000103H   PUBLIC    CODE     ---       ?C?FPSUB

      ---         MODULE    ---      ---       ?C?FPMUL
      010001F8H   PUBLIC    CODE     ---       ?C?FPMUL

      ---         MODULE    ---      ---       ?C?FPDIV
      01000301H   PUBLIC    CODE     ---       ?C?FPDIV

      ---         MODULE    ---      ---       ?C?FPCMP
      010003A0H   PUBLIC    CODE     ---       ?C?FPCMP
      0100039EH   PUBLIC    CODE     ---       ?C?FPCMP3

      ---         MODULE    ---      ---       ?C?FCAST
      01000421H   PUBLIC    CODE     ---       ?C?FCASTC
      0100041CH   PUBLIC    CODE     ---       ?C?FCASTI
      01000417H   PUBLIC    CODE     ---       ?C?FCASTL

      ---         MODULE    ---      ---       ?C?CASTF
      01000455H   PUBLIC    CODE     ---       ?C?CASTF

      ---         MODULE    ---      ---       POW
      0200A48AH   PUBLIC    XDATA    ---       ?_POW?BYTE
      01002053H   PUBLIC    CODE     ---       _POW

      ---         MODULE    ---      ---       ?C?FPGETOPN
      0100048CH   PUBLIC    CODE     ---       ?C?FPGETOPN2
      010004C1H   PUBLIC    CODE     ---       ?C?FPNANRESULT
      010004CBH   PUBLIC    CODE     ---       ?C?FPOVERFLOW
      010004A3H   PUBLIC    CODE     ---       ?C?FPRESULT
LX51 LINKER/LOCATER V4.66.93.0                                                        04/30/2025  12:14:31  PAGE 85


      010004B7H   PUBLIC    CODE     ---       ?C?FPRESULT2
      010004C8H   PUBLIC    CODE     ---       ?C?FPUNDERFLOW

      ---         MODULE    ---      ---       ?C?CHKFLOAT
      010004D6H   PUBLIC    CODE     ---       ?C?CHKFLOAT

      ---         MODULE    ---      ---       ?C?FPNEG
      010004F0H   PUBLIC    CODE     ---       ?C?FPNEG

      ---         MODULE    ---      ---       EXP
      01002B67H   PUBLIC    CODE     ---       _EXP

      ---         MODULE    ---      ---       LOG
      0100247DH   PUBLIC    CODE     ---       _LOG
      01002479H   PUBLIC    CODE     ---       _LOG10

      ---         MODULE    ---      ---       ?C?FPSERIES
      01000501H   PUBLIC    CODE     ---       ?C?FP2SERIES
      01000510H   PUBLIC    CODE     ---       ?C?FPSERIES

      ---         MODULE    ---      ---       ?C_INIT
      01002AEAH   PUBLIC    CODE     ---       ?C_START

      ---         MODULE    ---      ---       ?C?COPY
      0100061EH   PUBLIC    CODE     ---       ?C?COPY

      ---         MODULE    ---      ---       ?C?CLDPTR
      01000644H   PUBLIC    CODE     ---       ?C?CLDPTR

      ---         MODULE    ---      ---       ?C?CLDOPTR
      0100065DH   PUBLIC    CODE     ---       ?C?CLDOPTR

      ---         MODULE    ---      ---       ?C?CSTPTR
      0100068AH   PUBLIC    CODE     ---       ?C?CSTPTR

      ---         MODULE    ---      ---       ?C?CSTOPTR
      0100069CH   PUBLIC    CODE     ---       ?C?CSTOPTR

      ---         MODULE    ---      ---       ?C?IMUL
      010006BEH   PUBLIC    CODE     ---       ?C?IMUL

      ---         MODULE    ---      ---       ?C?UIDIV
      010006D0H   PUBLIC    CODE     ---       ?C?UIDIV

      ---         MODULE    ---      ---       ?C?SIDIV
      01000725H   PUBLIC    CODE     ---       ?C?SIDIV

      ---         MODULE    ---      ---       ?C?IILDX
      0100075BH   PUBLIC    CODE     ---       ?C?IILDX

      ---         MODULE    ---      ---       ?C?ILDIX
      01000771H   PUBLIC    CODE     ---       ?C?ILDIX

      ---         MODULE    ---      ---       ?C?ISTPTR
      01000787H   PUBLIC    CODE     ---       ?C?ISTPTR

      ---         MODULE    ---      ---       ?C?ULDIV
      010007E2H   PUBLIC    CODE     ---       ?C?ULDIV

      ---         MODULE    ---      ---       ?C?LNEG
      01000874H   PUBLIC    CODE     ---       ?C?LNEG

      ---         MODULE    ---      ---       ?C?ULCMP
      01000882H   PUBLIC    CODE     ---       ?C?ULCMP

LX51 LINKER/LOCATER V4.66.93.0                                                        04/30/2025  12:14:31  PAGE 86


      ---         MODULE    ---      ---       ?C?LSHL
      01000893H   PUBLIC    CODE     ---       ?C?LSHL

      ---         MODULE    ---      ---       ?C?LLDCODE
      010008A6H   PUBLIC    CODE     ---       ?C?LLDCODE

      ---         MODULE    ---      ---       ?C?LLDXDATA0
      010008B6H   PUBLIC    CODE     ---       ?C?LLDXDATA0

      ---         MODULE    ---      ---       ?C?LLDCODE0
      010008C2H   PUBLIC    CODE     ---       ?C?LLDCODE0

      ---         MODULE    ---      ---       ?C?LSTXDATA
      010008D2H   PUBLIC    CODE     ---       ?C?LSTXDATA

      ---         MODULE    ---      ---       ?C?LSTKXDATA
      010008DEH   PUBLIC    CODE     ---       ?C?LSTKXDATA

      ---         MODULE    ---      ---       ?C?MEMSET
      0100090FH   PUBLIC    CODE     ---       ?C?MEMSET



*** WARNING L48: IGNORED RECURSIVE CALL
    CALLED:  _RX8130_WRIT_BYTE/I2C
    CALLER:  RX8130_STOP/I2C

*** WARNING L57: UNCALLED FUNCTION, IGNORED FOR OVERLAY PROCESS
    NAME:    UART3INIT/UART

*** WARNING L57: UNCALLED FUNCTION, IGNORED FOR OVERLAY PROCESS
    NAME:    _UART3SENDSTR/UART

*** WARNING L57: UNCALLED FUNCTION, IGNORED FOR OVERLAY PROCESS
    NAME:    _UART5SENDSTR/UART

*** WARNING L57: UNCALLED FUNCTION, IGNORED FOR OVERLAY PROCESS
    NAME:    _SETBLIGHT/HANDLE

*** WARNING L57: UNCALLED FUNCTION, IGNORED FOR OVERLAY PROCESS
    NAME:    _SETVOICE/HANDLE

*** WARNING L57: UNCALLED FUNCTION, IGNORED FOR OVERLAY PROCESS
    NAME:    INITUARTSEND/HANDLE

*** WARNING L57: UNCALLED FUNCTION, IGNORED FOR OVERLAY PROCESS
    NAME:    _JUMPPAGE/HANDLE

*** WARNING L57: UNCALLED FUNCTION, IGNORED FOR OVERLAY PROCESS
    NAME:    LOCK_CURRENT_PAGE/HOME

*** WARNING L57: UNCALLED FUNCTION, IGNORED FOR OVERLAY PROCESS
    NAME:    QRJ_INIT/QRJ

Program Size: data=9.1 xdata=9472 const=128 code=13687
LX51 RUN COMPLETE.  10 WARNING(S),  0 ERROR(S)
