LX51 LINKER/LOCATER V4.66.93.0                                                          04/30/2025  17:32:03  PAGE 1


LX51 LINKER/LOCATER V4.66.93.0, INVOKED BY:
D:\KEIL\KEIL_C51\C51\BIN\LX51.EXE .\Objects\STARTUP_M5.obj, .\Objects\main.obj, .\Objects\sys.obj, .\Objects\dgus.obj, .
>> \Objects\uart.obj, .\Objects\norflash.obj, .\Objects\timer.obj, .\Objects\handle.obj, .\Objects\crc16.obj, .\Objects\
>> i2c.obj, .\Objects\tof.obj, .\Objects\start_win.obj, .\Objects\home.obj, .\Objects\qrj.obj, .\Objects\zx.obj, .\Objec
>> ts\qy.obj, .\Objects\cxh.obj, .\Objects\zl.obj, .\Objects\sd.obj, .\Objects\lj.obj, .\Objects\sz.obj TO .\Objects\T5L
>> 51 PRINT (.\Listings\T5L51.map) CLASSES (XDATA (X:0X8000-X:0XFFFF), HDATA (X:0X8000-X:0XFFFF))




PROGRAM RECURSIONS REMOVED FROM CALL TREE
=========================================
+--> _RX8130_WRIT_BYTE/I2C
<--+ RX8130_STOP/I2C



CPU MODE:     8051 MODE
MEMORY MODEL: LARGE WITH FLOATING POINT ARITHMETIC


INPUT MODULES INCLUDED:
  .\Objects\STARTUP_M5.obj (?C_STARTUP)
         COMMENT TYPE 1: A51 / ASM51 Assembler
  .\Objects\main.obj (MAIN)
         COMMENT TYPE 0: C51 V9.59.0.0
  .\Objects\sys.obj (SYS)
         COMMENT TYPE 0: C51 V9.59.0.0
  .\Objects\dgus.obj (DGUS)
         COMMENT TYPE 0: C51 V9.59.0.0
  .\Objects\uart.obj (UART)
         COMMENT TYPE 0: C51 V9.59.0.0
  .\Objects\norflash.obj (NORFLASH)
         COMMENT TYPE 0: C51 V9.59.0.0
  .\Objects\timer.obj (TIMER)
         COMMENT TYPE 0: C51 V9.59.0.0
  .\Objects\handle.obj (HANDLE)
         COMMENT TYPE 0: C51 V9.59.0.0
  .\Objects\crc16.obj (CRC16)
         COMMENT TYPE 0: C51 V9.59.0.0
  .\Objects\i2c.obj (I2C)
         COMMENT TYPE 0: C51 V9.59.0.0
  .\Objects\tof.obj (TOF)
         COMMENT TYPE 0: C51 V9.59.0.0
  .\Objects\start_win.obj (START_WIN)
         COMMENT TYPE 0: C51 V9.59.0.0
  .\Objects\home.obj (HOME)
         COMMENT TYPE 0: C51 V9.59.0.0
  .\Objects\qrj.obj (QRJ)
         COMMENT TYPE 0: C51 V9.59.0.0
  .\Objects\zx.obj (ZX)
         COMMENT TYPE 0: C51 V9.59.0.0
  .\Objects\qy.obj (QY)
         COMMENT TYPE 0: C51 V9.59.0.0
  .\Objects\cxh.obj (CXH)
         COMMENT TYPE 0: C51 V9.59.0.0
  .\Objects\zl.obj (ZL)
         COMMENT TYPE 0: C51 V9.59.0.0
  .\Objects\sd.obj (SD)
         COMMENT TYPE 0: C51 V9.59.0.0
  .\Objects\lj.obj (LJ)
         COMMENT TYPE 0: C51 V9.59.0.0
  .\Objects\sz.obj (SZ)
         COMMENT TYPE 0: C51 V9.59.0.0
  D:\KEIL\KEIL_C51\C51\LIB\C51FPL.LIB (?C?FPADD)
         COMMENT TYPE 1: A51 / ASM51 Assembler
LX51 LINKER/LOCATER V4.66.93.0                                                        04/30/2025  17:32:03  PAGE 2


  D:\KEIL\KEIL_C51\C51\LIB\C51FPL.LIB (?C?FPMUL)
         COMMENT TYPE 1: A51 / ASM51 Assembler
  D:\KEIL\KEIL_C51\C51\LIB\C51FPL.LIB (?C?FPDIV)
         COMMENT TYPE 1: A51 / ASM51 Assembler
  D:\KEIL\KEIL_C51\C51\LIB\C51FPL.LIB (?C?FPCMP)
         COMMENT TYPE 1: A51 / ASM51 Assembler
  D:\KEIL\KEIL_C51\C51\LIB\C51FPL.LIB (?C?FCAST)
         COMMENT TYPE 1: A51 / ASM51 Assembler
  D:\KEIL\KEIL_C51\C51\LIB\C51FPL.LIB (?C?CASTF)
         COMMENT TYPE 1: A51 / ASM51 Assembler
  D:\KEIL\KEIL_C51\C51\LIB\C51FPL.LIB (POW)
         COMMENT TYPE 1: C51 Compiler
  D:\KEIL\KEIL_C51\C51\LIB\C51FPL.LIB (?C?FPGETOPN)
         COMMENT TYPE 1: A51 / ASM51 Assembler
  D:\KEIL\KEIL_C51\C51\LIB\C51FPL.LIB (?C?CHKFLOAT)
         COMMENT TYPE 1: A51 / ASM51 Assembler
  D:\KEIL\KEIL_C51\C51\LIB\C51FPL.LIB (?C?FPNEG)
         COMMENT TYPE 1: A51 / ASM51 Assembler
  D:\KEIL\KEIL_C51\C51\LIB\C51FPL.LIB (EXP)
         COMMENT TYPE 1: A51 / ASM51 Assembler
  D:\KEIL\KEIL_C51\C51\LIB\C51FPL.LIB (LOG)
         COMMENT TYPE 1: A51 / ASM51 Assembler
  D:\KEIL\KEIL_C51\C51\LIB\C51FPL.LIB (?C?FPSERIES)
         COMMENT TYPE 1: A51 / ASM51 Assembler
  D:\KEIL\KEIL_C51\C51\LIB\C51L.LIB (?C_INIT)
         COMMENT TYPE 1: A51 / ASM51 Assembler
  D:\KEIL\KEIL_C51\C51\LIB\C51L.LIB (?C?COPY)
         COMMENT TYPE 1: A51 / ASM51 Assembler
  D:\KEIL\KEIL_C51\C51\LIB\C51L.LIB (?C?CLDPTR)
         COMMENT TYPE 1: A51 / ASM51 Assembler
  D:\KEIL\KEIL_C51\C51\LIB\C51L.LIB (?C?CLDOPTR)
         COMMENT TYPE 1: A51 / ASM51 Assembler
  D:\KEIL\KEIL_C51\C51\LIB\C51L.LIB (?C?CSTPTR)
         COMMENT TYPE 1: A51 / ASM51 Assembler
  D:\KEIL\KEIL_C51\C51\LIB\C51L.LIB (?C?CSTOPTR)
         COMMENT TYPE 1: A51 / ASM51 Assembler
  D:\KEIL\KEIL_C51\C51\LIB\C51L.LIB (?C?IMUL)
         COMMENT TYPE 1: A51 / ASM51 Assembler
  D:\KEIL\KEIL_C51\C51\LIB\C51L.LIB (?C?UIDIV)
         COMMENT TYPE 1: A51 / ASM51 Assembler
  D:\KEIL\KEIL_C51\C51\LIB\C51L.LIB (?C?SIDIV)
         COMMENT TYPE 1: A51 / ASM51 Assembler
  D:\KEIL\KEIL_C51\C51\LIB\C51L.LIB (?C?IILDX)
         COMMENT TYPE 1: A51 / ASM51 Assembler
  D:\KEIL\KEIL_C51\C51\LIB\C51L.LIB (?C?ILDIX)
         COMMENT TYPE 1: A51 / ASM51 Assembler
  D:\KEIL\KEIL_C51\C51\LIB\C51L.LIB (?C?ISTPTR)
         COMMENT TYPE 1: A51 / ASM51 Assembler
  D:\KEIL\KEIL_C51\C51\LIB\C51L.LIB (?C?ULDIV)
         COMMENT TYPE 1: A51 / ASM51 Assembler
  D:\KEIL\KEIL_C51\C51\LIB\C51L.LIB (?C?LNEG)
         COMMENT TYPE 1: A51 / ASM51 Assembler
  D:\KEIL\KEIL_C51\C51\LIB\C51L.LIB (?C?ULCMP)
         COMMENT TYPE 1: A51 / ASM51 Assembler
  D:\KEIL\KEIL_C51\C51\LIB\C51L.LIB (?C?LSHL)
         COMMENT TYPE 1: A51 / ASM51 Assembler
  D:\KEIL\KEIL_C51\C51\LIB\C51L.LIB (?C?LLDCODE)
         COMMENT TYPE 1: A51 / ASM51 Assembler
  D:\KEIL\KEIL_C51\C51\LIB\C51L.LIB (?C?LLDXDATA0)
         COMMENT TYPE 1: A51 / ASM51 Assembler
  D:\KEIL\KEIL_C51\C51\LIB\C51L.LIB (?C?LLDCODE0)
         COMMENT TYPE 1: A51 / ASM51 Assembler
  D:\KEIL\KEIL_C51\C51\LIB\C51L.LIB (?C?LSTXDATA)
         COMMENT TYPE 1: A51 / ASM51 Assembler
  D:\KEIL\KEIL_C51\C51\LIB\C51L.LIB (?C?LSTKXDATA)
LX51 LINKER/LOCATER V4.66.93.0                                                        04/30/2025  17:32:03  PAGE 3


         COMMENT TYPE 1: A51 / ASM51 Assembler
  D:\KEIL\KEIL_C51\C51\LIB\C51L.LIB (?C?ICALL)
         COMMENT TYPE 1: A51 / ASM51 Assembler
  D:\KEIL\KEIL_C51\C51\LIB\C51L.LIB (?C?MEMSET)
         COMMENT TYPE 1: A51 / ASM51 Assembler


ACTIVE MEMORY CLASSES OF MODULE:  .\Objects\T5L51 (?C_STARTUP)

BASE        START       END         USED      MEMORY CLASS
==========================================================
X:000000H   X:008000H   X:00FFFFH   002523H   XDATA
X:000000H   X:008000H   X:00FFFFH             HDATA
C:000000H   C:000000H   C:00FFFFH   0035FFH   CODE
I:000000H   I:000000H   I:0000FFH   000001H   IDATA
C:000000H   C:000000H   C:00FFFFH   000080H   CONST
I:000020H.0 I:000020H.0 I:00002FH.7 000000H.1 BIT
I:000000H   I:000000H   I:00007FH   000008H   DATA


MEMORY MAP OF MODULE:  .\Objects\T5L51 (?C_STARTUP)


START     STOP      LENGTH    ALIGN  RELOC    MEMORY CLASS   SEGMENT NAME
=========================================================================

* * * * * * * * * * *   D A T A   M E M O R Y   * * * * * * * * * * * * *
000000H   000007H   000008H   ---    AT..     DATA           "REG BANK 0"
000008H.0 00001FH.7 000018H.0 ---    ---      **GAP**
000020H.0 000020H.0 000000H.1 BIT    UNIT     BIT            _BIT_GROUP_
000020H.1 000020H   000000H.7 ---    ---      **GAP**
000021H   000021H   000001H   BYTE   UNIT     IDATA          ?STACK

* * * * * * * * * * *   C O D E   M E M O R Y   * * * * * * * * * * * * *
000000H   000002H   000003H   ---    OFFS..   CODE           ?CO??C_STARTUP?0
000003H   000005H   000003H   BYTE   OFFS..   CODE           ?SYS?00003
000006H   00000AH   000005H   BYTE   UNIT     CODE           ?PR?EX0_ISR_PC?SYS
00000BH   00000DH   000003H   BYTE   OFFS..   CODE           ?TIMER?0000B
00000EH   000012H   000005H   BYTE   UNIT     CODE           ?PR?EX1_ISR_PC?SYS
000013H   000015H   000003H   BYTE   OFFS..   CODE           ?SYS?00013
000016H   000022H   00000DH   BYTE   UNIT     CODE           ?PR?RX8130_MACK?I2C
000023H   000025H   000003H   BYTE   OFFS..   CODE           ?UART?00023
000026H   000029H   000004H   BYTE   UNIT     CODE           ?PR?SDA_IN?I2C
00002AH   00002AH   000001H   BYTE   UNIT     CODE           ?PR?UART5_TX_ISR_PC?UART
00002BH   00002DH   000003H   BYTE   OFFS..   CODE           ?TIMER?0002B
00002EH   000060H   000033H   BYTE   UNIT     CODE           ?PR?START_WIN_INIT?START_WIN
000061H   000061H   000001H   BYTE   UNIT     CODE           ?PR?QRJ_SET?QRJ
000062H   000062H   000001H   BYTE   UNIT     CODE           ?PR?QRJ_STOP?QRJ
000063H   000065H   000003H   BYTE   OFFS..   CODE           ?UART?00063
000066H   000069H   000004H   BYTE   UNIT     CODE           ?PR?SDA_OUT?I2C
00006AH   00006AH   000001H   ---    ---      **GAP**
00006BH   00006DH   000003H   BYTE   OFFS..   CODE           ?UART?0006B
00006EH   000082H   000015H   BYTE   UNIT     CODE           ?PR?UART5INIT?UART
000083H   000085H   000003H   BYTE   OFFS..   CODE           ?UART?00083
000086H   0000F0H   00006BH   BYTE   UNIT     CODE           ?PR?_RX8130_WRIT_BYTE?I2C
0000F1H   0000F6H   000006H   BYTE   UNIT     CODE           ?PR?INITTIMER?TIMER
0000F7H   0000F7H   000001H   ---    ---      **GAP**
0000F8H   0000FFH   000008H   ---    OFFS..   CODE           ?CO??C_STARTUP?1
000100H   000940H   000841H   BYTE   UNIT     CODE           ?C?LIB_CODE
000941H   000CE6H   0003A6H   BYTE   UNIT     CODE           ?PR?PARSEBUFFER?HANDLE
000CE7H   000FD6H   0002F0H   BYTE   UNIT     CODE           ?PR?PREPARE_QRJ_ZX_QY?HOME
000FD7H   0012C0H   0002EAH   BYTE   UNIT     CODE           ?C_INITSEG
0012C1H   001564H   0002A4H   BYTE   UNIT     CODE           ?PR?RTC_SET_IN?I2C
001565H   0017CEH   00026AH   BYTE   UNIT     CODE           ?PR?_QRJ_ZX__QY_RUN?HOME
0017CFH   001A2AH   00025CH   BYTE   UNIT     CODE           ?PR?_L_MM_TO_P_UW?HOME
LX51 LINKER/LOCATER V4.66.93.0                                                        04/30/2025  17:32:03  PAGE 4


001A2BH   001C77H   00024DH   BYTE   UNIT     CODE           ?PR?_WRITEDGUS?DGUS
001C78H   001EBFH   000248H   BYTE   UNIT     CODE           ?PR?_READDGUS?DGUS
001EC0H   00206FH   0001B0H   BYTE   UNIT     CODE           ?PR?RTC_SET_TIME?I2C
002070H   0021D5H   000166H   BYTE   UNIT     CODE           ?PR?_POW?POW
0021D6H   002332H   00015DH   BYTE   UNIT     CODE           ?PR?_RTC_GET_WEEK?I2C
002333H   002465H   000133H   BYTE   UNIT     CODE           ?PR?READ_TIME?I2C
002466H   00258EH   000129H   BYTE   UNIT     CODE           ?PR?LOG?LOG
00258FH   002695H   000107H   BYTE   UNIT     CODE           ?PR?QRJ_PREPARE?QRJ
002696H   002796H   000101H   BYTE   UNIT     CODE           ?PR?UART5_ISR?TOF
002797H   002875H   0000DFH   BYTE   UNIT     CODE           ?PR?_FIND_DLT645_FRAME?HANDLE
002876H   002954H   0000DFH   BYTE   UNIT     CODE           ?PR?_QRJ_MM_TO_S?QRJ
002955H   002A06H   0000B2H   BYTE   UNIT     CODE           ?PR?T0_ISR_PC?TIMER
002A07H   002AAAH   0000A4H   BYTE   UNIT     CODE           ?PR?DLT645_HANDLE?HANDLE
002AABH   002B4CH   0000A2H   BYTE   UNIT     CODE           ?PR?_PAGE_SET?HANDLE
002B4DH   002BEDH   0000A1H   BYTE   UNIT     CODE           ?C_C51STARTUP
002BEEH   002C87H   00009AH   BYTE   UNIT     CODE           ?PR?EXP?EXP
002C88H   002D19H   000092H   BYTE   UNIT     CODE           ?PR?_SETVOICE?HANDLE
002D1AH   002DA2H   000089H   BYTE   UNIT     CODE           ?PR?UNLOCK_CURRENT_PAGE?HOME
002DA3H   002E26H   000084H   BYTE   UNIT     CODE           ?PR?TOUCHHANDLE?HANDLE
002E27H   002EA7H   000081H   BYTE   UNIT     CODE           ?PR?UART5_RX_ISR_PC?UART
002EA8H   002F23H   00007CH   BYTE   UNIT     CODE           ?PR?LOCK_CURRENT_PAGE?HOME
002F24H   002F89H   000066H   BYTE   UNIT     CODE           ?PR?QRJ_RUN?QRJ
002F8AH   002FEDH   000064H   BYTE   UNIT     CODE           ?PR?UART2_ISR_PC?UART
002FEEH   003051H   000064H   BYTE   UNIT     CODE           ?PR?_JUMPPAGE?HANDLE
003052H   0030B2H   000061H   BYTE   UNIT     CODE           ?PR?QRJ_HOME?QRJ
0030B3H   003112H   000060H   BYTE   UNIT     CODE           ?PR?UART3_ISR_PC?UART
003113H   00316EH   00005CH   BYTE   UNIT     CODE           ?PR?QRJ_RESET?QRJ
00316FH   0031C8H   00005AH   BYTE   UNIT     CODE           ?PR?INIT_RTC?I2C
0031C9H   003214H   00004CH   BYTE   UNIT     CODE           ?PR?GETVALUE0F00?HANDLE
003215H   003255H   000041H   BYTE   UNIT     CODE           ?PR?_UART2SENDSTR?UART
003256H   003296H   000041H   BYTE   UNIT     CODE           ?PR?_UART3SENDSTR?UART
003297H   0032D7H   000041H   BYTE   UNIT     CODE           ?PR?_UART5SENDSTR?UART
0032D8H   003314H   00003DH   BYTE   UNIT     CODE           ?PR?READCURRENTPAGE_RUN?HOME
003315H   00334BH   000037H   BYTE   UNIT     CODE           ?PR?_LOCK_CURRENT_PAGE_ZENGLIANG?HOME
00334CH   003382H   000037H   BYTE   UNIT     CODE           ?PR?_UNLOCK_CURRENT_PAGE_ZENGLIANG?HOME
003383H   0033AFH   00002DH   BYTE   UNIT     CODE           ?PR?RX8130_READ_BYTE?I2C
0033B0H   0033DBH   00002CH   BYTE   UNIT     CODE           ?PR?_PARSE_DLT645_FRAME?HANDLE
0033DCH   003400H   000025H   BYTE   UNIT     CODE           ?PR?UART2INIT?UART
003401H   003423H   000023H   BYTE   UNIT     CODE           ?PR?RX8130_CACK?I2C
003424H   003444H   000021H   BYTE   UNIT     CODE           ?PR?RX8130_STOP?I2C
003445H   003464H   000020H   BYTE   UNIT     CODE           ?PR?_DELAYMS?SYS
003465H   003482H   00001EH   BYTE   UNIT     CODE           ?PR?UART3INIT?UART
003483H   00349CH   00001AH   BYTE   UNIT     CODE           ?PR?_SETBLIGHT?HANDLE
00349DH   0034B6H   00001AH   BYTE   UNIT     CODE           ?PR?CLOCK?I2C
0034B7H   0034D0H   00001AH   BYTE   UNIT     CODE           ?PR?QRJ_INIT?QRJ
0034D1H   0034E9H   000019H   BYTE   UNIT     CODE           ?PR?INITGPIO?SYS
0034EAH   003500H   000017H   BYTE   UNIT     CODE           ?PR?DELAYUS?I2C
003501H   003516H   000016H   BYTE   UNIT     CODE           ?PR?QRJ_DONE?QRJ
003517H   00352AH   000014H   BYTE   UNIT     CODE           ?PR?MAIN?MAIN
00352BH   00353EH   000014H   BYTE   UNIT     CODE           ?PR?T2_INIT?TIMER
00353FH   003552H   000014H   BYTE   UNIT     CODE           ?PR?RX8130_START?I2C
003553H   003565H   000013H   BYTE   UNIT     CODE           ?PR?UART4INIT?UART
003566H   003576H   000011H   BYTE   UNIT     CODE           ?PR?INITCPU?SYS
003577H   003584H   00000EH   BYTE   UNIT     CODE           ?PR?_UART2SENDBYTE?UART
003585H   003592H   00000EH   BYTE   UNIT     CODE           ?PR?_UART3SENDBYTE?UART
003593H   0035A0H   00000EH   BYTE   UNIT     CODE           ?PR?T0_INIT?TIMER
0035A1H   0035AEH   00000EH   BYTE   UNIT     CODE           ?PR?PAGELOCK_INIT?HOME
0035AFH   0035BAH   00000CH   BYTE   UNIT     CODE           ?PR?INITINT?SYS
0035BBH   0035C6H   00000CH   BYTE   UNIT     CODE           ?PR?_UART5SENDBYTE?UART
0035C7H   0035D2H   00000CH   BYTE   UNIT     CODE           ?PR?HANDLEPROC?HANDLE
0035D3H   0035DDH   00000BH   BYTE   UNIT     CODE           ?PR?INITUARTSEND?HANDLE
0035DEH   0035E8H   00000BH   BYTE   UNIT     CODE           ?PR?RX8130_MNAK?I2C
0035E9H   0035F1H   000009H   BYTE   UNIT     CODE           ?PR?INITUART?UART
0035F2H   0035F7H   000006H   BYTE   UNIT     CODE           ?PR?GET_DATA1?HANDLE
0035F8H   0035FDH   000006H   BYTE   UNIT     CODE           ?PR?_DRAW_CHART?START_WIN
LX51 LINKER/LOCATER V4.66.93.0                                                        04/30/2025  17:32:03  PAGE 5


0035FEH   003600H   000003H   BYTE   UNIT     CODE           ?PR?T2_ISR_PC?TIMER
003601H   003669H   000069H   BYTE   UNIT     CONST          ?CO?HANDLE
00366AH   003680H   000017H   BYTE   UNIT     CONST          ?CO?I2C

* * * * * * * * * * *  X D A T A   M E M O R Y  * * * * * * * * * * * * *
008000H   00A129H   00212AH   BYTE   UNIT     XDATA          ?XD?UART
00A12AH   00A42CH   000303H   BYTE   UNIT     XDATA          ?XD?HANDLE
00A42DH   00A47BH   00004FH   BYTE   UNIT     XDATA          ?XD?HOME
00A47CH   00A4BBH   000040H   BYTE   UNIT     XDATA          _XDATA_GROUP_
00A4BCH   00A4DBH   000020H   BYTE   UNIT     XDATA          ?XD?START_WIN
00A4DCH   00A4F0H   000015H   BYTE   UNIT     XDATA          ?XD?TOF
00A4F1H   00A502H   000012H   BYTE   UNIT     XDATA          ?XD?QRJ
00A503H   00A50BH   000009H   BYTE   UNIT     XDATA          ?XD?I2C
00A50CH   00A511H   000006H   BYTE   UNIT     XDATA          ?XD?_JUMPPAGE?HANDLE
00A512H   00A516H   000005H   BYTE   UNIT     XDATA          ?XD?_SETVOICE?HANDLE
00A517H   00A51AH   000004H   BYTE   UNIT     XDATA          ?XD?TIMER
00A51BH   00A51DH   000003H   BYTE   UNIT     XDATA          ?XD?_UART3SENDSTR?UART
00A51EH   00A520H   000003H   BYTE   UNIT     XDATA          ?XD?_UART5SENDSTR?UART
00A521H   00A521H   000001H   BYTE   UNIT     XDATA          ?XD?_SETBLIGHT?HANDLE
00A522H   00A522H   000001H   BYTE   UNIT     XDATA          ?XD?_DRAW_CHART?START_WIN



OVERLAY MAP OF MODULE:   .\Objects\T5L51 (?C_STARTUP)


FUNCTION/MODULE                           BIT_GROUP   XDATA_GROUP
--> CALLED FUNCTION/MODULE               START  STOP  START  STOP
=================================================================
?C_C51STARTUP                            ----- -----  ----- -----
  +--> MAIN/MAIN
  +--> ?C_INITSEG

MAIN/MAIN                                ----- -----  ----- -----
  +--> INITCPU/SYS
  +--> INIT_RTC/I2C
  +--> PAGELOCK_INIT/HOME
  +--> HANDLEPROC/HANDLE
  +--> READCURRENTPAGE_RUN/HOME
  +--> CLOCK/I2C

INITCPU/SYS                              ----- -----  ----- -----
  +--> INITINT/SYS
  +--> INITGPIO/SYS
  +--> INITUART/UART
  +--> INITTIMER/TIMER

INITINT/SYS                              ----- -----  ----- -----

INITGPIO/SYS                             ----- -----  ----- -----

INITUART/UART                            ----- -----  ----- -----
  +--> UART2INIT/UART
  +--> UART4INIT/UART
  +--> UART5INIT/UART

UART2INIT/UART                           ----- -----  ----- -----

UART4INIT/UART                           ----- -----  ----- -----

UART5INIT/UART                           ----- -----  ----- -----

INITTIMER/TIMER                          ----- -----  ----- -----
  +--> T0_INIT/TIMER
  +--> T2_INIT/TIMER
LX51 LINKER/LOCATER V4.66.93.0                                                        04/30/2025  17:32:03  PAGE 6



T0_INIT/TIMER                            ----- -----  ----- -----

T2_INIT/TIMER                            ----- -----  ----- -----

INIT_RTC/I2C                             ----- -----  ----- -----
  +--> _RX8130_WRIT_BYTE/I2C
  +--> RX8130_STOP/I2C
  +--> RX8130_START/I2C
  +--> RX8130_READ_BYTE/I2C
  +--> RX8130_MACK/I2C
  +--> RX8130_MNAK/I2C

_RX8130_WRIT_BYTE/I2C                    ----- -----  ----- -----
  +--> RX8130_START/I2C
  +--> RX8130_STOP/I2C
  +--> SDA_OUT/I2C
  +--> DELAYUS/I2C
  +--> RX8130_CACK/I2C

RX8130_START/I2C                         ----- -----  ----- -----
  +--> SDA_OUT/I2C
  +--> DELAYUS/I2C

SDA_OUT/I2C                              ----- -----  ----- -----

DELAYUS/I2C                              ----- -----  ----- -----

RX8130_STOP/I2C                          ----- -----  ----- -----
  +--> _RX8130_WRIT_BYTE/I2C
  +--> SDA_OUT/I2C
  +--> DELAYUS/I2C
  +--> SDA_IN/I2C

SDA_IN/I2C                               ----- -----  ----- -----

RX8130_CACK/I2C                          ----- -----  ----- -----
  +--> SDA_IN/I2C
  +--> DELAYUS/I2C
  +--> SDA_OUT/I2C

RX8130_READ_BYTE/I2C                     ----- -----  ----- -----
  +--> SDA_IN/I2C
  +--> DELAYUS/I2C

RX8130_MACK/I2C                          ----- -----  ----- -----
  +--> SDA_OUT/I2C
  +--> DELAYUS/I2C

RX8130_MNAK/I2C                          ----- -----  ----- -----
  +--> SDA_OUT/I2C
  +--> DELAYUS/I2C

PAGELOCK_INIT/HOME                       ----- -----  ----- -----

HANDLEPROC/HANDLE                        ----- -----  ----- -----
  +--> GETVALUE0F00/HANDLE
  +--> TOUCHHANDLE/HANDLE
  +--> PARSEBUFFER/HANDLE

GETVALUE0F00/HANDLE                      ----- -----  A47CH A47FH
  +--> _READDGUS/DGUS
  +--> _WRITEDGUS/DGUS

_READDGUS/DGUS                           ----- -----  A4B5H A4BBH
LX51 LINKER/LOCATER V4.66.93.0                                                        04/30/2025  17:32:03  PAGE 7



_WRITEDGUS/DGUS                          ----- -----  A4B5H A4BBH

TOUCHHANDLE/HANDLE                       ----- -----  A47CH A491H
  +--> _READDGUS/DGUS
  +--> _PAGE_SET/HANDLE

_PAGE_SET/HANDLE                         ----- -----  A492H A493H
  +--> GET_DATA1/HANDLE
  +--> QRJ_RESET/QRJ
  +--> LOCK_CURRENT_PAGE/HOME
  +--> RTC_SET_IN/I2C

GET_DATA1/HANDLE                         ----- -----  ----- -----

QRJ_RESET/QRJ                            ----- -----  ----- -----
  +--> _WRITEDGUS/DGUS

LOCK_CURRENT_PAGE/HOME                   ----- -----  ----- -----
  +--> _LOCK_CURRENT_PAGE_ZENGLIANG/HOME
  +--> _WRITEDGUS/DGUS

_LOCK_CURRENT_PAGE_ZENGLIANG/HOME        ----- -----  ----- -----
  +--> _WRITEDGUS/DGUS

RTC_SET_IN/I2C                           ----- -----  A494H A4A5H
  +--> _READDGUS/DGUS
  +--> _WRITEDGUS/DGUS
  +--> RTC_SET_TIME/I2C

RTC_SET_TIME/I2C                         20H.0 20H.0  A4A6H A4B4H
  +--> _READDGUS/DGUS
  +--> _WRITEDGUS/DGUS
  +--> _RX8130_WRIT_BYTE/I2C
  +--> RX8130_STOP/I2C

PARSEBUFFER/HANDLE                       ----- -----  A47CH A48AH
  +--> _FIND_DLT645_FRAME/HANDLE
  +--> _PARSE_DLT645_FRAME/HANDLE
  +--> DLT645_HANDLE/HANDLE

_FIND_DLT645_FRAME/HANDLE                ----- -----  A48BH A499H

_PARSE_DLT645_FRAME/HANDLE               ----- -----  A48BH A496H

DLT645_HANDLE/HANDLE                     ----- -----  A48BH A48CH
  +--> _WRITEDGUS/DGUS
  +--> _READDGUS/DGUS
  +--> _UART2SENDSTR/UART

_UART2SENDSTR/UART                       ----- -----  A48DH A48FH
  +--> _UART2SENDBYTE/UART

_UART2SENDBYTE/UART                      ----- -----  ----- -----

READCURRENTPAGE_RUN/HOME                 ----- -----  ----- -----
  +--> _READDGUS/DGUS
  +--> QRJ_HOME/QRJ
  +--> PREPARE_QRJ_ZX_QY/HOME

QRJ_HOME/QRJ                             ----- -----  ----- -----
  +--> QRJ_SET/QRJ
  +--> QRJ_PREPARE/QRJ
  +--> QRJ_RUN/QRJ
  +--> QRJ_STOP/QRJ
LX51 LINKER/LOCATER V4.66.93.0                                                        04/30/2025  17:32:03  PAGE 8


  +--> QRJ_DONE/QRJ
  +--> QRJ_RESET/QRJ
  +--> UNLOCK_CURRENT_PAGE/HOME

QRJ_SET/QRJ                              ----- -----  ----- -----

QRJ_PREPARE/QRJ                          ----- -----  A47CH A481H
  +--> _READDGUS/DGUS
  +--> _QRJ_MM_TO_S/QRJ
  +--> _WRITEDGUS/DGUS

_QRJ_MM_TO_S/QRJ                         ----- -----  A482H A485H

QRJ_RUN/QRJ                              ----- -----  ----- -----
  +--> _QRJ_MM_TO_S/QRJ
  +--> _QRJ_ZX__QY_RUN/HOME

_QRJ_ZX__QY_RUN/HOME                     ----- -----  A47CH A482H
  +--> _WRITEDGUS/DGUS

QRJ_STOP/QRJ                             ----- -----  ----- -----

QRJ_DONE/QRJ                             ----- -----  ----- -----
  +--> _WRITEDGUS/DGUS

UNLOCK_CURRENT_PAGE/HOME                 ----- -----  ----- -----
  +--> _UNLOCK_CURRENT_PAGE_ZENGLIANG/HOME
  +--> _WRITEDGUS/DGUS

_UNLOCK_CURRENT_PAGE_ZENGLIANG/HOME      ----- -----  ----- -----
  +--> _WRITEDGUS/DGUS

PREPARE_QRJ_ZX_QY/HOME                   ----- -----  ----- -----
  +--> _L_MM_TO_P_UW/HOME
  +--> _WRITEDGUS/DGUS
  +--> _POW/POW

_L_MM_TO_P_UW/HOME                       ----- -----  A47CH A489H
  +--> _POW/POW

_POW/POW                                 ----- -----  A48AH A493H
  +--> LOG/LOG
  +--> EXP/EXP

LOG/LOG                                  20H.0 20H.0  A494H A497H

EXP/EXP                                  ----- -----  ----- -----

CLOCK/I2C                                ----- -----  ----- -----
  +--> READ_TIME/I2C

READ_TIME/I2C                            ----- -----  A47CH A485H
  +--> _RX8130_WRIT_BYTE/I2C
  +--> RX8130_STOP/I2C
  +--> RX8130_START/I2C
  +--> RX8130_READ_BYTE/I2C
  +--> RX8130_MACK/I2C
  +--> RX8130_MNAK/I2C
  +--> _RTC_GET_WEEK/I2C
  +--> _WRITEDGUS/DGUS

_RTC_GET_WEEK/I2C                        ----- -----  A486H A48AH

?C_INITSEG                               ----- -----  ----- -----

LX51 LINKER/LOCATER V4.66.93.0                                                        04/30/2025  17:32:03  PAGE 9


*** NEW ROOT ***************************

EX0_ISR_PC/SYS                           ----- -----  ----- -----

*** NEW ROOT ***************************

EX1_ISR_PC/SYS                           ----- -----  ----- -----

*** NEW ROOT ***************************

UART2_ISR_PC/UART                        ----- -----  ----- -----

*** NEW ROOT ***************************

UART3_ISR_PC/UART                        ----- -----  ----- -----

*** NEW ROOT ***************************

UART5_TX_ISR_PC/UART                     ----- -----  ----- -----

*** NEW ROOT ***************************

UART5_RX_ISR_PC/UART                     ----- -----  ----- -----
  +--> UART5_ISR/TOF

UART5_ISR/TOF                            ----- -----  ----- -----

*** NEW ROOT ***************************

T0_ISR_PC/TIMER                          ----- -----  ----- -----

*** NEW ROOT ***************************

T2_ISR_PC/TIMER                          ----- -----  ----- -----



PUBLIC SYMBOLS OF MODULE:  .\Objects\T5L51 (?C_STARTUP)


      VALUE       CLASS    TYPE      PUBLIC SYMBOL NAME
      =================================================
      0200A48BH   XDATA    BYTE      ?_find_dlt645_frame?BYTE
      0200A48BH   XDATA    BYTE      ?_parse_dlt645_frame?BYTE
      0200A48AH   XDATA    ---       ?_pow?BYTE
      0200A4B5H   XDATA    BYTE      ?_ReadDGUS?BYTE
      0200A4B5H   XDATA    BYTE      ?_WriteDGUS?BYTE
      01000455H   CODE     ---       ?C?CASTF
      010004D6H   CODE     ---       ?C?CHKFLOAT
      0100065DH   CODE     ---       ?C?CLDOPTR
      01000644H   CODE     ---       ?C?CLDPTR
      00000000H   NUMBER   ---       ?C?CODESEG
      0100061EH   CODE     ---       ?C?COPY
      0100069CH   CODE     ---       ?C?CSTOPTR
      0100068AH   CODE     ---       ?C?CSTPTR
      01000421H   CODE     ---       ?C?FCASTC
      0100041CH   CODE     ---       ?C?FCASTI
      01000417H   CODE     ---       ?C?FCASTL
      01000501H   CODE     ---       ?C?FP2SERIES
      01000107H   CODE     ---       ?C?FPADD
      010003A0H   CODE     ---       ?C?FPCMP
      0100039EH   CODE     ---       ?C?FPCMP3
      01000301H   CODE     ---       ?C?FPDIV
      0100048CH   CODE     ---       ?C?FPGETOPN2
      010001F8H   CODE     ---       ?C?FPMUL
LX51 LINKER/LOCATER V4.66.93.0                                                        04/30/2025  17:32:03  PAGE 10


      010004C1H   CODE     ---       ?C?FPNANRESULT
      010004F0H   CODE     ---       ?C?FPNEG
      010004CBH   CODE     ---       ?C?FPOVERFLOW
      010004A3H   CODE     ---       ?C?FPRESULT
      010004B7H   CODE     ---       ?C?FPRESULT2
      01000510H   CODE     ---       ?C?FPSERIES
      01000103H   CODE     ---       ?C?FPSUB
      010004C8H   CODE     ---       ?C?FPUNDERFLOW
      0100090FH   CODE     ---       ?C?ICALL
      01000913H   CODE     ---       ?C?ICALL2
      0100075BH   CODE     ---       ?C?IILDX
      01000771H   CODE     ---       ?C?ILDIX
      010006BEH   CODE     ---       ?C?IMUL
      01000787H   CODE     ---       ?C?ISTPTR
      010008A6H   CODE     ---       ?C?LLDCODE
      010008C2H   CODE     ---       ?C?LLDCODE0
      010008B6H   CODE     ---       ?C?LLDXDATA0
      01000874H   CODE     ---       ?C?LNEG
      01000893H   CODE     ---       ?C?LSHL
      010008DEH   CODE     ---       ?C?LSTKXDATA
      010008D2H   CODE     ---       ?C?LSTXDATA
      01000915H   CODE     ---       ?C?MEMSET
      01000725H   CODE     ---       ?C?SIDIV
      010006D0H   CODE     ---       ?C?UIDIV
      01000882H   CODE     ---       ?C?ULCMP
      010007E2H   CODE     ---       ?C?ULDIV
      00000000H   NUMBER   ---       ?C?XDATASEG
      01002BA9H   CODE     ---       ?C_START
      01000000H   CODE     ---       ?C_STARTUP
      01003445H   CODE     ---       _DelayMs
      010035F8H   CODE     ---       _Draw_chart
      01002C26H   CODE     ---       _EXP
      01002797H   CODE     ---       _find_dlt645_frame
      01002FEEH   CODE     ---       _JumpPage
      010017CFH   CODE     ---       _L_mm_TO_P_uw
      01003315H   CODE     ---       _Lock_current_page_zengliang
      0100249AH   CODE     ---       _LOG
      01002496H   CODE     ---       _LOG10
      01002AABH   CODE     ---       _page_set
      010033B0H   CODE     ---       _parse_dlt645_frame
      01002070H   CODE     ---       _pow
      01002876H   CODE     ---       _QRJ_mm_to_s
      01001565H   CODE     ---       _QRJ_ZX__QY_RUN
      01001C78H   CODE     ---       _ReadDGUS
      010021D6H   CODE     ---       _RTC_Get_Week
      010000C4H   CODE     ---       _Rx8130_Writ_Byte
      01003483H   CODE     ---       _SetBlight
      01002C88H   CODE     ---       _SetVoice
      01003577H   CODE     ---       _Uart2SendByte
      01003215H   CODE     ---       _Uart2SendStr
      01003585H   CODE     ---       _Uart3SendByte
      01003256H   CODE     ---       _Uart3SendStr
      010035BBH   CODE     ---       _Uart5SendByte
      01003297H   CODE     ---       _Uart5SendStr
      0100334CH   CODE     ---       _Unlock_current_page_zengliang
      01001A2BH   CODE     ---       _WriteDGUS
*SFR* 000000D0H.6 DATA     BIT       AC
*SFR* 000000E0H   DATA     BYTE      ACC
*SFR* 000000D8H   DATA     BYTE      ADCON
*SFR* 000000F1H   DATA     BYTE      ADR_H
*SFR* 000000F4H   DATA     BYTE      ADR_INC
*SFR* 000000F3H   DATA     BYTE      ADR_L
*SFR* 000000F2H   DATA     BYTE      ADR_M
*SFR* 000000F8H.4 DATA     BIT       APP_ACK
*SFR* 000000F8H.0 DATA     BIT       APP_DATA0
LX51 LINKER/LOCATER V4.66.93.0                                                        04/30/2025  17:32:03  PAGE 11


*SFR* 000000F8H.1 DATA     BIT       APP_DATA1
*SFR* 000000F8H.2 DATA     BIT       APP_DATA2
*SFR* 000000F8H.3 DATA     BIT       APP_DATA3
*SFR* 000000F8H.6 DATA     BIT       APP_EN
*SFR* 000000F8H.7 DATA     BIT       APP_REQ
*SFR* 000000F8H.5 DATA     BIT       APP_RW
*SFR* 000000F0H   DATA     BYTE      B
      0200A46EH   XDATA    WORD      baifenbi_T
*SFR* 000000D9H   DATA     BYTE      BODE2_DIV_H
*SFR* 000000E7H   DATA     BYTE      BODE2_DIV_L
*SFR* 000000AEH   DATA     BYTE      BODE3_DIV_H
*SFR* 000000AFH   DATA     BYTE      BODE3_DIV_L
*SFR* 0000008FH   DATA     BYTE      CAN_CR
*SFR* 000000E8H   DATA     BYTE      CAN_ET
*SFR* 00000091H   DATA     BYTE      CAN_IR
      0200A462H   XDATA    FLOAT     change_P_uW_doing
*SFR* 0000008EH   DATA     BYTE      CKCON
      0100349DH   CODE     ---       Clock
      0200A45AH   XDATA    WORD      ControlPageLock_Adress
      01003601H   CONST    ---       CUart2
      01003616H   CONST    ---       CUart3
      01003628H   CONST    ---       CUart4
      0100363AH   CONST    ---       CUart5
      0200A46CH   XDATA    WORD      Current_Lock
      0200A502H   XDATA    BYTE      current_st
      0200A441H   XDATA    ---       CurrentPageNum
*SFR* 000000D0H.7 DATA     BIT       CY
      0200A466H   XDATA    FLOAT     D
*SFR* 00000095H   DATA     BYTE      D_PAGESEL
*SFR* 000000FDH   DATA     BYTE      DATA0
*SFR* 000000FCH   DATA     BYTE      DATA1
*SFR* 000000FBH   DATA     BYTE      DATA2
*SFR* 000000FAH   DATA     BYTE      DATA3
      010034F1H   CODE     ---       Delayus
*SFR* 000000E6H   DATA     BYTE      DIV_MODE
      01002A07H   CODE     ---       dlt645_handle
*SFR* 00000093H   DATA     BYTE      DPC
*SFR* 00000083H   DATA     BYTE      DPH
*SFR* 00000082H   DATA     BYTE      DPL
*SFR* 000000A8H.7 DATA     BIT       EA
*SFR* 000000B8H.1 DATA     BIT       ECAN
*SFR* 000000A8H.4 DATA     BIT       ES0
*SFR* 000000B8H.3 DATA     BIT       ES2R
*SFR* 000000B8H.2 DATA     BIT       ES2T
*SFR* 000000B8H.5 DATA     BIT       ES3R
*SFR* 000000B8H.4 DATA     BIT       ES3T
*SFR* 000000A8H.1 DATA     BIT       ET0
*SFR* 000000A8H.3 DATA     BIT       ET1
*SFR* 000000A8H.5 DATA     BIT       ET2
*SFR* 000000A8H.0 DATA     BIT       EX0
      01000006H   CODE     ---       EX0_ISR_PC
*SFR* 000000A8H.2 DATA     BIT       EX1
      0100000EH   CODE     ---       EX1_ISR_PC
*SFR* 000000FEH   DATA     BYTE      EXADR
*SFR* 000000FFH   DATA     BYTE      EXDATA
*SFR* 000000D0H.5 DATA     BIT       F0
*SFR* 000000D0H.1 DATA     BIT       F1
      0200A12AH   XDATA    ---       frame_buf
      0200A329H   XDATA    ---       frame_buf1
      010035F2H   CODE     ---       get_data1
      010031C9H   CODE     ---       GetValue0F00
      0200A4DFH   XDATA    ---       GY53_Data
      010035C7H   CODE     ---       HandleProc
      0200A517H   XDATA    DWORD     i
      0200A4F9H   XDATA    ---       icon
LX51 LINKER/LOCATER V4.66.93.0                                                        04/30/2025  17:32:03  PAGE 12


*SFR* 00000088H.1 DATA     BIT       IE0
*SFR* 00000088H.3 DATA     BIT       IE1
*SFR* 000000A8H   DATA     BYTE      IEN0
*SFR* 000000B8H   DATA     BYTE      IEN1
*SFR* 0000009AH   DATA     BYTE      IEN2
*SFR* 000000D1H   DATA     BYTE      IEN3
      0100316FH   CODE     ---       Init_Rtc
      01003566H   CODE     ---       InitCPU
      010034D1H   CODE     ---       InitGPIO
      010035AFH   CODE     ---       InitInt
      010000F1H   CODE     ---       InitTimer
      010035E9H   CODE     ---       InitUart
      010035D3H   CODE     ---       InitUartSend
*SFR* 000000A9H   DATA     BYTE      IP0
*SFR* 000000B9H   DATA     BYTE      IP1
*SFR* 000000C0H   DATA     BYTE      IRCON
*SFR* 000000BFH   DATA     BYTE      IRCON2
*SFR* 00000088H.0 DATA     BIT       IT0
*SFR* 00000088H.2 DATA     BIT       IT1
*SFR* 000000A0H.5 DATA     BIT       JIGUANG
      0200A4EFH   XDATA    WORD      L_int
      0200A474H   XDATA    FLOAT     L_M
      0200A451H   XDATA    FLOAT     L_m_D_V_S
      0200A501H   XDATA    BYTE      L_T_S_FLAG
      0200A459H   XDATA    BYTE      last_page
*SFR* 000000A0H.3 DATA     BIT       LED_B
*SFR* 000000A0H.1 DATA     BIT       LED_G
*SFR* 00000090H.7 DATA     BIT       LED_R
      01002EA8H   CODE     ---       Lock_current_page
*SFR* 000000E5H   DATA     BYTE      MAC_MODE
      01003517H   CODE     ---       main
      0200A455H   XDATA    FLOAT     mJ_doing
      0200A4DEH   XDATA    BYTE      MODE
      0200A44BH   XDATA    WORD      mode_close
      0200A460H   XDATA    WORD      mode_open
*SFR* 000000C9H   DATA     BYTE      MUX_SEL
*SFR* 000000D0H.2 DATA     BIT       OV
*SFR* 000000D0H.0 DATA     BIT       P
*SFR* 00000080H   DATA     BYTE      P0
*SFR* 00000080H.0 DATA     BIT       P0_0
*SFR* 000000B7H   DATA     BYTE      P0MDOUT
*SFR* 00000090H   DATA     BYTE      P1
*SFR* 00000090H.0 DATA     BIT       P1_0
*SFR* 00000090H.1 DATA     BIT       P1_1
*SFR* 000000BCH   DATA     BYTE      P1MDOUT
*SFR* 000000A0H   DATA     BYTE      P2
*SFR* 000000BDH   DATA     BYTE      P2MDOUT
*SFR* 000000B0H   DATA     BYTE      P3
*SFR* 000000B0H.1 DATA     BIT       P3_1
*SFR* 000000BEH   DATA     BYTE      P3MDOUT
      010035A1H   CODE     ---       PageLock_Init
*SFR* 00000094H   DATA     BYTE      PAGESEL
      0200A46AH   XDATA    BYTE      PageSliding
      0200A45CH   XDATA    FLOAT     pai
      01000941H   CODE     ---       ParseBuffer
*SFR* 00000087H   DATA     BYTE      PCON
*SFR* 000000F9H   DATA     BYTE      PORTDRV
      01000CE7H   CODE     ---       Prepare_qrj_zx_qy
*SFR* 000000D0H   DATA     BYTE      PSW
      0200A4F1H   XDATA    FLOAT     qirongjiao_j
      01003501H   CODE     ---       QRJ_done
      01003052H   CODE     ---       QRJ_Home
      010034B7H   CODE     ---       QRJ_Init
      0100258FH   CODE     ---       QRJ_prepare
      01003113H   CODE     ---       QRJ_Reset
LX51 LINKER/LOCATER V4.66.93.0                                                        04/30/2025  17:32:03  PAGE 13


      01002F24H   CODE     ---       QRJ_run
      01000061H   CODE     ---       QRJ_Set
      01000062H   CODE     ---       QRJ_stop
*SFR* 000000F8H   DATA     BYTE      RAMMODE
*SFR* 00000098H.2 DATA     BIT       RB80
      01002333H   CODE     ---       Read_Time
      010032D8H   CODE     ---       ReadCurrentPage_run
*SFR* 00000098H.4 DATA     BIT       REN0
      0200A46BH   XDATA    BYTE      Returnkey
*SFR* 00000098H.0 DATA     BIT       RI0
*SFR* 000000D0H.3 DATA     BIT       RS0
*SFR* 000000D0H.4 DATA     BIT       RS1
*SFR* 000000B0H.2 DATA     BIT       RTC_SCL
*SFR* 000000B0H.3 DATA     BIT       RTC_SDA
      010012C1H   CODE     ---       RTC_SET_IN
      01001EC0H   CODE     ---       RTC_Set_Time
      01003401H   CODE     ---       Rx8130_Cack
      01000016H   CODE     ---       Rx8130_Mack
      010035DEH   CODE     ---       Rx8130_Mnak
      01003383H   CODE     ---       Rx8130_Read_Byte
      0100353FH   CODE     ---       Rx8130_Start
      01003433H   CODE     ---       Rx8130_Stop
      0200A229H   XDATA    ---       s_dl_t_645_8283_body
*SFR* 00000099H   DATA     BYTE      SBUF0
*SFR* 0000009CH   DATA     BYTE      SBUF1
*SFR* 0000009FH   DATA     BYTE      SBUF2_RX
*SFR* 0000009EH   DATA     BYTE      SBUF2_TX
*SFR* 000000ADH   DATA     BYTE      SBUF3_RX
*SFR* 000000ACH   DATA     BYTE      SBUF3_TX
*SFR* 00000098H   DATA     BYTE      SCON0
*SFR* 0000009BH   DATA     BYTE      SCON1
*SFR* 00000097H   DATA     BYTE      SCON2R
*SFR* 00000096H   DATA     BYTE      SCON2T
*SFR* 000000ABH   DATA     BYTE      SCON3R
*SFR* 000000A7H   DATA     BYTE      SCON3T
      01000026H   CODE     ---       SDA_IN
      01000066H   CODE     ---       SDA_OUT
      0200A509H   XDATA    BYTE      Select_rtc
*SFR* 00000098H.7 DATA     BIT       SM0
*SFR* 00000098H.6 DATA     BIT       SM1
*SFR* 00000098H.5 DATA     BIT       SM2
*SFR* 00000081H   DATA     BYTE      SP
      0200A470H   XDATA    FLOAT     Square
*SFR* 000000BAH   DATA     BYTE      SREL0H
*SFR* 000000AAH   DATA     BYTE      SREL0L
*SFR* 000000BBH   DATA     BYTE      SREL1H
*SFR* 0000009DH   DATA     BYTE      SREL1L
      0100002EH   CODE     ---       start_win_Init
      0200A50AH   XDATA    WORD      SysTick_RTC
      01003593H   CODE     ---       T0_Init
      01002955H   CODE     ---       T0_ISR_PC
      0100352BH   CODE     ---       T2_Init
      010035FEH   CODE     ---       T2_ISR_PC
*SFR* 000000C8H   DATA     BYTE      T2CON
      0200A431H   XDATA    FLOAT     Tan_zhongxin
      0200A443H   XDATA    FLOAT     Tanx
*SFR* 00000098H.3 DATA     BIT       TB80
*SFR* 00000088H   DATA     BYTE      TCON
*SFR* 00000088H.5 DATA     BIT       TF0
*SFR* 00000088H.7 DATA     BIT       TF1
*SFR* 000000C0H.6 DATA     BIT       TF2
*SFR* 0000008CH   DATA     BYTE      TH0
*SFR* 0000008DH   DATA     BYTE      TH1
*SFR* 000000CDH   DATA     BYTE      TH2
*SFR* 00000098H.1 DATA     BIT       TI0
LX51 LINKER/LOCATER V4.66.93.0                                                        04/30/2025  17:32:03  PAGE 14


      0200A435H   XDATA    DWORD     time_100ms
      0200A44DH   XDATA    DWORD     time_doing
      0200A4F5H   XDATA    FLOAT     TIME_static
*SFR* 0000008AH   DATA     BYTE      TL0
*SFR* 0000008BH   DATA     BYTE      TL1
*SFR* 000000CCH   DATA     BYTE      TL2
*SFR* 00000089H   DATA     BYTE      TMOD
      01002DA3H   CODE     ---       TouchHandle
*SFR* 00000088H.4 DATA     BIT       TR0
*SFR* 00000088H.6 DATA     BIT       TR1
*SFR* 000000C8H.0 DATA     BIT       TR2
*SFR* 000000CBH   DATA     BYTE      TRL2H
*SFR* 000000CAH   DATA     BYTE      TRL2L
*SFR* 000000C8H.7 DATA     BIT       TSF2
      02008080H   XDATA    BYTE      uart2_busy
      01002F8AH   CODE     ---       UART2_ISR_PC
      0200808AH   XDATA    ---       Uart2_Rx
      02008082H   XDATA    WORD      uart2_rx_count
      010033DCH   CODE     ---       Uart2Init
      02008081H   XDATA    BYTE      uart3_busy
      010030B3H   CODE     ---       UART3_ISR_PC
      0200A02AH   XDATA    ---       Uart3_Rx
      02008084H   XDATA    WORD      uart3_rx_count
      01003465H   CODE     ---       Uart3Init
      0200A0AAH   XDATA    ---       Uart4_Rx
      02008086H   XDATA    WORD      uart4_rx_count
      01003553H   CODE     ---       Uart4Init
      01002696H   CODE     ---       UART5_isr
      02008000H   XDATA    ---       Uart5_Rx
      02008088H   XDATA    WORD      uart5_rx_count
      01002E27H   CODE     ---       UART5_RX_ISR_PC
      0100002AH   CODE     ---       UART5_TX_ISR_PC
      0100006EH   CODE     ---       Uart5Init
      01002D1AH   CODE     ---       Unlock_current_page
*SFR* 00000090H.5 DATA     BIT       UV
*SFR* 000000A0H.7 DATA     BIT       UV_St
      0200A429H   XDATA    ---       value0F00
      0200A478H   XDATA    FLOAT     Volume
      0200A428H   XDATA    BYTE      xp_status
      0200A447H   XDATA    FLOAT     zhongxin_35mm



SYMBOL TABLE OF MODULE:  .\Objects\T5L51 (?C_STARTUP)

      VALUE       REP       CLASS    TYPE      SYMBOL NAME
      ====================================================
      ---         MODULE    ---      ---       ?C_STARTUP
      01000000H   PUBLIC    CODE     ---       ?C_STARTUP
      000000E0H   SYMBOL    DATA     ---       ACC
      000000F0H   SYMBOL    DATA     ---       B
      0000008EH   SYMBOL    DATA     ---       CKCON
      00000094H   SYMBOL    DATA     ---       DAGESEL
      00000093H   SYMBOL    DATA     ---       DPC
      00000083H   SYMBOL    DATA     ---       DPH
      00000082H   SYMBOL    DATA     ---       DPL
      00000095H   SYMBOL    DATA     ---       D_PAGESEL
      00000000H   SYMBOL    NUMBER   ---       IBPSTACK
      00000100H   SYMBOL    NUMBER   ---       IBPSTACKTOP
      00000080H   SYMBOL    NUMBER   ---       IDATALEN
      01002B65H   SYMBOL    CODE     ---       IDATALOOP
      000000C9H   SYMBOL    DATA     ---       MUX_SEL
      00000000H   SYMBOL    NUMBER   ---       PBPSTACK
      00000100H   SYMBOL    NUMBER   ---       PBPSTACKTOP
      00000000H   SYMBOL    NUMBER   ---       PDATALEN
LX51 LINKER/LOCATER V4.66.93.0                                                        04/30/2025  17:32:03  PAGE 15


      00000000H   SYMBOL    NUMBER   ---       PDATASTART
      00000000H   SYMBOL    NUMBER   ---       PPAGE
      00000000H   SYMBOL    NUMBER   ---       PPAGEENABLE
      000000A0H   SYMBOL    DATA     ---       PPAGE_SFR
      000000F8H   SYMBOL    DATA     ---       RAMMODE
      00000081H   SYMBOL    DATA     ---       SP
      01002B4DH   SYMBOL    CODE     ---       STARTUP1
      000000C8H   SYMBOL    DATA     ---       T2CON
      00000000H   SYMBOL    NUMBER   ---       XBPSTACK
      00000000H   SYMBOL    NUMBER   ---       XBPSTACKTOP
      00000000H   SYMBOL    NUMBER   ---       XDATALEN
      00000000H   SYMBOL    NUMBER   ---       XDATASTART
      01000000H   LINE      CODE     ---       #133
      01002B4DH   LINE      CODE     ---       #143
      01002B50H   LINE      CODE     ---       #144
      01002B53H   LINE      CODE     ---       #145
      01002B56H   LINE      CODE     ---       #146
      01002B59H   LINE      CODE     ---       #147
      01002B5CH   LINE      CODE     ---       #148
      01002B5FH   LINE      CODE     ---       #149
      01002B62H   LINE      CODE     ---       #152
      01002B64H   LINE      CODE     ---       #153
      01002B65H   LINE      CODE     ---       #154
      01002B66H   LINE      CODE     ---       #155
      01002B68H   LINE      CODE     ---       #204
      01002B6BH   LINE      CODE     ---       #215

      ---         MODULE    ---      ---       MAIN
      01003517H   PUBLIC    CODE     ---       main
      00000098H.3 SFRSYM    DATA     BIT       TB80
      000000F1H   SFRSYM    DATA     BYTE      ADR_H
      00000080H   SFRSYM    DATA     BYTE      P0
      00000090H   SFRSYM    DATA     BYTE      P1
      000000A0H   SFRSYM    DATA     BYTE      P2
      000000B0H   SFRSYM    DATA     BYTE      P3
      000000D0H.6 SFRSYM    DATA     BIT       AC
      000000F3H   SFRSYM    DATA     BYTE      ADR_L
      00000094H   SFRSYM    DATA     BYTE      PAGESEL
      000000F2H   SFRSYM    DATA     BYTE      ADR_M
      000000A8H.7 SFRSYM    DATA     BIT       EA
      000000A0H.5 SFRSYM    DATA     BIT       JIGUANG
      00000090H.7 SFRSYM    DATA     BIT       LED_R
      000000F8H   SFRSYM    DATA     BYTE      RAMMODE
      000000B7H   SFRSYM    DATA     BYTE      P0MDOUT
      000000A8H   SFRSYM    DATA     BYTE      IEN0
      000000BCH   SFRSYM    DATA     BYTE      P1MDOUT
      000000B8H   SFRSYM    DATA     BYTE      IEN1
      000000BDH   SFRSYM    DATA     BYTE      P2MDOUT
      000000F8H.0 SFRSYM    DATA     BIT       APP_DATA0
      0000009AH   SFRSYM    DATA     BYTE      IEN2
      000000BEH   SFRSYM    DATA     BYTE      P3MDOUT
      000000F8H.1 SFRSYM    DATA     BIT       APP_DATA1
      000000D1H   SFRSYM    DATA     BYTE      IEN3
      00000080H.0 SFRSYM    DATA     BIT       P0_0
      000000F8H.2 SFRSYM    DATA     BIT       APP_DATA2
      00000090H.0 SFRSYM    DATA     BIT       P1_0
      000000F8H.3 SFRSYM    DATA     BIT       APP_DATA3
      00000090H.1 SFRSYM    DATA     BIT       P1_1
      000000F8H.4 SFRSYM    DATA     BIT       APP_ACK
      000000F4H   SFRSYM    DATA     BYTE      ADR_INC
      000000B0H.1 SFRSYM    DATA     BIT       P3_1
      00000098H.4 SFRSYM    DATA     BIT       REN0
      000000B8H.1 SFRSYM    DATA     BIT       ECAN
      000000D0H.7 SFRSYM    DATA     BIT       CY
      000000B8H.3 SFRSYM    DATA     BIT       ES2R
LX51 LINKER/LOCATER V4.66.93.0                                                        04/30/2025  17:32:03  PAGE 16


      000000B8H.5 SFRSYM    DATA     BIT       ES3R
      000000B8H.2 SFRSYM    DATA     BIT       ES2T
      000000B8H.4 SFRSYM    DATA     BIT       ES3T
      000000C8H.7 SFRSYM    DATA     BIT       TSF2
      000000B0H.3 SFRSYM    DATA     BIT       RTC_SDA
      00000081H   SFRSYM    DATA     BYTE      SP
      000000D0H.2 SFRSYM    DATA     BIT       OV
      00000095H   SFRSYM    DATA     BYTE      D_PAGESEL
      00000090H.5 SFRSYM    DATA     BIT       UV
      000000F8H.7 SFRSYM    DATA     BIT       APP_REQ
      000000B0H.2 SFRSYM    DATA     BIT       RTC_SCL
      000000BFH   SFRSYM    DATA     BYTE      IRCON2
      000000BAH   SFRSYM    DATA     BYTE      SREL0H
      000000BBH   SFRSYM    DATA     BYTE      SREL1H
      00000087H   SFRSYM    DATA     BYTE      PCON
      000000AAH   SFRSYM    DATA     BYTE      SREL0L
      000000F9H   SFRSYM    DATA     BYTE      PORTDRV
      0000009DH   SFRSYM    DATA     BYTE      SREL1L
      00000089H   SFRSYM    DATA     BYTE      TMOD
      00000088H   SFRSYM    DATA     BYTE      TCON
      00000097H   SFRSYM    DATA     BYTE      SCON2R
      000000FFH   SFRSYM    DATA     BYTE      EXDATA
      000000ABH   SFRSYM    DATA     BYTE      SCON3R
      000000D9H   SFRSYM    DATA     BYTE      BODE2_DIV_H
      000000AEH   SFRSYM    DATA     BYTE      BODE3_DIV_H
      00000096H   SFRSYM    DATA     BYTE      SCON2T
      000000A7H   SFRSYM    DATA     BYTE      SCON3T
      000000E7H   SFRSYM    DATA     BYTE      BODE2_DIV_L
      00000088H.1 SFRSYM    DATA     BIT       IE0
      000000AFH   SFRSYM    DATA     BYTE      BODE3_DIV_L
      00000088H.3 SFRSYM    DATA     BIT       IE1
      000000C9H   SFRSYM    DATA     BYTE      MUX_SEL
      000000F0H   SFRSYM    DATA     BYTE      B
      000000E0H   SFRSYM    DATA     BYTE      ACC
      000000A8H.4 SFRSYM    DATA     BIT       ES0
      0000008FH   SFRSYM    DATA     BYTE      CAN_CR
      000000A8H.1 SFRSYM    DATA     BIT       ET0
      000000A9H   SFRSYM    DATA     BYTE      IP0
      000000A8H.3 SFRSYM    DATA     BIT       ET1
      00000088H.5 SFRSYM    DATA     BIT       TF0
      000000B9H   SFRSYM    DATA     BYTE      IP1
      000000A8H.5 SFRSYM    DATA     BIT       ET2
      00000098H.0 SFRSYM    DATA     BIT       RI0
      00000088H.7 SFRSYM    DATA     BIT       TF1
      000000FDH   SFRSYM    DATA     BYTE      DATA0
      000000C0H.6 SFRSYM    DATA     BIT       TF2
      000000E8H   SFRSYM    DATA     BYTE      CAN_ET
      000000FCH   SFRSYM    DATA     BYTE      DATA1
      0000008CH   SFRSYM    DATA     BYTE      TH0
      000000A8H.0 SFRSYM    DATA     BIT       EX0
      00000098H.1 SFRSYM    DATA     BIT       TI0
      00000088H.0 SFRSYM    DATA     BIT       IT0
      000000FBH   SFRSYM    DATA     BYTE      DATA2
      0000008DH   SFRSYM    DATA     BYTE      TH1
      000000A8H.2 SFRSYM    DATA     BIT       EX1
      00000091H   SFRSYM    DATA     BYTE      CAN_IR
      000000CDH   SFRSYM    DATA     BYTE      TH2
      00000088H.2 SFRSYM    DATA     BIT       IT1
      000000FAH   SFRSYM    DATA     BYTE      DATA3
      000000D0H.0 SFRSYM    DATA     BIT       P
      00000098H.7 SFRSYM    DATA     BIT       SM0
      0000008AH   SFRSYM    DATA     BYTE      TL0
      00000098H.6 SFRSYM    DATA     BIT       SM1
      0000008BH   SFRSYM    DATA     BYTE      TL1
      00000098H.5 SFRSYM    DATA     BIT       SM2
LX51 LINKER/LOCATER V4.66.93.0                                                        04/30/2025  17:32:03  PAGE 17


      000000CCH   SFRSYM    DATA     BYTE      TL2
      000000A0H.7 SFRSYM    DATA     BIT       UV_St
      000000D0H.3 SFRSYM    DATA     BIT       RS0
      000000F8H.6 SFRSYM    DATA     BIT       APP_EN
      000000D0H.4 SFRSYM    DATA     BIT       RS1
      00000088H.4 SFRSYM    DATA     BIT       TR0
      00000088H.6 SFRSYM    DATA     BIT       TR1
      00000093H   SFRSYM    DATA     BYTE      DPC
      000000C8H.0 SFRSYM    DATA     BIT       TR2
      000000E5H   SFRSYM    DATA     BYTE      MAC_MODE
      00000083H   SFRSYM    DATA     BYTE      DPH
      00000082H   SFRSYM    DATA     BYTE      DPL
      00000099H   SFRSYM    DATA     BYTE      SBUF0
      0000009CH   SFRSYM    DATA     BYTE      SBUF1
      00000098H   SFRSYM    DATA     BYTE      SCON0
      0000009BH   SFRSYM    DATA     BYTE      SCON1
      000000D8H   SFRSYM    DATA     BYTE      ADCON
      000000C8H   SFRSYM    DATA     BYTE      T2CON
      000000E6H   SFRSYM    DATA     BYTE      DIV_MODE
      000000F8H.5 SFRSYM    DATA     BIT       APP_RW
      000000CBH   SFRSYM    DATA     BYTE      TRL2H
      0000009FH   SFRSYM    DATA     BYTE      SBUF2_RX
      000000ADH   SFRSYM    DATA     BYTE      SBUF3_RX
      0000008EH   SFRSYM    DATA     BYTE      CKCON
      0000009EH   SFRSYM    DATA     BYTE      SBUF2_TX
      000000ACH   SFRSYM    DATA     BYTE      SBUF3_TX
      000000CAH   SFRSYM    DATA     BYTE      TRL2L
      000000D0H.5 SFRSYM    DATA     BIT       F0
      000000FEH   SFRSYM    DATA     BYTE      EXADR
      000000D0H.1 SFRSYM    DATA     BIT       F1
      000000A0H.3 SFRSYM    DATA     BIT       LED_B
      000000D0H   SFRSYM    DATA     BYTE      PSW
      000000A0H.1 SFRSYM    DATA     BIT       LED_G
      000000C0H   SFRSYM    DATA     BYTE      IRCON
      00000098H.2 SFRSYM    DATA     BIT       RB80

      01003517H   BLOCK     CODE     ---       LVL=0
      01003517H   LINE      CODE     ---       #48
      01003517H   LINE      CODE     ---       #49
      01003517H   LINE      CODE     ---       #50
      0100351AH   LINE      CODE     ---       #54
      0100351DH   LINE      CODE     ---       #56
      01003520H   LINE      CODE     ---       #58
      01003520H   LINE      CODE     ---       #59
      01003520H   LINE      CODE     ---       #64
      01003523H   LINE      CODE     ---       #65
      01003526H   LINE      CODE     ---       #67
      01003529H   LINE      CODE     ---       #72
      ---         BLOCKEND  ---      ---       LVL=0

      ---         MODULE    ---      ---       SYS
      01003566H   PUBLIC    CODE     ---       InitCPU
      0100000EH   PUBLIC    CODE     ---       EX1_ISR_PC
      01000006H   PUBLIC    CODE     ---       EX0_ISR_PC
      010034D1H   PUBLIC    CODE     ---       InitGPIO
      010035AFH   PUBLIC    CODE     ---       InitInt
      01003445H   PUBLIC    CODE     ---       _DelayMs
      00000098H.3 SFRSYM    DATA     BIT       TB80
      000000F1H   SFRSYM    DATA     BYTE      ADR_H
      00000080H   SFRSYM    DATA     BYTE      P0
      00000090H   SFRSYM    DATA     BYTE      P1
      000000A0H   SFRSYM    DATA     BYTE      P2
      000000B0H   SFRSYM    DATA     BYTE      P3
      000000D0H.6 SFRSYM    DATA     BIT       AC
      000000F3H   SFRSYM    DATA     BYTE      ADR_L
LX51 LINKER/LOCATER V4.66.93.0                                                        04/30/2025  17:32:03  PAGE 18


      00000094H   SFRSYM    DATA     BYTE      PAGESEL
      000000F2H   SFRSYM    DATA     BYTE      ADR_M
      000000A8H.7 SFRSYM    DATA     BIT       EA
      000000A0H.5 SFRSYM    DATA     BIT       JIGUANG
      00000090H.7 SFRSYM    DATA     BIT       LED_R
      000000F8H   SFRSYM    DATA     BYTE      RAMMODE
      000000B7H   SFRSYM    DATA     BYTE      P0MDOUT
      000000A8H   SFRSYM    DATA     BYTE      IEN0
      000000BCH   SFRSYM    DATA     BYTE      P1MDOUT
      000000B8H   SFRSYM    DATA     BYTE      IEN1
      000000BDH   SFRSYM    DATA     BYTE      P2MDOUT
      000000F8H.0 SFRSYM    DATA     BIT       APP_DATA0
      0000009AH   SFRSYM    DATA     BYTE      IEN2
      000000BEH   SFRSYM    DATA     BYTE      P3MDOUT
      000000F8H.1 SFRSYM    DATA     BIT       APP_DATA1
      000000D1H   SFRSYM    DATA     BYTE      IEN3
      00000080H.0 SFRSYM    DATA     BIT       P0_0
      000000F8H.2 SFRSYM    DATA     BIT       APP_DATA2
      00000090H.0 SFRSYM    DATA     BIT       P1_0
      000000F8H.3 SFRSYM    DATA     BIT       APP_DATA3
      00000090H.1 SFRSYM    DATA     BIT       P1_1
      000000F8H.4 SFRSYM    DATA     BIT       APP_ACK
      000000F4H   SFRSYM    DATA     BYTE      ADR_INC
      000000B0H.1 SFRSYM    DATA     BIT       P3_1
      00000098H.4 SFRSYM    DATA     BIT       REN0
      000000B8H.1 SFRSYM    DATA     BIT       ECAN
      000000D0H.7 SFRSYM    DATA     BIT       CY
      000000B8H.3 SFRSYM    DATA     BIT       ES2R
      000000B8H.5 SFRSYM    DATA     BIT       ES3R
      000000B8H.2 SFRSYM    DATA     BIT       ES2T
      000000B8H.4 SFRSYM    DATA     BIT       ES3T
      000000C8H.7 SFRSYM    DATA     BIT       TSF2
      000000B0H.3 SFRSYM    DATA     BIT       RTC_SDA
      00000081H   SFRSYM    DATA     BYTE      SP
      000000D0H.2 SFRSYM    DATA     BIT       OV
      00000095H   SFRSYM    DATA     BYTE      D_PAGESEL
      00000090H.5 SFRSYM    DATA     BIT       UV
      000000F8H.7 SFRSYM    DATA     BIT       APP_REQ
      000000B0H.2 SFRSYM    DATA     BIT       RTC_SCL
      000000BFH   SFRSYM    DATA     BYTE      IRCON2
      000000BAH   SFRSYM    DATA     BYTE      SREL0H
      000000BBH   SFRSYM    DATA     BYTE      SREL1H
      00000087H   SFRSYM    DATA     BYTE      PCON
      000000AAH   SFRSYM    DATA     BYTE      SREL0L
      000000F9H   SFRSYM    DATA     BYTE      PORTDRV
      0000009DH   SFRSYM    DATA     BYTE      SREL1L
      00000089H   SFRSYM    DATA     BYTE      TMOD
      00000088H   SFRSYM    DATA     BYTE      TCON
      00000097H   SFRSYM    DATA     BYTE      SCON2R
      000000FFH   SFRSYM    DATA     BYTE      EXDATA
      000000ABH   SFRSYM    DATA     BYTE      SCON3R
      000000D9H   SFRSYM    DATA     BYTE      BODE2_DIV_H
      000000AEH   SFRSYM    DATA     BYTE      BODE3_DIV_H
      00000096H   SFRSYM    DATA     BYTE      SCON2T
      000000A7H   SFRSYM    DATA     BYTE      SCON3T
      000000E7H   SFRSYM    DATA     BYTE      BODE2_DIV_L
      00000088H.1 SFRSYM    DATA     BIT       IE0
      000000AFH   SFRSYM    DATA     BYTE      BODE3_DIV_L
      00000088H.3 SFRSYM    DATA     BIT       IE1
      000000C9H   SFRSYM    DATA     BYTE      MUX_SEL
      000000F0H   SFRSYM    DATA     BYTE      B
      000000E0H   SFRSYM    DATA     BYTE      ACC
      000000A8H.4 SFRSYM    DATA     BIT       ES0
      0000008FH   SFRSYM    DATA     BYTE      CAN_CR
      000000A8H.1 SFRSYM    DATA     BIT       ET0
LX51 LINKER/LOCATER V4.66.93.0                                                        04/30/2025  17:32:03  PAGE 19


      000000A9H   SFRSYM    DATA     BYTE      IP0
      000000A8H.3 SFRSYM    DATA     BIT       ET1
      00000088H.5 SFRSYM    DATA     BIT       TF0
      000000B9H   SFRSYM    DATA     BYTE      IP1
      000000A8H.5 SFRSYM    DATA     BIT       ET2
      00000098H.0 SFRSYM    DATA     BIT       RI0
      00000088H.7 SFRSYM    DATA     BIT       TF1
      000000FDH   SFRSYM    DATA     BYTE      DATA0
      000000C0H.6 SFRSYM    DATA     BIT       TF2
      000000E8H   SFRSYM    DATA     BYTE      CAN_ET
      000000FCH   SFRSYM    DATA     BYTE      DATA1
      0000008CH   SFRSYM    DATA     BYTE      TH0
      000000A8H.0 SFRSYM    DATA     BIT       EX0
      00000098H.1 SFRSYM    DATA     BIT       TI0
      00000088H.0 SFRSYM    DATA     BIT       IT0
      000000FBH   SFRSYM    DATA     BYTE      DATA2
      0000008DH   SFRSYM    DATA     BYTE      TH1
      000000A8H.2 SFRSYM    DATA     BIT       EX1
      00000091H   SFRSYM    DATA     BYTE      CAN_IR
      000000CDH   SFRSYM    DATA     BYTE      TH2
      00000088H.2 SFRSYM    DATA     BIT       IT1
      000000FAH   SFRSYM    DATA     BYTE      DATA3
      000000D0H.0 SFRSYM    DATA     BIT       P
      00000098H.7 SFRSYM    DATA     BIT       SM0
      0000008AH   SFRSYM    DATA     BYTE      TL0
      00000098H.6 SFRSYM    DATA     BIT       SM1
      0000008BH   SFRSYM    DATA     BYTE      TL1
      00000098H.5 SFRSYM    DATA     BIT       SM2
      000000CCH   SFRSYM    DATA     BYTE      TL2
      000000A0H.7 SFRSYM    DATA     BIT       UV_St
      000000D0H.3 SFRSYM    DATA     BIT       RS0
      000000F8H.6 SFRSYM    DATA     BIT       APP_EN
      000000D0H.4 SFRSYM    DATA     BIT       RS1
      00000088H.4 SFRSYM    DATA     BIT       TR0
      00000088H.6 SFRSYM    DATA     BIT       TR1
      00000093H   SFRSYM    DATA     BYTE      DPC
      000000C8H.0 SFRSYM    DATA     BIT       TR2
      000000E5H   SFRSYM    DATA     BYTE      MAC_MODE
      00000083H   SFRSYM    DATA     BYTE      DPH
      00000082H   SFRSYM    DATA     BYTE      DPL
      00000099H   SFRSYM    DATA     BYTE      SBUF0
      0000009CH   SFRSYM    DATA     BYTE      SBUF1
      00000098H   SFRSYM    DATA     BYTE      SCON0
      0000009BH   SFRSYM    DATA     BYTE      SCON1
      000000D8H   SFRSYM    DATA     BYTE      ADCON
      000000C8H   SFRSYM    DATA     BYTE      T2CON
      000000E6H   SFRSYM    DATA     BYTE      DIV_MODE
      000000F8H.5 SFRSYM    DATA     BIT       APP_RW
      000000CBH   SFRSYM    DATA     BYTE      TRL2H
      0000009FH   SFRSYM    DATA     BYTE      SBUF2_RX
      000000ADH   SFRSYM    DATA     BYTE      SBUF3_RX
      0000008EH   SFRSYM    DATA     BYTE      CKCON
      0000009EH   SFRSYM    DATA     BYTE      SBUF2_TX
      000000ACH   SFRSYM    DATA     BYTE      SBUF3_TX
      000000CAH   SFRSYM    DATA     BYTE      TRL2L
      000000D0H.5 SFRSYM    DATA     BIT       F0
      000000FEH   SFRSYM    DATA     BYTE      EXADR
      000000D0H.1 SFRSYM    DATA     BIT       F1
      000000A0H.3 SFRSYM    DATA     BIT       LED_B
      000000D0H   SFRSYM    DATA     BYTE      PSW
      000000A0H.1 SFRSYM    DATA     BIT       LED_G
      000000C0H   SFRSYM    DATA     BYTE      IRCON
      00000098H.2 SFRSYM    DATA     BIT       RB80

      01003445H   BLOCK     CODE     ---       LVL=0
LX51 LINKER/LOCATER V4.66.93.0                                                        04/30/2025  17:32:03  PAGE 20


      00000006H   SYMBOL    DATA     WORD      n
      01003445H   BLOCK     CODE     NEAR LAB  LVL=1
      00000004H   SYMBOL    DATA     WORD      i
      00000002H   SYMBOL    DATA     WORD      j
      ---         BLOCKEND  ---      ---       LVL=1
      01003445H   LINE      CODE     ---       #35
      01003445H   LINE      CODE     ---       #36
      01003445H   LINE      CODE     ---       #38
      0100344FH   LINE      CODE     ---       #39
      01003464H   LINE      CODE     ---       #40
      ---         BLOCKEND  ---      ---       LVL=0

      010035AFH   BLOCK     CODE     ---       LVL=0
      010035AFH   LINE      CODE     ---       #60
      010035AFH   LINE      CODE     ---       #61
      010035AFH   LINE      CODE     ---       #62
      010035B2H   LINE      CODE     ---       #63
      010035B4H   LINE      CODE     ---       #64
      010035B6H   LINE      CODE     ---       #65
      010035B8H   LINE      CODE     ---       #66
      010035BAH   LINE      CODE     ---       #67
      ---         BLOCKEND  ---      ---       LVL=0

      010034D1H   BLOCK     CODE     ---       LVL=0
      010034D1H   LINE      CODE     ---       #70
      010034D1H   LINE      CODE     ---       #71
      010034D1H   LINE      CODE     ---       #72
      010034D4H   LINE      CODE     ---       #73
      010034D7H   LINE      CODE     ---       #74
      010034DAH   LINE      CODE     ---       #77
      010034DDH   LINE      CODE     ---       #78
      010034E0H   LINE      CODE     ---       #79
      010034E3H   LINE      CODE     ---       #80
      010034E5H   LINE      CODE     ---       #81
      010034E7H   LINE      CODE     ---       #82
      010034E9H   LINE      CODE     ---       #83
      ---         BLOCKEND  ---      ---       LVL=0

      01000006H   BLOCK     CODE     ---       LVL=0
      01000006H   LINE      CODE     ---       #84
      01000006H   LINE      CODE     ---       #86
      01000008H   LINE      CODE     ---       #88
      0100000AH   LINE      CODE     ---       #89
      ---         BLOCKEND  ---      ---       LVL=0

      0100000EH   BLOCK     CODE     ---       LVL=0
      0100000EH   LINE      CODE     ---       #90
      0100000EH   LINE      CODE     ---       #92
      01000010H   LINE      CODE     ---       #94
      01000012H   LINE      CODE     ---       #95
      ---         BLOCKEND  ---      ---       LVL=0

      01003566H   BLOCK     CODE     ---       LVL=0
      01003566H   LINE      CODE     ---       #98
      01003566H   LINE      CODE     ---       #99
      01003566H   LINE      CODE     ---       #100
      01003568H   LINE      CODE     ---       #102
      0100356BH   LINE      CODE     ---       #103
      0100356EH   LINE      CODE     ---       #104
      01003571H   LINE      CODE     ---       #105
      01003574H   LINE      CODE     ---       #107
      01003576H   LINE      CODE     ---       #108
      ---         BLOCKEND  ---      ---       LVL=0

      ---         MODULE    ---      ---       DGUS
LX51 LINKER/LOCATER V4.66.93.0                                                        04/30/2025  17:32:03  PAGE 21


      0200A4B5H   PUBLIC    XDATA    BYTE      ?_WriteDGUS?BYTE
      01001A2BH   PUBLIC    CODE     ---       _WriteDGUS
      0200A4B5H   PUBLIC    XDATA    BYTE      ?_ReadDGUS?BYTE
      01001C78H   PUBLIC    CODE     ---       _ReadDGUS
      00000098H.3 SFRSYM    DATA     BIT       TB80
      000000F1H   SFRSYM    DATA     BYTE      ADR_H
      00000080H   SFRSYM    DATA     BYTE      P0
      00000090H   SFRSYM    DATA     BYTE      P1
      000000A0H   SFRSYM    DATA     BYTE      P2
      000000B0H   SFRSYM    DATA     BYTE      P3
      000000D0H.6 SFRSYM    DATA     BIT       AC
      000000F3H   SFRSYM    DATA     BYTE      ADR_L
      00000094H   SFRSYM    DATA     BYTE      PAGESEL
      000000F2H   SFRSYM    DATA     BYTE      ADR_M
      000000A8H.7 SFRSYM    DATA     BIT       EA
      000000A0H.5 SFRSYM    DATA     BIT       JIGUANG
      00000090H.7 SFRSYM    DATA     BIT       LED_R
      000000F8H   SFRSYM    DATA     BYTE      RAMMODE
      000000B7H   SFRSYM    DATA     BYTE      P0MDOUT
      000000A8H   SFRSYM    DATA     BYTE      IEN0
      000000BCH   SFRSYM    DATA     BYTE      P1MDOUT
      000000B8H   SFRSYM    DATA     BYTE      IEN1
      000000BDH   SFRSYM    DATA     BYTE      P2MDOUT
      000000F8H.0 SFRSYM    DATA     BIT       APP_DATA0
      0000009AH   SFRSYM    DATA     BYTE      IEN2
      000000BEH   SFRSYM    DATA     BYTE      P3MDOUT
      000000F8H.1 SFRSYM    DATA     BIT       APP_DATA1
      000000D1H   SFRSYM    DATA     BYTE      IEN3
      00000080H.0 SFRSYM    DATA     BIT       P0_0
      000000F8H.2 SFRSYM    DATA     BIT       APP_DATA2
      00000090H.0 SFRSYM    DATA     BIT       P1_0
      000000F8H.3 SFRSYM    DATA     BIT       APP_DATA3
      00000090H.1 SFRSYM    DATA     BIT       P1_1
      000000F8H.4 SFRSYM    DATA     BIT       APP_ACK
      000000F4H   SFRSYM    DATA     BYTE      ADR_INC
      000000B0H.1 SFRSYM    DATA     BIT       P3_1
      00000098H.4 SFRSYM    DATA     BIT       REN0
      000000B8H.1 SFRSYM    DATA     BIT       ECAN
      000000D0H.7 SFRSYM    DATA     BIT       CY
      000000B8H.3 SFRSYM    DATA     BIT       ES2R
      000000B8H.5 SFRSYM    DATA     BIT       ES3R
      000000B8H.2 SFRSYM    DATA     BIT       ES2T
      000000B8H.4 SFRSYM    DATA     BIT       ES3T
      000000C8H.7 SFRSYM    DATA     BIT       TSF2
      000000B0H.3 SFRSYM    DATA     BIT       RTC_SDA
      00000081H   SFRSYM    DATA     BYTE      SP
      000000D0H.2 SFRSYM    DATA     BIT       OV
      00000095H   SFRSYM    DATA     BYTE      D_PAGESEL
      00000090H.5 SFRSYM    DATA     BIT       UV
      000000F8H.7 SFRSYM    DATA     BIT       APP_REQ
      000000B0H.2 SFRSYM    DATA     BIT       RTC_SCL
      000000BFH   SFRSYM    DATA     BYTE      IRCON2
      000000BAH   SFRSYM    DATA     BYTE      SREL0H
      000000BBH   SFRSYM    DATA     BYTE      SREL1H
      00000087H   SFRSYM    DATA     BYTE      PCON
      000000AAH   SFRSYM    DATA     BYTE      SREL0L
      000000F9H   SFRSYM    DATA     BYTE      PORTDRV
      0000009DH   SFRSYM    DATA     BYTE      SREL1L
      00000089H   SFRSYM    DATA     BYTE      TMOD
      00000088H   SFRSYM    DATA     BYTE      TCON
      00000097H   SFRSYM    DATA     BYTE      SCON2R
      000000FFH   SFRSYM    DATA     BYTE      EXDATA
      000000ABH   SFRSYM    DATA     BYTE      SCON3R
      000000D9H   SFRSYM    DATA     BYTE      BODE2_DIV_H
      000000AEH   SFRSYM    DATA     BYTE      BODE3_DIV_H
LX51 LINKER/LOCATER V4.66.93.0                                                        04/30/2025  17:32:03  PAGE 22


      00000096H   SFRSYM    DATA     BYTE      SCON2T
      000000A7H   SFRSYM    DATA     BYTE      SCON3T
      000000E7H   SFRSYM    DATA     BYTE      BODE2_DIV_L
      00000088H.1 SFRSYM    DATA     BIT       IE0
      000000AFH   SFRSYM    DATA     BYTE      BODE3_DIV_L
      00000088H.3 SFRSYM    DATA     BIT       IE1
      000000C9H   SFRSYM    DATA     BYTE      MUX_SEL
      000000F0H   SFRSYM    DATA     BYTE      B
      000000E0H   SFRSYM    DATA     BYTE      ACC
      000000A8H.4 SFRSYM    DATA     BIT       ES0
      0000008FH   SFRSYM    DATA     BYTE      CAN_CR
      000000A8H.1 SFRSYM    DATA     BIT       ET0
      000000A9H   SFRSYM    DATA     BYTE      IP0
      000000A8H.3 SFRSYM    DATA     BIT       ET1
      00000088H.5 SFRSYM    DATA     BIT       TF0
      000000B9H   SFRSYM    DATA     BYTE      IP1
      000000A8H.5 SFRSYM    DATA     BIT       ET2
      00000098H.0 SFRSYM    DATA     BIT       RI0
      00000088H.7 SFRSYM    DATA     BIT       TF1
      000000FDH   SFRSYM    DATA     BYTE      DATA0
      000000C0H.6 SFRSYM    DATA     BIT       TF2
      000000E8H   SFRSYM    DATA     BYTE      CAN_ET
      000000FCH   SFRSYM    DATA     BYTE      DATA1
      0000008CH   SFRSYM    DATA     BYTE      TH0
      000000A8H.0 SFRSYM    DATA     BIT       EX0
      00000098H.1 SFRSYM    DATA     BIT       TI0
      00000088H.0 SFRSYM    DATA     BIT       IT0
      000000FBH   SFRSYM    DATA     BYTE      DATA2
      0000008DH   SFRSYM    DATA     BYTE      TH1
      000000A8H.2 SFRSYM    DATA     BIT       EX1
      00000091H   SFRSYM    DATA     BYTE      CAN_IR
      000000CDH   SFRSYM    DATA     BYTE      TH2
      00000088H.2 SFRSYM    DATA     BIT       IT1
      000000FAH   SFRSYM    DATA     BYTE      DATA3
      000000D0H.0 SFRSYM    DATA     BIT       P
      00000098H.7 SFRSYM    DATA     BIT       SM0
      0000008AH   SFRSYM    DATA     BYTE      TL0
      00000098H.6 SFRSYM    DATA     BIT       SM1
      0000008BH   SFRSYM    DATA     BYTE      TL1
      00000098H.5 SFRSYM    DATA     BIT       SM2
      000000CCH   SFRSYM    DATA     BYTE      TL2
      000000A0H.7 SFRSYM    DATA     BIT       UV_St
      000000D0H.3 SFRSYM    DATA     BIT       RS0
      000000F8H.6 SFRSYM    DATA     BIT       APP_EN
      000000D0H.4 SFRSYM    DATA     BIT       RS1
      00000088H.4 SFRSYM    DATA     BIT       TR0
      00000088H.6 SFRSYM    DATA     BIT       TR1
      00000093H   SFRSYM    DATA     BYTE      DPC
      000000C8H.0 SFRSYM    DATA     BIT       TR2
      000000E5H   SFRSYM    DATA     BYTE      MAC_MODE
      00000083H   SFRSYM    DATA     BYTE      DPH
      00000082H   SFRSYM    DATA     BYTE      DPL
      00000099H   SFRSYM    DATA     BYTE      SBUF0
      0000009CH   SFRSYM    DATA     BYTE      SBUF1
      00000098H   SFRSYM    DATA     BYTE      SCON0
      0000009BH   SFRSYM    DATA     BYTE      SCON1
      000000D8H   SFRSYM    DATA     BYTE      ADCON
      000000C8H   SFRSYM    DATA     BYTE      T2CON
      000000E6H   SFRSYM    DATA     BYTE      DIV_MODE
      000000F8H.5 SFRSYM    DATA     BIT       APP_RW
      000000CBH   SFRSYM    DATA     BYTE      TRL2H
      0000009FH   SFRSYM    DATA     BYTE      SBUF2_RX
      000000ADH   SFRSYM    DATA     BYTE      SBUF3_RX
      0000008EH   SFRSYM    DATA     BYTE      CKCON
      0000009EH   SFRSYM    DATA     BYTE      SBUF2_TX
LX51 LINKER/LOCATER V4.66.93.0                                                        04/30/2025  17:32:03  PAGE 23


      000000ACH   SFRSYM    DATA     BYTE      SBUF3_TX
      000000CAH   SFRSYM    DATA     BYTE      TRL2L
      000000D0H.5 SFRSYM    DATA     BIT       F0
      000000FEH   SFRSYM    DATA     BYTE      EXADR
      000000D0H.1 SFRSYM    DATA     BIT       F1
      000000A0H.3 SFRSYM    DATA     BIT       LED_B
      000000D0H   SFRSYM    DATA     BYTE      PSW
      000000A0H.1 SFRSYM    DATA     BIT       LED_G
      000000C0H   SFRSYM    DATA     BYTE      IRCON
      00000098H.2 SFRSYM    DATA     BIT       RB80

      01001C78H   BLOCK     CODE     ---       LVL=0
      00000004H   SYMBOL    DATA     WORD      Addr
      0200A4B7H   SYMBOL    XDATA    ---       pBuf
      0200A4BAH   SYMBOL    XDATA    WORD      Len
      01001C87H   BLOCK     CODE     NEAR LAB  LVL=1
      00000003H   SYMBOL    DATA     BYTE      Aoffset
      ---         BLOCKEND  ---      ---       LVL=1
      01001C78H   LINE      CODE     ---       #31
      01001C87H   LINE      CODE     ---       #32
      01001C87H   LINE      CODE     ---       #34
      01001C98H   LINE      CODE     ---       #35
      01001CA4H   LINE      CODE     ---       #36
      01001CBBH   LINE      CODE     ---       #37
      01001CBDH   LINE      CODE     ---       #38
      01001CC1H   LINE      CODE     ---       #39
      01001CC8H   LINE      CODE     ---       #40
      01001CD5H   LINE      CODE     ---       #41
      01001CD8H   LINE      CODE     ---       #42
      01001CDCH   LINE      CODE     ---       #43
      01001CDFH   LINE      CODE     ---       #44
      01001CE2H   LINE      CODE     ---       #45
      01001CE4H   LINE      CODE     ---       #46
      01001CE7H   LINE      CODE     ---       #47
      01001CE9H   LINE      CODE     ---       #49
      01001CEEH   LINE      CODE     ---       #50
      01001CEEH   LINE      CODE     ---       #51
      01001D04H   LINE      CODE     ---       #52
      01001D0CH   LINE      CODE     ---       #53
      01001D0EH   LINE      CODE     ---       #54
      01001D11H   LINE      CODE     ---       #55
      01001D3BH   LINE      CODE     ---       #56
      01001D68H   LINE      CODE     ---       #57
      01001D6BH   LINE      CODE     ---       #58
      01001D6BH   LINE      CODE     ---       #59
      01001D6BH   LINE      CODE     ---       #60
      01001D79H   LINE      CODE     ---       #61
      01001D85H   LINE      CODE     ---       #62
      01001D85H   LINE      CODE     ---       #63
      01001D92H   LINE      CODE     ---       #64
      01001D92H   LINE      CODE     ---       #65
      01001D9CH   LINE      CODE     ---       #66
      01001DA2H   LINE      CODE     ---       #67
      01001DAAH   LINE      CODE     ---       #68
      01001DAAH   LINE      CODE     ---       #69
      01001DACH   LINE      CODE     ---       #70
      01001DAFH   LINE      CODE     ---       #71
      01001DCAH   LINE      CODE     ---       #72
      01001DCAH   LINE      CODE     ---       #73
      01001E08H   LINE      CODE     ---       #74
      01001E31H   LINE      CODE     ---       #75
      01001E48H   LINE      CODE     ---       #76
      01001E48H   LINE      CODE     ---       #77
      01001E48H   LINE      CODE     ---       #78
      01001E48H   LINE      CODE     ---       #80
LX51 LINKER/LOCATER V4.66.93.0                                                        04/30/2025  17:32:03  PAGE 24


      01001E48H   LINE      CODE     ---       #81
      01001E50H   LINE      CODE     ---       #82
      01001E52H   LINE      CODE     ---       #83
      01001E55H   LINE      CODE     ---       #84
      01001EA9H   LINE      CODE     ---       #85
      01001EB7H   LINE      CODE     ---       #86
      01001EB7H   LINE      CODE     ---       #87
      01001EBAH   LINE      CODE     ---       #89
      01001EBDH   LINE      CODE     ---       #90
      01001EBFH   LINE      CODE     ---       #91
      ---         BLOCKEND  ---      ---       LVL=0

      01001A2BH   BLOCK     CODE     ---       LVL=0
      00000004H   SYMBOL    DATA     WORD      Addr
      0200A4B7H   SYMBOL    XDATA    ---       pBuf
      0200A4BAH   SYMBOL    XDATA    WORD      Len
      01001A3AH   BLOCK     CODE     NEAR LAB  LVL=1
      00000003H   SYMBOL    DATA     BYTE      Aoffset
      ---         BLOCKEND  ---      ---       LVL=1
      01001A2BH   LINE      CODE     ---       #107
      01001A3AH   LINE      CODE     ---       #108
      01001A3AH   LINE      CODE     ---       #110
      01001A4BH   LINE      CODE     ---       #111
      01001A57H   LINE      CODE     ---       #112
      01001A6EH   LINE      CODE     ---       #113
      01001A70H   LINE      CODE     ---       #114
      01001A74H   LINE      CODE     ---       #115
      01001A7BH   LINE      CODE     ---       #116
      01001A88H   LINE      CODE     ---       #117
      01001A8BH   LINE      CODE     ---       #118
      01001A8FH   LINE      CODE     ---       #119
      01001A92H   LINE      CODE     ---       #120
      01001A95H   LINE      CODE     ---       #121
      01001A97H   LINE      CODE     ---       #122
      01001A9AH   LINE      CODE     ---       #123
      01001A9CH   LINE      CODE     ---       #125
      01001AA1H   LINE      CODE     ---       #126
      01001AA1H   LINE      CODE     ---       #127
      01001AB8H   LINE      CODE     ---       #128
      01001AC0H   LINE      CODE     ---       #129
      01001AE3H   LINE      CODE     ---       #130
      01001B18H   LINE      CODE     ---       #131
      01001B1AH   LINE      CODE     ---       #132
      01001B1DH   LINE      CODE     ---       #133
      01001B1DH   LINE      CODE     ---       #134
      01001B1DH   LINE      CODE     ---       #135
      01001B1DH   LINE      CODE     ---       #136
      01001B2BH   LINE      CODE     ---       #137
      01001B37H   LINE      CODE     ---       #138
      01001B37H   LINE      CODE     ---       #139
      01001B44H   LINE      CODE     ---       #140
      01001B44H   LINE      CODE     ---       #141
      01001B4EH   LINE      CODE     ---       #142
      01001B54H   LINE      CODE     ---       #143
      01001B5CH   LINE      CODE     ---       #144
      01001B5CH   LINE      CODE     ---       #145
      01001B77H   LINE      CODE     ---       #146
      01001B77H   LINE      CODE     ---       #147
      01001BB8H   LINE      CODE     ---       #148
      01001BE4H   LINE      CODE     ---       #149
      01001BF9H   LINE      CODE     ---       #150
      01001BF9H   LINE      CODE     ---       #151
      01001BFBH   LINE      CODE     ---       #152
      01001C00H   LINE      CODE     ---       #153
      01001C00H   LINE      CODE     ---       #154
LX51 LINKER/LOCATER V4.66.93.0                                                        04/30/2025  17:32:03  PAGE 25


      01001C00H   LINE      CODE     ---       #156
      01001C00H   LINE      CODE     ---       #157
      01001C08H   LINE      CODE     ---       #158
      01001C5CH   LINE      CODE     ---       #159
      01001C5EH   LINE      CODE     ---       #160
      01001C61H   LINE      CODE     ---       #161
      01001C6FH   LINE      CODE     ---       #162
      01001C6FH   LINE      CODE     ---       #163
      01001C72H   LINE      CODE     ---       #165
      01001C75H   LINE      CODE     ---       #166
      01001C77H   LINE      CODE     ---       #167
      ---         BLOCKEND  ---      ---       LVL=0

      ---         MODULE    ---      ---       UART
      0200A0AAH   PUBLIC    XDATA    ---       Uart4_Rx
      0200A02AH   PUBLIC    XDATA    ---       Uart3_Rx
      0200808AH   PUBLIC    XDATA    ---       Uart2_Rx
      02008088H   PUBLIC    XDATA    WORD      uart5_rx_count
      02008086H   PUBLIC    XDATA    WORD      uart4_rx_count
      02008084H   PUBLIC    XDATA    WORD      uart3_rx_count
      02008082H   PUBLIC    XDATA    WORD      uart2_rx_count
      02008081H   PUBLIC    XDATA    BYTE      uart3_busy
      02008080H   PUBLIC    XDATA    BYTE      uart2_busy
      02008000H   PUBLIC    XDATA    ---       Uart5_Rx
      010035E9H   PUBLIC    CODE     ---       InitUart
      01002E27H   PUBLIC    CODE     ---       UART5_RX_ISR_PC
      0100002AH   PUBLIC    CODE     ---       UART5_TX_ISR_PC
      01003297H   PUBLIC    CODE     ---       _Uart5SendStr
      010035BBH   PUBLIC    CODE     ---       _Uart5SendByte
      0100006EH   PUBLIC    CODE     ---       Uart5Init
      01003553H   PUBLIC    CODE     ---       Uart4Init
      010030B3H   PUBLIC    CODE     ---       UART3_ISR_PC
      01003256H   PUBLIC    CODE     ---       _Uart3SendStr
      01003585H   PUBLIC    CODE     ---       _Uart3SendByte
      01003465H   PUBLIC    CODE     ---       Uart3Init
      01002F8AH   PUBLIC    CODE     ---       UART2_ISR_PC
      01003215H   PUBLIC    CODE     ---       _Uart2SendStr
      01003577H   PUBLIC    CODE     ---       _Uart2SendByte
      010033DCH   PUBLIC    CODE     ---       Uart2Init
      00000098H.3 SFRSYM    DATA     BIT       TB80
      000000F1H   SFRSYM    DATA     BYTE      ADR_H
      00000080H   SFRSYM    DATA     BYTE      P0
      00000090H   SFRSYM    DATA     BYTE      P1
      000000A0H   SFRSYM    DATA     BYTE      P2
      000000B0H   SFRSYM    DATA     BYTE      P3
      000000D0H.6 SFRSYM    DATA     BIT       AC
      000000F3H   SFRSYM    DATA     BYTE      ADR_L
      00000094H   SFRSYM    DATA     BYTE      PAGESEL
      000000F2H   SFRSYM    DATA     BYTE      ADR_M
      000000A8H.7 SFRSYM    DATA     BIT       EA
      000000A0H.5 SFRSYM    DATA     BIT       JIGUANG
      00000090H.7 SFRSYM    DATA     BIT       LED_R
      000000F8H   SFRSYM    DATA     BYTE      RAMMODE
      000000B7H   SFRSYM    DATA     BYTE      P0MDOUT
      000000A8H   SFRSYM    DATA     BYTE      IEN0
      000000BCH   SFRSYM    DATA     BYTE      P1MDOUT
      000000B8H   SFRSYM    DATA     BYTE      IEN1
      000000BDH   SFRSYM    DATA     BYTE      P2MDOUT
      000000F8H.0 SFRSYM    DATA     BIT       APP_DATA0
      0000009AH   SFRSYM    DATA     BYTE      IEN2
      000000BEH   SFRSYM    DATA     BYTE      P3MDOUT
      000000F8H.1 SFRSYM    DATA     BIT       APP_DATA1
      000000D1H   SFRSYM    DATA     BYTE      IEN3
      00000080H.0 SFRSYM    DATA     BIT       P0_0
      000000F8H.2 SFRSYM    DATA     BIT       APP_DATA2
LX51 LINKER/LOCATER V4.66.93.0                                                        04/30/2025  17:32:03  PAGE 26


      00000090H.0 SFRSYM    DATA     BIT       P1_0
      000000F8H.3 SFRSYM    DATA     BIT       APP_DATA3
      00000090H.1 SFRSYM    DATA     BIT       P1_1
      000000F8H.4 SFRSYM    DATA     BIT       APP_ACK
      000000F4H   SFRSYM    DATA     BYTE      ADR_INC
      000000B0H.1 SFRSYM    DATA     BIT       P3_1
      00000098H.4 SFRSYM    DATA     BIT       REN0
      000000B8H.1 SFRSYM    DATA     BIT       ECAN
      000000D0H.7 SFRSYM    DATA     BIT       CY
      000000B8H.3 SFRSYM    DATA     BIT       ES2R
      000000B8H.5 SFRSYM    DATA     BIT       ES3R
      000000B8H.2 SFRSYM    DATA     BIT       ES2T
      000000B8H.4 SFRSYM    DATA     BIT       ES3T
      000000C8H.7 SFRSYM    DATA     BIT       TSF2
      000000B0H.3 SFRSYM    DATA     BIT       RTC_SDA
      00000081H   SFRSYM    DATA     BYTE      SP
      000000D0H.2 SFRSYM    DATA     BIT       OV
      00000095H   SFRSYM    DATA     BYTE      D_PAGESEL
      00000090H.5 SFRSYM    DATA     BIT       UV
      000000F8H.7 SFRSYM    DATA     BIT       APP_REQ
      000000B0H.2 SFRSYM    DATA     BIT       RTC_SCL
      000000BFH   SFRSYM    DATA     BYTE      IRCON2
      000000BAH   SFRSYM    DATA     BYTE      SREL0H
      000000BBH   SFRSYM    DATA     BYTE      SREL1H
      00000087H   SFRSYM    DATA     BYTE      PCON
      000000AAH   SFRSYM    DATA     BYTE      SREL0L
      000000F9H   SFRSYM    DATA     BYTE      PORTDRV
      0000009DH   SFRSYM    DATA     BYTE      SREL1L
      00000089H   SFRSYM    DATA     BYTE      TMOD
      00000088H   SFRSYM    DATA     BYTE      TCON
      00000097H   SFRSYM    DATA     BYTE      SCON2R
      000000FFH   SFRSYM    DATA     BYTE      EXDATA
      000000ABH   SFRSYM    DATA     BYTE      SCON3R
      000000D9H   SFRSYM    DATA     BYTE      BODE2_DIV_H
      000000AEH   SFRSYM    DATA     BYTE      BODE3_DIV_H
      00000096H   SFRSYM    DATA     BYTE      SCON2T
      000000A7H   SFRSYM    DATA     BYTE      SCON3T
      000000E7H   SFRSYM    DATA     BYTE      BODE2_DIV_L
      00000088H.1 SFRSYM    DATA     BIT       IE0
      000000AFH   SFRSYM    DATA     BYTE      BODE3_DIV_L
      00000088H.3 SFRSYM    DATA     BIT       IE1
      000000C9H   SFRSYM    DATA     BYTE      MUX_SEL
      000000F0H   SFRSYM    DATA     BYTE      B
      000000E0H   SFRSYM    DATA     BYTE      ACC
      000000A8H.4 SFRSYM    DATA     BIT       ES0
      0000008FH   SFRSYM    DATA     BYTE      CAN_CR
      000000A8H.1 SFRSYM    DATA     BIT       ET0
      000000A9H   SFRSYM    DATA     BYTE      IP0
      000000A8H.3 SFRSYM    DATA     BIT       ET1
      00000088H.5 SFRSYM    DATA     BIT       TF0
      000000B9H   SFRSYM    DATA     BYTE      IP1
      000000A8H.5 SFRSYM    DATA     BIT       ET2
      00000098H.0 SFRSYM    DATA     BIT       RI0
      00000088H.7 SFRSYM    DATA     BIT       TF1
      000000FDH   SFRSYM    DATA     BYTE      DATA0
      000000C0H.6 SFRSYM    DATA     BIT       TF2
      000000E8H   SFRSYM    DATA     BYTE      CAN_ET
      000000FCH   SFRSYM    DATA     BYTE      DATA1
      0000008CH   SFRSYM    DATA     BYTE      TH0
      000000A8H.0 SFRSYM    DATA     BIT       EX0
      00000098H.1 SFRSYM    DATA     BIT       TI0
      00000088H.0 SFRSYM    DATA     BIT       IT0
      000000FBH   SFRSYM    DATA     BYTE      DATA2
      0000008DH   SFRSYM    DATA     BYTE      TH1
      000000A8H.2 SFRSYM    DATA     BIT       EX1
LX51 LINKER/LOCATER V4.66.93.0                                                        04/30/2025  17:32:03  PAGE 27


      00000091H   SFRSYM    DATA     BYTE      CAN_IR
      000000CDH   SFRSYM    DATA     BYTE      TH2
      00000088H.2 SFRSYM    DATA     BIT       IT1
      000000FAH   SFRSYM    DATA     BYTE      DATA3
      000000D0H.0 SFRSYM    DATA     BIT       P
      00000098H.7 SFRSYM    DATA     BIT       SM0
      0000008AH   SFRSYM    DATA     BYTE      TL0
      00000098H.6 SFRSYM    DATA     BIT       SM1
      0000008BH   SFRSYM    DATA     BYTE      TL1
      00000098H.5 SFRSYM    DATA     BIT       SM2
      000000CCH   SFRSYM    DATA     BYTE      TL2
      000000A0H.7 SFRSYM    DATA     BIT       UV_St
      000000D0H.3 SFRSYM    DATA     BIT       RS0
      000000F8H.6 SFRSYM    DATA     BIT       APP_EN
      000000D0H.4 SFRSYM    DATA     BIT       RS1
      00000088H.4 SFRSYM    DATA     BIT       TR0
      00000088H.6 SFRSYM    DATA     BIT       TR1
      00000093H   SFRSYM    DATA     BYTE      DPC
      000000C8H.0 SFRSYM    DATA     BIT       TR2
      000000E5H   SFRSYM    DATA     BYTE      MAC_MODE
      00000083H   SFRSYM    DATA     BYTE      DPH
      00000082H   SFRSYM    DATA     BYTE      DPL
      00000099H   SFRSYM    DATA     BYTE      SBUF0
      0000009CH   SFRSYM    DATA     BYTE      SBUF1
      00000098H   SFRSYM    DATA     BYTE      SCON0
      0000009BH   SFRSYM    DATA     BYTE      SCON1
      000000D8H   SFRSYM    DATA     BYTE      ADCON
      000000C8H   SFRSYM    DATA     BYTE      T2CON
      000000E6H   SFRSYM    DATA     BYTE      DIV_MODE
      000000F8H.5 SFRSYM    DATA     BIT       APP_RW
      000000CBH   SFRSYM    DATA     BYTE      TRL2H
      0000009FH   SFRSYM    DATA     BYTE      SBUF2_RX
      000000ADH   SFRSYM    DATA     BYTE      SBUF3_RX
      0000008EH   SFRSYM    DATA     BYTE      CKCON
      0000009EH   SFRSYM    DATA     BYTE      SBUF2_TX
      000000ACH   SFRSYM    DATA     BYTE      SBUF3_TX
      000000CAH   SFRSYM    DATA     BYTE      TRL2L
      000000D0H.5 SFRSYM    DATA     BIT       F0
      000000FEH   SFRSYM    DATA     BYTE      EXADR
      000000D0H.1 SFRSYM    DATA     BIT       F1
      000000A0H.3 SFRSYM    DATA     BIT       LED_B
      000000D0H   SFRSYM    DATA     BYTE      PSW
      000000A0H.1 SFRSYM    DATA     BIT       LED_G
      000000C0H   SFRSYM    DATA     BYTE      IRCON
      00000098H.2 SFRSYM    DATA     BIT       RB80

      010033DCH   BLOCK     CODE     ---       LVL=0
      010033DCH   LINE      CODE     ---       #40
      010033DCH   LINE      CODE     ---       #41
      010033DCH   LINE      CODE     ---       #42
      010033DFH   LINE      CODE     ---       #43
      010033E2H   LINE      CODE     ---       #44
      010033E7H   LINE      CODE     ---       #45
      010033EDH   LINE      CODE     ---       #46
      010033F0H   LINE      CODE     ---       #47
      010033F3H   LINE      CODE     ---       #48
      010033F6H   LINE      CODE     ---       #49
      010033F9H   LINE      CODE     ---       #50
      010033FCH   LINE      CODE     ---       #51
      010033FEH   LINE      CODE     ---       #52
      01003400H   LINE      CODE     ---       #53
      ---         BLOCKEND  ---      ---       LVL=0

      01003577H   BLOCK     CODE     ---       LVL=0
      00000007H   SYMBOL    DATA     BYTE      dat
LX51 LINKER/LOCATER V4.66.93.0                                                        04/30/2025  17:32:03  PAGE 28


      01003577H   LINE      CODE     ---       #56
      01003577H   LINE      CODE     ---       #57
      01003577H   LINE      CODE     ---       #58
      0100357FH   LINE      CODE     ---       #59
      01003582H   LINE      CODE     ---       #60
      01003584H   LINE      CODE     ---       #61
      ---         BLOCKEND  ---      ---       LVL=0

      01003215H   BLOCK     CODE     ---       LVL=0
      0200A48DH   SYMBOL    XDATA    ---       pstr
      00000005H   SYMBOL    DATA     BYTE      strlen
      01003215H   LINE      CODE     ---       #64
      01003220H   LINE      CODE     ---       #65
      01003220H   LINE      CODE     ---       #66
      01003231H   LINE      CODE     ---       #67
      01003231H   LINE      CODE     ---       #69
      01003231H   LINE      CODE     ---       #70
      01003237H   LINE      CODE     ---       #71
      01003237H   LINE      CODE     ---       #72
      01003249H   LINE      CODE     ---       #73
      01003253H   LINE      CODE     ---       #74
      01003255H   LINE      CODE     ---       #75
      ---         BLOCKEND  ---      ---       LVL=0

      01002F8AH   BLOCK     CODE     ---       LVL=0
      01002F99H   BLOCK     CODE     NEAR LAB  LVL=1
      00000007H   SYMBOL    DATA     BYTE      res
      ---         BLOCKEND  ---      ---       LVL=1
      01002F8AH   LINE      CODE     ---       #78
      01002F99H   LINE      CODE     ---       #80
      01002F99H   LINE      CODE     ---       #81
      01002F9BH   LINE      CODE     ---       #84
      01002F9EH   LINE      CODE     ---       #85
      01002F9EH   LINE      CODE     ---       #86
      01002FA0H   LINE      CODE     ---       #87
      01002FB2H   LINE      CODE     ---       #88
      01002FC0H   LINE      CODE     ---       #89
      01002FCFH   LINE      CODE     ---       #91
      01002FD3H   LINE      CODE     ---       #92
      01002FD3H   LINE      CODE     ---       #93
      01002FD5H   LINE      CODE     ---       #94
      01002FD5H   LINE      CODE     ---       #95
      01002FD8H   LINE      CODE     ---       #96
      01002FD8H   LINE      CODE     ---       #97
      01002FDAH   LINE      CODE     ---       #98
      01002FDFH   LINE      CODE     ---       #99
      01002FDFH   LINE      CODE     ---       #101
      01002FE1H   LINE      CODE     ---       #102
      ---         BLOCKEND  ---      ---       LVL=0

      01003465H   BLOCK     CODE     ---       LVL=0
      01003465H   LINE      CODE     ---       #108
      01003465H   LINE      CODE     ---       #109
      01003465H   LINE      CODE     ---       #110
      01003468H   LINE      CODE     ---       #111
      0100346BH   LINE      CODE     ---       #112
      01003470H   LINE      CODE     ---       #113
      01003476H   LINE      CODE     ---       #114
      01003479H   LINE      CODE     ---       #115
      0100347CH   LINE      CODE     ---       #116
      0100347FH   LINE      CODE     ---       #117
      01003482H   LINE      CODE     ---       #118
      ---         BLOCKEND  ---      ---       LVL=0

      01003585H   BLOCK     CODE     ---       LVL=0
LX51 LINKER/LOCATER V4.66.93.0                                                        04/30/2025  17:32:03  PAGE 29


      00000007H   SYMBOL    DATA     BYTE      dat
      01003585H   LINE      CODE     ---       #121
      01003585H   LINE      CODE     ---       #122
      01003585H   LINE      CODE     ---       #123
      0100358DH   LINE      CODE     ---       #124
      01003590H   LINE      CODE     ---       #125
      01003592H   LINE      CODE     ---       #126
      ---         BLOCKEND  ---      ---       LVL=0

      01003256H   BLOCK     CODE     ---       LVL=0
      0200A51BH   SYMBOL    XDATA    ---       pstr
      00000005H   SYMBOL    DATA     BYTE      strlen
      01003256H   LINE      CODE     ---       #136
      01003261H   LINE      CODE     ---       #137
      01003261H   LINE      CODE     ---       #138
      01003272H   LINE      CODE     ---       #139
      01003272H   LINE      CODE     ---       #141
      01003272H   LINE      CODE     ---       #142
      01003278H   LINE      CODE     ---       #143
      01003278H   LINE      CODE     ---       #144
      0100328AH   LINE      CODE     ---       #145
      01003294H   LINE      CODE     ---       #146
      01003296H   LINE      CODE     ---       #147
      ---         BLOCKEND  ---      ---       LVL=0

      010030B3H   BLOCK     CODE     ---       LVL=0
      010030C2H   BLOCK     CODE     NEAR LAB  LVL=1
      00000007H   SYMBOL    DATA     BYTE      res
      ---         BLOCKEND  ---      ---       LVL=1
      010030B3H   LINE      CODE     ---       #150
      010030C2H   LINE      CODE     ---       #152
      010030C2H   LINE      CODE     ---       #153
      010030C4H   LINE      CODE     ---       #154
      010030C9H   LINE      CODE     ---       #155
      010030C9H   LINE      CODE     ---       #156
      010030CBH   LINE      CODE     ---       #157
      010030DDH   LINE      CODE     ---       #158
      010030EBH   LINE      CODE     ---       #159
      010030EEH   LINE      CODE     ---       #160
      010030F1H   LINE      CODE     ---       #161
      010030F1H   LINE      CODE     ---       #162
      010030F6H   LINE      CODE     ---       #163
      010030F6H   LINE      CODE     ---       #164
      010030F9H   LINE      CODE     ---       #165
      010030FCH   LINE      CODE     ---       #166
      01003101H   LINE      CODE     ---       #167
      01003101H   LINE      CODE     ---       #168
      01003104H   LINE      CODE     ---       #169
      01003106H   LINE      CODE     ---       #170
      ---         BLOCKEND  ---      ---       LVL=0

      01003553H   BLOCK     CODE     ---       LVL=0
      01003553H   LINE      CODE     ---       #174
      01003553H   LINE      CODE     ---       #175
      01003553H   LINE      CODE     ---       #176
      0100355AH   LINE      CODE     ---       #177
      0100355DH   LINE      CODE     ---       #178
      01003560H   LINE      CODE     ---       #179
      01003562H   LINE      CODE     ---       #180
      01003565H   LINE      CODE     ---       #183
      ---         BLOCKEND  ---      ---       LVL=0

      0100006EH   BLOCK     CODE     ---       LVL=0
      0100006EH   LINE      CODE     ---       #238
      0100006EH   LINE      CODE     ---       #239
LX51 LINKER/LOCATER V4.66.93.0                                                        04/30/2025  17:32:03  PAGE 30


      0100006EH   LINE      CODE     ---       #240
      01000075H   LINE      CODE     ---       #241
      01000078H   LINE      CODE     ---       #242
      0100007BH   LINE      CODE     ---       #243
      0100007DH   LINE      CODE     ---       #244
      01000080H   LINE      CODE     ---       #246
      01000082H   LINE      CODE     ---       #247
      ---         BLOCKEND  ---      ---       LVL=0

      010035BBH   BLOCK     CODE     ---       LVL=0
      00000007H   SYMBOL    DATA     BYTE      dat
      010035BBH   LINE      CODE     ---       #252
      010035BBH   LINE      CODE     ---       #253
      010035BBH   LINE      CODE     ---       #254
      010035BDH   LINE      CODE     ---       #255
      010035C3H   LINE      CODE     ---       #256
      010035C6H   LINE      CODE     ---       #257
      ---         BLOCKEND  ---      ---       LVL=0

      01003297H   BLOCK     CODE     ---       LVL=0
      0200A51EH   SYMBOL    XDATA    ---       pstr
      00000005H   SYMBOL    DATA     BYTE      strlen
      01003297H   LINE      CODE     ---       #263
      010032A2H   LINE      CODE     ---       #264
      010032A2H   LINE      CODE     ---       #265
      010032B3H   LINE      CODE     ---       #266
      010032B3H   LINE      CODE     ---       #268
      010032B3H   LINE      CODE     ---       #269
      010032B9H   LINE      CODE     ---       #270
      010032B9H   LINE      CODE     ---       #271
      010032CBH   LINE      CODE     ---       #272
      010032D5H   LINE      CODE     ---       #273
      010032D7H   LINE      CODE     ---       #274
      ---         BLOCKEND  ---      ---       LVL=0

      0100002AH   BLOCK     CODE     ---       LVL=0
      0100002AH   LINE      CODE     ---       #279
      0100002AH   LINE      CODE     ---       #281
      ---         BLOCKEND  ---      ---       LVL=0

      01002E27H   BLOCK     CODE     ---       LVL=0
      01002E44H   BLOCK     CODE     NEAR LAB  LVL=1
      00000007H   SYMBOL    DATA     BYTE      res
      ---         BLOCKEND  ---      ---       LVL=1
      01002E27H   LINE      CODE     ---       #286
      01002E44H   LINE      CODE     ---       #288
      01002E46H   LINE      CODE     ---       #289
      01002E48H   LINE      CODE     ---       #290
      01002E50H   LINE      CODE     ---       #291
      01002E50H   LINE      CODE     ---       #292
      01002E53H   LINE      CODE     ---       #293
      01002E55H   LINE      CODE     ---       #294
      01002E67H   LINE      CODE     ---       #295
      01002E75H   LINE      CODE     ---       #296
      01002E78H   LINE      CODE     ---       #297
      01002E87H   LINE      CODE     ---       #299
      01002E8BH   LINE      CODE     ---       #300
      01002E8BH   LINE      CODE     ---       #301
      01002E8BH   LINE      CODE     ---       #305
      01002E8DH   LINE      CODE     ---       #306
      ---         BLOCKEND  ---      ---       LVL=0

      010035E9H   BLOCK     CODE     ---       LVL=0
      010035E9H   LINE      CODE     ---       #310
      010035E9H   LINE      CODE     ---       #311
LX51 LINKER/LOCATER V4.66.93.0                                                        04/30/2025  17:32:03  PAGE 31


      010035E9H   LINE      CODE     ---       #312
      010035ECH   LINE      CODE     ---       #314
      010035EFH   LINE      CODE     ---       #315
      ---         BLOCKEND  ---      ---       LVL=0

      ---         MODULE    ---      ---       NORFLASH
      00000098H.3 SFRSYM    DATA     BIT       TB80
      000000F1H   SFRSYM    DATA     BYTE      ADR_H
      00000080H   SFRSYM    DATA     BYTE      P0
      00000090H   SFRSYM    DATA     BYTE      P1
      000000A0H   SFRSYM    DATA     BYTE      P2
      000000B0H   SFRSYM    DATA     BYTE      P3
      000000D0H.6 SFRSYM    DATA     BIT       AC
      000000F3H   SFRSYM    DATA     BYTE      ADR_L
      00000094H   SFRSYM    DATA     BYTE      PAGESEL
      000000F2H   SFRSYM    DATA     BYTE      ADR_M
      000000A8H.7 SFRSYM    DATA     BIT       EA
      000000A0H.5 SFRSYM    DATA     BIT       JIGUANG
      00000090H.7 SFRSYM    DATA     BIT       LED_R
      000000F8H   SFRSYM    DATA     BYTE      RAMMODE
      000000B7H   SFRSYM    DATA     BYTE      P0MDOUT
      000000A8H   SFRSYM    DATA     BYTE      IEN0
      000000BCH   SFRSYM    DATA     BYTE      P1MDOUT
      000000B8H   SFRSYM    DATA     BYTE      IEN1
      000000BDH   SFRSYM    DATA     BYTE      P2MDOUT
      000000F8H.0 SFRSYM    DATA     BIT       APP_DATA0
      0000009AH   SFRSYM    DATA     BYTE      IEN2
      000000BEH   SFRSYM    DATA     BYTE      P3MDOUT
      000000F8H.1 SFRSYM    DATA     BIT       APP_DATA1
      000000D1H   SFRSYM    DATA     BYTE      IEN3
      00000080H.0 SFRSYM    DATA     BIT       P0_0
      000000F8H.2 SFRSYM    DATA     BIT       APP_DATA2
      00000090H.0 SFRSYM    DATA     BIT       P1_0
      000000F8H.3 SFRSYM    DATA     BIT       APP_DATA3
      00000090H.1 SFRSYM    DATA     BIT       P1_1
      000000F8H.4 SFRSYM    DATA     BIT       APP_ACK
      000000F4H   SFRSYM    DATA     BYTE      ADR_INC
      000000B0H.1 SFRSYM    DATA     BIT       P3_1
      00000098H.4 SFRSYM    DATA     BIT       REN0
      000000B8H.1 SFRSYM    DATA     BIT       ECAN
      000000D0H.7 SFRSYM    DATA     BIT       CY
      000000B8H.3 SFRSYM    DATA     BIT       ES2R
      000000B8H.5 SFRSYM    DATA     BIT       ES3R
      000000B8H.2 SFRSYM    DATA     BIT       ES2T
      000000B8H.4 SFRSYM    DATA     BIT       ES3T
      000000C8H.7 SFRSYM    DATA     BIT       TSF2
      000000B0H.3 SFRSYM    DATA     BIT       RTC_SDA
      00000081H   SFRSYM    DATA     BYTE      SP
      000000D0H.2 SFRSYM    DATA     BIT       OV
      00000095H   SFRSYM    DATA     BYTE      D_PAGESEL
      00000090H.5 SFRSYM    DATA     BIT       UV
      000000F8H.7 SFRSYM    DATA     BIT       APP_REQ
      000000B0H.2 SFRSYM    DATA     BIT       RTC_SCL
      000000BFH   SFRSYM    DATA     BYTE      IRCON2
      000000BAH   SFRSYM    DATA     BYTE      SREL0H
      000000BBH   SFRSYM    DATA     BYTE      SREL1H
      00000087H   SFRSYM    DATA     BYTE      PCON
      000000AAH   SFRSYM    DATA     BYTE      SREL0L
      000000F9H   SFRSYM    DATA     BYTE      PORTDRV
      0000009DH   SFRSYM    DATA     BYTE      SREL1L
      00000089H   SFRSYM    DATA     BYTE      TMOD
      00000088H   SFRSYM    DATA     BYTE      TCON
      00000097H   SFRSYM    DATA     BYTE      SCON2R
      000000FFH   SFRSYM    DATA     BYTE      EXDATA
      000000ABH   SFRSYM    DATA     BYTE      SCON3R
LX51 LINKER/LOCATER V4.66.93.0                                                        04/30/2025  17:32:03  PAGE 32


      000000D9H   SFRSYM    DATA     BYTE      BODE2_DIV_H
      000000AEH   SFRSYM    DATA     BYTE      BODE3_DIV_H
      00000096H   SFRSYM    DATA     BYTE      SCON2T
      000000A7H   SFRSYM    DATA     BYTE      SCON3T
      000000E7H   SFRSYM    DATA     BYTE      BODE2_DIV_L
      00000088H.1 SFRSYM    DATA     BIT       IE0
      000000AFH   SFRSYM    DATA     BYTE      BODE3_DIV_L
      00000088H.3 SFRSYM    DATA     BIT       IE1
      000000C9H   SFRSYM    DATA     BYTE      MUX_SEL
      000000F0H   SFRSYM    DATA     BYTE      B
      000000E0H   SFRSYM    DATA     BYTE      ACC
      000000A8H.4 SFRSYM    DATA     BIT       ES0
      0000008FH   SFRSYM    DATA     BYTE      CAN_CR
      000000A8H.1 SFRSYM    DATA     BIT       ET0
      000000A9H   SFRSYM    DATA     BYTE      IP0
      000000A8H.3 SFRSYM    DATA     BIT       ET1
      00000088H.5 SFRSYM    DATA     BIT       TF0
      000000B9H   SFRSYM    DATA     BYTE      IP1
      000000A8H.5 SFRSYM    DATA     BIT       ET2
      00000098H.0 SFRSYM    DATA     BIT       RI0
      00000088H.7 SFRSYM    DATA     BIT       TF1
      000000FDH   SFRSYM    DATA     BYTE      DATA0
      000000C0H.6 SFRSYM    DATA     BIT       TF2
      000000E8H   SFRSYM    DATA     BYTE      CAN_ET
      000000FCH   SFRSYM    DATA     BYTE      DATA1
      0000008CH   SFRSYM    DATA     BYTE      TH0
      000000A8H.0 SFRSYM    DATA     BIT       EX0
      00000098H.1 SFRSYM    DATA     BIT       TI0
      00000088H.0 SFRSYM    DATA     BIT       IT0
      000000FBH   SFRSYM    DATA     BYTE      DATA2
      0000008DH   SFRSYM    DATA     BYTE      TH1
      000000A8H.2 SFRSYM    DATA     BIT       EX1
      00000091H   SFRSYM    DATA     BYTE      CAN_IR
      000000CDH   SFRSYM    DATA     BYTE      TH2
      00000088H.2 SFRSYM    DATA     BIT       IT1
      000000FAH   SFRSYM    DATA     BYTE      DATA3
      000000D0H.0 SFRSYM    DATA     BIT       P
      00000098H.7 SFRSYM    DATA     BIT       SM0
      0000008AH   SFRSYM    DATA     BYTE      TL0
      00000098H.6 SFRSYM    DATA     BIT       SM1
      0000008BH   SFRSYM    DATA     BYTE      TL1
      00000098H.5 SFRSYM    DATA     BIT       SM2
      000000CCH   SFRSYM    DATA     BYTE      TL2
      000000A0H.7 SFRSYM    DATA     BIT       UV_St
      000000D0H.3 SFRSYM    DATA     BIT       RS0
      000000F8H.6 SFRSYM    DATA     BIT       APP_EN
      000000D0H.4 SFRSYM    DATA     BIT       RS1
      00000088H.4 SFRSYM    DATA     BIT       TR0
      00000088H.6 SFRSYM    DATA     BIT       TR1
      00000093H   SFRSYM    DATA     BYTE      DPC
      000000C8H.0 SFRSYM    DATA     BIT       TR2
      000000E5H   SFRSYM    DATA     BYTE      MAC_MODE
      00000083H   SFRSYM    DATA     BYTE      DPH
      00000082H   SFRSYM    DATA     BYTE      DPL
      00000099H   SFRSYM    DATA     BYTE      SBUF0
      0000009CH   SFRSYM    DATA     BYTE      SBUF1
      00000098H   SFRSYM    DATA     BYTE      SCON0
      0000009BH   SFRSYM    DATA     BYTE      SCON1
      000000D8H   SFRSYM    DATA     BYTE      ADCON
      000000C8H   SFRSYM    DATA     BYTE      T2CON
      000000E6H   SFRSYM    DATA     BYTE      DIV_MODE
      000000F8H.5 SFRSYM    DATA     BIT       APP_RW
      000000CBH   SFRSYM    DATA     BYTE      TRL2H
      0000009FH   SFRSYM    DATA     BYTE      SBUF2_RX
      000000ADH   SFRSYM    DATA     BYTE      SBUF3_RX
LX51 LINKER/LOCATER V4.66.93.0                                                        04/30/2025  17:32:03  PAGE 33


      0000008EH   SFRSYM    DATA     BYTE      CKCON
      0000009EH   SFRSYM    DATA     BYTE      SBUF2_TX
      000000ACH   SFRSYM    DATA     BYTE      SBUF3_TX
      000000CAH   SFRSYM    DATA     BYTE      TRL2L
      000000D0H.5 SFRSYM    DATA     BIT       F0
      000000FEH   SFRSYM    DATA     BYTE      EXADR
      000000D0H.1 SFRSYM    DATA     BIT       F1
      000000A0H.3 SFRSYM    DATA     BIT       LED_B
      000000D0H   SFRSYM    DATA     BYTE      PSW
      000000A0H.1 SFRSYM    DATA     BIT       LED_G
      000000C0H   SFRSYM    DATA     BYTE      IRCON
      00000098H.2 SFRSYM    DATA     BIT       RB80

      ---         MODULE    ---      ---       TIMER
      0200A517H   PUBLIC    XDATA    DWORD     i
      010000F1H   PUBLIC    CODE     ---       InitTimer
      010035FEH   PUBLIC    CODE     ---       T2_ISR_PC
      0100352BH   PUBLIC    CODE     ---       T2_Init
      01002955H   PUBLIC    CODE     ---       T0_ISR_PC
      01003593H   PUBLIC    CODE     ---       T0_Init
      00000098H.3 SFRSYM    DATA     BIT       TB80
      000000F1H   SFRSYM    DATA     BYTE      ADR_H
      00000080H   SFRSYM    DATA     BYTE      P0
      00000090H   SFRSYM    DATA     BYTE      P1
      000000A0H   SFRSYM    DATA     BYTE      P2
      000000B0H   SFRSYM    DATA     BYTE      P3
      000000D0H.6 SFRSYM    DATA     BIT       AC
      000000F3H   SFRSYM    DATA     BYTE      ADR_L
      00000094H   SFRSYM    DATA     BYTE      PAGESEL
      000000F2H   SFRSYM    DATA     BYTE      ADR_M
      000000A8H.7 SFRSYM    DATA     BIT       EA
      000000A0H.5 SFRSYM    DATA     BIT       JIGUANG
      00000090H.7 SFRSYM    DATA     BIT       LED_R
      000000F8H   SFRSYM    DATA     BYTE      RAMMODE
      000000B7H   SFRSYM    DATA     BYTE      P0MDOUT
      000000A8H   SFRSYM    DATA     BYTE      IEN0
      000000BCH   SFRSYM    DATA     BYTE      P1MDOUT
      000000B8H   SFRSYM    DATA     BYTE      IEN1
      000000BDH   SFRSYM    DATA     BYTE      P2MDOUT
      000000F8H.0 SFRSYM    DATA     BIT       APP_DATA0
      0000009AH   SFRSYM    DATA     BYTE      IEN2
      000000BEH   SFRSYM    DATA     BYTE      P3MDOUT
      000000F8H.1 SFRSYM    DATA     BIT       APP_DATA1
      000000D1H   SFRSYM    DATA     BYTE      IEN3
      00000080H.0 SFRSYM    DATA     BIT       P0_0
      000000F8H.2 SFRSYM    DATA     BIT       APP_DATA2
      00000090H.0 SFRSYM    DATA     BIT       P1_0
      000000F8H.3 SFRSYM    DATA     BIT       APP_DATA3
      00000090H.1 SFRSYM    DATA     BIT       P1_1
      000000F8H.4 SFRSYM    DATA     BIT       APP_ACK
      000000F4H   SFRSYM    DATA     BYTE      ADR_INC
      000000B0H.1 SFRSYM    DATA     BIT       P3_1
      00000098H.4 SFRSYM    DATA     BIT       REN0
      000000B8H.1 SFRSYM    DATA     BIT       ECAN
      000000D0H.7 SFRSYM    DATA     BIT       CY
      000000B8H.3 SFRSYM    DATA     BIT       ES2R
      000000B8H.5 SFRSYM    DATA     BIT       ES3R
      000000B8H.2 SFRSYM    DATA     BIT       ES2T
      000000B8H.4 SFRSYM    DATA     BIT       ES3T
      000000C8H.7 SFRSYM    DATA     BIT       TSF2
      000000B0H.3 SFRSYM    DATA     BIT       RTC_SDA
      00000081H   SFRSYM    DATA     BYTE      SP
      000000D0H.2 SFRSYM    DATA     BIT       OV
      00000095H   SFRSYM    DATA     BYTE      D_PAGESEL
      00000090H.5 SFRSYM    DATA     BIT       UV
LX51 LINKER/LOCATER V4.66.93.0                                                        04/30/2025  17:32:03  PAGE 34


      000000F8H.7 SFRSYM    DATA     BIT       APP_REQ
      000000B0H.2 SFRSYM    DATA     BIT       RTC_SCL
      000000BFH   SFRSYM    DATA     BYTE      IRCON2
      000000BAH   SFRSYM    DATA     BYTE      SREL0H
      000000BBH   SFRSYM    DATA     BYTE      SREL1H
      00000087H   SFRSYM    DATA     BYTE      PCON
      000000AAH   SFRSYM    DATA     BYTE      SREL0L
      000000F9H   SFRSYM    DATA     BYTE      PORTDRV
      0000009DH   SFRSYM    DATA     BYTE      SREL1L
      00000089H   SFRSYM    DATA     BYTE      TMOD
      00000088H   SFRSYM    DATA     BYTE      TCON
      00000097H   SFRSYM    DATA     BYTE      SCON2R
      000000FFH   SFRSYM    DATA     BYTE      EXDATA
      000000ABH   SFRSYM    DATA     BYTE      SCON3R
      000000D9H   SFRSYM    DATA     BYTE      BODE2_DIV_H
      000000AEH   SFRSYM    DATA     BYTE      BODE3_DIV_H
      00000096H   SFRSYM    DATA     BYTE      SCON2T
      000000A7H   SFRSYM    DATA     BYTE      SCON3T
      000000E7H   SFRSYM    DATA     BYTE      BODE2_DIV_L
      00000088H.1 SFRSYM    DATA     BIT       IE0
      000000AFH   SFRSYM    DATA     BYTE      BODE3_DIV_L
      00000088H.3 SFRSYM    DATA     BIT       IE1
      000000C9H   SFRSYM    DATA     BYTE      MUX_SEL
      000000F0H   SFRSYM    DATA     BYTE      B
      000000E0H   SFRSYM    DATA     BYTE      ACC
      000000A8H.4 SFRSYM    DATA     BIT       ES0
      0000008FH   SFRSYM    DATA     BYTE      CAN_CR
      000000A8H.1 SFRSYM    DATA     BIT       ET0
      000000A9H   SFRSYM    DATA     BYTE      IP0
      000000A8H.3 SFRSYM    DATA     BIT       ET1
      00000088H.5 SFRSYM    DATA     BIT       TF0
      000000B9H   SFRSYM    DATA     BYTE      IP1
      000000A8H.5 SFRSYM    DATA     BIT       ET2
      00000098H.0 SFRSYM    DATA     BIT       RI0
      00000088H.7 SFRSYM    DATA     BIT       TF1
      000000FDH   SFRSYM    DATA     BYTE      DATA0
      000000C0H.6 SFRSYM    DATA     BIT       TF2
      000000E8H   SFRSYM    DATA     BYTE      CAN_ET
      000000FCH   SFRSYM    DATA     BYTE      DATA1
      0000008CH   SFRSYM    DATA     BYTE      TH0
      000000A8H.0 SFRSYM    DATA     BIT       EX0
      00000098H.1 SFRSYM    DATA     BIT       TI0
      00000088H.0 SFRSYM    DATA     BIT       IT0
      000000FBH   SFRSYM    DATA     BYTE      DATA2
      0000008DH   SFRSYM    DATA     BYTE      TH1
      000000A8H.2 SFRSYM    DATA     BIT       EX1
      00000091H   SFRSYM    DATA     BYTE      CAN_IR
      000000CDH   SFRSYM    DATA     BYTE      TH2
      00000088H.2 SFRSYM    DATA     BIT       IT1
      000000FAH   SFRSYM    DATA     BYTE      DATA3
      000000D0H.0 SFRSYM    DATA     BIT       P
      00000098H.7 SFRSYM    DATA     BIT       SM0
      0000008AH   SFRSYM    DATA     BYTE      TL0
      00000098H.6 SFRSYM    DATA     BIT       SM1
      0000008BH   SFRSYM    DATA     BYTE      TL1
      00000098H.5 SFRSYM    DATA     BIT       SM2
      000000CCH   SFRSYM    DATA     BYTE      TL2
      000000A0H.7 SFRSYM    DATA     BIT       UV_St
      000000D0H.3 SFRSYM    DATA     BIT       RS0
      000000F8H.6 SFRSYM    DATA     BIT       APP_EN
      000000D0H.4 SFRSYM    DATA     BIT       RS1
      00000088H.4 SFRSYM    DATA     BIT       TR0
      00000088H.6 SFRSYM    DATA     BIT       TR1
      00000093H   SFRSYM    DATA     BYTE      DPC
      000000C8H.0 SFRSYM    DATA     BIT       TR2
LX51 LINKER/LOCATER V4.66.93.0                                                        04/30/2025  17:32:03  PAGE 35


      000000E5H   SFRSYM    DATA     BYTE      MAC_MODE
      00000083H   SFRSYM    DATA     BYTE      DPH
      00000082H   SFRSYM    DATA     BYTE      DPL
      00000099H   SFRSYM    DATA     BYTE      SBUF0
      0000009CH   SFRSYM    DATA     BYTE      SBUF1
      00000098H   SFRSYM    DATA     BYTE      SCON0
      0000009BH   SFRSYM    DATA     BYTE      SCON1
      000000D8H   SFRSYM    DATA     BYTE      ADCON
      000000C8H   SFRSYM    DATA     BYTE      T2CON
      000000E6H   SFRSYM    DATA     BYTE      DIV_MODE
      000000F8H.5 SFRSYM    DATA     BIT       APP_RW
      000000CBH   SFRSYM    DATA     BYTE      TRL2H
      0000009FH   SFRSYM    DATA     BYTE      SBUF2_RX
      000000ADH   SFRSYM    DATA     BYTE      SBUF3_RX
      0000008EH   SFRSYM    DATA     BYTE      CKCON
      0000009EH   SFRSYM    DATA     BYTE      SBUF2_TX
      000000ACH   SFRSYM    DATA     BYTE      SBUF3_TX
      000000CAH   SFRSYM    DATA     BYTE      TRL2L
      000000D0H.5 SFRSYM    DATA     BIT       F0
      000000FEH   SFRSYM    DATA     BYTE      EXADR
      000000D0H.1 SFRSYM    DATA     BIT       F1
      000000A0H.3 SFRSYM    DATA     BIT       LED_B
      000000D0H   SFRSYM    DATA     BYTE      PSW
      000000A0H.1 SFRSYM    DATA     BIT       LED_G
      000000C0H   SFRSYM    DATA     BYTE      IRCON
      00000098H.2 SFRSYM    DATA     BIT       RB80

      01003593H   BLOCK     CODE     ---       LVL=0
      01003593H   LINE      CODE     ---       #24
      01003593H   LINE      CODE     ---       #25
      01003593H   LINE      CODE     ---       #26
      01003596H   LINE      CODE     ---       #27
      01003599H   LINE      CODE     ---       #28
      0100359CH   LINE      CODE     ---       #29
      0100359EH   LINE      CODE     ---       #30
      010035A0H   LINE      CODE     ---       #31
      ---         BLOCKEND  ---      ---       LVL=0

      01002955H   BLOCK     CODE     ---       LVL=0
      01002955H   LINE      CODE     ---       #34
      01002972H   LINE      CODE     ---       #36
      01002974H   LINE      CODE     ---       #37
      01002977H   LINE      CODE     ---       #38
      0100297AH   LINE      CODE     ---       #41
      01002988H   LINE      CODE     ---       #42
      010029A7H   LINE      CODE     ---       #43
      010029C1H   LINE      CODE     ---       #44
      010029C1H   LINE      CODE     ---       #45
      010029E0H   LINE      CODE     ---       #46
      010029EAH   LINE      CODE     ---       #47
      010029EAH   LINE      CODE     ---       #51
      010029ECH   LINE      CODE     ---       #52
      ---         BLOCKEND  ---      ---       LVL=0

      0100352BH   BLOCK     CODE     ---       LVL=0
      0100352BH   LINE      CODE     ---       #57
      0100352BH   LINE      CODE     ---       #58
      0100352BH   LINE      CODE     ---       #59
      0100352EH   LINE      CODE     ---       #60
      01003531H   LINE      CODE     ---       #61
      01003533H   LINE      CODE     ---       #62
      01003536H   LINE      CODE     ---       #63
      01003539H   LINE      CODE     ---       #64
      0100353CH   LINE      CODE     ---       #65
      0100353EH   LINE      CODE     ---       #66
LX51 LINKER/LOCATER V4.66.93.0                                                        04/30/2025  17:32:03  PAGE 36


      ---         BLOCKEND  ---      ---       LVL=0

      010035FEH   BLOCK     CODE     ---       LVL=0
      010035FEH   LINE      CODE     ---       #67
      010035FEH   LINE      CODE     ---       #69
      01003600H   LINE      CODE     ---       #73
      ---         BLOCKEND  ---      ---       LVL=0

      010000F1H   BLOCK     CODE     ---       LVL=0
      010000F1H   LINE      CODE     ---       #78
      010000F1H   LINE      CODE     ---       #79
      010000F1H   LINE      CODE     ---       #80
      010000F4H   LINE      CODE     ---       #81
      ---         BLOCKEND  ---      ---       LVL=0

      ---         MODULE    ---      ---       HANDLE
      0200A429H   PUBLIC    XDATA    ---       value0F00
      0200A428H   PUBLIC    XDATA    BYTE      xp_status
      0200A329H   PUBLIC    XDATA    ---       frame_buf1
      0200A229H   PUBLIC    XDATA    ---       s_dl_t_645_8283_body
      0200A12AH   PUBLIC    XDATA    ---       frame_buf
      0100363AH   PUBLIC    CONST    ---       CUart5
      01003628H   PUBLIC    CONST    ---       CUart4
      01003616H   PUBLIC    CONST    ---       CUart3
      01003601H   PUBLIC    CONST    ---       CUart2
      010035C7H   PUBLIC    CODE     ---       HandleProc
      01000941H   PUBLIC    CODE     ---       ParseBuffer
      0200A48BH   PUBLIC    XDATA    BYTE      ?_find_dlt645_frame?BYTE
      01002797H   PUBLIC    CODE     ---       _find_dlt645_frame
      0200A48BH   PUBLIC    XDATA    BYTE      ?_parse_dlt645_frame?BYTE
      010033B0H   PUBLIC    CODE     ---       _parse_dlt645_frame
      01002A07H   PUBLIC    CODE     ---       dlt645_handle
      01002DA3H   PUBLIC    CODE     ---       TouchHandle
      01002AABH   PUBLIC    CODE     ---       _page_set
      01002FEEH   PUBLIC    CODE     ---       _JumpPage
      010035D3H   PUBLIC    CODE     ---       InitUartSend
      010031C9H   PUBLIC    CODE     ---       GetValue0F00
      01002C88H   PUBLIC    CODE     ---       _SetVoice
      01003483H   PUBLIC    CODE     ---       _SetBlight
      010035F2H   PUBLIC    CODE     ---       get_data1
      00000098H.3 SFRSYM    DATA     BIT       TB80
      000000F1H   SFRSYM    DATA     BYTE      ADR_H
      00000080H   SFRSYM    DATA     BYTE      P0
      00000090H   SFRSYM    DATA     BYTE      P1
      000000A0H   SFRSYM    DATA     BYTE      P2
      000000B0H   SFRSYM    DATA     BYTE      P3
      000000D0H.6 SFRSYM    DATA     BIT       AC
      000000F3H   SFRSYM    DATA     BYTE      ADR_L
      00000094H   SFRSYM    DATA     BYTE      PAGESEL
      000000F2H   SFRSYM    DATA     BYTE      ADR_M
      000000A8H.7 SFRSYM    DATA     BIT       EA
      000000A0H.5 SFRSYM    DATA     BIT       JIGUANG
      00000090H.7 SFRSYM    DATA     BIT       LED_R
      000000F8H   SFRSYM    DATA     BYTE      RAMMODE
      000000B7H   SFRSYM    DATA     BYTE      P0MDOUT
      000000A8H   SFRSYM    DATA     BYTE      IEN0
      000000BCH   SFRSYM    DATA     BYTE      P1MDOUT
      000000B8H   SFRSYM    DATA     BYTE      IEN1
      000000BDH   SFRSYM    DATA     BYTE      P2MDOUT
      000000F8H.0 SFRSYM    DATA     BIT       APP_DATA0
      0000009AH   SFRSYM    DATA     BYTE      IEN2
      000000BEH   SFRSYM    DATA     BYTE      P3MDOUT
      000000F8H.1 SFRSYM    DATA     BIT       APP_DATA1
      000000D1H   SFRSYM    DATA     BYTE      IEN3
      00000080H.0 SFRSYM    DATA     BIT       P0_0
LX51 LINKER/LOCATER V4.66.93.0                                                        04/30/2025  17:32:03  PAGE 37


      000000F8H.2 SFRSYM    DATA     BIT       APP_DATA2
      00000090H.0 SFRSYM    DATA     BIT       P1_0
      000000F8H.3 SFRSYM    DATA     BIT       APP_DATA3
      00000090H.1 SFRSYM    DATA     BIT       P1_1
      000000F8H.4 SFRSYM    DATA     BIT       APP_ACK
      000000F4H   SFRSYM    DATA     BYTE      ADR_INC
      000000B0H.1 SFRSYM    DATA     BIT       P3_1
      00000098H.4 SFRSYM    DATA     BIT       REN0
      000000B8H.1 SFRSYM    DATA     BIT       ECAN
      000000D0H.7 SFRSYM    DATA     BIT       CY
      000000B8H.3 SFRSYM    DATA     BIT       ES2R
      000000B8H.5 SFRSYM    DATA     BIT       ES3R
      000000B8H.2 SFRSYM    DATA     BIT       ES2T
      000000B8H.4 SFRSYM    DATA     BIT       ES3T
      000000C8H.7 SFRSYM    DATA     BIT       TSF2
      000000B0H.3 SFRSYM    DATA     BIT       RTC_SDA
      00000081H   SFRSYM    DATA     BYTE      SP
      000000D0H.2 SFRSYM    DATA     BIT       OV
      00000095H   SFRSYM    DATA     BYTE      D_PAGESEL
      00000090H.5 SFRSYM    DATA     BIT       UV
      000000F8H.7 SFRSYM    DATA     BIT       APP_REQ
      000000B0H.2 SFRSYM    DATA     BIT       RTC_SCL
      000000BFH   SFRSYM    DATA     BYTE      IRCON2
      000000BAH   SFRSYM    DATA     BYTE      SREL0H
      000000BBH   SFRSYM    DATA     BYTE      SREL1H
      00000087H   SFRSYM    DATA     BYTE      PCON
      000000AAH   SFRSYM    DATA     BYTE      SREL0L
      000000F9H   SFRSYM    DATA     BYTE      PORTDRV
      0000009DH   SFRSYM    DATA     BYTE      SREL1L
      00000089H   SFRSYM    DATA     BYTE      TMOD
      00000088H   SFRSYM    DATA     BYTE      TCON
      00000097H   SFRSYM    DATA     BYTE      SCON2R
      000000FFH   SFRSYM    DATA     BYTE      EXDATA
      000000ABH   SFRSYM    DATA     BYTE      SCON3R
      000000D9H   SFRSYM    DATA     BYTE      BODE2_DIV_H
      000000AEH   SFRSYM    DATA     BYTE      BODE3_DIV_H
      00000096H   SFRSYM    DATA     BYTE      SCON2T
      000000A7H   SFRSYM    DATA     BYTE      SCON3T
      000000E7H   SFRSYM    DATA     BYTE      BODE2_DIV_L
      00000088H.1 SFRSYM    DATA     BIT       IE0
      000000AFH   SFRSYM    DATA     BYTE      BODE3_DIV_L
      00000088H.3 SFRSYM    DATA     BIT       IE1
      000000C9H   SFRSYM    DATA     BYTE      MUX_SEL
      000000F0H   SFRSYM    DATA     BYTE      B
      000000E0H   SFRSYM    DATA     BYTE      ACC
      000000A8H.4 SFRSYM    DATA     BIT       ES0
      0000008FH   SFRSYM    DATA     BYTE      CAN_CR
      000000A8H.1 SFRSYM    DATA     BIT       ET0
      000000A9H   SFRSYM    DATA     BYTE      IP0
      000000A8H.3 SFRSYM    DATA     BIT       ET1
      00000088H.5 SFRSYM    DATA     BIT       TF0
      000000B9H   SFRSYM    DATA     BYTE      IP1
      000000A8H.5 SFRSYM    DATA     BIT       ET2
      00000098H.0 SFRSYM    DATA     BIT       RI0
      00000088H.7 SFRSYM    DATA     BIT       TF1
      000000FDH   SFRSYM    DATA     BYTE      DATA0
      000000C0H.6 SFRSYM    DATA     BIT       TF2
      000000E8H   SFRSYM    DATA     BYTE      CAN_ET
      000000FCH   SFRSYM    DATA     BYTE      DATA1
      0000008CH   SFRSYM    DATA     BYTE      TH0
      000000A8H.0 SFRSYM    DATA     BIT       EX0
      00000098H.1 SFRSYM    DATA     BIT       TI0
      00000088H.0 SFRSYM    DATA     BIT       IT0
      000000FBH   SFRSYM    DATA     BYTE      DATA2
      0000008DH   SFRSYM    DATA     BYTE      TH1
LX51 LINKER/LOCATER V4.66.93.0                                                        04/30/2025  17:32:03  PAGE 38


      000000A8H.2 SFRSYM    DATA     BIT       EX1
      00000091H   SFRSYM    DATA     BYTE      CAN_IR
      000000CDH   SFRSYM    DATA     BYTE      TH2
      00000088H.2 SFRSYM    DATA     BIT       IT1
      000000FAH   SFRSYM    DATA     BYTE      DATA3
      000000D0H.0 SFRSYM    DATA     BIT       P
      00000098H.7 SFRSYM    DATA     BIT       SM0
      0000008AH   SFRSYM    DATA     BYTE      TL0
      00000098H.6 SFRSYM    DATA     BIT       SM1
      0000008BH   SFRSYM    DATA     BYTE      TL1
      00000098H.5 SFRSYM    DATA     BIT       SM2
      000000CCH   SFRSYM    DATA     BYTE      TL2
      000000A0H.7 SFRSYM    DATA     BIT       UV_St
      000000D0H.3 SFRSYM    DATA     BIT       RS0
      000000F8H.6 SFRSYM    DATA     BIT       APP_EN
      000000D0H.4 SFRSYM    DATA     BIT       RS1
      00000088H.4 SFRSYM    DATA     BIT       TR0
      00000088H.6 SFRSYM    DATA     BIT       TR1
      00000093H   SFRSYM    DATA     BYTE      DPC
      000000C8H.0 SFRSYM    DATA     BIT       TR2
      000000E5H   SFRSYM    DATA     BYTE      MAC_MODE
      00000083H   SFRSYM    DATA     BYTE      DPH
      00000082H   SFRSYM    DATA     BYTE      DPL
      00000099H   SFRSYM    DATA     BYTE      SBUF0
      0000009CH   SFRSYM    DATA     BYTE      SBUF1
      00000098H   SFRSYM    DATA     BYTE      SCON0
      0000009BH   SFRSYM    DATA     BYTE      SCON1
      000000D8H   SFRSYM    DATA     BYTE      ADCON
      000000C8H   SFRSYM    DATA     BYTE      T2CON
      000000E6H   SFRSYM    DATA     BYTE      DIV_MODE
      000000F8H.5 SFRSYM    DATA     BIT       APP_RW
      000000CBH   SFRSYM    DATA     BYTE      TRL2H
      0000009FH   SFRSYM    DATA     BYTE      SBUF2_RX
      000000ADH   SFRSYM    DATA     BYTE      SBUF3_RX
      0000008EH   SFRSYM    DATA     BYTE      CKCON
      0000009EH   SFRSYM    DATA     BYTE      SBUF2_TX
      000000ACH   SFRSYM    DATA     BYTE      SBUF3_TX
      000000CAH   SFRSYM    DATA     BYTE      TRL2L
      000000D0H.5 SFRSYM    DATA     BIT       F0
      000000FEH   SFRSYM    DATA     BYTE      EXADR
      000000D0H.1 SFRSYM    DATA     BIT       F1
      000000A0H.3 SFRSYM    DATA     BIT       LED_B
      000000D0H   SFRSYM    DATA     BYTE      PSW
      000000A0H.1 SFRSYM    DATA     BIT       LED_G
      000000C0H   SFRSYM    DATA     BYTE      IRCON
      00000098H.2 SFRSYM    DATA     BIT       RB80
      0100364CH   SYMBOL    CONST    ---       _?ix1000
      01003650H   SYMBOL    CONST    ---       _?ix1001
      01003654H   SYMBOL    CONST    ---       _?ix1002
      01003658H   SYMBOL    CONST    ---       _?ix1003
      01003668H   SYMBOL    CONST    ---       _?ix1004

      010035F2H   BLOCK     CODE     ---       LVL=0
      010035F2H   LINE      CODE     ---       #42
      010035F2H   LINE      CODE     ---       #43
      010035F7H   LINE      CODE     ---       #44
      ---         BLOCKEND  ---      ---       LVL=0

      01003483H   BLOCK     CODE     ---       LVL=0
      0200A521H   SYMBOL    XDATA    BYTE      n
      01003483H   LINE      CODE     ---       #83
      01003488H   LINE      CODE     ---       #84
      01003488H   LINE      CODE     ---       #86
      ---         BLOCKEND  ---      ---       LVL=0

LX51 LINKER/LOCATER V4.66.93.0                                                        04/30/2025  17:32:03  PAGE 39


      01002C88H   BLOCK     CODE     ---       LVL=0
      0200A512H   SYMBOL    XDATA    CHAR      status
      01002C8DH   BLOCK     CODE     NEAR LAB  LVL=1
      0200A513H   SYMBOL    XDATA    ---       temp
      ---         BLOCKEND  ---      ---       LVL=1
      01002C88H   LINE      CODE     ---       #95
      01002C8DH   LINE      CODE     ---       #96
      01002C8DH   LINE      CODE     ---       #97
      01002CA0H   LINE      CODE     ---       #98
      01002CB6H   LINE      CODE     ---       #99
      01002CBCH   LINE      CODE     ---       #100
      01002CD4H   LINE      CODE     ---       #101
      01002CE1H   LINE      CODE     ---       #102
      01002CE1H   LINE      CODE     ---       #103
      01002CF7H   LINE      CODE     ---       #105
      01002CF7H   LINE      CODE     ---       #106
      01002CFEH   LINE      CODE     ---       #107
      01002D13H   LINE      CODE     ---       #108
      01002D19H   LINE      CODE     ---       #109
      ---         BLOCKEND  ---      ---       LVL=0

      010031C9H   BLOCK     CODE     ---       LVL=0
      010031C9H   BLOCK     CODE     NEAR LAB  LVL=1
      0200A47CH   SYMBOL    XDATA    ---       cleanData
      ---         BLOCKEND  ---      ---       LVL=1
      010031C9H   LINE      CODE     ---       #116
      010031C9H   LINE      CODE     ---       #117
      010031C9H   LINE      CODE     ---       #118
      010031DCH   LINE      CODE     ---       #119
      010031F2H   LINE      CODE     ---       #120
      010031FAH   LINE      CODE     ---       #121
      010031FAH   LINE      CODE     ---       #122
      0100320FH   LINE      CODE     ---       #123
      01003212H   LINE      CODE     ---       #124
      01003212H   LINE      CODE     ---       #125
      01003214H   LINE      CODE     ---       #126
      ---         BLOCKEND  ---      ---       LVL=0

      010035D3H   BLOCK     CODE     ---       LVL=0
      010035D3H   LINE      CODE     ---       #129
      010035D3H   LINE      CODE     ---       #130
      010035D3H   LINE      CODE     ---       #131
      ---         BLOCKEND  ---      ---       LVL=0

      01002FEEH   BLOCK     CODE     ---       LVL=0
      0200A50CH   SYMBOL    XDATA    WORD      pageId
      01002FF6H   BLOCK     CODE     NEAR LAB  LVL=1
      0200A50EH   SYMBOL    XDATA    ---       temp
      ---         BLOCKEND  ---      ---       LVL=1
      01002FEEH   LINE      CODE     ---       #140
      01002FF6H   LINE      CODE     ---       #141
      01002FF6H   LINE      CODE     ---       #142
      01003009H   LINE      CODE     ---       #143
      01003016H   LINE      CODE     ---       #144
      01003019H   LINE      CODE     ---       #145
      0100302FH   LINE      CODE     ---       #147
      0100302FH   LINE      CODE     ---       #148
      01003036H   LINE      CODE     ---       #149
      0100304BH   LINE      CODE     ---       #150
      01003051H   LINE      CODE     ---       #151
      ---         BLOCKEND  ---      ---       LVL=0

      01002AABH   BLOCK     CODE     ---       LVL=0
      0200A492H   SYMBOL    XDATA    WORD      getDar
      01002AABH   LINE      CODE     ---       #157
LX51 LINKER/LOCATER V4.66.93.0                                                        04/30/2025  17:32:03  PAGE 40


      01002AB3H   LINE      CODE     ---       #158
      01002AB3H   LINE      CODE     ---       #165
      01002AC2H   LINE      CODE     ---       #166
      01002AC2H   LINE      CODE     ---       #167
      01002AC2H   LINE      CODE     ---       #168
      01002AC2H   LINE      CODE     ---       #171
      01002AC2H   LINE      CODE     ---       #172
      01002AC2H   LINE      CODE     ---       #174
      01002AC2H   LINE      CODE     ---       #175
      01002AC2H   LINE      CODE     ---       #176
      01002AD0H   LINE      CODE     ---       #177
      01002AD0H   LINE      CODE     ---       #179
      01002AD8H   LINE      CODE     ---       #180
      01002AD8H   LINE      CODE     ---       #181
      01002AE0H   LINE      CODE     ---       #182
      01002AE0H   LINE      CODE     ---       #183
      01002AE3H   LINE      CODE     ---       #184
      01002AE6H   LINE      CODE     ---       #185
      01002AE8H   LINE      CODE     ---       #186
      01002AF6H   LINE      CODE     ---       #188
      01002B01H   LINE      CODE     ---       #189
      01002B02H   LINE      CODE     ---       #190
      01002B0BH   LINE      CODE     ---       #191
      01002B0BH   LINE      CODE     ---       #192
      01002B0EH   LINE      CODE     ---       #194
      01002B0FH   LINE      CODE     ---       #195
      01002B12H   LINE      CODE     ---       #197
      01002B13H   LINE      CODE     ---       #198
      01002B1FH   LINE      CODE     ---       #199
      01002B1FH   LINE      CODE     ---       #200
      01002B25H   LINE      CODE     ---       #202
      01002B25H   LINE      CODE     ---       #205
      01002B26H   LINE      CODE     ---       #206
      01002B26H   LINE      CODE     ---       #208
      01002B26H   LINE      CODE     ---       #209
      01002B26H   LINE      CODE     ---       #213
      01002B26H   LINE      CODE     ---       #214
      01002B26H   LINE      CODE     ---       #216
      01002B26H   LINE      CODE     ---       #217
      01002B26H   LINE      CODE     ---       #221
      01002B26H   LINE      CODE     ---       #222
      01002B26H   LINE      CODE     ---       #225
      01002B26H   LINE      CODE     ---       #226
      01002B26H   LINE      CODE     ---       #228
      01002B26H   LINE      CODE     ---       #229
      01002B26H   LINE      CODE     ---       #232
      01002B26H   LINE      CODE     ---       #233
      01002B26H   LINE      CODE     ---       #234
      01002B26H   LINE      CODE     ---       #235
      01002B26H   LINE      CODE     ---       #238
      01002B26H   LINE      CODE     ---       #239
      01002B26H   LINE      CODE     ---       #241
      01002B26H   LINE      CODE     ---       #242
      01002B26H   LINE      CODE     ---       #244
      01002B26H   LINE      CODE     ---       #245
      01002B26H   LINE      CODE     ---       #247
      01002B26H   LINE      CODE     ---       #248
      01002B26H   LINE      CODE     ---       #251
      01002B26H   LINE      CODE     ---       #252
      01002B26H   LINE      CODE     ---       #253
      01002B41H   LINE      CODE     ---       #254
      01002B41H   LINE      CODE     ---       #256
      01002B41H   LINE      CODE     ---       #257
      01002B49H   LINE      CODE     ---       #258
      01002B49H   LINE      CODE     ---       #259
LX51 LINKER/LOCATER V4.66.93.0                                                        04/30/2025  17:32:03  PAGE 41


      01002B4CH   LINE      CODE     ---       #260
      01002B4CH   LINE      CODE     ---       #261
      01002B4CH   LINE      CODE     ---       #262
      01002B4CH   LINE      CODE     ---       #264
      01002B4CH   LINE      CODE     ---       #265
      01002B4CH   LINE      CODE     ---       #266
      01002B4CH   LINE      CODE     ---       #268
      01002B4CH   LINE      CODE     ---       #269
      01002B4CH   LINE      CODE     ---       #270
      01002B4CH   LINE      CODE     ---       #272
      01002B4CH   LINE      CODE     ---       #273
      01002B4CH   LINE      CODE     ---       #274
      01002B4CH   LINE      CODE     ---       #276
      01002B4CH   LINE      CODE     ---       #277
      01002B4CH   LINE      CODE     ---       #279
      01002B4CH   LINE      CODE     ---       #280
      01002B4CH   LINE      CODE     ---       #282
      01002B4CH   LINE      CODE     ---       #283
      01002B4CH   LINE      CODE     ---       #284
      01002B4CH   LINE      CODE     ---       #285
      01002B4CH   LINE      CODE     ---       #286
      01002B4CH   LINE      CODE     ---       #287
      01002B4CH   LINE      CODE     ---       #289
      01002B4CH   LINE      CODE     ---       #290
      01002B4CH   LINE      CODE     ---       #292
      01002B4CH   LINE      CODE     ---       #299
      ---         BLOCKEND  ---      ---       LVL=0

      01002DA3H   BLOCK     CODE     ---       LVL=0
      01002DA3H   BLOCK     CODE     NEAR LAB  LVL=1
      0200A47CH   SYMBOL    XDATA    ---       temp
      0200A48CH   SYMBOL    XDATA    WORD      flag
      0200A48EH   SYMBOL    XDATA    WORD      iconid
      0200A490H   SYMBOL    XDATA    WORD      getDar
      ---         BLOCKEND  ---      ---       LVL=1
      01002DA3H   LINE      CODE     ---       #304
      01002DA3H   LINE      CODE     ---       #305
      01002DA3H   LINE      CODE     ---       #306
      01002DB6H   LINE      CODE     ---       #307
      01002DBDH   LINE      CODE     ---       #308
      01002DC1H   LINE      CODE     ---       #309
      01002DC5H   LINE      CODE     ---       #310
      01002DDBH   LINE      CODE     ---       #311
      01002DDBH   LINE      CODE     ---       #313
      01002DE1H   LINE      CODE     ---       #314
      01002DE5H   LINE      CODE     ---       #315
      01002DF2H   LINE      CODE     ---       #316
      01002DF6H   LINE      CODE     ---       #317
      01002DF9H   LINE      CODE     ---       #318
      01002DFCH   LINE      CODE     ---       #319
      01002E1CH   LINE      CODE     ---       #322
      ---         BLOCKEND  ---      ---       LVL=0

      01002A07H   BLOCK     CODE     ---       LVL=0
      01002A07H   BLOCK     CODE     NEAR LAB  LVL=1
      0200A48BH   SYMBOL    XDATA    WORD      ADDR
      ---         BLOCKEND  ---      ---       LVL=1
      01002A07H   LINE      CODE     ---       #338
      01002A07H   LINE      CODE     ---       #339
      01002A07H   LINE      CODE     ---       #340
      01002A0EH   LINE      CODE     ---       #342
      01002A20H   LINE      CODE     ---       #344
      01002A28H   LINE      CODE     ---       #345
      01002A28H   LINE      CODE     ---       #346
      01002A4AH   LINE      CODE     ---       #347
LX51 LINKER/LOCATER V4.66.93.0                                                        04/30/2025  17:32:03  PAGE 42


      01002A50H   LINE      CODE     ---       #348
      01002A56H   LINE      CODE     ---       #349
      01002A5AH   LINE      CODE     ---       #350
      01002A63H   LINE      CODE     ---       #351
      01002A65H   LINE      CODE     ---       #352
      01002A6DH   LINE      CODE     ---       #353
      01002A6DH   LINE      CODE     ---       #354
      01002A90H   LINE      CODE     ---       #355
      01002A9DH   LINE      CODE     ---       #356
      01002AAAH   LINE      CODE     ---       #357
      01002AAAH   LINE      CODE     ---       #359
      ---         BLOCKEND  ---      ---       LVL=0

      010033B0H   BLOCK     CODE     ---       LVL=0
      00000001H   SYMBOL    DATA     ---       p_frame
      00000004H   SYMBOL    DATA     WORD      frame_len
      0200A490H   SYMBOL    XDATA    ---       sframe_body
      010033B0H   BLOCK     CODE     NEAR LAB  LVL=1
      0200A493H   SYMBOL    XDATA    WORD      temp16_t
      0200A495H   SYMBOL    XDATA    WORD      i
      ---         BLOCKEND  ---      ---       LVL=1
      010033B0H   LINE      CODE     ---       #362
      010033B0H   LINE      CODE     ---       #363
      010033B0H   LINE      CODE     ---       #364
      010033B7H   LINE      CODE     ---       #365
      010033BBH   LINE      CODE     ---       #367
      010033BBH   LINE      CODE     ---       #368
      010033D9H   LINE      CODE     ---       #369
      010033DBH   LINE      CODE     ---       #370
      010033DBH   LINE      CODE     ---       #372
      ---         BLOCKEND  ---      ---       LVL=0

      01002797H   BLOCK     CODE     ---       LVL=0
      0200A48BH   SYMBOL    XDATA    ---       line
      0200A48EH   SYMBOL    XDATA    ---       out
      0200A491H   SYMBOL    XDATA    ---       frame_len
      0200A494H   SYMBOL    XDATA    WORD      line_len
      010027A2H   BLOCK     CODE     NEAR LAB  LVL=1
      0200A496H   SYMBOL    XDATA    WORD      frame_length
      0200A498H   SYMBOL    XDATA    WORD      temp_len
      ---         BLOCKEND  ---      ---       LVL=1
      01002797H   LINE      CODE     ---       #382
      010027A2H   LINE      CODE     ---       #383
      010027A9H   LINE      CODE     ---       #384
      010027ADH   LINE      CODE     ---       #386
      010027BCH   LINE      CODE     ---       #387
      010027BFH   LINE      CODE     ---       #388
      010027BFH   LINE      CODE     ---       #390
      010027D1H   LINE      CODE     ---       #391
      010027D4H   LINE      CODE     ---       #392
      010027D4H   LINE      CODE     ---       #393
      010027DEH   LINE      CODE     ---       #394
      010027E1H   LINE      CODE     ---       #395
      010027E1H   LINE      CODE     ---       #396
      010027F4H   LINE      CODE     ---       #398
      01002801H   LINE      CODE     ---       #400
      0100281CH   LINE      CODE     ---       #401
      0100283EH   LINE      CODE     ---       #402
      01002848H   LINE      CODE     ---       #403
      01002858H   LINE      CODE     ---       #404
      01002870H   LINE      CODE     ---       #405
      01002873H   LINE      CODE     ---       #406
      01002873H   LINE      CODE     ---       #408
      01002875H   LINE      CODE     ---       #409
      01002875H   LINE      CODE     ---       #410
LX51 LINKER/LOCATER V4.66.93.0                                                        04/30/2025  17:32:03  PAGE 43


      ---         BLOCKEND  ---      ---       LVL=0

      01000941H   BLOCK     CODE     ---       LVL=0
      01000941H   BLOCK     CODE     NEAR LAB  LVL=1
      0200A47CH   SYMBOL    XDATA    WORD      frame_length
      0200A47EH   SYMBOL    XDATA    WORD      i
      0200A480H   SYMBOL    XDATA    WORD      temp_len
      0200A482H   SYMBOL    XDATA    BYTE      has_content
      0200A483H   SYMBOL    XDATA    BYTE      frame_error
      0200A484H   SYMBOL    XDATA    ---       p_buf
      0200A487H   SYMBOL    XDATA    BYTE      protl_type
      0200A488H   SYMBOL    XDATA    BYTE      find_frame_re
      0200A489H   SYMBOL    XDATA    ---       frame_results
      ---         BLOCKEND  ---      ---       LVL=1
      01000941H   LINE      CODE     ---       #414
      01000941H   LINE      CODE     ---       #415
      01000941H   LINE      CODE     ---       #416
      01000948H   LINE      CODE     ---       #417
      01000950H   LINE      CODE     ---       #418
      01000952H   LINE      CODE     ---       #419
      01000954H   LINE      CODE     ---       #420
      0100095FH   LINE      CODE     ---       #421
      01000962H   LINE      CODE     ---       #422
      01000964H   LINE      CODE     ---       #427
      01000976H   LINE      CODE     ---       #429
      0100098EH   LINE      CODE     ---       #430
      01000997H   LINE      CODE     ---       #431
      010009A5H   LINE      CODE     ---       #433
      010009E5H   LINE      CODE     ---       #434
      010009EFH   LINE      CODE     ---       #435
      010009F1H   LINE      CODE     ---       #436
      01000A25H   LINE      CODE     ---       #438
      01000A2BH   LINE      CODE     ---       #439
      01000A2CH   LINE      CODE     ---       #440
      01000A2CH   LINE      CODE     ---       #442
      01000A4FH   LINE      CODE     ---       #445
      01000A5EH   LINE      CODE     ---       #446
      01000A5EH   LINE      CODE     ---       #447
      01000A6DH   LINE      CODE     ---       #448
      01000A72H   LINE      CODE     ---       #449
      01000A76H   LINE      CODE     ---       #450
      01000A7CH   LINE      CODE     ---       #451
      01000A90H   LINE      CODE     ---       #452
      01000A9CH   LINE      CODE     ---       #453
      01000AACH   LINE      CODE     ---       #455
      01000AACH   LINE      CODE     ---       #456
      01000AE8H   LINE      CODE     ---       #458
      01000AEAH   LINE      CODE     ---       #459
      01000AEEH   LINE      CODE     ---       #460
      01000B13H   LINE      CODE     ---       #462
      01000B16H   LINE      CODE     ---       #463
      01000B25H   LINE      CODE     ---       #464
      01000B25H   LINE      CODE     ---       #465
      01000B28H   LINE      CODE     ---       #466
      01000B28H   LINE      CODE     ---       #468
      01000B28H   LINE      CODE     ---       #472
      01000B28H   LINE      CODE     ---       #473
      01000B33H   LINE      CODE     ---       #476
      01000B38H   LINE      CODE     ---       #478
      01000B78H   LINE      CODE     ---       #479
      01000B82H   LINE      CODE     ---       #480
      01000B84H   LINE      CODE     ---       #482
      01000BB8H   LINE      CODE     ---       #484
      01000BBEH   LINE      CODE     ---       #485
      01000BC0H   LINE      CODE     ---       #486
LX51 LINKER/LOCATER V4.66.93.0                                                        04/30/2025  17:32:03  PAGE 44


      01000BC0H   LINE      CODE     ---       #489
      01000BC6H   LINE      CODE     ---       #490
      01000BC6H   LINE      CODE     ---       #491
      01000BC6H   LINE      CODE     ---       #492
      01000BC6H   LINE      CODE     ---       #496
      01000BD7H   LINE      CODE     ---       #498
      01000C0AH   LINE      CODE     ---       #499
      01000C12H   LINE      CODE     ---       #501
      01000C2FH   LINE      CODE     ---       #502
      01000C5EH   LINE      CODE     ---       #503
      01000C62H   LINE      CODE     ---       #504
      01000C72H   LINE      CODE     ---       #505
      01000C78H   LINE      CODE     ---       #506
      01000C7AH   LINE      CODE     ---       #508
      01000CABH   LINE      CODE     ---       #509
      01000CB7H   LINE      CODE     ---       #510
      01000CC7H   LINE      CODE     ---       #511
      01000CCCH   LINE      CODE     ---       #512
      01000CCCH   LINE      CODE     ---       #513
      01000CDBH   LINE      CODE     ---       #514
      01000CDEH   LINE      CODE     ---       #515
      01000CE3H   LINE      CODE     ---       #516
      01000CE3H   LINE      CODE     ---       #517
      01000CE6H   LINE      CODE     ---       #518
      ---         BLOCKEND  ---      ---       LVL=0

      010035C7H   BLOCK     CODE     ---       LVL=0
      010035C7H   LINE      CODE     ---       #523
      010035C7H   LINE      CODE     ---       #524
      010035C7H   LINE      CODE     ---       #525
      010035CDH   LINE      CODE     ---       #526
      010035CDH   LINE      CODE     ---       #527
      010035D0H   LINE      CODE     ---       #528
      010035D0H   LINE      CODE     ---       #529
      ---         BLOCKEND  ---      ---       LVL=0

      ---         MODULE    ---      ---       CRC16
      00000098H.3 SFRSYM    DATA     BIT       TB80
      000000F1H   SFRSYM    DATA     BYTE      ADR_H
      00000080H   SFRSYM    DATA     BYTE      P0
      00000090H   SFRSYM    DATA     BYTE      P1
      000000A0H   SFRSYM    DATA     BYTE      P2
      000000B0H   SFRSYM    DATA     BYTE      P3
      000000D0H.6 SFRSYM    DATA     BIT       AC
      000000F3H   SFRSYM    DATA     BYTE      ADR_L
      00000094H   SFRSYM    DATA     BYTE      PAGESEL
      000000F2H   SFRSYM    DATA     BYTE      ADR_M
      000000A8H.7 SFRSYM    DATA     BIT       EA
      000000A0H.5 SFRSYM    DATA     BIT       JIGUANG
      00000090H.7 SFRSYM    DATA     BIT       LED_R
      000000F8H   SFRSYM    DATA     BYTE      RAMMODE
      000000B7H   SFRSYM    DATA     BYTE      P0MDOUT
      000000A8H   SFRSYM    DATA     BYTE      IEN0
      000000BCH   SFRSYM    DATA     BYTE      P1MDOUT
      000000B8H   SFRSYM    DATA     BYTE      IEN1
      000000BDH   SFRSYM    DATA     BYTE      P2MDOUT
      000000F8H.0 SFRSYM    DATA     BIT       APP_DATA0
      0000009AH   SFRSYM    DATA     BYTE      IEN2
      000000BEH   SFRSYM    DATA     BYTE      P3MDOUT
      000000F8H.1 SFRSYM    DATA     BIT       APP_DATA1
      000000D1H   SFRSYM    DATA     BYTE      IEN3
      00000080H.0 SFRSYM    DATA     BIT       P0_0
      000000F8H.2 SFRSYM    DATA     BIT       APP_DATA2
      00000090H.0 SFRSYM    DATA     BIT       P1_0
      000000F8H.3 SFRSYM    DATA     BIT       APP_DATA3
LX51 LINKER/LOCATER V4.66.93.0                                                        04/30/2025  17:32:03  PAGE 45


      00000090H.1 SFRSYM    DATA     BIT       P1_1
      000000F8H.4 SFRSYM    DATA     BIT       APP_ACK
      000000F4H   SFRSYM    DATA     BYTE      ADR_INC
      000000B0H.1 SFRSYM    DATA     BIT       P3_1
      00000098H.4 SFRSYM    DATA     BIT       REN0
      000000B8H.1 SFRSYM    DATA     BIT       ECAN
      000000D0H.7 SFRSYM    DATA     BIT       CY
      000000B8H.3 SFRSYM    DATA     BIT       ES2R
      000000B8H.5 SFRSYM    DATA     BIT       ES3R
      000000B8H.2 SFRSYM    DATA     BIT       ES2T
      000000B8H.4 SFRSYM    DATA     BIT       ES3T
      000000C8H.7 SFRSYM    DATA     BIT       TSF2
      000000B0H.3 SFRSYM    DATA     BIT       RTC_SDA
      00000081H   SFRSYM    DATA     BYTE      SP
      000000D0H.2 SFRSYM    DATA     BIT       OV
      00000095H   SFRSYM    DATA     BYTE      D_PAGESEL
      00000090H.5 SFRSYM    DATA     BIT       UV
      000000F8H.7 SFRSYM    DATA     BIT       APP_REQ
      000000B0H.2 SFRSYM    DATA     BIT       RTC_SCL
      000000BFH   SFRSYM    DATA     BYTE      IRCON2
      000000BAH   SFRSYM    DATA     BYTE      SREL0H
      000000BBH   SFRSYM    DATA     BYTE      SREL1H
      00000087H   SFRSYM    DATA     BYTE      PCON
      000000AAH   SFRSYM    DATA     BYTE      SREL0L
      000000F9H   SFRSYM    DATA     BYTE      PORTDRV
      0000009DH   SFRSYM    DATA     BYTE      SREL1L
      00000089H   SFRSYM    DATA     BYTE      TMOD
      00000088H   SFRSYM    DATA     BYTE      TCON
      00000097H   SFRSYM    DATA     BYTE      SCON2R
      000000FFH   SFRSYM    DATA     BYTE      EXDATA
      000000ABH   SFRSYM    DATA     BYTE      SCON3R
      000000D9H   SFRSYM    DATA     BYTE      BODE2_DIV_H
      000000AEH   SFRSYM    DATA     BYTE      BODE3_DIV_H
      00000096H   SFRSYM    DATA     BYTE      SCON2T
      000000A7H   SFRSYM    DATA     BYTE      SCON3T
      000000E7H   SFRSYM    DATA     BYTE      BODE2_DIV_L
      00000088H.1 SFRSYM    DATA     BIT       IE0
      000000AFH   SFRSYM    DATA     BYTE      BODE3_DIV_L
      00000088H.3 SFRSYM    DATA     BIT       IE1
      000000C9H   SFRSYM    DATA     BYTE      MUX_SEL
      000000F0H   SFRSYM    DATA     BYTE      B
      000000E0H   SFRSYM    DATA     BYTE      ACC
      000000A8H.4 SFRSYM    DATA     BIT       ES0
      0000008FH   SFRSYM    DATA     BYTE      CAN_CR
      000000A8H.1 SFRSYM    DATA     BIT       ET0
      000000A9H   SFRSYM    DATA     BYTE      IP0
      000000A8H.3 SFRSYM    DATA     BIT       ET1
      00000088H.5 SFRSYM    DATA     BIT       TF0
      000000B9H   SFRSYM    DATA     BYTE      IP1
      000000A8H.5 SFRSYM    DATA     BIT       ET2
      00000098H.0 SFRSYM    DATA     BIT       RI0
      00000088H.7 SFRSYM    DATA     BIT       TF1
      000000FDH   SFRSYM    DATA     BYTE      DATA0
      000000C0H.6 SFRSYM    DATA     BIT       TF2
      000000E8H   SFRSYM    DATA     BYTE      CAN_ET
      000000FCH   SFRSYM    DATA     BYTE      DATA1
      0000008CH   SFRSYM    DATA     BYTE      TH0
      000000A8H.0 SFRSYM    DATA     BIT       EX0
      00000098H.1 SFRSYM    DATA     BIT       TI0
      00000088H.0 SFRSYM    DATA     BIT       IT0
      000000FBH   SFRSYM    DATA     BYTE      DATA2
      0000008DH   SFRSYM    DATA     BYTE      TH1
      000000A8H.2 SFRSYM    DATA     BIT       EX1
      00000091H   SFRSYM    DATA     BYTE      CAN_IR
      000000CDH   SFRSYM    DATA     BYTE      TH2
LX51 LINKER/LOCATER V4.66.93.0                                                        04/30/2025  17:32:03  PAGE 46


      00000088H.2 SFRSYM    DATA     BIT       IT1
      000000FAH   SFRSYM    DATA     BYTE      DATA3
      000000D0H.0 SFRSYM    DATA     BIT       P
      00000098H.7 SFRSYM    DATA     BIT       SM0
      0000008AH   SFRSYM    DATA     BYTE      TL0
      00000098H.6 SFRSYM    DATA     BIT       SM1
      0000008BH   SFRSYM    DATA     BYTE      TL1
      00000098H.5 SFRSYM    DATA     BIT       SM2
      000000CCH   SFRSYM    DATA     BYTE      TL2
      000000A0H.7 SFRSYM    DATA     BIT       UV_St
      000000D0H.3 SFRSYM    DATA     BIT       RS0
      000000F8H.6 SFRSYM    DATA     BIT       APP_EN
      000000D0H.4 SFRSYM    DATA     BIT       RS1
      00000088H.4 SFRSYM    DATA     BIT       TR0
      00000088H.6 SFRSYM    DATA     BIT       TR1
      00000093H   SFRSYM    DATA     BYTE      DPC
      000000C8H.0 SFRSYM    DATA     BIT       TR2
      000000E5H   SFRSYM    DATA     BYTE      MAC_MODE
      00000083H   SFRSYM    DATA     BYTE      DPH
      00000082H   SFRSYM    DATA     BYTE      DPL
      00000099H   SFRSYM    DATA     BYTE      SBUF0
      0000009CH   SFRSYM    DATA     BYTE      SBUF1
      00000098H   SFRSYM    DATA     BYTE      SCON0
      0000009BH   SFRSYM    DATA     BYTE      SCON1
      000000D8H   SFRSYM    DATA     BYTE      ADCON
      000000C8H   SFRSYM    DATA     BYTE      T2CON
      000000E6H   SFRSYM    DATA     BYTE      DIV_MODE
      000000F8H.5 SFRSYM    DATA     BIT       APP_RW
      000000CBH   SFRSYM    DATA     BYTE      TRL2H
      0000009FH   SFRSYM    DATA     BYTE      SBUF2_RX
      000000ADH   SFRSYM    DATA     BYTE      SBUF3_RX
      0000008EH   SFRSYM    DATA     BYTE      CKCON
      0000009EH   SFRSYM    DATA     BYTE      SBUF2_TX
      000000ACH   SFRSYM    DATA     BYTE      SBUF3_TX
      000000CAH   SFRSYM    DATA     BYTE      TRL2L
      000000D0H.5 SFRSYM    DATA     BIT       F0
      000000FEH   SFRSYM    DATA     BYTE      EXADR
      000000D0H.1 SFRSYM    DATA     BIT       F1
      000000A0H.3 SFRSYM    DATA     BIT       LED_B
      000000D0H   SFRSYM    DATA     BYTE      PSW
      000000A0H.1 SFRSYM    DATA     BIT       LED_G
      000000C0H   SFRSYM    DATA     BYTE      IRCON
      00000098H.2 SFRSYM    DATA     BIT       RB80

      ---         MODULE    ---      ---       I2C
      0200A50AH   PUBLIC    XDATA    WORD      SysTick_RTC
      0200A509H   PUBLIC    XDATA    BYTE      Select_rtc
      0100349DH   PUBLIC    CODE     ---       Clock
      01001EC0H   PUBLIC    CODE     ---       RTC_Set_Time
      0100316FH   PUBLIC    CODE     ---       Init_Rtc
      01002333H   PUBLIC    CODE     ---       Read_Time
      010021D6H   PUBLIC    CODE     ---       _RTC_Get_Week
      01003383H   PUBLIC    CODE     ---       Rx8130_Read_Byte
      010000C4H   PUBLIC    CODE     ---       _Rx8130_Writ_Byte
      01003401H   PUBLIC    CODE     ---       Rx8130_Cack
      010035DEH   PUBLIC    CODE     ---       Rx8130_Mnak
      01000016H   PUBLIC    CODE     ---       Rx8130_Mack
      01003433H   PUBLIC    CODE     ---       Rx8130_Stop
      0100353FH   PUBLIC    CODE     ---       Rx8130_Start
      010012C1H   PUBLIC    CODE     ---       RTC_SET_IN
      01000066H   PUBLIC    CODE     ---       SDA_OUT
      01000026H   PUBLIC    CODE     ---       SDA_IN
      010034F1H   PUBLIC    CODE     ---       Delayus
      00000098H.3 SFRSYM    DATA     BIT       TB80
      000000F1H   SFRSYM    DATA     BYTE      ADR_H
LX51 LINKER/LOCATER V4.66.93.0                                                        04/30/2025  17:32:03  PAGE 47


      00000080H   SFRSYM    DATA     BYTE      P0
      00000090H   SFRSYM    DATA     BYTE      P1
      000000A0H   SFRSYM    DATA     BYTE      P2
      000000B0H   SFRSYM    DATA     BYTE      P3
      000000D0H.6 SFRSYM    DATA     BIT       AC
      000000F3H   SFRSYM    DATA     BYTE      ADR_L
      00000094H   SFRSYM    DATA     BYTE      PAGESEL
      000000F2H   SFRSYM    DATA     BYTE      ADR_M
      000000A8H.7 SFRSYM    DATA     BIT       EA
      000000A0H.5 SFRSYM    DATA     BIT       JIGUANG
      00000090H.7 SFRSYM    DATA     BIT       LED_R
      000000F8H   SFRSYM    DATA     BYTE      RAMMODE
      000000B7H   SFRSYM    DATA     BYTE      P0MDOUT
      000000A8H   SFRSYM    DATA     BYTE      IEN0
      000000BCH   SFRSYM    DATA     BYTE      P1MDOUT
      000000B8H   SFRSYM    DATA     BYTE      IEN1
      000000BDH   SFRSYM    DATA     BYTE      P2MDOUT
      000000F8H.0 SFRSYM    DATA     BIT       APP_DATA0
      0000009AH   SFRSYM    DATA     BYTE      IEN2
      000000BEH   SFRSYM    DATA     BYTE      P3MDOUT
      000000F8H.1 SFRSYM    DATA     BIT       APP_DATA1
      000000D1H   SFRSYM    DATA     BYTE      IEN3
      00000080H.0 SFRSYM    DATA     BIT       P0_0
      000000F8H.2 SFRSYM    DATA     BIT       APP_DATA2
      00000090H.0 SFRSYM    DATA     BIT       P1_0
      000000F8H.3 SFRSYM    DATA     BIT       APP_DATA3
      00000090H.1 SFRSYM    DATA     BIT       P1_1
      000000F8H.4 SFRSYM    DATA     BIT       APP_ACK
      000000F4H   SFRSYM    DATA     BYTE      ADR_INC
      000000B0H.1 SFRSYM    DATA     BIT       P3_1
      00000098H.4 SFRSYM    DATA     BIT       REN0
      000000B8H.1 SFRSYM    DATA     BIT       ECAN
      000000D0H.7 SFRSYM    DATA     BIT       CY
      000000B8H.3 SFRSYM    DATA     BIT       ES2R
      000000B8H.5 SFRSYM    DATA     BIT       ES3R
      000000B8H.2 SFRSYM    DATA     BIT       ES2T
      000000B8H.4 SFRSYM    DATA     BIT       ES3T
      000000C8H.7 SFRSYM    DATA     BIT       TSF2
      000000B0H.3 SFRSYM    DATA     BIT       RTC_SDA
      00000081H   SFRSYM    DATA     BYTE      SP
      000000D0H.2 SFRSYM    DATA     BIT       OV
      00000095H   SFRSYM    DATA     BYTE      D_PAGESEL
      00000090H.5 SFRSYM    DATA     BIT       UV
      000000F8H.7 SFRSYM    DATA     BIT       APP_REQ
      000000B0H.2 SFRSYM    DATA     BIT       RTC_SCL
      000000BFH   SFRSYM    DATA     BYTE      IRCON2
      000000BAH   SFRSYM    DATA     BYTE      SREL0H
      000000BBH   SFRSYM    DATA     BYTE      SREL1H
      00000087H   SFRSYM    DATA     BYTE      PCON
      000000AAH   SFRSYM    DATA     BYTE      SREL0L
      000000F9H   SFRSYM    DATA     BYTE      PORTDRV
      0000009DH   SFRSYM    DATA     BYTE      SREL1L
      00000089H   SFRSYM    DATA     BYTE      TMOD
      00000088H   SFRSYM    DATA     BYTE      TCON
      00000097H   SFRSYM    DATA     BYTE      SCON2R
      000000FFH   SFRSYM    DATA     BYTE      EXDATA
      000000ABH   SFRSYM    DATA     BYTE      SCON3R
      000000D9H   SFRSYM    DATA     BYTE      BODE2_DIV_H
      000000AEH   SFRSYM    DATA     BYTE      BODE3_DIV_H
      00000096H   SFRSYM    DATA     BYTE      SCON2T
      000000A7H   SFRSYM    DATA     BYTE      SCON3T
      000000E7H   SFRSYM    DATA     BYTE      BODE2_DIV_L
      00000088H.1 SFRSYM    DATA     BIT       IE0
      000000AFH   SFRSYM    DATA     BYTE      BODE3_DIV_L
      00000088H.3 SFRSYM    DATA     BIT       IE1
LX51 LINKER/LOCATER V4.66.93.0                                                        04/30/2025  17:32:03  PAGE 48


      000000C9H   SFRSYM    DATA     BYTE      MUX_SEL
      000000F0H   SFRSYM    DATA     BYTE      B
      000000E0H   SFRSYM    DATA     BYTE      ACC
      000000A8H.4 SFRSYM    DATA     BIT       ES0
      0000008FH   SFRSYM    DATA     BYTE      CAN_CR
      000000A8H.1 SFRSYM    DATA     BIT       ET0
      000000A9H   SFRSYM    DATA     BYTE      IP0
      000000A8H.3 SFRSYM    DATA     BIT       ET1
      00000088H.5 SFRSYM    DATA     BIT       TF0
      000000B9H   SFRSYM    DATA     BYTE      IP1
      000000A8H.5 SFRSYM    DATA     BIT       ET2
      00000098H.0 SFRSYM    DATA     BIT       RI0
      00000088H.7 SFRSYM    DATA     BIT       TF1
      000000FDH   SFRSYM    DATA     BYTE      DATA0
      000000C0H.6 SFRSYM    DATA     BIT       TF2
      000000E8H   SFRSYM    DATA     BYTE      CAN_ET
      000000FCH   SFRSYM    DATA     BYTE      DATA1
      0000008CH   SFRSYM    DATA     BYTE      TH0
      000000A8H.0 SFRSYM    DATA     BIT       EX0
      00000098H.1 SFRSYM    DATA     BIT       TI0
      00000088H.0 SFRSYM    DATA     BIT       IT0
      000000FBH   SFRSYM    DATA     BYTE      DATA2
      0000008DH   SFRSYM    DATA     BYTE      TH1
      000000A8H.2 SFRSYM    DATA     BIT       EX1
      00000091H   SFRSYM    DATA     BYTE      CAN_IR
      000000CDH   SFRSYM    DATA     BYTE      TH2
      00000088H.2 SFRSYM    DATA     BIT       IT1
      000000FAH   SFRSYM    DATA     BYTE      DATA3
      000000D0H.0 SFRSYM    DATA     BIT       P
      00000098H.7 SFRSYM    DATA     BIT       SM0
      0000008AH   SFRSYM    DATA     BYTE      TL0
      00000098H.6 SFRSYM    DATA     BIT       SM1
      0000008BH   SFRSYM    DATA     BYTE      TL1
      00000098H.5 SFRSYM    DATA     BIT       SM2
      000000CCH   SFRSYM    DATA     BYTE      TL2
      000000A0H.7 SFRSYM    DATA     BIT       UV_St
      000000D0H.3 SFRSYM    DATA     BIT       RS0
      000000F8H.6 SFRSYM    DATA     BIT       APP_EN
      000000D0H.4 SFRSYM    DATA     BIT       RS1
      00000088H.4 SFRSYM    DATA     BIT       TR0
      00000088H.6 SFRSYM    DATA     BIT       TR1
      00000093H   SFRSYM    DATA     BYTE      DPC
      000000C8H.0 SFRSYM    DATA     BIT       TR2
      000000E5H   SFRSYM    DATA     BYTE      MAC_MODE
      00000083H   SFRSYM    DATA     BYTE      DPH
      00000082H   SFRSYM    DATA     BYTE      DPL
      00000099H   SFRSYM    DATA     BYTE      SBUF0
      0000009CH   SFRSYM    DATA     BYTE      SBUF1
      00000098H   SFRSYM    DATA     BYTE      SCON0
      0000009BH   SFRSYM    DATA     BYTE      SCON1
      000000D8H   SFRSYM    DATA     BYTE      ADCON
      000000C8H   SFRSYM    DATA     BYTE      T2CON
      000000E6H   SFRSYM    DATA     BYTE      DIV_MODE
      000000F8H.5 SFRSYM    DATA     BIT       APP_RW
      000000CBH   SFRSYM    DATA     BYTE      TRL2H
      0000009FH   SFRSYM    DATA     BYTE      SBUF2_RX
      000000ADH   SFRSYM    DATA     BYTE      SBUF3_RX
      0000008EH   SFRSYM    DATA     BYTE      CKCON
      0000009EH   SFRSYM    DATA     BYTE      SBUF2_TX
      000000ACH   SFRSYM    DATA     BYTE      SBUF3_TX
      000000CAH   SFRSYM    DATA     BYTE      TRL2L
      000000D0H.5 SFRSYM    DATA     BIT       F0
      000000FEH   SFRSYM    DATA     BYTE      EXADR
      000000D0H.1 SFRSYM    DATA     BIT       F1
      000000A0H.3 SFRSYM    DATA     BIT       LED_B
LX51 LINKER/LOCATER V4.66.93.0                                                        04/30/2025  17:32:03  PAGE 49


      000000D0H   SFRSYM    DATA     BYTE      PSW
      000000A0H.1 SFRSYM    DATA     BIT       LED_G
      000000C0H   SFRSYM    DATA     BYTE      IRCON
      00000098H.2 SFRSYM    DATA     BIT       RB80
      0100366AH   SYMBOL    CONST    ---       _?ix1000
      01003670H   SYMBOL    CONST    ---       _?ix1001
      01003678H   SYMBOL    CONST    ---       _?ix1002
      0100367AH   SYMBOL    CONST    ---       _?ix1003

      010034EAH   BLOCK     CODE     ---       LVL=0
      ---         BLOCKEND  ---      ---       LVL=0

      010034F1H   BLOCK     CODE     ---       LVL=0
      00000007H   SYMBOL    DATA     BYTE      i
      010034F1H   BLOCK     CODE     NEAR LAB  LVL=1
      00000007H   SYMBOL    DATA     BYTE      i
      ---         BLOCKEND  ---      ---       LVL=1
      010034F1H   LINE      CODE     ---       #24
      ---         BLOCKEND  ---      ---       LVL=0

      01000026H   BLOCK     CODE     ---       LVL=0
      01000026H   LINE      CODE     ---       #26
      ---         BLOCKEND  ---      ---       LVL=0

      01000066H   BLOCK     CODE     ---       LVL=0
      01000066H   LINE      CODE     ---       #28
      ---         BLOCKEND  ---      ---       LVL=0

      010012C1H   BLOCK     CODE     ---       LVL=0
      010012C1H   BLOCK     CODE     NEAR LAB  LVL=1
      0200A494H   SYMBOL    XDATA    ---       RTC_H
      0200A498H   SYMBOL    XDATA    ---       RTC_L
      0200A49CH   SYMBOL    XDATA    ---       RTC_6
      0200A503H   SYMBOL    XDATA    ---       RTC_9C
      0200A4A2H   SYMBOL    XDATA    DWORD     RTC_H_HEX
      0200A505H   SYMBOL    XDATA    DWORD     RTC_L_HEX
      ---         BLOCKEND  ---      ---       LVL=1
      010012C1H   LINE      CODE     ---       #36
      010012C1H   LINE      CODE     ---       #37
      010012C1H   LINE      CODE     ---       #43
      010012D4H   LINE      CODE     ---       #49
      010012EAH   LINE      CODE     ---       #50
      01001300H   LINE      CODE     ---       #69
      01001374H   LINE      CODE     ---       #70
      010013E8H   LINE      CODE     ---       #74
      01001404H   LINE      CODE     ---       #75
      01001429H   LINE      CODE     ---       #76
      0100144FH   LINE      CODE     ---       #77
      0100146BH   LINE      CODE     ---       #78
      01001490H   LINE      CODE     ---       #79
      010014B6H   LINE      CODE     ---       #82
      010014CCH   LINE      CODE     ---       #83
      010014CCH   LINE      CODE     ---       #84
      010014E0H   LINE      CODE     ---       #85
      010014E0H   LINE      CODE     ---       #86
      010014F2H   LINE      CODE     ---       #87
      010014F2H   LINE      CODE     ---       #88
      01001504H   LINE      CODE     ---       #89
      01001504H   LINE      CODE     ---       #90
      01001516H   LINE      CODE     ---       #91
      01001516H   LINE      CODE     ---       #92
      0100151BH   LINE      CODE     ---       #93
      01001522H   LINE      CODE     ---       #94
      01001529H   LINE      CODE     ---       #95
      0100152BH   LINE      CODE     ---       #96
LX51 LINKER/LOCATER V4.66.93.0                                                        04/30/2025  17:32:03  PAGE 50


      0100152EH   LINE      CODE     ---       #97
      01001530H   LINE      CODE     ---       #98
      01001536H   LINE      CODE     ---       #100
      0100154CH   LINE      CODE     ---       #101
      01001562H   LINE      CODE     ---       #105
      ---         BLOCKEND  ---      ---       LVL=0

      0100353FH   BLOCK     CODE     ---       LVL=0
      0100353FH   LINE      CODE     ---       #109
      0100353FH   LINE      CODE     ---       #110
      0100353FH   LINE      CODE     ---       #111
      01003542H   LINE      CODE     ---       #112
      01003544H   LINE      CODE     ---       #113
      01003546H   LINE      CODE     ---       #114
      01003549H   LINE      CODE     ---       #115
      0100354BH   LINE      CODE     ---       #116
      0100354EH   LINE      CODE     ---       #117
      01003550H   LINE      CODE     ---       #118
      ---         BLOCKEND  ---      ---       LVL=0

      01003424H   BLOCK     CODE     ---       LVL=0
      ---         BLOCKEND  ---      ---       LVL=0

      01003433H   BLOCK     CODE     ---       LVL=0
      01003433H   LINE      CODE     ---       #121
      01003433H   LINE      CODE     ---       #122
      01003433H   LINE      CODE     ---       #123
      01003436H   LINE      CODE     ---       #124
      01003438H   LINE      CODE     ---       #125
      0100343AH   LINE      CODE     ---       #126
      0100343DH   LINE      CODE     ---       #127
      0100343FH   LINE      CODE     ---       #128
      01003442H   LINE      CODE     ---       #129
      ---         BLOCKEND  ---      ---       LVL=0

      01000016H   BLOCK     CODE     ---       LVL=0
      01000016H   LINE      CODE     ---       #132
      01000016H   LINE      CODE     ---       #133
      01000016H   LINE      CODE     ---       #134
      01000019H   LINE      CODE     ---       #135
      0100001BH   LINE      CODE     ---       #136
      0100001BH   LINE      CODE     ---       #137
      0100001BH   LINE      CODE     ---       #138
      0100001EH   LINE      CODE     ---       #139
      01000020H   LINE      CODE     ---       #140
      ---         BLOCKEND  ---      ---       LVL=0

      010035DEH   BLOCK     CODE     ---       LVL=0
      010035DEH   LINE      CODE     ---       #143
      010035DEH   LINE      CODE     ---       #144
      010035DEH   LINE      CODE     ---       #145
      010035E1H   LINE      CODE     ---       #146
      010035E1H   LINE      CODE     ---       #147
      010035E1H   LINE      CODE     ---       #148
      010035E1H   LINE      CODE     ---       #149
      010035E4H   LINE      CODE     ---       #150
      010035E6H   LINE      CODE     ---       #151
      ---         BLOCKEND  ---      ---       LVL=0

      01003401H   BLOCK     CODE     ---       LVL=0
      01003401H   BLOCK     CODE     NEAR LAB  LVL=1
      00000006H   SYMBOL    DATA     BYTE      i
      ---         BLOCKEND  ---      ---       LVL=1
      01003401H   LINE      CODE     ---       #154
      01003401H   LINE      CODE     ---       #155
LX51 LINKER/LOCATER V4.66.93.0                                                        04/30/2025  17:32:03  PAGE 51


      01003401H   LINE      CODE     ---       #157
      01003404H   LINE      CODE     ---       #158
      01003404H   LINE      CODE     ---       #159
      01003404H   LINE      CODE     ---       #160
      01003404H   LINE      CODE     ---       #161
      01003407H   LINE      CODE     ---       #162
      01003413H   LINE      CODE     ---       #163
      01003413H   LINE      CODE     ---       #164
      01003416H   LINE      CODE     ---       #165
      01003419H   LINE      CODE     ---       #166
      0100341CH   LINE      CODE     ---       #167
      0100341EH   LINE      CODE     ---       #168
      01003421H   LINE      CODE     ---       #169
      ---         BLOCKEND  ---      ---       LVL=0

      01000086H   BLOCK     CODE     ---       LVL=0
      ---         BLOCKEND  ---      ---       LVL=0

      010000C4H   BLOCK     CODE     ---       LVL=0
      00000006H   SYMBOL    DATA     BYTE      dat
      00000005H   SYMBOL    DATA     BYTE      i
      010000C6H   BLOCK     CODE     NEAR LAB  LVL=1
      00000005H   SYMBOL    DATA     BYTE      i
      ---         BLOCKEND  ---      ---       LVL=1
      010000C4H   LINE      CODE     ---       #172
      010000C6H   LINE      CODE     ---       #173
      010000C6H   LINE      CODE     ---       #175
      010000C9H   LINE      CODE     ---       #176
      010000D5H   LINE      CODE     ---       #177
      010000D5H   LINE      CODE     ---       #178
      010000DDH   LINE      CODE     ---       #179
      010000DFH   LINE      CODE     ---       #180
      010000E3H   LINE      CODE     ---       #181
      010000E3H   LINE      CODE     ---       #182
      010000E3H   LINE      CODE     ---       #183
      010000E6H   LINE      CODE     ---       #184
      010000E8H   LINE      CODE     ---       #185
      010000EBH   LINE      CODE     ---       #186
      010000EEH   LINE      CODE     ---       #187
      ---         BLOCKEND  ---      ---       LVL=0

      01003383H   BLOCK     CODE     ---       LVL=0
      01003383H   BLOCK     CODE     NEAR LAB  LVL=1
      00000005H   SYMBOL    DATA     BYTE      i
      00000006H   SYMBOL    DATA     BYTE      Dat
      ---         BLOCKEND  ---      ---       LVL=1
      01003383H   LINE      CODE     ---       #190
      01003383H   LINE      CODE     ---       #191
      01003383H   LINE      CODE     ---       #194
      01003386H   LINE      CODE     ---       #195
      01003392H   LINE      CODE     ---       #196
      01003392H   LINE      CODE     ---       #197
      01003392H   LINE      CODE     ---       #198
      01003392H   LINE      CODE     ---       #199
      01003395H   LINE      CODE     ---       #200
      01003399H   LINE      CODE     ---       #201
      010033A1H   LINE      CODE     ---       #202
      010033A5H   LINE      CODE     ---       #203
      010033A7H   LINE      CODE     ---       #204
      010033AAH   LINE      CODE     ---       #205
      010033ADH   LINE      CODE     ---       #206
      010033AFH   LINE      CODE     ---       #207
      ---         BLOCKEND  ---      ---       LVL=0

      010021D6H   BLOCK     CODE     ---       LVL=0
LX51 LINKER/LOCATER V4.66.93.0                                                        04/30/2025  17:32:03  PAGE 52


      00000007H   SYMBOL    DATA     BYTE      years
      0200A486H   SYMBOL    XDATA    BYTE      month
      0200A487H   SYMBOL    XDATA    BYTE      day
      010021E0H   BLOCK     CODE     NEAR LAB  LVL=1
      0200A488H   SYMBOL    XDATA    BYTE      weak
      0200A489H   SYMBOL    XDATA    WORD      year
      ---         BLOCKEND  ---      ---       LVL=1
      010021D6H   LINE      CODE     ---       #209
      010021E0H   LINE      CODE     ---       #210
      010021E0H   LINE      CODE     ---       #213
      010021EEH   LINE      CODE     ---       #214
      010021F9H   LINE      CODE     ---       #215
      010021F9H   LINE      CODE     ---       #216
      0100220EH   LINE      CODE     ---       #217
      0100220EH   LINE      CODE     ---       #218
      01002252H   LINE      CODE     ---       #219
      01002252H   LINE      CODE     ---       #220
      010022A2H   LINE      CODE     ---       #221
      010022A4H   LINE      CODE     ---       #223
      010022A4H   LINE      CODE     ---       #224
      0100232DH   LINE      CODE     ---       #225
      0100232DH   LINE      CODE     ---       #226
      01002332H   LINE      CODE     ---       #227
      ---         BLOCKEND  ---      ---       LVL=0

      01002333H   BLOCK     CODE     ---       LVL=0
      01002333H   BLOCK     CODE     NEAR LAB  LVL=1
      00000004H   SYMBOL    DATA     BYTE      i
      0200A47CH   SYMBOL    XDATA    BYTE      N
      0200A47DH   SYMBOL    XDATA    BYTE      M
      0200A47EH   SYMBOL    XDATA    ---       Rtcdata
      ---         BLOCKEND  ---      ---       LVL=1
      01002333H   LINE      CODE     ---       #229
      01002333H   LINE      CODE     ---       #230
      01002333H   LINE      CODE     ---       #232
      01002346H   LINE      CODE     ---       #233
      01002346H   LINE      CODE     ---       #234
      01002349H   LINE      CODE     ---       #235
      01002349H   LINE      CODE     ---       #236
      0100234CH   LINE      CODE     ---       #237
      0100234FH   LINE      CODE     ---       #238
      01002354H   LINE      CODE     ---       #239
      01002360H   LINE      CODE     ---       #240
      01002360H   LINE      CODE     ---       #241
      0100236FH   LINE      CODE     ---       #242
      01002372H   LINE      CODE     ---       #243
      01002375H   LINE      CODE     ---       #244
      01002380H   LINE      CODE     ---       #245
      01002383H   LINE      CODE     ---       #246
      0100238FH   LINE      CODE     ---       #247
      0100238FH   LINE      CODE     ---       #248
      010023A3H   LINE      CODE     ---       #249
      010023A9H   LINE      CODE     ---       #250
      010023BCH   LINE      CODE     ---       #251
      010023BFH   LINE      CODE     ---       #252
      010023CBH   LINE      CODE     ---       #253
      010023CBH   LINE      CODE     ---       #254
      010023DFH   LINE      CODE     ---       #255
      010023E5H   LINE      CODE     ---       #256
      010023F8H   LINE      CODE     ---       #257
      010023FBH   LINE      CODE     ---       #258
      0100240EH   LINE      CODE     ---       #259
      01002424H   LINE      CODE     ---       #260
      0100243AH   LINE      CODE     ---       #261
      01002450H   LINE      CODE     ---       #262
LX51 LINKER/LOCATER V4.66.93.0                                                        04/30/2025  17:32:03  PAGE 53


      ---         BLOCKEND  ---      ---       LVL=0

      0100316FH   BLOCK     CODE     ---       LVL=0
      0100316FH   BLOCK     CODE     NEAR LAB  LVL=1
      00000004H   SYMBOL    DATA     BYTE      i
      ---         BLOCKEND  ---      ---       LVL=1
      0100316FH   LINE      CODE     ---       #265
      0100316FH   LINE      CODE     ---       #266
      0100316FH   LINE      CODE     ---       #268
      0100316FH   LINE      CODE     ---       #269
      01003172H   LINE      CODE     ---       #270
      01003177H   LINE      CODE     ---       #271
      0100317AH   LINE      CODE     ---       #272
      0100317DH   LINE      CODE     ---       #273
      01003182H   LINE      CODE     ---       #274
      01003187H   LINE      CODE     ---       #275
      0100318AH   LINE      CODE     ---       #276
      0100318DH   LINE      CODE     ---       #277
      01003190H   LINE      CODE     ---       #278
      01003193H   LINE      CODE     ---       #279
      0100319AH   LINE      CODE     ---       #280
      0100319AH   LINE      CODE     ---       #282
      0100319AH   LINE      CODE     ---       #283
      0100319AH   LINE      CODE     ---       #284
      0100319AH   LINE      CODE     ---       #285
      0100319AH   LINE      CODE     ---       #286
      0100319AH   LINE      CODE     ---       #287
      0100319AH   LINE      CODE     ---       #288
      0100319AH   LINE      CODE     ---       #289
      0100319AH   LINE      CODE     ---       #290
      0100319AH   LINE      CODE     ---       #291
      0100319AH   LINE      CODE     ---       #292
      0100319AH   LINE      CODE     ---       #293
      0100319AH   LINE      CODE     ---       #294
      0100319AH   LINE      CODE     ---       #295
      0100319AH   LINE      CODE     ---       #296
      0100319DH   LINE      CODE     ---       #297
      010031A2H   LINE      CODE     ---       #298
      010031A7H   LINE      CODE     ---       #299
      010031ACH   LINE      CODE     ---       #300
      010031B1H   LINE      CODE     ---       #301
      010031B6H   LINE      CODE     ---       #302
      010031BBH   LINE      CODE     ---       #303
      010031C0H   LINE      CODE     ---       #304
      010031C2H   LINE      CODE     ---       #305
      010031C2H   LINE      CODE     ---       #306
      010031C2H   LINE      CODE     ---       #307
      010031C5H   LINE      CODE     ---       #308
      010031C5H   LINE      CODE     ---       #309
      010031C5H   LINE      CODE     ---       #310
      010031C5H   LINE      CODE     ---       #311
      010031C8H   LINE      CODE     ---       #312
      010031C8H   LINE      CODE     ---       #313
      ---         BLOCKEND  ---      ---       LVL=0

      01001EC0H   BLOCK     CODE     ---       LVL=0
      01001EC0H   BLOCK     CODE     NEAR LAB  LVL=1
      0200A4A6H   SYMBOL    XDATA    WORD      Va
      0200A4A8H   SYMBOL    XDATA    ---       zero
      01001EFAH   BLOCK     CODE     NEAR LAB  LVL=2
      0200A4AAH   SYMBOL    XDATA    BYTE      N
      0200A4ABH   SYMBOL    XDATA    BYTE      S
      00000020H.0 SYMBOL    BIT      BIT       Flog
      0200A4ACH   SYMBOL    XDATA    ---       TimeS
      0200A4B3H   SYMBOL    XDATA    WORD      V1
LX51 LINKER/LOCATER V4.66.93.0                                                        04/30/2025  17:32:03  PAGE 54


      ---         BLOCKEND  ---      ---       LVL=2
      ---         BLOCKEND  ---      ---       LVL=1
      01001EC0H   LINE      CODE     ---       #315
      01001EC0H   LINE      CODE     ---       #316
      01001EC0H   LINE      CODE     ---       #320
      01001ED3H   LINE      CODE     ---       #321
      01001EE9H   LINE      CODE     ---       #322
      01001EFAH   LINE      CODE     ---       #323
      01001EFAH   LINE      CODE     ---       #324
      01001F00H   LINE      CODE     ---       #325
      01001F02H   LINE      CODE     ---       #326
      01001F14H   LINE      CODE     ---       #328
      01001F2AH   LINE      CODE     ---       #329
      01001F4DH   LINE      CODE     ---       #330
      01001F68H   LINE      CODE     ---       #331
      01001F7EH   LINE      CODE     ---       #332
      01001FA1H   LINE      CODE     ---       #333
      01001FBCH   LINE      CODE     ---       #334
      01001FD2H   LINE      CODE     ---       #335
      01001FF5H   LINE      CODE     ---       #336
      01002010H   LINE      CODE     ---       #339
      01002025H   LINE      CODE     ---       #340
      01002028H   LINE      CODE     ---       #341
      01002028H   LINE      CODE     ---       #342
      01002028H   LINE      CODE     ---       #343
      01002028H   LINE      CODE     ---       #344
      01002028H   LINE      CODE     ---       #345
      01002028H   LINE      CODE     ---       #346
      01002028H   LINE      CODE     ---       #347
      01002028H   LINE      CODE     ---       #348
      01002028H   LINE      CODE     ---       #349
      01002028H   LINE      CODE     ---       #350
      01002028H   LINE      CODE     ---       #351
      01002028H   LINE      CODE     ---       #352
      01002028H   LINE      CODE     ---       #353
      01002028H   LINE      CODE     ---       #354
      01002028H   LINE      CODE     ---       #355
      01002028H   LINE      CODE     ---       #356
      0100202BH   LINE      CODE     ---       #357
      01002030H   LINE      CODE     ---       #358
      01002038H   LINE      CODE     ---       #359
      01002040H   LINE      CODE     ---       #360
      01002048H   LINE      CODE     ---       #361
      01002050H   LINE      CODE     ---       #362
      01002058H   LINE      CODE     ---       #363
      01002060H   LINE      CODE     ---       #364
      01002065H   LINE      CODE     ---       #365
      01002065H   LINE      CODE     ---       #366
      01002065H   LINE      CODE     ---       #367
      01002068H   LINE      CODE     ---       #368
      01002068H   LINE      CODE     ---       #369
      01002068H   LINE      CODE     ---       #370
      01002068H   LINE      CODE     ---       #371
      0100206BH   LINE      CODE     ---       #372
      0100206DH   LINE      CODE     ---       #373
      0100206FH   LINE      CODE     ---       #374
      0100206FH   LINE      CODE     ---       #375
      ---         BLOCKEND  ---      ---       LVL=0

      0100349DH   BLOCK     CODE     ---       LVL=0
      0100349DH   LINE      CODE     ---       #393
      0100349DH   LINE      CODE     ---       #394
      0100349DH   LINE      CODE     ---       #396
      010034ACH   LINE      CODE     ---       #397
      010034ACH   LINE      CODE     ---       #398
LX51 LINKER/LOCATER V4.66.93.0                                                        04/30/2025  17:32:03  PAGE 55


      010034AFH   LINE      CODE     ---       #399
      010034B6H   LINE      CODE     ---       #400
      010034B6H   LINE      CODE     ---       #402
      ---         BLOCKEND  ---      ---       LVL=0

      ---         MODULE    ---      ---       TOF
      0200A4EFH   PUBLIC    XDATA    WORD      L_int
      0200A4DFH   PUBLIC    XDATA    ---       GY53_Data
      0200A4DEH   PUBLIC    XDATA    BYTE      MODE
      01002696H   PUBLIC    CODE     ---       UART5_isr
      00000098H.3 SFRSYM    DATA     BIT       TB80
      000000F1H   SFRSYM    DATA     BYTE      ADR_H
      00000080H   SFRSYM    DATA     BYTE      P0
      00000090H   SFRSYM    DATA     BYTE      P1
      000000A0H   SFRSYM    DATA     BYTE      P2
      000000B0H   SFRSYM    DATA     BYTE      P3
      000000D0H.6 SFRSYM    DATA     BIT       AC
      000000F3H   SFRSYM    DATA     BYTE      ADR_L
      00000094H   SFRSYM    DATA     BYTE      PAGESEL
      000000F2H   SFRSYM    DATA     BYTE      ADR_M
      000000A8H.7 SFRSYM    DATA     BIT       EA
      000000A0H.5 SFRSYM    DATA     BIT       JIGUANG
      00000090H.7 SFRSYM    DATA     BIT       LED_R
      000000F8H   SFRSYM    DATA     BYTE      RAMMODE
      000000B7H   SFRSYM    DATA     BYTE      P0MDOUT
      000000A8H   SFRSYM    DATA     BYTE      IEN0
      000000BCH   SFRSYM    DATA     BYTE      P1MDOUT
      000000B8H   SFRSYM    DATA     BYTE      IEN1
      000000BDH   SFRSYM    DATA     BYTE      P2MDOUT
      000000F8H.0 SFRSYM    DATA     BIT       APP_DATA0
      0000009AH   SFRSYM    DATA     BYTE      IEN2
      000000BEH   SFRSYM    DATA     BYTE      P3MDOUT
      000000F8H.1 SFRSYM    DATA     BIT       APP_DATA1
      000000D1H   SFRSYM    DATA     BYTE      IEN3
      00000080H.0 SFRSYM    DATA     BIT       P0_0
      000000F8H.2 SFRSYM    DATA     BIT       APP_DATA2
      00000090H.0 SFRSYM    DATA     BIT       P1_0
      000000F8H.3 SFRSYM    DATA     BIT       APP_DATA3
      00000090H.1 SFRSYM    DATA     BIT       P1_1
      000000F8H.4 SFRSYM    DATA     BIT       APP_ACK
      000000F4H   SFRSYM    DATA     BYTE      ADR_INC
      000000B0H.1 SFRSYM    DATA     BIT       P3_1
      00000098H.4 SFRSYM    DATA     BIT       REN0
      000000B8H.1 SFRSYM    DATA     BIT       ECAN
      000000D0H.7 SFRSYM    DATA     BIT       CY
      000000B8H.3 SFRSYM    DATA     BIT       ES2R
      000000B8H.5 SFRSYM    DATA     BIT       ES3R
      000000B8H.2 SFRSYM    DATA     BIT       ES2T
      000000B8H.4 SFRSYM    DATA     BIT       ES3T
      000000C8H.7 SFRSYM    DATA     BIT       TSF2
      000000B0H.3 SFRSYM    DATA     BIT       RTC_SDA
      00000081H   SFRSYM    DATA     BYTE      SP
      000000D0H.2 SFRSYM    DATA     BIT       OV
      00000095H   SFRSYM    DATA     BYTE      D_PAGESEL
      00000090H.5 SFRSYM    DATA     BIT       UV
      000000F8H.7 SFRSYM    DATA     BIT       APP_REQ
      000000B0H.2 SFRSYM    DATA     BIT       RTC_SCL
      000000BFH   SFRSYM    DATA     BYTE      IRCON2
      000000BAH   SFRSYM    DATA     BYTE      SREL0H
      000000BBH   SFRSYM    DATA     BYTE      SREL1H
      00000087H   SFRSYM    DATA     BYTE      PCON
      000000AAH   SFRSYM    DATA     BYTE      SREL0L
      000000F9H   SFRSYM    DATA     BYTE      PORTDRV
      0000009DH   SFRSYM    DATA     BYTE      SREL1L
      00000089H   SFRSYM    DATA     BYTE      TMOD
LX51 LINKER/LOCATER V4.66.93.0                                                        04/30/2025  17:32:03  PAGE 56


      00000088H   SFRSYM    DATA     BYTE      TCON
      00000097H   SFRSYM    DATA     BYTE      SCON2R
      000000FFH   SFRSYM    DATA     BYTE      EXDATA
      000000ABH   SFRSYM    DATA     BYTE      SCON3R
      000000D9H   SFRSYM    DATA     BYTE      BODE2_DIV_H
      000000AEH   SFRSYM    DATA     BYTE      BODE3_DIV_H
      00000096H   SFRSYM    DATA     BYTE      SCON2T
      000000A7H   SFRSYM    DATA     BYTE      SCON3T
      000000E7H   SFRSYM    DATA     BYTE      BODE2_DIV_L
      00000088H.1 SFRSYM    DATA     BIT       IE0
      000000AFH   SFRSYM    DATA     BYTE      BODE3_DIV_L
      00000088H.3 SFRSYM    DATA     BIT       IE1
      000000C9H   SFRSYM    DATA     BYTE      MUX_SEL
      000000F0H   SFRSYM    DATA     BYTE      B
      000000E0H   SFRSYM    DATA     BYTE      ACC
      000000A8H.4 SFRSYM    DATA     BIT       ES0
      0000008FH   SFRSYM    DATA     BYTE      CAN_CR
      000000A8H.1 SFRSYM    DATA     BIT       ET0
      000000A9H   SFRSYM    DATA     BYTE      IP0
      000000A8H.3 SFRSYM    DATA     BIT       ET1
      00000088H.5 SFRSYM    DATA     BIT       TF0
      000000B9H   SFRSYM    DATA     BYTE      IP1
      000000A8H.5 SFRSYM    DATA     BIT       ET2
      00000098H.0 SFRSYM    DATA     BIT       RI0
      00000088H.7 SFRSYM    DATA     BIT       TF1
      000000FDH   SFRSYM    DATA     BYTE      DATA0
      000000C0H.6 SFRSYM    DATA     BIT       TF2
      000000E8H   SFRSYM    DATA     BYTE      CAN_ET
      000000FCH   SFRSYM    DATA     BYTE      DATA1
      0000008CH   SFRSYM    DATA     BYTE      TH0
      000000A8H.0 SFRSYM    DATA     BIT       EX0
      00000098H.1 SFRSYM    DATA     BIT       TI0
      00000088H.0 SFRSYM    DATA     BIT       IT0
      000000FBH   SFRSYM    DATA     BYTE      DATA2
      0000008DH   SFRSYM    DATA     BYTE      TH1
      000000A8H.2 SFRSYM    DATA     BIT       EX1
      00000091H   SFRSYM    DATA     BYTE      CAN_IR
      000000CDH   SFRSYM    DATA     BYTE      TH2
      00000088H.2 SFRSYM    DATA     BIT       IT1
      000000FAH   SFRSYM    DATA     BYTE      DATA3
      000000D0H.0 SFRSYM    DATA     BIT       P
      00000098H.7 SFRSYM    DATA     BIT       SM0
      0000008AH   SFRSYM    DATA     BYTE      TL0
      00000098H.6 SFRSYM    DATA     BIT       SM1
      0000008BH   SFRSYM    DATA     BYTE      TL1
      00000098H.5 SFRSYM    DATA     BIT       SM2
      000000CCH   SFRSYM    DATA     BYTE      TL2
      000000A0H.7 SFRSYM    DATA     BIT       UV_St
      000000D0H.3 SFRSYM    DATA     BIT       RS0
      000000F8H.6 SFRSYM    DATA     BIT       APP_EN
      000000D0H.4 SFRSYM    DATA     BIT       RS1
      00000088H.4 SFRSYM    DATA     BIT       TR0
      00000088H.6 SFRSYM    DATA     BIT       TR1
      00000093H   SFRSYM    DATA     BYTE      DPC
      000000C8H.0 SFRSYM    DATA     BIT       TR2
      000000E5H   SFRSYM    DATA     BYTE      MAC_MODE
      00000083H   SFRSYM    DATA     BYTE      DPH
      00000082H   SFRSYM    DATA     BYTE      DPL
      00000099H   SFRSYM    DATA     BYTE      SBUF0
      0000009CH   SFRSYM    DATA     BYTE      SBUF1
      00000098H   SFRSYM    DATA     BYTE      SCON0
      0000009BH   SFRSYM    DATA     BYTE      SCON1
      000000D8H   SFRSYM    DATA     BYTE      ADCON
      000000C8H   SFRSYM    DATA     BYTE      T2CON
      000000E6H   SFRSYM    DATA     BYTE      DIV_MODE
LX51 LINKER/LOCATER V4.66.93.0                                                        04/30/2025  17:32:03  PAGE 57


      000000F8H.5 SFRSYM    DATA     BIT       APP_RW
      000000CBH   SFRSYM    DATA     BYTE      TRL2H
      0000009FH   SFRSYM    DATA     BYTE      SBUF2_RX
      000000ADH   SFRSYM    DATA     BYTE      SBUF3_RX
      0000008EH   SFRSYM    DATA     BYTE      CKCON
      0000009EH   SFRSYM    DATA     BYTE      SBUF2_TX
      000000ACH   SFRSYM    DATA     BYTE      SBUF3_TX
      000000CAH   SFRSYM    DATA     BYTE      TRL2L
      000000D0H.5 SFRSYM    DATA     BIT       F0
      000000FEH   SFRSYM    DATA     BYTE      EXADR
      000000D0H.1 SFRSYM    DATA     BIT       F1
      000000A0H.3 SFRSYM    DATA     BIT       LED_B
      000000D0H   SFRSYM    DATA     BYTE      PSW
      000000A0H.1 SFRSYM    DATA     BIT       LED_G
      000000C0H   SFRSYM    DATA     BYTE      IRCON
      00000098H.2 SFRSYM    DATA     BIT       RB80

      01002696H   BLOCK     CODE     ---       LVL=0
      01002696H   BLOCK     CODE     NEAR LAB  LVL=1
      00000007H   SYMBOL    DATA     BYTE      DATA15
      0200A4DCH   SYMBOL    XDATA    WORD      UART5_FLAG
      00000006H   SYMBOL    DATA     BYTE      Dat
      ---         BLOCKEND  ---      ---       LVL=1
      01002696H   LINE      CODE     ---       #15
      01002696H   LINE      CODE     ---       #16
      01002696H   LINE      CODE     ---       #17
      01002696H   LINE      CODE     ---       #20
      01002698H   LINE      CODE     ---       #24
      010026AAH   LINE      CODE     ---       #25
      010026AAH   LINE      CODE     ---       #26
      010026AAH   LINE      CODE     ---       #27
      010026AAH   LINE      CODE     ---       #28
      010026B2H   LINE      CODE     ---       #29
      010026B2H   LINE      CODE     ---       #30
      010026BEH   LINE      CODE     ---       #31
      010026C6H   LINE      CODE     ---       #32
      010026C6H   LINE      CODE     ---       #33
      010026C7H   LINE      CODE     ---       #34
      010026C7H   LINE      CODE     ---       #35
      010026C7H   LINE      CODE     ---       #36
      010026C7H   LINE      CODE     ---       #37
      010026CAH   LINE      CODE     ---       #38
      010026CAH   LINE      CODE     ---       #39
      010026DCH   LINE      CODE     ---       #40
      010026E5H   LINE      CODE     ---       #41
      010026E6H   LINE      CODE     ---       #43
      010026E6H   LINE      CODE     ---       #44
      010026EDH   LINE      CODE     ---       #45
      010026EDH   LINE      CODE     ---       #46
      010026EEH   LINE      CODE     ---       #47
      010026EEH   LINE      CODE     ---       #48
      010026EEH   LINE      CODE     ---       #49
      010026EEH   LINE      CODE     ---       #50
      01002700H   LINE      CODE     ---       #51
      0100270EH   LINE      CODE     ---       #52
      0100271DH   LINE      CODE     ---       #53
      0100271DH   LINE      CODE     ---       #55
      01002721H   LINE      CODE     ---       #56
      01002764H   LINE      CODE     ---       #59
      01002769H   LINE      CODE     ---       #60
      01002769H   LINE      CODE     ---       #64
      0100276CH   LINE      CODE     ---       #65
      0100276CH   LINE      CODE     ---       #67
      01002796H   LINE      CODE     ---       #77
      01002796H   LINE      CODE     ---       #85
LX51 LINKER/LOCATER V4.66.93.0                                                        04/30/2025  17:32:03  PAGE 58


      01002796H   LINE      CODE     ---       #86
      01002796H   LINE      CODE     ---       #87
      01002796H   LINE      CODE     ---       #88
      01002796H   LINE      CODE     ---       #89
      01002796H   LINE      CODE     ---       #90
      ---         BLOCKEND  ---      ---       LVL=0

      ---         MODULE    ---      ---       START_WIN
      010035F8H   PUBLIC    CODE     ---       _Draw_chart
      0100002EH   PUBLIC    CODE     ---       start_win_Init
      00000098H.3 SFRSYM    DATA     BIT       TB80
      000000F1H   SFRSYM    DATA     BYTE      ADR_H
      00000080H   SFRSYM    DATA     BYTE      P0
      00000090H   SFRSYM    DATA     BYTE      P1
      000000A0H   SFRSYM    DATA     BYTE      P2
      000000B0H   SFRSYM    DATA     BYTE      P3
      000000D0H.6 SFRSYM    DATA     BIT       AC
      000000F3H   SFRSYM    DATA     BYTE      ADR_L
      00000094H   SFRSYM    DATA     BYTE      PAGESEL
      000000F2H   SFRSYM    DATA     BYTE      ADR_M
      000000A8H.7 SFRSYM    DATA     BIT       EA
      000000A0H.5 SFRSYM    DATA     BIT       JIGUANG
      00000090H.7 SFRSYM    DATA     BIT       LED_R
      000000F8H   SFRSYM    DATA     BYTE      RAMMODE
      000000B7H   SFRSYM    DATA     BYTE      P0MDOUT
      000000A8H   SFRSYM    DATA     BYTE      IEN0
      000000BCH   SFRSYM    DATA     BYTE      P1MDOUT
      000000B8H   SFRSYM    DATA     BYTE      IEN1
      000000BDH   SFRSYM    DATA     BYTE      P2MDOUT
      000000F8H.0 SFRSYM    DATA     BIT       APP_DATA0
      0000009AH   SFRSYM    DATA     BYTE      IEN2
      000000BEH   SFRSYM    DATA     BYTE      P3MDOUT
      000000F8H.1 SFRSYM    DATA     BIT       APP_DATA1
      000000D1H   SFRSYM    DATA     BYTE      IEN3
      00000080H.0 SFRSYM    DATA     BIT       P0_0
      000000F8H.2 SFRSYM    DATA     BIT       APP_DATA2
      00000090H.0 SFRSYM    DATA     BIT       P1_0
      000000F8H.3 SFRSYM    DATA     BIT       APP_DATA3
      00000090H.1 SFRSYM    DATA     BIT       P1_1
      000000F8H.4 SFRSYM    DATA     BIT       APP_ACK
      000000F4H   SFRSYM    DATA     BYTE      ADR_INC
      000000B0H.1 SFRSYM    DATA     BIT       P3_1
      00000098H.4 SFRSYM    DATA     BIT       REN0
      000000B8H.1 SFRSYM    DATA     BIT       ECAN
      000000D0H.7 SFRSYM    DATA     BIT       CY
      000000B8H.3 SFRSYM    DATA     BIT       ES2R
      000000B8H.5 SFRSYM    DATA     BIT       ES3R
      000000B8H.2 SFRSYM    DATA     BIT       ES2T
      000000B8H.4 SFRSYM    DATA     BIT       ES3T
      000000C8H.7 SFRSYM    DATA     BIT       TSF2
      000000B0H.3 SFRSYM    DATA     BIT       RTC_SDA
      00000081H   SFRSYM    DATA     BYTE      SP
      000000D0H.2 SFRSYM    DATA     BIT       OV
      00000095H   SFRSYM    DATA     BYTE      D_PAGESEL
      00000090H.5 SFRSYM    DATA     BIT       UV
      000000F8H.7 SFRSYM    DATA     BIT       APP_REQ
      000000B0H.2 SFRSYM    DATA     BIT       RTC_SCL
      000000BFH   SFRSYM    DATA     BYTE      IRCON2
      000000BAH   SFRSYM    DATA     BYTE      SREL0H
      000000BBH   SFRSYM    DATA     BYTE      SREL1H
      00000087H   SFRSYM    DATA     BYTE      PCON
      000000AAH   SFRSYM    DATA     BYTE      SREL0L
      000000F9H   SFRSYM    DATA     BYTE      PORTDRV
      0000009DH   SFRSYM    DATA     BYTE      SREL1L
      00000089H   SFRSYM    DATA     BYTE      TMOD
LX51 LINKER/LOCATER V4.66.93.0                                                        04/30/2025  17:32:03  PAGE 59


      00000088H   SFRSYM    DATA     BYTE      TCON
      00000097H   SFRSYM    DATA     BYTE      SCON2R
      000000FFH   SFRSYM    DATA     BYTE      EXDATA
      000000ABH   SFRSYM    DATA     BYTE      SCON3R
      000000D9H   SFRSYM    DATA     BYTE      BODE2_DIV_H
      000000AEH   SFRSYM    DATA     BYTE      BODE3_DIV_H
      00000096H   SFRSYM    DATA     BYTE      SCON2T
      000000A7H   SFRSYM    DATA     BYTE      SCON3T
      000000E7H   SFRSYM    DATA     BYTE      BODE2_DIV_L
      00000088H.1 SFRSYM    DATA     BIT       IE0
      000000AFH   SFRSYM    DATA     BYTE      BODE3_DIV_L
      00000088H.3 SFRSYM    DATA     BIT       IE1
      000000C9H   SFRSYM    DATA     BYTE      MUX_SEL
      000000F0H   SFRSYM    DATA     BYTE      B
      000000E0H   SFRSYM    DATA     BYTE      ACC
      000000A8H.4 SFRSYM    DATA     BIT       ES0
      0000008FH   SFRSYM    DATA     BYTE      CAN_CR
      000000A8H.1 SFRSYM    DATA     BIT       ET0
      000000A9H   SFRSYM    DATA     BYTE      IP0
      000000A8H.3 SFRSYM    DATA     BIT       ET1
      00000088H.5 SFRSYM    DATA     BIT       TF0
      000000B9H   SFRSYM    DATA     BYTE      IP1
      000000A8H.5 SFRSYM    DATA     BIT       ET2
      00000098H.0 SFRSYM    DATA     BIT       RI0
      00000088H.7 SFRSYM    DATA     BIT       TF1
      000000FDH   SFRSYM    DATA     BYTE      DATA0
      000000C0H.6 SFRSYM    DATA     BIT       TF2
      000000E8H   SFRSYM    DATA     BYTE      CAN_ET
      000000FCH   SFRSYM    DATA     BYTE      DATA1
      0000008CH   SFRSYM    DATA     BYTE      TH0
      000000A8H.0 SFRSYM    DATA     BIT       EX0
      00000098H.1 SFRSYM    DATA     BIT       TI0
      00000088H.0 SFRSYM    DATA     BIT       IT0
      000000FBH   SFRSYM    DATA     BYTE      DATA2
      0000008DH   SFRSYM    DATA     BYTE      TH1
      000000A8H.2 SFRSYM    DATA     BIT       EX1
      00000091H   SFRSYM    DATA     BYTE      CAN_IR
      000000CDH   SFRSYM    DATA     BYTE      TH2
      00000088H.2 SFRSYM    DATA     BIT       IT1
      000000FAH   SFRSYM    DATA     BYTE      DATA3
      000000D0H.0 SFRSYM    DATA     BIT       P
      00000098H.7 SFRSYM    DATA     BIT       SM0
      0000008AH   SFRSYM    DATA     BYTE      TL0
      00000098H.6 SFRSYM    DATA     BIT       SM1
      0000008BH   SFRSYM    DATA     BYTE      TL1
      00000098H.5 SFRSYM    DATA     BIT       SM2
      000000CCH   SFRSYM    DATA     BYTE      TL2
      000000A0H.7 SFRSYM    DATA     BIT       UV_St
      000000D0H.3 SFRSYM    DATA     BIT       RS0
      000000F8H.6 SFRSYM    DATA     BIT       APP_EN
      000000D0H.4 SFRSYM    DATA     BIT       RS1
      00000088H.4 SFRSYM    DATA     BIT       TR0
      00000088H.6 SFRSYM    DATA     BIT       TR1
      00000093H   SFRSYM    DATA     BYTE      DPC
      000000C8H.0 SFRSYM    DATA     BIT       TR2
      000000E5H   SFRSYM    DATA     BYTE      MAC_MODE
      00000083H   SFRSYM    DATA     BYTE      DPH
      00000082H   SFRSYM    DATA     BYTE      DPL
      00000099H   SFRSYM    DATA     BYTE      SBUF0
      0000009CH   SFRSYM    DATA     BYTE      SBUF1
      00000098H   SFRSYM    DATA     BYTE      SCON0
      0000009BH   SFRSYM    DATA     BYTE      SCON1
      000000D8H   SFRSYM    DATA     BYTE      ADCON
      000000C8H   SFRSYM    DATA     BYTE      T2CON
      000000E6H   SFRSYM    DATA     BYTE      DIV_MODE
LX51 LINKER/LOCATER V4.66.93.0                                                        04/30/2025  17:32:03  PAGE 60


      000000F8H.5 SFRSYM    DATA     BIT       APP_RW
      000000CBH   SFRSYM    DATA     BYTE      TRL2H
      0000009FH   SFRSYM    DATA     BYTE      SBUF2_RX
      000000ADH   SFRSYM    DATA     BYTE      SBUF3_RX
      0000008EH   SFRSYM    DATA     BYTE      CKCON
      0000009EH   SFRSYM    DATA     BYTE      SBUF2_TX
      000000ACH   SFRSYM    DATA     BYTE      SBUF3_TX
      000000CAH   SFRSYM    DATA     BYTE      TRL2L
      000000D0H.5 SFRSYM    DATA     BIT       F0
      000000FEH   SFRSYM    DATA     BYTE      EXADR
      000000D0H.1 SFRSYM    DATA     BIT       F1
      000000A0H.3 SFRSYM    DATA     BIT       LED_B
      000000D0H   SFRSYM    DATA     BYTE      PSW
      000000A0H.1 SFRSYM    DATA     BIT       LED_G
      000000C0H   SFRSYM    DATA     BYTE      IRCON
      00000098H.2 SFRSYM    DATA     BIT       RB80
      0200A4BCH   SYMBOL    XDATA    ---       Line

      0100002EH   BLOCK     CODE     ---       LVL=0
      0100002EH   LINE      CODE     ---       #22
      0100002EH   LINE      CODE     ---       #23
      0100002EH   LINE      CODE     ---       #25
      01000037H   LINE      CODE     ---       #26
      01000040H   LINE      CODE     ---       #27
      01000047H   LINE      CODE     ---       #29
      01000050H   LINE      CODE     ---       #30
      01000059H   LINE      CODE     ---       #31
      01000060H   LINE      CODE     ---       #32
      ---         BLOCKEND  ---      ---       LVL=0

      010035F8H   BLOCK     CODE     ---       LVL=0
      0200A522H   SYMBOL    XDATA    BYTE      line_num
      010035F8H   LINE      CODE     ---       #34
      010035FDH   LINE      CODE     ---       #35
      010035FDH   LINE      CODE     ---       #39
      ---         BLOCKEND  ---      ---       LVL=0

      ---         MODULE    ---      ---       HOME
      0200A478H   PUBLIC    XDATA    FLOAT     Volume
      0200A474H   PUBLIC    XDATA    FLOAT     L_M
      0200A470H   PUBLIC    XDATA    FLOAT     Square
      0200A46EH   PUBLIC    XDATA    WORD      baifenbi_T
      0200A46CH   PUBLIC    XDATA    WORD      Current_Lock
      0200A46BH   PUBLIC    XDATA    BYTE      Returnkey
      0200A46AH   PUBLIC    XDATA    BYTE      PageSliding
      0200A466H   PUBLIC    XDATA    FLOAT     D
      0200A462H   PUBLIC    XDATA    FLOAT     change_P_uW_doing
      0200A460H   PUBLIC    XDATA    WORD      mode_open
      0200A45CH   PUBLIC    XDATA    FLOAT     pai
      0200A45AH   PUBLIC    XDATA    WORD      ControlPageLock_Adress
      0200A459H   PUBLIC    XDATA    BYTE      last_page
      0200A455H   PUBLIC    XDATA    FLOAT     mJ_doing
      0200A451H   PUBLIC    XDATA    FLOAT     L_m_D_V_S
      0200A44DH   PUBLIC    XDATA    DWORD     time_doing
      0200A44BH   PUBLIC    XDATA    WORD      mode_close
      0200A447H   PUBLIC    XDATA    FLOAT     zhongxin_35mm
      0200A443H   PUBLIC    XDATA    FLOAT     Tanx
      0200A441H   PUBLIC    XDATA    ---       CurrentPageNum
      0200A435H   PUBLIC    XDATA    DWORD     time_100ms
      0200A431H   PUBLIC    XDATA    FLOAT     Tan_zhongxin
      0100334CH   PUBLIC    CODE     ---       _Unlock_current_page_zengliang
      01003315H   PUBLIC    CODE     ---       _Lock_current_page_zengliang
      01002D1AH   PUBLIC    CODE     ---       Unlock_current_page
      01002EA8H   PUBLIC    CODE     ---       Lock_current_page
      010035A1H   PUBLIC    CODE     ---       PageLock_Init
LX51 LINKER/LOCATER V4.66.93.0                                                        04/30/2025  17:32:03  PAGE 61


      01001565H   PUBLIC    CODE     ---       _QRJ_ZX__QY_RUN
      01000CE7H   PUBLIC    CODE     ---       Prepare_qrj_zx_qy
      010017CFH   PUBLIC    CODE     ---       _L_mm_TO_P_uw
      010032D8H   PUBLIC    CODE     ---       ReadCurrentPage_run
      00000098H.3 SFRSYM    DATA     BIT       TB80
      000000F1H   SFRSYM    DATA     BYTE      ADR_H
      00000080H   SFRSYM    DATA     BYTE      P0
      00000090H   SFRSYM    DATA     BYTE      P1
      000000A0H   SFRSYM    DATA     BYTE      P2
      000000B0H   SFRSYM    DATA     BYTE      P3
      000000D0H.6 SFRSYM    DATA     BIT       AC
      000000F3H   SFRSYM    DATA     BYTE      ADR_L
      00000094H   SFRSYM    DATA     BYTE      PAGESEL
      000000F2H   SFRSYM    DATA     BYTE      ADR_M
      000000A8H.7 SFRSYM    DATA     BIT       EA
      000000A0H.5 SFRSYM    DATA     BIT       JIGUANG
      00000090H.7 SFRSYM    DATA     BIT       LED_R
      000000F8H   SFRSYM    DATA     BYTE      RAMMODE
      000000B7H   SFRSYM    DATA     BYTE      P0MDOUT
      000000A8H   SFRSYM    DATA     BYTE      IEN0
      000000BCH   SFRSYM    DATA     BYTE      P1MDOUT
      000000B8H   SFRSYM    DATA     BYTE      IEN1
      000000BDH   SFRSYM    DATA     BYTE      P2MDOUT
      000000F8H.0 SFRSYM    DATA     BIT       APP_DATA0
      0000009AH   SFRSYM    DATA     BYTE      IEN2
      000000BEH   SFRSYM    DATA     BYTE      P3MDOUT
      000000F8H.1 SFRSYM    DATA     BIT       APP_DATA1
      000000D1H   SFRSYM    DATA     BYTE      IEN3
      00000080H.0 SFRSYM    DATA     BIT       P0_0
      000000F8H.2 SFRSYM    DATA     BIT       APP_DATA2
      00000090H.0 SFRSYM    DATA     BIT       P1_0
      000000F8H.3 SFRSYM    DATA     BIT       APP_DATA3
      00000090H.1 SFRSYM    DATA     BIT       P1_1
      000000F8H.4 SFRSYM    DATA     BIT       APP_ACK
      000000F4H   SFRSYM    DATA     BYTE      ADR_INC
      000000B0H.1 SFRSYM    DATA     BIT       P3_1
      00000098H.4 SFRSYM    DATA     BIT       REN0
      000000B8H.1 SFRSYM    DATA     BIT       ECAN
      000000D0H.7 SFRSYM    DATA     BIT       CY
      000000B8H.3 SFRSYM    DATA     BIT       ES2R
      000000B8H.5 SFRSYM    DATA     BIT       ES3R
      000000B8H.2 SFRSYM    DATA     BIT       ES2T
      000000B8H.4 SFRSYM    DATA     BIT       ES3T
      000000C8H.7 SFRSYM    DATA     BIT       TSF2
      000000B0H.3 SFRSYM    DATA     BIT       RTC_SDA
      00000081H   SFRSYM    DATA     BYTE      SP
      000000D0H.2 SFRSYM    DATA     BIT       OV
      00000095H   SFRSYM    DATA     BYTE      D_PAGESEL
      00000090H.5 SFRSYM    DATA     BIT       UV
      000000F8H.7 SFRSYM    DATA     BIT       APP_REQ
      000000B0H.2 SFRSYM    DATA     BIT       RTC_SCL
      000000BFH   SFRSYM    DATA     BYTE      IRCON2
      000000BAH   SFRSYM    DATA     BYTE      SREL0H
      000000BBH   SFRSYM    DATA     BYTE      SREL1H
      00000087H   SFRSYM    DATA     BYTE      PCON
      000000AAH   SFRSYM    DATA     BYTE      SREL0L
      000000F9H   SFRSYM    DATA     BYTE      PORTDRV
      0000009DH   SFRSYM    DATA     BYTE      SREL1L
      00000089H   SFRSYM    DATA     BYTE      TMOD
      00000088H   SFRSYM    DATA     BYTE      TCON
      00000097H   SFRSYM    DATA     BYTE      SCON2R
      000000FFH   SFRSYM    DATA     BYTE      EXDATA
      000000ABH   SFRSYM    DATA     BYTE      SCON3R
      000000D9H   SFRSYM    DATA     BYTE      BODE2_DIV_H
      000000AEH   SFRSYM    DATA     BYTE      BODE3_DIV_H
LX51 LINKER/LOCATER V4.66.93.0                                                        04/30/2025  17:32:03  PAGE 62


      00000096H   SFRSYM    DATA     BYTE      SCON2T
      000000A7H   SFRSYM    DATA     BYTE      SCON3T
      000000E7H   SFRSYM    DATA     BYTE      BODE2_DIV_L
      00000088H.1 SFRSYM    DATA     BIT       IE0
      000000AFH   SFRSYM    DATA     BYTE      BODE3_DIV_L
      00000088H.3 SFRSYM    DATA     BIT       IE1
      000000C9H   SFRSYM    DATA     BYTE      MUX_SEL
      000000F0H   SFRSYM    DATA     BYTE      B
      000000E0H   SFRSYM    DATA     BYTE      ACC
      000000A8H.4 SFRSYM    DATA     BIT       ES0
      0000008FH   SFRSYM    DATA     BYTE      CAN_CR
      000000A8H.1 SFRSYM    DATA     BIT       ET0
      000000A9H   SFRSYM    DATA     BYTE      IP0
      000000A8H.3 SFRSYM    DATA     BIT       ET1
      00000088H.5 SFRSYM    DATA     BIT       TF0
      000000B9H   SFRSYM    DATA     BYTE      IP1
      000000A8H.5 SFRSYM    DATA     BIT       ET2
      00000098H.0 SFRSYM    DATA     BIT       RI0
      00000088H.7 SFRSYM    DATA     BIT       TF1
      000000FDH   SFRSYM    DATA     BYTE      DATA0
      000000C0H.6 SFRSYM    DATA     BIT       TF2
      000000E8H   SFRSYM    DATA     BYTE      CAN_ET
      000000FCH   SFRSYM    DATA     BYTE      DATA1
      0000008CH   SFRSYM    DATA     BYTE      TH0
      000000A8H.0 SFRSYM    DATA     BIT       EX0
      00000098H.1 SFRSYM    DATA     BIT       TI0
      00000088H.0 SFRSYM    DATA     BIT       IT0
      000000FBH   SFRSYM    DATA     BYTE      DATA2
      0000008DH   SFRSYM    DATA     BYTE      TH1
      000000A8H.2 SFRSYM    DATA     BIT       EX1
      00000091H   SFRSYM    DATA     BYTE      CAN_IR
      000000CDH   SFRSYM    DATA     BYTE      TH2
      00000088H.2 SFRSYM    DATA     BIT       IT1
      000000FAH   SFRSYM    DATA     BYTE      DATA3
      000000D0H.0 SFRSYM    DATA     BIT       P
      00000098H.7 SFRSYM    DATA     BIT       SM0
      0000008AH   SFRSYM    DATA     BYTE      TL0
      00000098H.6 SFRSYM    DATA     BIT       SM1
      0000008BH   SFRSYM    DATA     BYTE      TL1
      00000098H.5 SFRSYM    DATA     BIT       SM2
      000000CCH   SFRSYM    DATA     BYTE      TL2
      000000A0H.7 SFRSYM    DATA     BIT       UV_St
      000000D0H.3 SFRSYM    DATA     BIT       RS0
      000000F8H.6 SFRSYM    DATA     BIT       APP_EN
      000000D0H.4 SFRSYM    DATA     BIT       RS1
      00000088H.4 SFRSYM    DATA     BIT       TR0
      00000088H.6 SFRSYM    DATA     BIT       TR1
      00000093H   SFRSYM    DATA     BYTE      DPC
      000000C8H.0 SFRSYM    DATA     BIT       TR2
      000000E5H   SFRSYM    DATA     BYTE      MAC_MODE
      00000083H   SFRSYM    DATA     BYTE      DPH
      00000082H   SFRSYM    DATA     BYTE      DPL
      00000099H   SFRSYM    DATA     BYTE      SBUF0
      0000009CH   SFRSYM    DATA     BYTE      SBUF1
      00000098H   SFRSYM    DATA     BYTE      SCON0
      0000009BH   SFRSYM    DATA     BYTE      SCON1
      000000D8H   SFRSYM    DATA     BYTE      ADCON
      000000C8H   SFRSYM    DATA     BYTE      T2CON
      000000E6H   SFRSYM    DATA     BYTE      DIV_MODE
      000000F8H.5 SFRSYM    DATA     BIT       APP_RW
      000000CBH   SFRSYM    DATA     BYTE      TRL2H
      0000009FH   SFRSYM    DATA     BYTE      SBUF2_RX
      000000ADH   SFRSYM    DATA     BYTE      SBUF3_RX
      0000008EH   SFRSYM    DATA     BYTE      CKCON
      0000009EH   SFRSYM    DATA     BYTE      SBUF2_TX
LX51 LINKER/LOCATER V4.66.93.0                                                        04/30/2025  17:32:03  PAGE 63


      000000ACH   SFRSYM    DATA     BYTE      SBUF3_TX
      000000CAH   SFRSYM    DATA     BYTE      TRL2L
      000000D0H.5 SFRSYM    DATA     BIT       F0
      000000FEH   SFRSYM    DATA     BYTE      EXADR
      000000D0H.1 SFRSYM    DATA     BIT       F1
      000000A0H.3 SFRSYM    DATA     BIT       LED_B
      000000D0H   SFRSYM    DATA     BYTE      PSW
      000000A0H.1 SFRSYM    DATA     BIT       LED_G
      000000C0H   SFRSYM    DATA     BYTE      IRCON
      00000098H.2 SFRSYM    DATA     BIT       RB80
      0200A439H   SYMBOL    XDATA    ---       PageLock

      010032D8H   BLOCK     CODE     ---       LVL=0
      010032D8H   LINE      CODE     ---       #32
      010032D8H   LINE      CODE     ---       #33
      010032D8H   LINE      CODE     ---       #36
      010032EEH   LINE      CODE     ---       #37
      01003300H   LINE      CODE     ---       #38
      01003300H   LINE      CODE     ---       #39
      01003300H   LINE      CODE     ---       #40
      01003300H   LINE      CODE     ---       #41
      01003305H   LINE      CODE     ---       #42
      0100330BH   LINE      CODE     ---       #43
      0100330CH   LINE      CODE     ---       #44
      0100330CH   LINE      CODE     ---       #46
      0100330CH   LINE      CODE     ---       #47
      0100330CH   LINE      CODE     ---       #52
      0100330FH   LINE      CODE     ---       #53
      0100330FH   LINE      CODE     ---       #55
      01003311H   LINE      CODE     ---       #56
      01003311H   LINE      CODE     ---       #58
      01003311H   LINE      CODE     ---       #59
      01003311H   LINE      CODE     ---       #61
      01003311H   LINE      CODE     ---       #64
      01003311H   LINE      CODE     ---       #65
      01003311H   LINE      CODE     ---       #67
      01003314H   LINE      CODE     ---       #72
      01003314H   LINE      CODE     ---       #73
      01003314H   LINE      CODE     ---       #76
      01003314H   LINE      CODE     ---       #77
      01003314H   LINE      CODE     ---       #79
      01003314H   LINE      CODE     ---       #80
      01003314H   LINE      CODE     ---       #83
      01003314H   LINE      CODE     ---       #84
      01003314H   LINE      CODE     ---       #85
      01003314H   LINE      CODE     ---       #86
      01003314H   LINE      CODE     ---       #89
      01003314H   LINE      CODE     ---       #90
      01003314H   LINE      CODE     ---       #92
      01003314H   LINE      CODE     ---       #93
      01003314H   LINE      CODE     ---       #95
      01003314H   LINE      CODE     ---       #96
      01003314H   LINE      CODE     ---       #98
      01003314H   LINE      CODE     ---       #99
      01003314H   LINE      CODE     ---       #102
      01003314H   LINE      CODE     ---       #103
      01003314H   LINE      CODE     ---       #105
      01003314H   LINE      CODE     ---       #106
      01003314H   LINE      CODE     ---       #108
      01003314H   LINE      CODE     ---       #109
      01003314H   LINE      CODE     ---       #111
      01003314H   LINE      CODE     ---       #112
      01003314H   LINE      CODE     ---       #114
      01003314H   LINE      CODE     ---       #115
      01003314H   LINE      CODE     ---       #116
LX51 LINKER/LOCATER V4.66.93.0                                                        04/30/2025  17:32:03  PAGE 64


      01003314H   LINE      CODE     ---       #117
      01003314H   LINE      CODE     ---       #118
      01003314H   LINE      CODE     ---       #119
      01003314H   LINE      CODE     ---       #121
      01003314H   LINE      CODE     ---       #122
      01003314H   LINE      CODE     ---       #124
      01003314H   LINE      CODE     ---       #126
      ---         BLOCKEND  ---      ---       LVL=0

      010017CFH   BLOCK     CODE     ---       LVL=0
      00000002H   SYMBOL    DATA     WORD      L_mm_TO_P
      0200A47CH   SYMBOL    XDATA    BYTE      current_page
      010017D8H   BLOCK     CODE     NEAR LAB  LVL=1
      0200A47DH   SYMBOL    XDATA    BYTE      L_mm_TO_P_uw_FLAG
      0200A47EH   SYMBOL    XDATA    FLOAT     BEISHU
      0200A482H   SYMBOL    XDATA    FLOAT     L_CM
      0200A486H   SYMBOL    XDATA    FLOAT     mihanshu
      ---         BLOCKEND  ---      ---       LVL=1
      010017CFH   LINE      CODE     ---       #160
      010017D8H   LINE      CODE     ---       #161
      010017D8H   LINE      CODE     ---       #162
      010017DBH   LINE      CODE     ---       #163
      010017E3H   LINE      CODE     ---       #165
      010017EDH   LINE      CODE     ---       #168
      01001806H   LINE      CODE     ---       #170
      01001845H   LINE      CODE     ---       #171
      01001886H   LINE      CODE     ---       #172
      010018C6H   LINE      CODE     ---       #173
      01001906H   LINE      CODE     ---       #174
      0100190CH   LINE      CODE     ---       #177
      01001924H   LINE      CODE     ---       #178
      01001924H   LINE      CODE     ---       #179
      01001924H   LINE      CODE     ---       #180
      01001924H   LINE      CODE     ---       #181
      01001945H   LINE      CODE     ---       #182
      0100194BH   LINE      CODE     ---       #183
      0100194BH   LINE      CODE     ---       #184
      0100194DH   LINE      CODE     ---       #185
      0100194DH   LINE      CODE     ---       #188
      0100194DH   LINE      CODE     ---       #189
      0100194DH   LINE      CODE     ---       #190
      0100196EH   LINE      CODE     ---       #191
      01001974H   LINE      CODE     ---       #192
      01001974H   LINE      CODE     ---       #193
      01001976H   LINE      CODE     ---       #194
      01001976H   LINE      CODE     ---       #196
      01001976H   LINE      CODE     ---       #197
      01001976H   LINE      CODE     ---       #198
      01001997H   LINE      CODE     ---       #199
      0100199FH   LINE      CODE     ---       #200
      0100199FH   LINE      CODE     ---       #201
      010019A1H   LINE      CODE     ---       #202
      010019A1H   LINE      CODE     ---       #204
      010019A1H   LINE      CODE     ---       #205
      010019A1H   LINE      CODE     ---       #206
      010019C2H   LINE      CODE     ---       #207
      010019E1H   LINE      CODE     ---       #208
      010019F5H   LINE      CODE     ---       #209
      010019F7H   LINE      CODE     ---       #210
      010019F7H   LINE      CODE     ---       #212
      010019F7H   LINE      CODE     ---       #213
      010019F7H   LINE      CODE     ---       #214
      010019FDH   LINE      CODE     ---       #215
      010019FDH   LINE      CODE     ---       #216
      010019FDH   LINE      CODE     ---       #218
LX51 LINKER/LOCATER V4.66.93.0                                                        04/30/2025  17:32:03  PAGE 65


      01001A0BH   LINE      CODE     ---       #219
      01001A0BH   LINE      CODE     ---       #220
      01001A2AH   LINE      CODE     ---       #221
      01001A2AH   LINE      CODE     ---       #227
      ---         BLOCKEND  ---      ---       LVL=0

      01000CE7H   BLOCK     CODE     ---       LVL=0
      01000CE7H   LINE      CODE     ---       #234
      01000CE7H   LINE      CODE     ---       #235
      01000CE7H   LINE      CODE     ---       #237
      01000CF7H   LINE      CODE     ---       #238
      01000D0DH   LINE      CODE     ---       #239
      01000D29H   LINE      CODE     ---       #241
      01000D34H   LINE      CODE     ---       #242
      01000D34H   LINE      CODE     ---       #243
      01000D61H   LINE      CODE     ---       #244
      01000D8FH   LINE      CODE     ---       #245
      01000DE2H   LINE      CODE     ---       #246
      01000E11H   LINE      CODE     ---       #247
      01000E17H   LINE      CODE     ---       #250
      01000E1AH   LINE      CODE     ---       #251
      01000E25H   LINE      CODE     ---       #252
      01000E25H   LINE      CODE     ---       #254
      01000E52H   LINE      CODE     ---       #255
      01000E80H   LINE      CODE     ---       #256
      01000ED3H   LINE      CODE     ---       #258
      01000ED9H   LINE      CODE     ---       #261
      01000EDCH   LINE      CODE     ---       #262
      01000EE7H   LINE      CODE     ---       #263
      01000EE7H   LINE      CODE     ---       #264
      01000F14H   LINE      CODE     ---       #265
      01000F42H   LINE      CODE     ---       #266
      01000F95H   LINE      CODE     ---       #268
      01000FABH   LINE      CODE     ---       #271
      01000FABH   LINE      CODE     ---       #273
      01000FC1H   LINE      CODE     ---       #274
      ---         BLOCKEND  ---      ---       LVL=0

      01001565H   BLOCK     CODE     ---       LVL=0
      0200A47CH   SYMBOL    XDATA    ---       callback_u16
      01001570H   BLOCK     CODE     NEAR LAB  LVL=1
      0200A47FH   SYMBOL    XDATA    WORD      ResTime_sec
      0200A481H   SYMBOL    XDATA    WORD      ResTime_min
      0200A42DH   SYMBOL    XDATA    DWORD     t_1
      ---         BLOCKEND  ---      ---       LVL=1
      01001565H   LINE      CODE     ---       #287
      01001570H   LINE      CODE     ---       #288
      01001570H   LINE      CODE     ---       #292
      01001587H   LINE      CODE     ---       #293
      01001587H   LINE      CODE     ---       #294
      01001591H   LINE      CODE     ---       #297
      010015D0H   LINE      CODE     ---       #298
      010015EFH   LINE      CODE     ---       #299
      01001609H   LINE      CODE     ---       #300
      01001609H   LINE      CODE     ---       #301
      01001613H   LINE      CODE     ---       #304
      01001632H   LINE      CODE     ---       #306
      01001632H   LINE      CODE     ---       #307
      01001649H   LINE      CODE     ---       #310
      0100166DH   LINE      CODE     ---       #311
      01001680H   LINE      CODE     ---       #313
      01001696H   LINE      CODE     ---       #314
      010016ACH   LINE      CODE     ---       #317
      010016E5H   LINE      CODE     ---       #318
      010016F8H   LINE      CODE     ---       #319
LX51 LINKER/LOCATER V4.66.93.0                                                        04/30/2025  17:32:03  PAGE 66


      0100170EH   LINE      CODE     ---       #320
      01001724H   LINE      CODE     ---       #323
      0100173AH   LINE      CODE     ---       #325
      01001783H   LINE      CODE     ---       #326
      010017B8H   LINE      CODE     ---       #327
      010017CEH   LINE      CODE     ---       #329
      010017CEH   LINE      CODE     ---       #330
      ---         BLOCKEND  ---      ---       LVL=0

      010035A1H   BLOCK     CODE     ---       LVL=0
      010035A1H   LINE      CODE     ---       #359
      010035A1H   LINE      CODE     ---       #360
      010035A1H   LINE      CODE     ---       #361
      010035ABH   LINE      CODE     ---       #362
      010035AEH   LINE      CODE     ---       #363
      ---         BLOCKEND  ---      ---       LVL=0

      01002EA8H   BLOCK     CODE     ---       LVL=0
      01002EA8H   LINE      CODE     ---       #378
      01002EA8H   LINE      CODE     ---       #379
      01002EA8H   LINE      CODE     ---       #380
      01002EB0H   LINE      CODE     ---       #381
      01002EB0H   LINE      CODE     ---       #382
      01002EB7H   LINE      CODE     ---       #384
      01002EB7H   LINE      CODE     ---       #406
      01002EBFH   LINE      CODE     ---       #407
      01002EC2H   LINE      CODE     ---       #408
      01002ECAH   LINE      CODE     ---       #409
      01002ED9H   LINE      CODE     ---       #411
      01002EF3H   LINE      CODE     ---       #419
      01002EF9H   LINE      CODE     ---       #420
      01002F01H   LINE      CODE     ---       #421
      01002F1BH   LINE      CODE     ---       #423
      01002F23H   LINE      CODE     ---       #425
      ---         BLOCKEND  ---      ---       LVL=0

      01002D1AH   BLOCK     CODE     ---       LVL=0
      01002D1AH   LINE      CODE     ---       #427
      01002D1AH   LINE      CODE     ---       #428
      01002D1AH   LINE      CODE     ---       #430
      01002D26H   LINE      CODE     ---       #431
      01002D26H   LINE      CODE     ---       #432
      01002D2EH   LINE      CODE     ---       #433
      01002D2EH   LINE      CODE     ---       #435
      01002D35H   LINE      CODE     ---       #436
      01002D35H   LINE      CODE     ---       #458
      01002D3DH   LINE      CODE     ---       #459
      01002D4CH   LINE      CODE     ---       #460
      01002D54H   LINE      CODE     ---       #461
      01002D5AH   LINE      CODE     ---       #462
      01002D74H   LINE      CODE     ---       #464
      01002D7CH   LINE      CODE     ---       #465
      01002D81H   LINE      CODE     ---       #466
      01002D9BH   LINE      CODE     ---       #468
      01002DA2H   LINE      CODE     ---       #470
      01002DA2H   LINE      CODE     ---       #473
      ---         BLOCKEND  ---      ---       LVL=0

      01003315H   BLOCK     CODE     ---       LVL=0
      00000007H   SYMBOL    DATA     BYTE      id_1
      00000005H   SYMBOL    DATA     BYTE      daima_1
      01003315H   LINE      CODE     ---       #476
      01003315H   LINE      CODE     ---       #477
      01003315H   LINE      CODE     ---       #479
      0100331DH   LINE      CODE     ---       #480
LX51 LINKER/LOCATER V4.66.93.0                                                        04/30/2025  17:32:03  PAGE 67


      01003320H   LINE      CODE     ---       #481
      01003323H   LINE      CODE     ---       #482
      01003332H   LINE      CODE     ---       #484
      ---         BLOCKEND  ---      ---       LVL=0

      0100334CH   BLOCK     CODE     ---       LVL=0
      00000007H   SYMBOL    DATA     BYTE      id_1
      00000005H   SYMBOL    DATA     BYTE      daima_1
      0100334CH   LINE      CODE     ---       #491
      0100334CH   LINE      CODE     ---       #492
      0100334CH   LINE      CODE     ---       #494
      01003354H   LINE      CODE     ---       #495
      01003357H   LINE      CODE     ---       #496
      0100335AH   LINE      CODE     ---       #497
      01003369H   LINE      CODE     ---       #498
      ---         BLOCKEND  ---      ---       LVL=0

      ---         MODULE    ---      ---       QRJ
      0200A502H   PUBLIC    XDATA    BYTE      current_st
      0200A501H   PUBLIC    XDATA    BYTE      L_T_S_FLAG
      0200A4F9H   PUBLIC    XDATA    ---       icon
      0200A4F5H   PUBLIC    XDATA    FLOAT     TIME_static
      0200A4F1H   PUBLIC    XDATA    FLOAT     qirongjiao_j
      01003052H   PUBLIC    CODE     ---       QRJ_Home
      01000062H   PUBLIC    CODE     ---       QRJ_stop
      01002876H   PUBLIC    CODE     ---       _QRJ_mm_to_s
      0100258FH   PUBLIC    CODE     ---       QRJ_prepare
      01003113H   PUBLIC    CODE     ---       QRJ_Reset
      01000061H   PUBLIC    CODE     ---       QRJ_Set
      010034B7H   PUBLIC    CODE     ---       QRJ_Init
      01002F24H   PUBLIC    CODE     ---       QRJ_run
      01003501H   PUBLIC    CODE     ---       QRJ_done
      00000098H.3 SFRSYM    DATA     BIT       TB80
      000000F1H   SFRSYM    DATA     BYTE      ADR_H
      00000080H   SFRSYM    DATA     BYTE      P0
      00000090H   SFRSYM    DATA     BYTE      P1
      000000A0H   SFRSYM    DATA     BYTE      P2
      000000B0H   SFRSYM    DATA     BYTE      P3
      000000D0H.6 SFRSYM    DATA     BIT       AC
      000000F3H   SFRSYM    DATA     BYTE      ADR_L
      00000094H   SFRSYM    DATA     BYTE      PAGESEL
      000000F2H   SFRSYM    DATA     BYTE      ADR_M
      000000A8H.7 SFRSYM    DATA     BIT       EA
      000000A0H.5 SFRSYM    DATA     BIT       JIGUANG
      00000090H.7 SFRSYM    DATA     BIT       LED_R
      000000F8H   SFRSYM    DATA     BYTE      RAMMODE
      000000B7H   SFRSYM    DATA     BYTE      P0MDOUT
      000000A8H   SFRSYM    DATA     BYTE      IEN0
      000000BCH   SFRSYM    DATA     BYTE      P1MDOUT
      000000B8H   SFRSYM    DATA     BYTE      IEN1
      000000BDH   SFRSYM    DATA     BYTE      P2MDOUT
      000000F8H.0 SFRSYM    DATA     BIT       APP_DATA0
      0000009AH   SFRSYM    DATA     BYTE      IEN2
      000000BEH   SFRSYM    DATA     BYTE      P3MDOUT
      000000F8H.1 SFRSYM    DATA     BIT       APP_DATA1
      000000D1H   SFRSYM    DATA     BYTE      IEN3
      00000080H.0 SFRSYM    DATA     BIT       P0_0
      000000F8H.2 SFRSYM    DATA     BIT       APP_DATA2
      00000090H.0 SFRSYM    DATA     BIT       P1_0
      000000F8H.3 SFRSYM    DATA     BIT       APP_DATA3
      00000090H.1 SFRSYM    DATA     BIT       P1_1
      000000F8H.4 SFRSYM    DATA     BIT       APP_ACK
      000000F4H   SFRSYM    DATA     BYTE      ADR_INC
      000000B0H.1 SFRSYM    DATA     BIT       P3_1
      00000098H.4 SFRSYM    DATA     BIT       REN0
LX51 LINKER/LOCATER V4.66.93.0                                                        04/30/2025  17:32:03  PAGE 68


      000000B8H.1 SFRSYM    DATA     BIT       ECAN
      000000D0H.7 SFRSYM    DATA     BIT       CY
      000000B8H.3 SFRSYM    DATA     BIT       ES2R
      000000B8H.5 SFRSYM    DATA     BIT       ES3R
      000000B8H.2 SFRSYM    DATA     BIT       ES2T
      000000B8H.4 SFRSYM    DATA     BIT       ES3T
      000000C8H.7 SFRSYM    DATA     BIT       TSF2
      000000B0H.3 SFRSYM    DATA     BIT       RTC_SDA
      00000081H   SFRSYM    DATA     BYTE      SP
      000000D0H.2 SFRSYM    DATA     BIT       OV
      00000095H   SFRSYM    DATA     BYTE      D_PAGESEL
      00000090H.5 SFRSYM    DATA     BIT       UV
      000000F8H.7 SFRSYM    DATA     BIT       APP_REQ
      000000B0H.2 SFRSYM    DATA     BIT       RTC_SCL
      000000BFH   SFRSYM    DATA     BYTE      IRCON2
      000000BAH   SFRSYM    DATA     BYTE      SREL0H
      000000BBH   SFRSYM    DATA     BYTE      SREL1H
      00000087H   SFRSYM    DATA     BYTE      PCON
      000000AAH   SFRSYM    DATA     BYTE      SREL0L
      000000F9H   SFRSYM    DATA     BYTE      PORTDRV
      0000009DH   SFRSYM    DATA     BYTE      SREL1L
      00000089H   SFRSYM    DATA     BYTE      TMOD
      00000088H   SFRSYM    DATA     BYTE      TCON
      00000097H   SFRSYM    DATA     BYTE      SCON2R
      000000FFH   SFRSYM    DATA     BYTE      EXDATA
      000000ABH   SFRSYM    DATA     BYTE      SCON3R
      000000D9H   SFRSYM    DATA     BYTE      BODE2_DIV_H
      000000AEH   SFRSYM    DATA     BYTE      BODE3_DIV_H
      00000096H   SFRSYM    DATA     BYTE      SCON2T
      000000A7H   SFRSYM    DATA     BYTE      SCON3T
      000000E7H   SFRSYM    DATA     BYTE      BODE2_DIV_L
      00000088H.1 SFRSYM    DATA     BIT       IE0
      000000AFH   SFRSYM    DATA     BYTE      BODE3_DIV_L
      00000088H.3 SFRSYM    DATA     BIT       IE1
      000000C9H   SFRSYM    DATA     BYTE      MUX_SEL
      000000F0H   SFRSYM    DATA     BYTE      B
      000000E0H   SFRSYM    DATA     BYTE      ACC
      000000A8H.4 SFRSYM    DATA     BIT       ES0
      0000008FH   SFRSYM    DATA     BYTE      CAN_CR
      000000A8H.1 SFRSYM    DATA     BIT       ET0
      000000A9H   SFRSYM    DATA     BYTE      IP0
      000000A8H.3 SFRSYM    DATA     BIT       ET1
      00000088H.5 SFRSYM    DATA     BIT       TF0
      000000B9H   SFRSYM    DATA     BYTE      IP1
      000000A8H.5 SFRSYM    DATA     BIT       ET2
      00000098H.0 SFRSYM    DATA     BIT       RI0
      00000088H.7 SFRSYM    DATA     BIT       TF1
      000000FDH   SFRSYM    DATA     BYTE      DATA0
      000000C0H.6 SFRSYM    DATA     BIT       TF2
      000000E8H   SFRSYM    DATA     BYTE      CAN_ET
      000000FCH   SFRSYM    DATA     BYTE      DATA1
      0000008CH   SFRSYM    DATA     BYTE      TH0
      000000A8H.0 SFRSYM    DATA     BIT       EX0
      00000098H.1 SFRSYM    DATA     BIT       TI0
      00000088H.0 SFRSYM    DATA     BIT       IT0
      000000FBH   SFRSYM    DATA     BYTE      DATA2
      0000008DH   SFRSYM    DATA     BYTE      TH1
      000000A8H.2 SFRSYM    DATA     BIT       EX1
      00000091H   SFRSYM    DATA     BYTE      CAN_IR
      000000CDH   SFRSYM    DATA     BYTE      TH2
      00000088H.2 SFRSYM    DATA     BIT       IT1
      000000FAH   SFRSYM    DATA     BYTE      DATA3
      000000D0H.0 SFRSYM    DATA     BIT       P
      00000098H.7 SFRSYM    DATA     BIT       SM0
      0000008AH   SFRSYM    DATA     BYTE      TL0
LX51 LINKER/LOCATER V4.66.93.0                                                        04/30/2025  17:32:03  PAGE 69


      00000098H.6 SFRSYM    DATA     BIT       SM1
      0000008BH   SFRSYM    DATA     BYTE      TL1
      00000098H.5 SFRSYM    DATA     BIT       SM2
      000000CCH   SFRSYM    DATA     BYTE      TL2
      000000A0H.7 SFRSYM    DATA     BIT       UV_St
      000000D0H.3 SFRSYM    DATA     BIT       RS0
      000000F8H.6 SFRSYM    DATA     BIT       APP_EN
      000000D0H.4 SFRSYM    DATA     BIT       RS1
      00000088H.4 SFRSYM    DATA     BIT       TR0
      00000088H.6 SFRSYM    DATA     BIT       TR1
      00000093H   SFRSYM    DATA     BYTE      DPC
      000000C8H.0 SFRSYM    DATA     BIT       TR2
      000000E5H   SFRSYM    DATA     BYTE      MAC_MODE
      00000083H   SFRSYM    DATA     BYTE      DPH
      00000082H   SFRSYM    DATA     BYTE      DPL
      00000099H   SFRSYM    DATA     BYTE      SBUF0
      0000009CH   SFRSYM    DATA     BYTE      SBUF1
      00000098H   SFRSYM    DATA     BYTE      SCON0
      0000009BH   SFRSYM    DATA     BYTE      SCON1
      000000D8H   SFRSYM    DATA     BYTE      ADCON
      000000C8H   SFRSYM    DATA     BYTE      T2CON
      000000E6H   SFRSYM    DATA     BYTE      DIV_MODE
      000000F8H.5 SFRSYM    DATA     BIT       APP_RW
      000000CBH   SFRSYM    DATA     BYTE      TRL2H
      0000009FH   SFRSYM    DATA     BYTE      SBUF2_RX
      000000ADH   SFRSYM    DATA     BYTE      SBUF3_RX
      0000008EH   SFRSYM    DATA     BYTE      CKCON
      0000009EH   SFRSYM    DATA     BYTE      SBUF2_TX
      000000ACH   SFRSYM    DATA     BYTE      SBUF3_TX
      000000CAH   SFRSYM    DATA     BYTE      TRL2L
      000000D0H.5 SFRSYM    DATA     BIT       F0
      000000FEH   SFRSYM    DATA     BYTE      EXADR
      000000D0H.1 SFRSYM    DATA     BIT       F1
      000000A0H.3 SFRSYM    DATA     BIT       LED_B
      000000D0H   SFRSYM    DATA     BYTE      PSW
      000000A0H.1 SFRSYM    DATA     BIT       LED_G
      000000C0H   SFRSYM    DATA     BYTE      IRCON
      00000098H.2 SFRSYM    DATA     BIT       RB80

      01003501H   BLOCK     CODE     ---       LVL=0
      01003501H   LINE      CODE     ---       #20
      01003501H   LINE      CODE     ---       #21
      01003501H   LINE      CODE     ---       #22
      ---         BLOCKEND  ---      ---       LVL=0

      01002F24H   BLOCK     CODE     ---       LVL=0
      01002F24H   LINE      CODE     ---       #26
      01002F24H   LINE      CODE     ---       #27
      01002F24H   LINE      CODE     ---       #29
      01002F2DH   LINE      CODE     ---       #32
      01002F83H   LINE      CODE     ---       #33
      01002F83H   LINE      CODE     ---       #37
      01002F89H   LINE      CODE     ---       #38
      01002F89H   LINE      CODE     ---       #40
      ---         BLOCKEND  ---      ---       LVL=0

      010034B7H   BLOCK     CODE     ---       LVL=0
      010034B7H   LINE      CODE     ---       #44
      010034B7H   LINE      CODE     ---       #45
      010034B7H   LINE      CODE     ---       #46
      010034BCH   LINE      CODE     ---       #47
      ---         BLOCKEND  ---      ---       LVL=0

      01000061H   BLOCK     CODE     ---       LVL=0
      01000061H   LINE      CODE     ---       #54
LX51 LINKER/LOCATER V4.66.93.0                                                        04/30/2025  17:32:03  PAGE 70


      01000061H   LINE      CODE     ---       #55
      01000061H   LINE      CODE     ---       #57
      ---         BLOCKEND  ---      ---       LVL=0

      01003113H   BLOCK     CODE     ---       LVL=0
      01003113H   LINE      CODE     ---       #60
      01003113H   LINE      CODE     ---       #61
      01003113H   LINE      CODE     ---       #63
      0100311DH   LINE      CODE     ---       #64
      01003133H   LINE      CODE     ---       #66
      0100313AH   LINE      CODE     ---       #67
      0100314FH   LINE      CODE     ---       #69
      01003159H   LINE      CODE     ---       #71
      ---         BLOCKEND  ---      ---       LVL=0

      0100258FH   BLOCK     CODE     ---       LVL=0
      0100258FH   BLOCK     CODE     NEAR LAB  LVL=1
      0200A47CH   SYMBOL    XDATA    WORD      ResTime_sec
      0200A47EH   SYMBOL    XDATA    WORD      ResTime_min
      0200A480H   SYMBOL    XDATA    WORD      QRJ_mj
      ---         BLOCKEND  ---      ---       LVL=1
      0100258FH   LINE      CODE     ---       #80
      0100258FH   LINE      CODE     ---       #81
      0100258FH   LINE      CODE     ---       #87
      010025A5H   LINE      CODE     ---       #88
      010025C2H   LINE      CODE     ---       #89
      010025C2H   LINE      CODE     ---       #90
      010025C2H   LINE      CODE     ---       #91
      010025C2H   LINE      CODE     ---       #92
      010025CCH   LINE      CODE     ---       #93
      010025CEH   LINE      CODE     ---       #94
      010025CEH   LINE      CODE     ---       #95
      010025CEH   LINE      CODE     ---       #96
      010025CEH   LINE      CODE     ---       #97
      010025D8H   LINE      CODE     ---       #98
      010025DAH   LINE      CODE     ---       #99
      010025DAH   LINE      CODE     ---       #100
      010025DAH   LINE      CODE     ---       #101
      010025DAH   LINE      CODE     ---       #102
      010025E4H   LINE      CODE     ---       #103
      010025E6H   LINE      CODE     ---       #104
      010025E6H   LINE      CODE     ---       #105
      010025E6H   LINE      CODE     ---       #106
      010025E6H   LINE      CODE     ---       #107
      010025F0H   LINE      CODE     ---       #108
      010025F2H   LINE      CODE     ---       #109
      010025F2H   LINE      CODE     ---       #110
      010025F2H   LINE      CODE     ---       #111
      010025F2H   LINE      CODE     ---       #112
      010025FCH   LINE      CODE     ---       #113
      010025FCH   LINE      CODE     ---       #114
      010025FCH   LINE      CODE     ---       #115
      010025FCH   LINE      CODE     ---       #117
      01002607H   LINE      CODE     ---       #119
      0100262BH   LINE      CODE     ---       #120
      0100263EH   LINE      CODE     ---       #121
      01002654H   LINE      CODE     ---       #122
      0100266AH   LINE      CODE     ---       #123
      01002680H   LINE      CODE     ---       #124
      ---         BLOCKEND  ---      ---       LVL=0

      01002876H   BLOCK     CODE     ---       LVL=0
      00000006H   SYMBOL    DATA     WORD      L_T
      01002876H   BLOCK     CODE     NEAR LAB  LVL=1
      0200A482H   SYMBOL    XDATA    FLOAT     L_CM
LX51 LINKER/LOCATER V4.66.93.0                                                        04/30/2025  17:32:03  PAGE 71


      ---         BLOCKEND  ---      ---       LVL=1
      01002876H   LINE      CODE     ---       #133
      01002876H   LINE      CODE     ---       #134
      01002876H   LINE      CODE     ---       #136
      0100288EH   LINE      CODE     ---       #137
      010028CCH   LINE      CODE     ---       #138
      010028D2H   LINE      CODE     ---       #140
      010028DAH   LINE      CODE     ---       #141
      010028DAH   LINE      CODE     ---       #142
      010028E1H   LINE      CODE     ---       #143
      010028E1H   LINE      CODE     ---       #144
      010028E1H   LINE      CODE     ---       #145
      010028E1H   LINE      CODE     ---       #146
      010028FDH   LINE      CODE     ---       #147
      010028FFH   LINE      CODE     ---       #148
      010028FFH   LINE      CODE     ---       #150
      010028FFH   LINE      CODE     ---       #155
      010028FFH   LINE      CODE     ---       #156
      010028FFH   LINE      CODE     ---       #157
      010028FFH   LINE      CODE     ---       #161
      010028FFH   LINE      CODE     ---       #163
      01002906H   LINE      CODE     ---       #164
      01002906H   LINE      CODE     ---       #165
      01002906H   LINE      CODE     ---       #166
      01002906H   LINE      CODE     ---       #168
      0100294EH   LINE      CODE     ---       #169
      0100294EH   LINE      CODE     ---       #170
      0100294EH   LINE      CODE     ---       #172
      0100294EH   LINE      CODE     ---       #173
      0100294EH   LINE      CODE     ---       #174
      01002954H   LINE      CODE     ---       #176
      01002954H   LINE      CODE     ---       #177
      01002954H   LINE      CODE     ---       #178
      01002954H   LINE      CODE     ---       #183
      01002954H   LINE      CODE     ---       #186
      ---         BLOCKEND  ---      ---       LVL=0

      01000062H   BLOCK     CODE     ---       LVL=0
      01000062H   LINE      CODE     ---       #192
      01000062H   LINE      CODE     ---       #193
      01000062H   LINE      CODE     ---       #195
      ---         BLOCKEND  ---      ---       LVL=0

      01003052H   BLOCK     CODE     ---       LVL=0
      01003052H   LINE      CODE     ---       #201
      01003052H   LINE      CODE     ---       #202
      01003052H   LINE      CODE     ---       #204
      0100305EH   LINE      CODE     ---       #205
      0100305EH   LINE      CODE     ---       #206
      01003060H   LINE      CODE     ---       #207
      01003066H   LINE      CODE     ---       #208
      01003066H   LINE      CODE     ---       #214
      0100308BH   LINE      CODE     ---       #215
      0100308BH   LINE      CODE     ---       #216
      0100308BH   LINE      CODE     ---       #217
      0100308BH   LINE      CODE     ---       #218
      01003091H   LINE      CODE     ---       #220
      01003091H   LINE      CODE     ---       #222
      01003091H   LINE      CODE     ---       #223
      01003091H   LINE      CODE     ---       #224
      01003097H   LINE      CODE     ---       #225
      0100309AH   LINE      CODE     ---       #228
      0100309AH   LINE      CODE     ---       #230
      0100309AH   LINE      CODE     ---       #231
      0100309AH   LINE      CODE     ---       #232
LX51 LINKER/LOCATER V4.66.93.0                                                        04/30/2025  17:32:03  PAGE 72


      0100309DH   LINE      CODE     ---       #233
      0100309DH   LINE      CODE     ---       #234
      0100309DH   LINE      CODE     ---       #236
      0100309DH   LINE      CODE     ---       #237
      0100309DH   LINE      CODE     ---       #239
      010030A0H   LINE      CODE     ---       #240
      010030A0H   LINE      CODE     ---       #241
      010030A0H   LINE      CODE     ---       #243
      010030A0H   LINE      CODE     ---       #244
      010030A0H   LINE      CODE     ---       #245
      010030A3H   LINE      CODE     ---       #246
      010030A3H   LINE      CODE     ---       #247
      010030A3H   LINE      CODE     ---       #249
      010030A3H   LINE      CODE     ---       #250
      010030A3H   LINE      CODE     ---       #251
      010030A6H   LINE      CODE     ---       #252
      010030A6H   LINE      CODE     ---       #253
      010030A6H   LINE      CODE     ---       #254
      010030A6H   LINE      CODE     ---       #255
      010030A6H   LINE      CODE     ---       #256
      010030A9H   LINE      CODE     ---       #257
      010030ACH   LINE      CODE     ---       #258
      010030B2H   LINE      CODE     ---       #259
      010030B2H   LINE      CODE     ---       #260
      010030B2H   LINE      CODE     ---       #262
      010030B2H   LINE      CODE     ---       #263
      010030B2H   LINE      CODE     ---       #264
      010030B2H   LINE      CODE     ---       #265
      010030B2H   LINE      CODE     ---       #267
      010030B2H   LINE      CODE     ---       #270
      ---         BLOCKEND  ---      ---       LVL=0

      ---         MODULE    ---      ---       ZX
      00000098H.3 SFRSYM    DATA     BIT       TB80
      000000F1H   SFRSYM    DATA     BYTE      ADR_H
      00000080H   SFRSYM    DATA     BYTE      P0
      00000090H   SFRSYM    DATA     BYTE      P1
      000000A0H   SFRSYM    DATA     BYTE      P2
      000000B0H   SFRSYM    DATA     BYTE      P3
      000000D0H.6 SFRSYM    DATA     BIT       AC
      000000F3H   SFRSYM    DATA     BYTE      ADR_L
      00000094H   SFRSYM    DATA     BYTE      PAGESEL
      000000F2H   SFRSYM    DATA     BYTE      ADR_M
      000000A8H.7 SFRSYM    DATA     BIT       EA
      000000A0H.5 SFRSYM    DATA     BIT       JIGUANG
      00000090H.7 SFRSYM    DATA     BIT       LED_R
      000000F8H   SFRSYM    DATA     BYTE      RAMMODE
      000000B7H   SFRSYM    DATA     BYTE      P0MDOUT
      000000A8H   SFRSYM    DATA     BYTE      IEN0
      000000BCH   SFRSYM    DATA     BYTE      P1MDOUT
      000000B8H   SFRSYM    DATA     BYTE      IEN1
      000000BDH   SFRSYM    DATA     BYTE      P2MDOUT
      000000F8H.0 SFRSYM    DATA     BIT       APP_DATA0
      0000009AH   SFRSYM    DATA     BYTE      IEN2
      000000BEH   SFRSYM    DATA     BYTE      P3MDOUT
      000000F8H.1 SFRSYM    DATA     BIT       APP_DATA1
      000000D1H   SFRSYM    DATA     BYTE      IEN3
      00000080H.0 SFRSYM    DATA     BIT       P0_0
      000000F8H.2 SFRSYM    DATA     BIT       APP_DATA2
      00000090H.0 SFRSYM    DATA     BIT       P1_0
      000000F8H.3 SFRSYM    DATA     BIT       APP_DATA3
      00000090H.1 SFRSYM    DATA     BIT       P1_1
      000000F8H.4 SFRSYM    DATA     BIT       APP_ACK
      000000F4H   SFRSYM    DATA     BYTE      ADR_INC
      000000B0H.1 SFRSYM    DATA     BIT       P3_1
LX51 LINKER/LOCATER V4.66.93.0                                                        04/30/2025  17:32:03  PAGE 73


      00000098H.4 SFRSYM    DATA     BIT       REN0
      000000B8H.1 SFRSYM    DATA     BIT       ECAN
      000000D0H.7 SFRSYM    DATA     BIT       CY
      000000B8H.3 SFRSYM    DATA     BIT       ES2R
      000000B8H.5 SFRSYM    DATA     BIT       ES3R
      000000B8H.2 SFRSYM    DATA     BIT       ES2T
      000000B8H.4 SFRSYM    DATA     BIT       ES3T
      000000C8H.7 SFRSYM    DATA     BIT       TSF2
      000000B0H.3 SFRSYM    DATA     BIT       RTC_SDA
      00000081H   SFRSYM    DATA     BYTE      SP
      000000D0H.2 SFRSYM    DATA     BIT       OV
      00000095H   SFRSYM    DATA     BYTE      D_PAGESEL
      00000090H.5 SFRSYM    DATA     BIT       UV
      000000F8H.7 SFRSYM    DATA     BIT       APP_REQ
      000000B0H.2 SFRSYM    DATA     BIT       RTC_SCL
      000000BFH   SFRSYM    DATA     BYTE      IRCON2
      000000BAH   SFRSYM    DATA     BYTE      SREL0H
      000000BBH   SFRSYM    DATA     BYTE      SREL1H
      00000087H   SFRSYM    DATA     BYTE      PCON
      000000AAH   SFRSYM    DATA     BYTE      SREL0L
      000000F9H   SFRSYM    DATA     BYTE      PORTDRV
      0000009DH   SFRSYM    DATA     BYTE      SREL1L
      00000089H   SFRSYM    DATA     BYTE      TMOD
      00000088H   SFRSYM    DATA     BYTE      TCON
      00000097H   SFRSYM    DATA     BYTE      SCON2R
      000000FFH   SFRSYM    DATA     BYTE      EXDATA
      000000ABH   SFRSYM    DATA     BYTE      SCON3R
      000000D9H   SFRSYM    DATA     BYTE      BODE2_DIV_H
      000000AEH   SFRSYM    DATA     BYTE      BODE3_DIV_H
      00000096H   SFRSYM    DATA     BYTE      SCON2T
      000000A7H   SFRSYM    DATA     BYTE      SCON3T
      000000E7H   SFRSYM    DATA     BYTE      BODE2_DIV_L
      00000088H.1 SFRSYM    DATA     BIT       IE0
      000000AFH   SFRSYM    DATA     BYTE      BODE3_DIV_L
      00000088H.3 SFRSYM    DATA     BIT       IE1
      000000C9H   SFRSYM    DATA     BYTE      MUX_SEL
      000000F0H   SFRSYM    DATA     BYTE      B
      000000E0H   SFRSYM    DATA     BYTE      ACC
      000000A8H.4 SFRSYM    DATA     BIT       ES0
      0000008FH   SFRSYM    DATA     BYTE      CAN_CR
      000000A8H.1 SFRSYM    DATA     BIT       ET0
      000000A9H   SFRSYM    DATA     BYTE      IP0
      000000A8H.3 SFRSYM    DATA     BIT       ET1
      00000088H.5 SFRSYM    DATA     BIT       TF0
      000000B9H   SFRSYM    DATA     BYTE      IP1
      000000A8H.5 SFRSYM    DATA     BIT       ET2
      00000098H.0 SFRSYM    DATA     BIT       RI0
      00000088H.7 SFRSYM    DATA     BIT       TF1
      000000FDH   SFRSYM    DATA     BYTE      DATA0
      000000C0H.6 SFRSYM    DATA     BIT       TF2
      000000E8H   SFRSYM    DATA     BYTE      CAN_ET
      000000FCH   SFRSYM    DATA     BYTE      DATA1
      0000008CH   SFRSYM    DATA     BYTE      TH0
      000000A8H.0 SFRSYM    DATA     BIT       EX0
      00000098H.1 SFRSYM    DATA     BIT       TI0
      00000088H.0 SFRSYM    DATA     BIT       IT0
      000000FBH   SFRSYM    DATA     BYTE      DATA2
      0000008DH   SFRSYM    DATA     BYTE      TH1
      000000A8H.2 SFRSYM    DATA     BIT       EX1
      00000091H   SFRSYM    DATA     BYTE      CAN_IR
      000000CDH   SFRSYM    DATA     BYTE      TH2
      00000088H.2 SFRSYM    DATA     BIT       IT1
      000000FAH   SFRSYM    DATA     BYTE      DATA3
      000000D0H.0 SFRSYM    DATA     BIT       P
      00000098H.7 SFRSYM    DATA     BIT       SM0
LX51 LINKER/LOCATER V4.66.93.0                                                        04/30/2025  17:32:03  PAGE 74


      0000008AH   SFRSYM    DATA     BYTE      TL0
      00000098H.6 SFRSYM    DATA     BIT       SM1
      0000008BH   SFRSYM    DATA     BYTE      TL1
      00000098H.5 SFRSYM    DATA     BIT       SM2
      000000CCH   SFRSYM    DATA     BYTE      TL2
      000000A0H.7 SFRSYM    DATA     BIT       UV_St
      000000D0H.3 SFRSYM    DATA     BIT       RS0
      000000F8H.6 SFRSYM    DATA     BIT       APP_EN
      000000D0H.4 SFRSYM    DATA     BIT       RS1
      00000088H.4 SFRSYM    DATA     BIT       TR0
      00000088H.6 SFRSYM    DATA     BIT       TR1
      00000093H   SFRSYM    DATA     BYTE      DPC
      000000C8H.0 SFRSYM    DATA     BIT       TR2
      000000E5H   SFRSYM    DATA     BYTE      MAC_MODE
      00000083H   SFRSYM    DATA     BYTE      DPH
      00000082H   SFRSYM    DATA     BYTE      DPL
      00000099H   SFRSYM    DATA     BYTE      SBUF0
      0000009CH   SFRSYM    DATA     BYTE      SBUF1
      00000098H   SFRSYM    DATA     BYTE      SCON0
      0000009BH   SFRSYM    DATA     BYTE      SCON1
      000000D8H   SFRSYM    DATA     BYTE      ADCON
      000000C8H   SFRSYM    DATA     BYTE      T2CON
      000000E6H   SFRSYM    DATA     BYTE      DIV_MODE
      000000F8H.5 SFRSYM    DATA     BIT       APP_RW
      000000CBH   SFRSYM    DATA     BYTE      TRL2H
      0000009FH   SFRSYM    DATA     BYTE      SBUF2_RX
      000000ADH   SFRSYM    DATA     BYTE      SBUF3_RX
      0000008EH   SFRSYM    DATA     BYTE      CKCON
      0000009EH   SFRSYM    DATA     BYTE      SBUF2_TX
      000000ACH   SFRSYM    DATA     BYTE      SBUF3_TX
      000000CAH   SFRSYM    DATA     BYTE      TRL2L
      000000D0H.5 SFRSYM    DATA     BIT       F0
      000000FEH   SFRSYM    DATA     BYTE      EXADR
      000000D0H.1 SFRSYM    DATA     BIT       F1
      000000A0H.3 SFRSYM    DATA     BIT       LED_B
      000000D0H   SFRSYM    DATA     BYTE      PSW
      000000A0H.1 SFRSYM    DATA     BIT       LED_G
      000000C0H   SFRSYM    DATA     BYTE      IRCON
      00000098H.2 SFRSYM    DATA     BIT       RB80

      ---         MODULE    ---      ---       QY
      00000098H.3 SFRSYM    DATA     BIT       TB80
      000000F1H   SFRSYM    DATA     BYTE      ADR_H
      00000080H   SFRSYM    DATA     BYTE      P0
      00000090H   SFRSYM    DATA     BYTE      P1
      000000A0H   SFRSYM    DATA     BYTE      P2
      000000B0H   SFRSYM    DATA     BYTE      P3
      000000D0H.6 SFRSYM    DATA     BIT       AC
      000000F3H   SFRSYM    DATA     BYTE      ADR_L
      00000094H   SFRSYM    DATA     BYTE      PAGESEL
      000000F2H   SFRSYM    DATA     BYTE      ADR_M
      000000A8H.7 SFRSYM    DATA     BIT       EA
      000000A0H.5 SFRSYM    DATA     BIT       JIGUANG
      00000090H.7 SFRSYM    DATA     BIT       LED_R
      000000F8H   SFRSYM    DATA     BYTE      RAMMODE
      000000B7H   SFRSYM    DATA     BYTE      P0MDOUT
      000000A8H   SFRSYM    DATA     BYTE      IEN0
      000000BCH   SFRSYM    DATA     BYTE      P1MDOUT
      000000B8H   SFRSYM    DATA     BYTE      IEN1
      000000BDH   SFRSYM    DATA     BYTE      P2MDOUT
      000000F8H.0 SFRSYM    DATA     BIT       APP_DATA0
      0000009AH   SFRSYM    DATA     BYTE      IEN2
      000000BEH   SFRSYM    DATA     BYTE      P3MDOUT
      000000F8H.1 SFRSYM    DATA     BIT       APP_DATA1
      000000D1H   SFRSYM    DATA     BYTE      IEN3
LX51 LINKER/LOCATER V4.66.93.0                                                        04/30/2025  17:32:03  PAGE 75


      00000080H.0 SFRSYM    DATA     BIT       P0_0
      000000F8H.2 SFRSYM    DATA     BIT       APP_DATA2
      00000090H.0 SFRSYM    DATA     BIT       P1_0
      000000F8H.3 SFRSYM    DATA     BIT       APP_DATA3
      00000090H.1 SFRSYM    DATA     BIT       P1_1
      000000F8H.4 SFRSYM    DATA     BIT       APP_ACK
      000000F4H   SFRSYM    DATA     BYTE      ADR_INC
      000000B0H.1 SFRSYM    DATA     BIT       P3_1
      00000098H.4 SFRSYM    DATA     BIT       REN0
      000000B8H.1 SFRSYM    DATA     BIT       ECAN
      000000D0H.7 SFRSYM    DATA     BIT       CY
      000000B8H.3 SFRSYM    DATA     BIT       ES2R
      000000B8H.5 SFRSYM    DATA     BIT       ES3R
      000000B8H.2 SFRSYM    DATA     BIT       ES2T
      000000B8H.4 SFRSYM    DATA     BIT       ES3T
      000000C8H.7 SFRSYM    DATA     BIT       TSF2
      000000B0H.3 SFRSYM    DATA     BIT       RTC_SDA
      00000081H   SFRSYM    DATA     BYTE      SP
      000000D0H.2 SFRSYM    DATA     BIT       OV
      00000095H   SFRSYM    DATA     BYTE      D_PAGESEL
      00000090H.5 SFRSYM    DATA     BIT       UV
      000000F8H.7 SFRSYM    DATA     BIT       APP_REQ
      000000B0H.2 SFRSYM    DATA     BIT       RTC_SCL
      000000BFH   SFRSYM    DATA     BYTE      IRCON2
      000000BAH   SFRSYM    DATA     BYTE      SREL0H
      000000BBH   SFRSYM    DATA     BYTE      SREL1H
      00000087H   SFRSYM    DATA     BYTE      PCON
      000000AAH   SFRSYM    DATA     BYTE      SREL0L
      000000F9H   SFRSYM    DATA     BYTE      PORTDRV
      0000009DH   SFRSYM    DATA     BYTE      SREL1L
      00000089H   SFRSYM    DATA     BYTE      TMOD
      00000088H   SFRSYM    DATA     BYTE      TCON
      00000097H   SFRSYM    DATA     BYTE      SCON2R
      000000FFH   SFRSYM    DATA     BYTE      EXDATA
      000000ABH   SFRSYM    DATA     BYTE      SCON3R
      000000D9H   SFRSYM    DATA     BYTE      BODE2_DIV_H
      000000AEH   SFRSYM    DATA     BYTE      BODE3_DIV_H
      00000096H   SFRSYM    DATA     BYTE      SCON2T
      000000A7H   SFRSYM    DATA     BYTE      SCON3T
      000000E7H   SFRSYM    DATA     BYTE      BODE2_DIV_L
      00000088H.1 SFRSYM    DATA     BIT       IE0
      000000AFH   SFRSYM    DATA     BYTE      BODE3_DIV_L
      00000088H.3 SFRSYM    DATA     BIT       IE1
      000000C9H   SFRSYM    DATA     BYTE      MUX_SEL
      000000F0H   SFRSYM    DATA     BYTE      B
      000000E0H   SFRSYM    DATA     BYTE      ACC
      000000A8H.4 SFRSYM    DATA     BIT       ES0
      0000008FH   SFRSYM    DATA     BYTE      CAN_CR
      000000A8H.1 SFRSYM    DATA     BIT       ET0
      000000A9H   SFRSYM    DATA     BYTE      IP0
      000000A8H.3 SFRSYM    DATA     BIT       ET1
      00000088H.5 SFRSYM    DATA     BIT       TF0
      000000B9H   SFRSYM    DATA     BYTE      IP1
      000000A8H.5 SFRSYM    DATA     BIT       ET2
      00000098H.0 SFRSYM    DATA     BIT       RI0
      00000088H.7 SFRSYM    DATA     BIT       TF1
      000000FDH   SFRSYM    DATA     BYTE      DATA0
      000000C0H.6 SFRSYM    DATA     BIT       TF2
      000000E8H   SFRSYM    DATA     BYTE      CAN_ET
      000000FCH   SFRSYM    DATA     BYTE      DATA1
      0000008CH   SFRSYM    DATA     BYTE      TH0
      000000A8H.0 SFRSYM    DATA     BIT       EX0
      00000098H.1 SFRSYM    DATA     BIT       TI0
      00000088H.0 SFRSYM    DATA     BIT       IT0
      000000FBH   SFRSYM    DATA     BYTE      DATA2
LX51 LINKER/LOCATER V4.66.93.0                                                        04/30/2025  17:32:03  PAGE 76


      0000008DH   SFRSYM    DATA     BYTE      TH1
      000000A8H.2 SFRSYM    DATA     BIT       EX1
      00000091H   SFRSYM    DATA     BYTE      CAN_IR
      000000CDH   SFRSYM    DATA     BYTE      TH2
      00000088H.2 SFRSYM    DATA     BIT       IT1
      000000FAH   SFRSYM    DATA     BYTE      DATA3
      000000D0H.0 SFRSYM    DATA     BIT       P
      00000098H.7 SFRSYM    DATA     BIT       SM0
      0000008AH   SFRSYM    DATA     BYTE      TL0
      00000098H.6 SFRSYM    DATA     BIT       SM1
      0000008BH   SFRSYM    DATA     BYTE      TL1
      00000098H.5 SFRSYM    DATA     BIT       SM2
      000000CCH   SFRSYM    DATA     BYTE      TL2
      000000A0H.7 SFRSYM    DATA     BIT       UV_St
      000000D0H.3 SFRSYM    DATA     BIT       RS0
      000000F8H.6 SFRSYM    DATA     BIT       APP_EN
      000000D0H.4 SFRSYM    DATA     BIT       RS1
      00000088H.4 SFRSYM    DATA     BIT       TR0
      00000088H.6 SFRSYM    DATA     BIT       TR1
      00000093H   SFRSYM    DATA     BYTE      DPC
      000000C8H.0 SFRSYM    DATA     BIT       TR2
      000000E5H   SFRSYM    DATA     BYTE      MAC_MODE
      00000083H   SFRSYM    DATA     BYTE      DPH
      00000082H   SFRSYM    DATA     BYTE      DPL
      00000099H   SFRSYM    DATA     BYTE      SBUF0
      0000009CH   SFRSYM    DATA     BYTE      SBUF1
      00000098H   SFRSYM    DATA     BYTE      SCON0
      0000009BH   SFRSYM    DATA     BYTE      SCON1
      000000D8H   SFRSYM    DATA     BYTE      ADCON
      000000C8H   SFRSYM    DATA     BYTE      T2CON
      000000E6H   SFRSYM    DATA     BYTE      DIV_MODE
      000000F8H.5 SFRSYM    DATA     BIT       APP_RW
      000000CBH   SFRSYM    DATA     BYTE      TRL2H
      0000009FH   SFRSYM    DATA     BYTE      SBUF2_RX
      000000ADH   SFRSYM    DATA     BYTE      SBUF3_RX
      0000008EH   SFRSYM    DATA     BYTE      CKCON
      0000009EH   SFRSYM    DATA     BYTE      SBUF2_TX
      000000ACH   SFRSYM    DATA     BYTE      SBUF3_TX
      000000CAH   SFRSYM    DATA     BYTE      TRL2L
      000000D0H.5 SFRSYM    DATA     BIT       F0
      000000FEH   SFRSYM    DATA     BYTE      EXADR
      000000D0H.1 SFRSYM    DATA     BIT       F1
      000000A0H.3 SFRSYM    DATA     BIT       LED_B
      000000D0H   SFRSYM    DATA     BYTE      PSW
      000000A0H.1 SFRSYM    DATA     BIT       LED_G
      000000C0H   SFRSYM    DATA     BYTE      IRCON
      00000098H.2 SFRSYM    DATA     BIT       RB80

      ---         MODULE    ---      ---       CXH
      00000098H.3 SFRSYM    DATA     BIT       TB80
      000000F1H   SFRSYM    DATA     BYTE      ADR_H
      00000080H   SFRSYM    DATA     BYTE      P0
      00000090H   SFRSYM    DATA     BYTE      P1
      000000A0H   SFRSYM    DATA     BYTE      P2
      000000B0H   SFRSYM    DATA     BYTE      P3
      000000D0H.6 SFRSYM    DATA     BIT       AC
      000000F3H   SFRSYM    DATA     BYTE      ADR_L
      00000094H   SFRSYM    DATA     BYTE      PAGESEL
      000000F2H   SFRSYM    DATA     BYTE      ADR_M
      000000A8H.7 SFRSYM    DATA     BIT       EA
      000000A0H.5 SFRSYM    DATA     BIT       JIGUANG
      00000090H.7 SFRSYM    DATA     BIT       LED_R
      000000F8H   SFRSYM    DATA     BYTE      RAMMODE
      000000B7H   SFRSYM    DATA     BYTE      P0MDOUT
      000000A8H   SFRSYM    DATA     BYTE      IEN0
LX51 LINKER/LOCATER V4.66.93.0                                                        04/30/2025  17:32:03  PAGE 77


      000000BCH   SFRSYM    DATA     BYTE      P1MDOUT
      000000B8H   SFRSYM    DATA     BYTE      IEN1
      000000BDH   SFRSYM    DATA     BYTE      P2MDOUT
      000000F8H.0 SFRSYM    DATA     BIT       APP_DATA0
      0000009AH   SFRSYM    DATA     BYTE      IEN2
      000000BEH   SFRSYM    DATA     BYTE      P3MDOUT
      000000F8H.1 SFRSYM    DATA     BIT       APP_DATA1
      000000D1H   SFRSYM    DATA     BYTE      IEN3
      00000080H.0 SFRSYM    DATA     BIT       P0_0
      000000F8H.2 SFRSYM    DATA     BIT       APP_DATA2
      00000090H.0 SFRSYM    DATA     BIT       P1_0
      000000F8H.3 SFRSYM    DATA     BIT       APP_DATA3
      00000090H.1 SFRSYM    DATA     BIT       P1_1
      000000F8H.4 SFRSYM    DATA     BIT       APP_ACK
      000000F4H   SFRSYM    DATA     BYTE      ADR_INC
      000000B0H.1 SFRSYM    DATA     BIT       P3_1
      00000098H.4 SFRSYM    DATA     BIT       REN0
      000000B8H.1 SFRSYM    DATA     BIT       ECAN
      000000D0H.7 SFRSYM    DATA     BIT       CY
      000000B8H.3 SFRSYM    DATA     BIT       ES2R
      000000B8H.5 SFRSYM    DATA     BIT       ES3R
      000000B8H.2 SFRSYM    DATA     BIT       ES2T
      000000B8H.4 SFRSYM    DATA     BIT       ES3T
      000000C8H.7 SFRSYM    DATA     BIT       TSF2
      000000B0H.3 SFRSYM    DATA     BIT       RTC_SDA
      00000081H   SFRSYM    DATA     BYTE      SP
      000000D0H.2 SFRSYM    DATA     BIT       OV
      00000095H   SFRSYM    DATA     BYTE      D_PAGESEL
      00000090H.5 SFRSYM    DATA     BIT       UV
      000000F8H.7 SFRSYM    DATA     BIT       APP_REQ
      000000B0H.2 SFRSYM    DATA     BIT       RTC_SCL
      000000BFH   SFRSYM    DATA     BYTE      IRCON2
      000000BAH   SFRSYM    DATA     BYTE      SREL0H
      000000BBH   SFRSYM    DATA     BYTE      SREL1H
      00000087H   SFRSYM    DATA     BYTE      PCON
      000000AAH   SFRSYM    DATA     BYTE      SREL0L
      000000F9H   SFRSYM    DATA     BYTE      PORTDRV
      0000009DH   SFRSYM    DATA     BYTE      SREL1L
      00000089H   SFRSYM    DATA     BYTE      TMOD
      00000088H   SFRSYM    DATA     BYTE      TCON
      00000097H   SFRSYM    DATA     BYTE      SCON2R
      000000FFH   SFRSYM    DATA     BYTE      EXDATA
      000000ABH   SFRSYM    DATA     BYTE      SCON3R
      000000D9H   SFRSYM    DATA     BYTE      BODE2_DIV_H
      000000AEH   SFRSYM    DATA     BYTE      BODE3_DIV_H
      00000096H   SFRSYM    DATA     BYTE      SCON2T
      000000A7H   SFRSYM    DATA     BYTE      SCON3T
      000000E7H   SFRSYM    DATA     BYTE      BODE2_DIV_L
      00000088H.1 SFRSYM    DATA     BIT       IE0
      000000AFH   SFRSYM    DATA     BYTE      BODE3_DIV_L
      00000088H.3 SFRSYM    DATA     BIT       IE1
      000000C9H   SFRSYM    DATA     BYTE      MUX_SEL
      000000F0H   SFRSYM    DATA     BYTE      B
      000000E0H   SFRSYM    DATA     BYTE      ACC
      000000A8H.4 SFRSYM    DATA     BIT       ES0
      0000008FH   SFRSYM    DATA     BYTE      CAN_CR
      000000A8H.1 SFRSYM    DATA     BIT       ET0
      000000A9H   SFRSYM    DATA     BYTE      IP0
      000000A8H.3 SFRSYM    DATA     BIT       ET1
      00000088H.5 SFRSYM    DATA     BIT       TF0
      000000B9H   SFRSYM    DATA     BYTE      IP1
      000000A8H.5 SFRSYM    DATA     BIT       ET2
      00000098H.0 SFRSYM    DATA     BIT       RI0
      00000088H.7 SFRSYM    DATA     BIT       TF1
      000000FDH   SFRSYM    DATA     BYTE      DATA0
LX51 LINKER/LOCATER V4.66.93.0                                                        04/30/2025  17:32:03  PAGE 78


      000000C0H.6 SFRSYM    DATA     BIT       TF2
      000000E8H   SFRSYM    DATA     BYTE      CAN_ET
      000000FCH   SFRSYM    DATA     BYTE      DATA1
      0000008CH   SFRSYM    DATA     BYTE      TH0
      000000A8H.0 SFRSYM    DATA     BIT       EX0
      00000098H.1 SFRSYM    DATA     BIT       TI0
      00000088H.0 SFRSYM    DATA     BIT       IT0
      000000FBH   SFRSYM    DATA     BYTE      DATA2
      0000008DH   SFRSYM    DATA     BYTE      TH1
      000000A8H.2 SFRSYM    DATA     BIT       EX1
      00000091H   SFRSYM    DATA     BYTE      CAN_IR
      000000CDH   SFRSYM    DATA     BYTE      TH2
      00000088H.2 SFRSYM    DATA     BIT       IT1
      000000FAH   SFRSYM    DATA     BYTE      DATA3
      000000D0H.0 SFRSYM    DATA     BIT       P
      00000098H.7 SFRSYM    DATA     BIT       SM0
      0000008AH   SFRSYM    DATA     BYTE      TL0
      00000098H.6 SFRSYM    DATA     BIT       SM1
      0000008BH   SFRSYM    DATA     BYTE      TL1
      00000098H.5 SFRSYM    DATA     BIT       SM2
      000000CCH   SFRSYM    DATA     BYTE      TL2
      000000A0H.7 SFRSYM    DATA     BIT       UV_St
      000000D0H.3 SFRSYM    DATA     BIT       RS0
      000000F8H.6 SFRSYM    DATA     BIT       APP_EN
      000000D0H.4 SFRSYM    DATA     BIT       RS1
      00000088H.4 SFRSYM    DATA     BIT       TR0
      00000088H.6 SFRSYM    DATA     BIT       TR1
      00000093H   SFRSYM    DATA     BYTE      DPC
      000000C8H.0 SFRSYM    DATA     BIT       TR2
      000000E5H   SFRSYM    DATA     BYTE      MAC_MODE
      00000083H   SFRSYM    DATA     BYTE      DPH
      00000082H   SFRSYM    DATA     BYTE      DPL
      00000099H   SFRSYM    DATA     BYTE      SBUF0
      0000009CH   SFRSYM    DATA     BYTE      SBUF1
      00000098H   SFRSYM    DATA     BYTE      SCON0
      0000009BH   SFRSYM    DATA     BYTE      SCON1
      000000D8H   SFRSYM    DATA     BYTE      ADCON
      000000C8H   SFRSYM    DATA     BYTE      T2CON
      000000E6H   SFRSYM    DATA     BYTE      DIV_MODE
      000000F8H.5 SFRSYM    DATA     BIT       APP_RW
      000000CBH   SFRSYM    DATA     BYTE      TRL2H
      0000009FH   SFRSYM    DATA     BYTE      SBUF2_RX
      000000ADH   SFRSYM    DATA     BYTE      SBUF3_RX
      0000008EH   SFRSYM    DATA     BYTE      CKCON
      0000009EH   SFRSYM    DATA     BYTE      SBUF2_TX
      000000ACH   SFRSYM    DATA     BYTE      SBUF3_TX
      000000CAH   SFRSYM    DATA     BYTE      TRL2L
      000000D0H.5 SFRSYM    DATA     BIT       F0
      000000FEH   SFRSYM    DATA     BYTE      EXADR
      000000D0H.1 SFRSYM    DATA     BIT       F1
      000000A0H.3 SFRSYM    DATA     BIT       LED_B
      000000D0H   SFRSYM    DATA     BYTE      PSW
      000000A0H.1 SFRSYM    DATA     BIT       LED_G
      000000C0H   SFRSYM    DATA     BYTE      IRCON
      00000098H.2 SFRSYM    DATA     BIT       RB80

      ---         MODULE    ---      ---       ZL
      00000098H.3 SFRSYM    DATA     BIT       TB80
      000000F1H   SFRSYM    DATA     BYTE      ADR_H
      00000080H   SFRSYM    DATA     BYTE      P0
      00000090H   SFRSYM    DATA     BYTE      P1
      000000A0H   SFRSYM    DATA     BYTE      P2
      000000B0H   SFRSYM    DATA     BYTE      P3
      000000D0H.6 SFRSYM    DATA     BIT       AC
      000000F3H   SFRSYM    DATA     BYTE      ADR_L
LX51 LINKER/LOCATER V4.66.93.0                                                        04/30/2025  17:32:03  PAGE 79


      00000094H   SFRSYM    DATA     BYTE      PAGESEL
      000000F2H   SFRSYM    DATA     BYTE      ADR_M
      000000A8H.7 SFRSYM    DATA     BIT       EA
      000000A0H.5 SFRSYM    DATA     BIT       JIGUANG
      00000090H.7 SFRSYM    DATA     BIT       LED_R
      000000F8H   SFRSYM    DATA     BYTE      RAMMODE
      000000B7H   SFRSYM    DATA     BYTE      P0MDOUT
      000000A8H   SFRSYM    DATA     BYTE      IEN0
      000000BCH   SFRSYM    DATA     BYTE      P1MDOUT
      000000B8H   SFRSYM    DATA     BYTE      IEN1
      000000BDH   SFRSYM    DATA     BYTE      P2MDOUT
      000000F8H.0 SFRSYM    DATA     BIT       APP_DATA0
      0000009AH   SFRSYM    DATA     BYTE      IEN2
      000000BEH   SFRSYM    DATA     BYTE      P3MDOUT
      000000F8H.1 SFRSYM    DATA     BIT       APP_DATA1
      000000D1H   SFRSYM    DATA     BYTE      IEN3
      00000080H.0 SFRSYM    DATA     BIT       P0_0
      000000F8H.2 SFRSYM    DATA     BIT       APP_DATA2
      00000090H.0 SFRSYM    DATA     BIT       P1_0
      000000F8H.3 SFRSYM    DATA     BIT       APP_DATA3
      00000090H.1 SFRSYM    DATA     BIT       P1_1
      000000F8H.4 SFRSYM    DATA     BIT       APP_ACK
      000000F4H   SFRSYM    DATA     BYTE      ADR_INC
      000000B0H.1 SFRSYM    DATA     BIT       P3_1
      00000098H.4 SFRSYM    DATA     BIT       REN0
      000000B8H.1 SFRSYM    DATA     BIT       ECAN
      000000D0H.7 SFRSYM    DATA     BIT       CY
      000000B8H.3 SFRSYM    DATA     BIT       ES2R
      000000B8H.5 SFRSYM    DATA     BIT       ES3R
      000000B8H.2 SFRSYM    DATA     BIT       ES2T
      000000B8H.4 SFRSYM    DATA     BIT       ES3T
      000000C8H.7 SFRSYM    DATA     BIT       TSF2
      000000B0H.3 SFRSYM    DATA     BIT       RTC_SDA
      00000081H   SFRSYM    DATA     BYTE      SP
      000000D0H.2 SFRSYM    DATA     BIT       OV
      00000095H   SFRSYM    DATA     BYTE      D_PAGESEL
      00000090H.5 SFRSYM    DATA     BIT       UV
      000000F8H.7 SFRSYM    DATA     BIT       APP_REQ
      000000B0H.2 SFRSYM    DATA     BIT       RTC_SCL
      000000BFH   SFRSYM    DATA     BYTE      IRCON2
      000000BAH   SFRSYM    DATA     BYTE      SREL0H
      000000BBH   SFRSYM    DATA     BYTE      SREL1H
      00000087H   SFRSYM    DATA     BYTE      PCON
      000000AAH   SFRSYM    DATA     BYTE      SREL0L
      000000F9H   SFRSYM    DATA     BYTE      PORTDRV
      0000009DH   SFRSYM    DATA     BYTE      SREL1L
      00000089H   SFRSYM    DATA     BYTE      TMOD
      00000088H   SFRSYM    DATA     BYTE      TCON
      00000097H   SFRSYM    DATA     BYTE      SCON2R
      000000FFH   SFRSYM    DATA     BYTE      EXDATA
      000000ABH   SFRSYM    DATA     BYTE      SCON3R
      000000D9H   SFRSYM    DATA     BYTE      BODE2_DIV_H
      000000AEH   SFRSYM    DATA     BYTE      BODE3_DIV_H
      00000096H   SFRSYM    DATA     BYTE      SCON2T
      000000A7H   SFRSYM    DATA     BYTE      SCON3T
      000000E7H   SFRSYM    DATA     BYTE      BODE2_DIV_L
      00000088H.1 SFRSYM    DATA     BIT       IE0
      000000AFH   SFRSYM    DATA     BYTE      BODE3_DIV_L
      00000088H.3 SFRSYM    DATA     BIT       IE1
      000000C9H   SFRSYM    DATA     BYTE      MUX_SEL
      000000F0H   SFRSYM    DATA     BYTE      B
      000000E0H   SFRSYM    DATA     BYTE      ACC
      000000A8H.4 SFRSYM    DATA     BIT       ES0
      0000008FH   SFRSYM    DATA     BYTE      CAN_CR
      000000A8H.1 SFRSYM    DATA     BIT       ET0
LX51 LINKER/LOCATER V4.66.93.0                                                        04/30/2025  17:32:03  PAGE 80


      000000A9H   SFRSYM    DATA     BYTE      IP0
      000000A8H.3 SFRSYM    DATA     BIT       ET1
      00000088H.5 SFRSYM    DATA     BIT       TF0
      000000B9H   SFRSYM    DATA     BYTE      IP1
      000000A8H.5 SFRSYM    DATA     BIT       ET2
      00000098H.0 SFRSYM    DATA     BIT       RI0
      00000088H.7 SFRSYM    DATA     BIT       TF1
      000000FDH   SFRSYM    DATA     BYTE      DATA0
      000000C0H.6 SFRSYM    DATA     BIT       TF2
      000000E8H   SFRSYM    DATA     BYTE      CAN_ET
      000000FCH   SFRSYM    DATA     BYTE      DATA1
      0000008CH   SFRSYM    DATA     BYTE      TH0
      000000A8H.0 SFRSYM    DATA     BIT       EX0
      00000098H.1 SFRSYM    DATA     BIT       TI0
      00000088H.0 SFRSYM    DATA     BIT       IT0
      000000FBH   SFRSYM    DATA     BYTE      DATA2
      0000008DH   SFRSYM    DATA     BYTE      TH1
      000000A8H.2 SFRSYM    DATA     BIT       EX1
      00000091H   SFRSYM    DATA     BYTE      CAN_IR
      000000CDH   SFRSYM    DATA     BYTE      TH2
      00000088H.2 SFRSYM    DATA     BIT       IT1
      000000FAH   SFRSYM    DATA     BYTE      DATA3
      000000D0H.0 SFRSYM    DATA     BIT       P
      00000098H.7 SFRSYM    DATA     BIT       SM0
      0000008AH   SFRSYM    DATA     BYTE      TL0
      00000098H.6 SFRSYM    DATA     BIT       SM1
      0000008BH   SFRSYM    DATA     BYTE      TL1
      00000098H.5 SFRSYM    DATA     BIT       SM2
      000000CCH   SFRSYM    DATA     BYTE      TL2
      000000A0H.7 SFRSYM    DATA     BIT       UV_St
      000000D0H.3 SFRSYM    DATA     BIT       RS0
      000000F8H.6 SFRSYM    DATA     BIT       APP_EN
      000000D0H.4 SFRSYM    DATA     BIT       RS1
      00000088H.4 SFRSYM    DATA     BIT       TR0
      00000088H.6 SFRSYM    DATA     BIT       TR1
      00000093H   SFRSYM    DATA     BYTE      DPC
      000000C8H.0 SFRSYM    DATA     BIT       TR2
      000000E5H   SFRSYM    DATA     BYTE      MAC_MODE
      00000083H   SFRSYM    DATA     BYTE      DPH
      00000082H   SFRSYM    DATA     BYTE      DPL
      00000099H   SFRSYM    DATA     BYTE      SBUF0
      0000009CH   SFRSYM    DATA     BYTE      SBUF1
      00000098H   SFRSYM    DATA     BYTE      SCON0
      0000009BH   SFRSYM    DATA     BYTE      SCON1
      000000D8H   SFRSYM    DATA     BYTE      ADCON
      000000C8H   SFRSYM    DATA     BYTE      T2CON
      000000E6H   SFRSYM    DATA     BYTE      DIV_MODE
      000000F8H.5 SFRSYM    DATA     BIT       APP_RW
      000000CBH   SFRSYM    DATA     BYTE      TRL2H
      0000009FH   SFRSYM    DATA     BYTE      SBUF2_RX
      000000ADH   SFRSYM    DATA     BYTE      SBUF3_RX
      0000008EH   SFRSYM    DATA     BYTE      CKCON
      0000009EH   SFRSYM    DATA     BYTE      SBUF2_TX
      000000ACH   SFRSYM    DATA     BYTE      SBUF3_TX
      000000CAH   SFRSYM    DATA     BYTE      TRL2L
      000000D0H.5 SFRSYM    DATA     BIT       F0
      000000FEH   SFRSYM    DATA     BYTE      EXADR
      000000D0H.1 SFRSYM    DATA     BIT       F1
      000000A0H.3 SFRSYM    DATA     BIT       LED_B
      000000D0H   SFRSYM    DATA     BYTE      PSW
      000000A0H.1 SFRSYM    DATA     BIT       LED_G
      000000C0H   SFRSYM    DATA     BYTE      IRCON
      00000098H.2 SFRSYM    DATA     BIT       RB80

      ---         MODULE    ---      ---       SD
LX51 LINKER/LOCATER V4.66.93.0                                                        04/30/2025  17:32:03  PAGE 81


      00000098H.3 SFRSYM    DATA     BIT       TB80
      000000F1H   SFRSYM    DATA     BYTE      ADR_H
      00000080H   SFRSYM    DATA     BYTE      P0
      00000090H   SFRSYM    DATA     BYTE      P1
      000000A0H   SFRSYM    DATA     BYTE      P2
      000000B0H   SFRSYM    DATA     BYTE      P3
      000000D0H.6 SFRSYM    DATA     BIT       AC
      000000F3H   SFRSYM    DATA     BYTE      ADR_L
      00000094H   SFRSYM    DATA     BYTE      PAGESEL
      000000F2H   SFRSYM    DATA     BYTE      ADR_M
      000000A8H.7 SFRSYM    DATA     BIT       EA
      000000A0H.5 SFRSYM    DATA     BIT       JIGUANG
      00000090H.7 SFRSYM    DATA     BIT       LED_R
      000000F8H   SFRSYM    DATA     BYTE      RAMMODE
      000000B7H   SFRSYM    DATA     BYTE      P0MDOUT
      000000A8H   SFRSYM    DATA     BYTE      IEN0
      000000BCH   SFRSYM    DATA     BYTE      P1MDOUT
      000000B8H   SFRSYM    DATA     BYTE      IEN1
      000000BDH   SFRSYM    DATA     BYTE      P2MDOUT
      000000F8H.0 SFRSYM    DATA     BIT       APP_DATA0
      0000009AH   SFRSYM    DATA     BYTE      IEN2
      000000BEH   SFRSYM    DATA     BYTE      P3MDOUT
      000000F8H.1 SFRSYM    DATA     BIT       APP_DATA1
      000000D1H   SFRSYM    DATA     BYTE      IEN3
      00000080H.0 SFRSYM    DATA     BIT       P0_0
      000000F8H.2 SFRSYM    DATA     BIT       APP_DATA2
      00000090H.0 SFRSYM    DATA     BIT       P1_0
      000000F8H.3 SFRSYM    DATA     BIT       APP_DATA3
      00000090H.1 SFRSYM    DATA     BIT       P1_1
      000000F8H.4 SFRSYM    DATA     BIT       APP_ACK
      000000F4H   SFRSYM    DATA     BYTE      ADR_INC
      000000B0H.1 SFRSYM    DATA     BIT       P3_1
      00000098H.4 SFRSYM    DATA     BIT       REN0
      000000B8H.1 SFRSYM    DATA     BIT       ECAN
      000000D0H.7 SFRSYM    DATA     BIT       CY
      000000B8H.3 SFRSYM    DATA     BIT       ES2R
      000000B8H.5 SFRSYM    DATA     BIT       ES3R
      000000B8H.2 SFRSYM    DATA     BIT       ES2T
      000000B8H.4 SFRSYM    DATA     BIT       ES3T
      000000C8H.7 SFRSYM    DATA     BIT       TSF2
      000000B0H.3 SFRSYM    DATA     BIT       RTC_SDA
      00000081H   SFRSYM    DATA     BYTE      SP
      000000D0H.2 SFRSYM    DATA     BIT       OV
      00000095H   SFRSYM    DATA     BYTE      D_PAGESEL
      00000090H.5 SFRSYM    DATA     BIT       UV
      000000F8H.7 SFRSYM    DATA     BIT       APP_REQ
      000000B0H.2 SFRSYM    DATA     BIT       RTC_SCL
      000000BFH   SFRSYM    DATA     BYTE      IRCON2
      000000BAH   SFRSYM    DATA     BYTE      SREL0H
      000000BBH   SFRSYM    DATA     BYTE      SREL1H
      00000087H   SFRSYM    DATA     BYTE      PCON
      000000AAH   SFRSYM    DATA     BYTE      SREL0L
      000000F9H   SFRSYM    DATA     BYTE      PORTDRV
      0000009DH   SFRSYM    DATA     BYTE      SREL1L
      00000089H   SFRSYM    DATA     BYTE      TMOD
      00000088H   SFRSYM    DATA     BYTE      TCON
      00000097H   SFRSYM    DATA     BYTE      SCON2R
      000000FFH   SFRSYM    DATA     BYTE      EXDATA
      000000ABH   SFRSYM    DATA     BYTE      SCON3R
      000000D9H   SFRSYM    DATA     BYTE      BODE2_DIV_H
      000000AEH   SFRSYM    DATA     BYTE      BODE3_DIV_H
      00000096H   SFRSYM    DATA     BYTE      SCON2T
      000000A7H   SFRSYM    DATA     BYTE      SCON3T
      000000E7H   SFRSYM    DATA     BYTE      BODE2_DIV_L
      00000088H.1 SFRSYM    DATA     BIT       IE0
LX51 LINKER/LOCATER V4.66.93.0                                                        04/30/2025  17:32:03  PAGE 82


      000000AFH   SFRSYM    DATA     BYTE      BODE3_DIV_L
      00000088H.3 SFRSYM    DATA     BIT       IE1
      000000C9H   SFRSYM    DATA     BYTE      MUX_SEL
      000000F0H   SFRSYM    DATA     BYTE      B
      000000E0H   SFRSYM    DATA     BYTE      ACC
      000000A8H.4 SFRSYM    DATA     BIT       ES0
      0000008FH   SFRSYM    DATA     BYTE      CAN_CR
      000000A8H.1 SFRSYM    DATA     BIT       ET0
      000000A9H   SFRSYM    DATA     BYTE      IP0
      000000A8H.3 SFRSYM    DATA     BIT       ET1
      00000088H.5 SFRSYM    DATA     BIT       TF0
      000000B9H   SFRSYM    DATA     BYTE      IP1
      000000A8H.5 SFRSYM    DATA     BIT       ET2
      00000098H.0 SFRSYM    DATA     BIT       RI0
      00000088H.7 SFRSYM    DATA     BIT       TF1
      000000FDH   SFRSYM    DATA     BYTE      DATA0
      000000C0H.6 SFRSYM    DATA     BIT       TF2
      000000E8H   SFRSYM    DATA     BYTE      CAN_ET
      000000FCH   SFRSYM    DATA     BYTE      DATA1
      0000008CH   SFRSYM    DATA     BYTE      TH0
      000000A8H.0 SFRSYM    DATA     BIT       EX0
      00000098H.1 SFRSYM    DATA     BIT       TI0
      00000088H.0 SFRSYM    DATA     BIT       IT0
      000000FBH   SFRSYM    DATA     BYTE      DATA2
      0000008DH   SFRSYM    DATA     BYTE      TH1
      000000A8H.2 SFRSYM    DATA     BIT       EX1
      00000091H   SFRSYM    DATA     BYTE      CAN_IR
      000000CDH   SFRSYM    DATA     BYTE      TH2
      00000088H.2 SFRSYM    DATA     BIT       IT1
      000000FAH   SFRSYM    DATA     BYTE      DATA3
      000000D0H.0 SFRSYM    DATA     BIT       P
      00000098H.7 SFRSYM    DATA     BIT       SM0
      0000008AH   SFRSYM    DATA     BYTE      TL0
      00000098H.6 SFRSYM    DATA     BIT       SM1
      0000008BH   SFRSYM    DATA     BYTE      TL1
      00000098H.5 SFRSYM    DATA     BIT       SM2
      000000CCH   SFRSYM    DATA     BYTE      TL2
      000000A0H.7 SFRSYM    DATA     BIT       UV_St
      000000D0H.3 SFRSYM    DATA     BIT       RS0
      000000F8H.6 SFRSYM    DATA     BIT       APP_EN
      000000D0H.4 SFRSYM    DATA     BIT       RS1
      00000088H.4 SFRSYM    DATA     BIT       TR0
      00000088H.6 SFRSYM    DATA     BIT       TR1
      00000093H   SFRSYM    DATA     BYTE      DPC
      000000C8H.0 SFRSYM    DATA     BIT       TR2
      000000E5H   SFRSYM    DATA     BYTE      MAC_MODE
      00000083H   SFRSYM    DATA     BYTE      DPH
      00000082H   SFRSYM    DATA     BYTE      DPL
      00000099H   SFRSYM    DATA     BYTE      SBUF0
      0000009CH   SFRSYM    DATA     BYTE      SBUF1
      00000098H   SFRSYM    DATA     BYTE      SCON0
      0000009BH   SFRSYM    DATA     BYTE      SCON1
      000000D8H   SFRSYM    DATA     BYTE      ADCON
      000000C8H   SFRSYM    DATA     BYTE      T2CON
      000000E6H   SFRSYM    DATA     BYTE      DIV_MODE
      000000F8H.5 SFRSYM    DATA     BIT       APP_RW
      000000CBH   SFRSYM    DATA     BYTE      TRL2H
      0000009FH   SFRSYM    DATA     BYTE      SBUF2_RX
      000000ADH   SFRSYM    DATA     BYTE      SBUF3_RX
      0000008EH   SFRSYM    DATA     BYTE      CKCON
      0000009EH   SFRSYM    DATA     BYTE      SBUF2_TX
      000000ACH   SFRSYM    DATA     BYTE      SBUF3_TX
      000000CAH   SFRSYM    DATA     BYTE      TRL2L
      000000D0H.5 SFRSYM    DATA     BIT       F0
      000000FEH   SFRSYM    DATA     BYTE      EXADR
LX51 LINKER/LOCATER V4.66.93.0                                                        04/30/2025  17:32:03  PAGE 83


      000000D0H.1 SFRSYM    DATA     BIT       F1
      000000A0H.3 SFRSYM    DATA     BIT       LED_B
      000000D0H   SFRSYM    DATA     BYTE      PSW
      000000A0H.1 SFRSYM    DATA     BIT       LED_G
      000000C0H   SFRSYM    DATA     BYTE      IRCON
      00000098H.2 SFRSYM    DATA     BIT       RB80

      ---         MODULE    ---      ---       LJ
      00000098H.3 SFRSYM    DATA     BIT       TB80
      000000F1H   SFRSYM    DATA     BYTE      ADR_H
      00000080H   SFRSYM    DATA     BYTE      P0
      00000090H   SFRSYM    DATA     BYTE      P1
      000000A0H   SFRSYM    DATA     BYTE      P2
      000000B0H   SFRSYM    DATA     BYTE      P3
      000000D0H.6 SFRSYM    DATA     BIT       AC
      000000F3H   SFRSYM    DATA     BYTE      ADR_L
      00000094H   SFRSYM    DATA     BYTE      PAGESEL
      000000F2H   SFRSYM    DATA     BYTE      ADR_M
      000000A8H.7 SFRSYM    DATA     BIT       EA
      000000A0H.5 SFRSYM    DATA     BIT       JIGUANG
      00000090H.7 SFRSYM    DATA     BIT       LED_R
      000000F8H   SFRSYM    DATA     BYTE      RAMMODE
      000000B7H   SFRSYM    DATA     BYTE      P0MDOUT
      000000A8H   SFRSYM    DATA     BYTE      IEN0
      000000BCH   SFRSYM    DATA     BYTE      P1MDOUT
      000000B8H   SFRSYM    DATA     BYTE      IEN1
      000000BDH   SFRSYM    DATA     BYTE      P2MDOUT
      000000F8H.0 SFRSYM    DATA     BIT       APP_DATA0
      0000009AH   SFRSYM    DATA     BYTE      IEN2
      000000BEH   SFRSYM    DATA     BYTE      P3MDOUT
      000000F8H.1 SFRSYM    DATA     BIT       APP_DATA1
      000000D1H   SFRSYM    DATA     BYTE      IEN3
      00000080H.0 SFRSYM    DATA     BIT       P0_0
      000000F8H.2 SFRSYM    DATA     BIT       APP_DATA2
      00000090H.0 SFRSYM    DATA     BIT       P1_0
      000000F8H.3 SFRSYM    DATA     BIT       APP_DATA3
      00000090H.1 SFRSYM    DATA     BIT       P1_1
      000000F8H.4 SFRSYM    DATA     BIT       APP_ACK
      000000F4H   SFRSYM    DATA     BYTE      ADR_INC
      000000B0H.1 SFRSYM    DATA     BIT       P3_1
      00000098H.4 SFRSYM    DATA     BIT       REN0
      000000B8H.1 SFRSYM    DATA     BIT       ECAN
      000000D0H.7 SFRSYM    DATA     BIT       CY
      000000B8H.3 SFRSYM    DATA     BIT       ES2R
      000000B8H.5 SFRSYM    DATA     BIT       ES3R
      000000B8H.2 SFRSYM    DATA     BIT       ES2T
      000000B8H.4 SFRSYM    DATA     BIT       ES3T
      000000C8H.7 SFRSYM    DATA     BIT       TSF2
      000000B0H.3 SFRSYM    DATA     BIT       RTC_SDA
      00000081H   SFRSYM    DATA     BYTE      SP
      000000D0H.2 SFRSYM    DATA     BIT       OV
      00000095H   SFRSYM    DATA     BYTE      D_PAGESEL
      00000090H.5 SFRSYM    DATA     BIT       UV
      000000F8H.7 SFRSYM    DATA     BIT       APP_REQ
      000000B0H.2 SFRSYM    DATA     BIT       RTC_SCL
      000000BFH   SFRSYM    DATA     BYTE      IRCON2
      000000BAH   SFRSYM    DATA     BYTE      SREL0H
      000000BBH   SFRSYM    DATA     BYTE      SREL1H
      00000087H   SFRSYM    DATA     BYTE      PCON
      000000AAH   SFRSYM    DATA     BYTE      SREL0L
      000000F9H   SFRSYM    DATA     BYTE      PORTDRV
      0000009DH   SFRSYM    DATA     BYTE      SREL1L
      00000089H   SFRSYM    DATA     BYTE      TMOD
      00000088H   SFRSYM    DATA     BYTE      TCON
      00000097H   SFRSYM    DATA     BYTE      SCON2R
LX51 LINKER/LOCATER V4.66.93.0                                                        04/30/2025  17:32:03  PAGE 84


      000000FFH   SFRSYM    DATA     BYTE      EXDATA
      000000ABH   SFRSYM    DATA     BYTE      SCON3R
      000000D9H   SFRSYM    DATA     BYTE      BODE2_DIV_H
      000000AEH   SFRSYM    DATA     BYTE      BODE3_DIV_H
      00000096H   SFRSYM    DATA     BYTE      SCON2T
      000000A7H   SFRSYM    DATA     BYTE      SCON3T
      000000E7H   SFRSYM    DATA     BYTE      BODE2_DIV_L
      00000088H.1 SFRSYM    DATA     BIT       IE0
      000000AFH   SFRSYM    DATA     BYTE      BODE3_DIV_L
      00000088H.3 SFRSYM    DATA     BIT       IE1
      000000C9H   SFRSYM    DATA     BYTE      MUX_SEL
      000000F0H   SFRSYM    DATA     BYTE      B
      000000E0H   SFRSYM    DATA     BYTE      ACC
      000000A8H.4 SFRSYM    DATA     BIT       ES0
      0000008FH   SFRSYM    DATA     BYTE      CAN_CR
      000000A8H.1 SFRSYM    DATA     BIT       ET0
      000000A9H   SFRSYM    DATA     BYTE      IP0
      000000A8H.3 SFRSYM    DATA     BIT       ET1
      00000088H.5 SFRSYM    DATA     BIT       TF0
      000000B9H   SFRSYM    DATA     BYTE      IP1
      000000A8H.5 SFRSYM    DATA     BIT       ET2
      00000098H.0 SFRSYM    DATA     BIT       RI0
      00000088H.7 SFRSYM    DATA     BIT       TF1
      000000FDH   SFRSYM    DATA     BYTE      DATA0
      000000C0H.6 SFRSYM    DATA     BIT       TF2
      000000E8H   SFRSYM    DATA     BYTE      CAN_ET
      000000FCH   SFRSYM    DATA     BYTE      DATA1
      0000008CH   SFRSYM    DATA     BYTE      TH0
      000000A8H.0 SFRSYM    DATA     BIT       EX0
      00000098H.1 SFRSYM    DATA     BIT       TI0
      00000088H.0 SFRSYM    DATA     BIT       IT0
      000000FBH   SFRSYM    DATA     BYTE      DATA2
      0000008DH   SFRSYM    DATA     BYTE      TH1
      000000A8H.2 SFRSYM    DATA     BIT       EX1
      00000091H   SFRSYM    DATA     BYTE      CAN_IR
      000000CDH   SFRSYM    DATA     BYTE      TH2
      00000088H.2 SFRSYM    DATA     BIT       IT1
      000000FAH   SFRSYM    DATA     BYTE      DATA3
      000000D0H.0 SFRSYM    DATA     BIT       P
      00000098H.7 SFRSYM    DATA     BIT       SM0
      0000008AH   SFRSYM    DATA     BYTE      TL0
      00000098H.6 SFRSYM    DATA     BIT       SM1
      0000008BH   SFRSYM    DATA     BYTE      TL1
      00000098H.5 SFRSYM    DATA     BIT       SM2
      000000CCH   SFRSYM    DATA     BYTE      TL2
      000000A0H.7 SFRSYM    DATA     BIT       UV_St
      000000D0H.3 SFRSYM    DATA     BIT       RS0
      000000F8H.6 SFRSYM    DATA     BIT       APP_EN
      000000D0H.4 SFRSYM    DATA     BIT       RS1
      00000088H.4 SFRSYM    DATA     BIT       TR0
      00000088H.6 SFRSYM    DATA     BIT       TR1
      00000093H   SFRSYM    DATA     BYTE      DPC
      000000C8H.0 SFRSYM    DATA     BIT       TR2
      000000E5H   SFRSYM    DATA     BYTE      MAC_MODE
      00000083H   SFRSYM    DATA     BYTE      DPH
      00000082H   SFRSYM    DATA     BYTE      DPL
      00000099H   SFRSYM    DATA     BYTE      SBUF0
      0000009CH   SFRSYM    DATA     BYTE      SBUF1
      00000098H   SFRSYM    DATA     BYTE      SCON0
      0000009BH   SFRSYM    DATA     BYTE      SCON1
      000000D8H   SFRSYM    DATA     BYTE      ADCON
      000000C8H   SFRSYM    DATA     BYTE      T2CON
      000000E6H   SFRSYM    DATA     BYTE      DIV_MODE
      000000F8H.5 SFRSYM    DATA     BIT       APP_RW
      000000CBH   SFRSYM    DATA     BYTE      TRL2H
LX51 LINKER/LOCATER V4.66.93.0                                                        04/30/2025  17:32:03  PAGE 85


      0000009FH   SFRSYM    DATA     BYTE      SBUF2_RX
      000000ADH   SFRSYM    DATA     BYTE      SBUF3_RX
      0000008EH   SFRSYM    DATA     BYTE      CKCON
      0000009EH   SFRSYM    DATA     BYTE      SBUF2_TX
      000000ACH   SFRSYM    DATA     BYTE      SBUF3_TX
      000000CAH   SFRSYM    DATA     BYTE      TRL2L
      000000D0H.5 SFRSYM    DATA     BIT       F0
      000000FEH   SFRSYM    DATA     BYTE      EXADR
      000000D0H.1 SFRSYM    DATA     BIT       F1
      000000A0H.3 SFRSYM    DATA     BIT       LED_B
      000000D0H   SFRSYM    DATA     BYTE      PSW
      000000A0H.1 SFRSYM    DATA     BIT       LED_G
      000000C0H   SFRSYM    DATA     BYTE      IRCON
      00000098H.2 SFRSYM    DATA     BIT       RB80

      ---         MODULE    ---      ---       SZ
      00000098H.3 SFRSYM    DATA     BIT       TB80
      000000F1H   SFRSYM    DATA     BYTE      ADR_H
      00000080H   SFRSYM    DATA     BYTE      P0
      00000090H   SFRSYM    DATA     BYTE      P1
      000000A0H   SFRSYM    DATA     BYTE      P2
      000000B0H   SFRSYM    DATA     BYTE      P3
      000000D0H.6 SFRSYM    DATA     BIT       AC
      000000F3H   SFRSYM    DATA     BYTE      ADR_L
      00000094H   SFRSYM    DATA     BYTE      PAGESEL
      000000F2H   SFRSYM    DATA     BYTE      ADR_M
      000000A8H.7 SFRSYM    DATA     BIT       EA
      000000A0H.5 SFRSYM    DATA     BIT       JIGUANG
      00000090H.7 SFRSYM    DATA     BIT       LED_R
      000000F8H   SFRSYM    DATA     BYTE      RAMMODE
      000000B7H   SFRSYM    DATA     BYTE      P0MDOUT
      000000A8H   SFRSYM    DATA     BYTE      IEN0
      000000BCH   SFRSYM    DATA     BYTE      P1MDOUT
      000000B8H   SFRSYM    DATA     BYTE      IEN1
      000000BDH   SFRSYM    DATA     BYTE      P2MDOUT
      000000F8H.0 SFRSYM    DATA     BIT       APP_DATA0
      0000009AH   SFRSYM    DATA     BYTE      IEN2
      000000BEH   SFRSYM    DATA     BYTE      P3MDOUT
      000000F8H.1 SFRSYM    DATA     BIT       APP_DATA1
      000000D1H   SFRSYM    DATA     BYTE      IEN3
      00000080H.0 SFRSYM    DATA     BIT       P0_0
      000000F8H.2 SFRSYM    DATA     BIT       APP_DATA2
      00000090H.0 SFRSYM    DATA     BIT       P1_0
      000000F8H.3 SFRSYM    DATA     BIT       APP_DATA3
      00000090H.1 SFRSYM    DATA     BIT       P1_1
      000000F8H.4 SFRSYM    DATA     BIT       APP_ACK
      000000F4H   SFRSYM    DATA     BYTE      ADR_INC
      000000B0H.1 SFRSYM    DATA     BIT       P3_1
      00000098H.4 SFRSYM    DATA     BIT       REN0
      000000B8H.1 SFRSYM    DATA     BIT       ECAN
      000000D0H.7 SFRSYM    DATA     BIT       CY
      000000B8H.3 SFRSYM    DATA     BIT       ES2R
      000000B8H.5 SFRSYM    DATA     BIT       ES3R
      000000B8H.2 SFRSYM    DATA     BIT       ES2T
      000000B8H.4 SFRSYM    DATA     BIT       ES3T
      000000C8H.7 SFRSYM    DATA     BIT       TSF2
      000000B0H.3 SFRSYM    DATA     BIT       RTC_SDA
      00000081H   SFRSYM    DATA     BYTE      SP
      000000D0H.2 SFRSYM    DATA     BIT       OV
      00000095H   SFRSYM    DATA     BYTE      D_PAGESEL
      00000090H.5 SFRSYM    DATA     BIT       UV
      000000F8H.7 SFRSYM    DATA     BIT       APP_REQ
      000000B0H.2 SFRSYM    DATA     BIT       RTC_SCL
      000000BFH   SFRSYM    DATA     BYTE      IRCON2
      000000BAH   SFRSYM    DATA     BYTE      SREL0H
LX51 LINKER/LOCATER V4.66.93.0                                                        04/30/2025  17:32:03  PAGE 86


      000000BBH   SFRSYM    DATA     BYTE      SREL1H
      00000087H   SFRSYM    DATA     BYTE      PCON
      000000AAH   SFRSYM    DATA     BYTE      SREL0L
      000000F9H   SFRSYM    DATA     BYTE      PORTDRV
      0000009DH   SFRSYM    DATA     BYTE      SREL1L
      00000089H   SFRSYM    DATA     BYTE      TMOD
      00000088H   SFRSYM    DATA     BYTE      TCON
      00000097H   SFRSYM    DATA     BYTE      SCON2R
      000000FFH   SFRSYM    DATA     BYTE      EXDATA
      000000ABH   SFRSYM    DATA     BYTE      SCON3R
      000000D9H   SFRSYM    DATA     BYTE      BODE2_DIV_H
      000000AEH   SFRSYM    DATA     BYTE      BODE3_DIV_H
      00000096H   SFRSYM    DATA     BYTE      SCON2T
      000000A7H   SFRSYM    DATA     BYTE      SCON3T
      000000E7H   SFRSYM    DATA     BYTE      BODE2_DIV_L
      00000088H.1 SFRSYM    DATA     BIT       IE0
      000000AFH   SFRSYM    DATA     BYTE      BODE3_DIV_L
      00000088H.3 SFRSYM    DATA     BIT       IE1
      000000C9H   SFRSYM    DATA     BYTE      MUX_SEL
      000000F0H   SFRSYM    DATA     BYTE      B
      000000E0H   SFRSYM    DATA     BYTE      ACC
      000000A8H.4 SFRSYM    DATA     BIT       ES0
      0000008FH   SFRSYM    DATA     BYTE      CAN_CR
      000000A8H.1 SFRSYM    DATA     BIT       ET0
      000000A9H   SFRSYM    DATA     BYTE      IP0
      000000A8H.3 SFRSYM    DATA     BIT       ET1
      00000088H.5 SFRSYM    DATA     BIT       TF0
      000000B9H   SFRSYM    DATA     BYTE      IP1
      000000A8H.5 SFRSYM    DATA     BIT       ET2
      00000098H.0 SFRSYM    DATA     BIT       RI0
      00000088H.7 SFRSYM    DATA     BIT       TF1
      000000FDH   SFRSYM    DATA     BYTE      DATA0
      000000C0H.6 SFRSYM    DATA     BIT       TF2
      000000E8H   SFRSYM    DATA     BYTE      CAN_ET
      000000FCH   SFRSYM    DATA     BYTE      DATA1
      0000008CH   SFRSYM    DATA     BYTE      TH0
      000000A8H.0 SFRSYM    DATA     BIT       EX0
      00000098H.1 SFRSYM    DATA     BIT       TI0
      00000088H.0 SFRSYM    DATA     BIT       IT0
      000000FBH   SFRSYM    DATA     BYTE      DATA2
      0000008DH   SFRSYM    DATA     BYTE      TH1
      000000A8H.2 SFRSYM    DATA     BIT       EX1
      00000091H   SFRSYM    DATA     BYTE      CAN_IR
      000000CDH   SFRSYM    DATA     BYTE      TH2
      00000088H.2 SFRSYM    DATA     BIT       IT1
      000000FAH   SFRSYM    DATA     BYTE      DATA3
      000000D0H.0 SFRSYM    DATA     BIT       P
      00000098H.7 SFRSYM    DATA     BIT       SM0
      0000008AH   SFRSYM    DATA     BYTE      TL0
      00000098H.6 SFRSYM    DATA     BIT       SM1
      0000008BH   SFRSYM    DATA     BYTE      TL1
      00000098H.5 SFRSYM    DATA     BIT       SM2
      000000CCH   SFRSYM    DATA     BYTE      TL2
      000000A0H.7 SFRSYM    DATA     BIT       UV_St
      000000D0H.3 SFRSYM    DATA     BIT       RS0
      000000F8H.6 SFRSYM    DATA     BIT       APP_EN
      000000D0H.4 SFRSYM    DATA     BIT       RS1
      00000088H.4 SFRSYM    DATA     BIT       TR0
      00000088H.6 SFRSYM    DATA     BIT       TR1
      00000093H   SFRSYM    DATA     BYTE      DPC
      000000C8H.0 SFRSYM    DATA     BIT       TR2
      000000E5H   SFRSYM    DATA     BYTE      MAC_MODE
      00000083H   SFRSYM    DATA     BYTE      DPH
      00000082H   SFRSYM    DATA     BYTE      DPL
      00000099H   SFRSYM    DATA     BYTE      SBUF0
LX51 LINKER/LOCATER V4.66.93.0                                                        04/30/2025  17:32:03  PAGE 87


      0000009CH   SFRSYM    DATA     BYTE      SBUF1
      00000098H   SFRSYM    DATA     BYTE      SCON0
      0000009BH   SFRSYM    DATA     BYTE      SCON1
      000000D8H   SFRSYM    DATA     BYTE      ADCON
      000000C8H   SFRSYM    DATA     BYTE      T2CON
      000000E6H   SFRSYM    DATA     BYTE      DIV_MODE
      000000F8H.5 SFRSYM    DATA     BIT       APP_RW
      000000CBH   SFRSYM    DATA     BYTE      TRL2H
      0000009FH   SFRSYM    DATA     BYTE      SBUF2_RX
      000000ADH   SFRSYM    DATA     BYTE      SBUF3_RX
      0000008EH   SFRSYM    DATA     BYTE      CKCON
      0000009EH   SFRSYM    DATA     BYTE      SBUF2_TX
      000000ACH   SFRSYM    DATA     BYTE      SBUF3_TX
      000000CAH   SFRSYM    DATA     BYTE      TRL2L
      000000D0H.5 SFRSYM    DATA     BIT       F0
      000000FEH   SFRSYM    DATA     BYTE      EXADR
      000000D0H.1 SFRSYM    DATA     BIT       F1
      000000A0H.3 SFRSYM    DATA     BIT       LED_B
      000000D0H   SFRSYM    DATA     BYTE      PSW
      000000A0H.1 SFRSYM    DATA     BIT       LED_G
      000000C0H   SFRSYM    DATA     BYTE      IRCON
      00000098H.2 SFRSYM    DATA     BIT       RB80

      ---         MODULE    ---      ---       ?C?FPADD
      01000107H   PUBLIC    CODE     ---       ?C?FPADD
      01000103H   PUBLIC    CODE     ---       ?C?FPSUB

      ---         MODULE    ---      ---       ?C?FPMUL
      010001F8H   PUBLIC    CODE     ---       ?C?FPMUL

      ---         MODULE    ---      ---       ?C?FPDIV
      01000301H   PUBLIC    CODE     ---       ?C?FPDIV

      ---         MODULE    ---      ---       ?C?FPCMP
      010003A0H   PUBLIC    CODE     ---       ?C?FPCMP
      0100039EH   PUBLIC    CODE     ---       ?C?FPCMP3

      ---         MODULE    ---      ---       ?C?FCAST
      01000421H   PUBLIC    CODE     ---       ?C?FCASTC
      0100041CH   PUBLIC    CODE     ---       ?C?FCASTI
      01000417H   PUBLIC    CODE     ---       ?C?FCASTL

      ---         MODULE    ---      ---       ?C?CASTF
      01000455H   PUBLIC    CODE     ---       ?C?CASTF

      ---         MODULE    ---      ---       POW
      0200A48AH   PUBLIC    XDATA    ---       ?_POW?BYTE
      01002070H   PUBLIC    CODE     ---       _POW

      ---         MODULE    ---      ---       ?C?FPGETOPN
      0100048CH   PUBLIC    CODE     ---       ?C?FPGETOPN2
      010004C1H   PUBLIC    CODE     ---       ?C?FPNANRESULT
      010004CBH   PUBLIC    CODE     ---       ?C?FPOVERFLOW
      010004A3H   PUBLIC    CODE     ---       ?C?FPRESULT
      010004B7H   PUBLIC    CODE     ---       ?C?FPRESULT2
      010004C8H   PUBLIC    CODE     ---       ?C?FPUNDERFLOW

      ---         MODULE    ---      ---       ?C?CHKFLOAT
      010004D6H   PUBLIC    CODE     ---       ?C?CHKFLOAT

      ---         MODULE    ---      ---       ?C?FPNEG
      010004F0H   PUBLIC    CODE     ---       ?C?FPNEG

      ---         MODULE    ---      ---       EXP
      01002C26H   PUBLIC    CODE     ---       _EXP
LX51 LINKER/LOCATER V4.66.93.0                                                        04/30/2025  17:32:03  PAGE 88



      ---         MODULE    ---      ---       LOG
      0100249AH   PUBLIC    CODE     ---       _LOG
      01002496H   PUBLIC    CODE     ---       _LOG10

      ---         MODULE    ---      ---       ?C?FPSERIES
      01000501H   PUBLIC    CODE     ---       ?C?FP2SERIES
      01000510H   PUBLIC    CODE     ---       ?C?FPSERIES

      ---         MODULE    ---      ---       ?C_INIT
      01002BA9H   PUBLIC    CODE     ---       ?C_START

      ---         MODULE    ---      ---       ?C?COPY
      0100061EH   PUBLIC    CODE     ---       ?C?COPY

      ---         MODULE    ---      ---       ?C?CLDPTR
      01000644H   PUBLIC    CODE     ---       ?C?CLDPTR

      ---         MODULE    ---      ---       ?C?CLDOPTR
      0100065DH   PUBLIC    CODE     ---       ?C?CLDOPTR

      ---         MODULE    ---      ---       ?C?CSTPTR
      0100068AH   PUBLIC    CODE     ---       ?C?CSTPTR

      ---         MODULE    ---      ---       ?C?CSTOPTR
      0100069CH   PUBLIC    CODE     ---       ?C?CSTOPTR

      ---         MODULE    ---      ---       ?C?IMUL
      010006BEH   PUBLIC    CODE     ---       ?C?IMUL

      ---         MODULE    ---      ---       ?C?UIDIV
      010006D0H   PUBLIC    CODE     ---       ?C?UIDIV

      ---         MODULE    ---      ---       ?C?SIDIV
      01000725H   PUBLIC    CODE     ---       ?C?SIDIV

      ---         MODULE    ---      ---       ?C?IILDX
      0100075BH   PUBLIC    CODE     ---       ?C?IILDX

      ---         MODULE    ---      ---       ?C?ILDIX
      01000771H   PUBLIC    CODE     ---       ?C?ILDIX

      ---         MODULE    ---      ---       ?C?ISTPTR
      01000787H   PUBLIC    CODE     ---       ?C?ISTPTR

      ---         MODULE    ---      ---       ?C?ULDIV
      010007E2H   PUBLIC    CODE     ---       ?C?ULDIV

      ---         MODULE    ---      ---       ?C?LNEG
      01000874H   PUBLIC    CODE     ---       ?C?LNEG

      ---         MODULE    ---      ---       ?C?ULCMP
      01000882H   PUBLIC    CODE     ---       ?C?ULCMP

      ---         MODULE    ---      ---       ?C?LSHL
      01000893H   PUBLIC    CODE     ---       ?C?LSHL

      ---         MODULE    ---      ---       ?C?LLDCODE
      010008A6H   PUBLIC    CODE     ---       ?C?LLDCODE

      ---         MODULE    ---      ---       ?C?LLDXDATA0
      010008B6H   PUBLIC    CODE     ---       ?C?LLDXDATA0

      ---         MODULE    ---      ---       ?C?LLDCODE0
      010008C2H   PUBLIC    CODE     ---       ?C?LLDCODE0
LX51 LINKER/LOCATER V4.66.93.0                                                        04/30/2025  17:32:03  PAGE 89



      ---         MODULE    ---      ---       ?C?LSTXDATA
      010008D2H   PUBLIC    CODE     ---       ?C?LSTXDATA

      ---         MODULE    ---      ---       ?C?LSTKXDATA
      010008DEH   PUBLIC    CODE     ---       ?C?LSTKXDATA

      ---         MODULE    ---      ---       ?C?ICALL
      0100090FH   PUBLIC    CODE     ---       ?C?ICALL
      01000913H   PUBLIC    CODE     ---       ?C?ICALL2

      ---         MODULE    ---      ---       ?C?MEMSET
      01000915H   PUBLIC    CODE     ---       ?C?MEMSET



*** WARNING L48: IGNORED RECURSIVE CALL
    CALLED:  _RX8130_WRIT_BYTE/I2C
    CALLER:  RX8130_STOP/I2C

*** WARNING L57: UNCALLED FUNCTION, IGNORED FOR OVERLAY PROCESS
    NAME:    UART3INIT/UART

*** WARNING L57: UNCALLED FUNCTION, IGNORED FOR OVERLAY PROCESS
    NAME:    _UART3SENDSTR/UART

*** WARNING L57: UNCALLED FUNCTION, IGNORED FOR OVERLAY PROCESS
    NAME:    _UART5SENDSTR/UART

*** WARNING L57: UNCALLED FUNCTION, IGNORED FOR OVERLAY PROCESS
    NAME:    _SETBLIGHT/HANDLE

*** WARNING L57: UNCALLED FUNCTION, IGNORED FOR OVERLAY PROCESS
    NAME:    _SETVOICE/HANDLE

*** WARNING L57: UNCALLED FUNCTION, IGNORED FOR OVERLAY PROCESS
    NAME:    INITUARTSEND/HANDLE

*** WARNING L57: UNCALLED FUNCTION, IGNORED FOR OVERLAY PROCESS
    NAME:    _JUMPPAGE/HANDLE

*** WARNING L57: UNCALLED FUNCTION, IGNORED FOR OVERLAY PROCESS
    NAME:    START_WIN_INIT/START_WIN

*** WARNING L57: UNCALLED FUNCTION, IGNORED FOR OVERLAY PROCESS
    NAME:    _DRAW_CHART/START_WIN

*** WARNING L57: UNCALLED FUNCTION, IGNORED FOR OVERLAY PROCESS
    NAME:    QRJ_INIT/QRJ

Program Size: data=9.1 xdata=9507 const=128 code=13823
LX51 RUN COMPLETE.  11 WARNING(S),  0 ERROR(S)
